

Microchip Technology PIC LITE Macro Assembler V2.00 build -1524193055 
                                                                                               Wed Oct 16 18:46:42 2019

Microchip Technology Omniscient Code Generator v2.00 (Free mode) build 20180527130849
     1  0000                     
      + 0000                     
     2                           ; Version 2.00
     3                           ; Generated 27/05/2018 GMT
     4                           
     5                           ; 
     6                           ; Copyright © 2018, Microchip Technology Inc. and its subsidiaries ("Microchip")
     7                           ; All rights reserved.
     8                           ; 
     9                           ; This software is developed by Microchip Technology Inc. and its subsidiaries ("Microch
                                 ip").
    10                           ; 
    11                           ; Redistribution and use in source and binary forms, with or without modification, are
    12                           ; permitted provided that the following conditions are met:
    13                           ; 
    14                           ;     1. Redistributions of source code must retain the above copyright notice, this lis
                                 t of
    15                           ;        conditions and the following disclaimer.
    16                           ; 
    17                           ;     2. Redistributions in binary form must reproduce the above copyright notice, this 
                                 list
    18                           ;        of conditions and the following disclaimer in the documentation and/or other
    19                           ;        materials provided with the distribution.
    20                           ; 
    21                           ;     3. Microchip's name may not be used to endorse or promote products derived from th
                                 is
    22                           ;        software without specific prior written permission.
    23                           ; 
    24                           ; THIS SOFTWARE IS PROVIDED BY MICROCHIP "AS IS" AND ANY EXPRESS OR IMPLIED WARRANTIES,

    25                           ; INCLUDING, BUT NOT LIMITED TO, THE IMPLIED WARRANTIES OF MERCHANTABILITY AND FITNESS F
                                 OR
    26                           ; PURPOSE ARE DISCLAIMED.  IN NO EVENT SHALL MICROCHIP BE LIABLE FOR ANY DIRECT, INDIREC
                                 T,
    27                           ; INCIDENTAL, SPECIAL, EXEMPLARY, OR CONSEQUENTIAL DAMAGES (INCLUDING BUT NOT LIMITED TO
                                 
    28                           ; PROCUREMENT OF SUBSTITUTE GOODS OR SERVICES; LOSS OF USE, DATA OR PROFITS; OR BUSINESS
                                 
    29                           ; INTERRUPTION) HOWSOEVER CAUSED AND ON ANY THEORY OF LIABILITY, WHETHER IN CONTRACT, ST
                                 RICT
    30                           ; LIABILITY, OR TORT (INCLUDING NEGLIGENCE OR OTHERWISE) ARISING IN ANY WAY OUT OF THE U
                                 SE OF
    31                           ; THIS SOFTWARE, EVEN IF ADVISED OF THE POSSIBILITY OF SUCH DAMAGE.
    32                           ; 
    33                           
    34                           
    35                           ; 
    36                           ; Code-generator required, PIC16F877A Definitions
    37                           ; 
    38  0004                     fsr0 equ 04h
    39  0004                     indf equ 00h
    40  0000                     indf0 equ 00h
    41  0000                     pc equ 02h
    42  0002                     pcl equ 02h
    43  0002                     pclath equ 0Ah
    44  000A                     status equ 03h
    45  0003                     
     2                           opt pagewidth 120
     3  0000                     byte0	macro	val
     4                           	(getbyte(val,0))
     5                           endm
     6  0000                     byte1	macro	val
     7                           	(getbyte(val,1))
     8                           endm
     9  0000                     byte2	macro	val
    10                           	(getbyte(val,2))
    11                           endm
    12  0000                     byte3	macro	val
    13                           	(getbyte(val,3))
    14                           endm
    15  0000                     byte4	macro	val
    16                           	(getbyte(val,4))
    17                           endm
    18  0000                     byte5	macro	val
    19                           	(getbyte(val,5))
    20                           endm
    21  0000                     byte6	macro	val
    22                           	(getbyte(val,6))
    23                           endm
    24  0000                     byte7	macro	val
    25                           	(getbyte(val,7))
    26                           endm
    27  0000                     getword	macro	val,pos
    28                           	(((val) >> (8 * pos)) and 0xffff)
    29                           endm
    30  0000                     word0	macro	val
    31                           	(getword(val,0))
    32                           endm
    33  0000                     word1	macro	val
    34                           	(getword(val,2))
    35                           endm
    36  0000                     word2	macro	val
    37                           	(getword(val,4))
    38                           endm
    39  0000                     word3	macro	val
    40                           	(getword(val,6))
    41                           endm
    42  0000                     gettword	macro	val,pos
    43                           	(((val) >> (8 * pos)) and 0xffffff)
    44                           endm
    45  0000                     tword0	macro	val
    46                           	(gettword(val,0))
    47                           endm
    48  0000                     tword1	macro	val
    49                           	(gettword(val,3))
    50                           endm
    51  0000                     tword2	macro	val
    52                           	(gettword(val,6))
    53                           endm
    54  0000                     getdword	macro	val,pos
    55                           	(((val) >> (8 * pos)) and 0xffffffff)
    56                           endm
    57  0000                     dword0	macro	val
    58                           	(getdword(val,0))
    59                           endm
    60  0000                     dword1	macro	val
    61                           	(getdword(val,4))
    62                           endm
    63  0000                     clrc	macro
    64                           	bcf	3,0
    65                           	endm
    66  0000                     clrz	macro
    67                           	bcf	3,2
    68                           	endm
    69  0000                     setc	macro
    70                           	bsf	3,0
    71                           	endm
    72  0000                     setz	macro
    73                           	bsf	3,2
    74                           	endm
    75  0000                     skipc	macro
    76                           	btfss	3,0
    77                           	endm
    78  0000                     skipz	macro
    79                           	btfss	3,2
    80                           	endm
    81  0000                     skipnc	macro
    82                           	btfsc	3,0
    83                           	endm
    84  0000                     skipnz	macro
    85                           	btfsc	3,2
    86                           	endm
    87  0000                     # 54 "C:\Program Files (x86)\Microchip\xc8\v2.00\pic\include\pic16f877a.h"
    88                           INDF equ 00h ;# 
    89  0000                     # 61 "C:\Program Files (x86)\Microchip\xc8\v2.00\pic\include\pic16f877a.h"
    90                           TMR0 equ 01h ;# 
    91  0001                     # 68 "C:\Program Files (x86)\Microchip\xc8\v2.00\pic\include\pic16f877a.h"
    92                           PCL equ 02h ;# 
    93  0002                     # 75 "C:\Program Files (x86)\Microchip\xc8\v2.00\pic\include\pic16f877a.h"
    94                           STATUS equ 03h ;# 
    95  0003                     # 161 "C:\Program Files (x86)\Microchip\xc8\v2.00\pic\include\pic16f877a.h"
    96                           FSR equ 04h ;# 
    97  0004                     # 168 "C:\Program Files (x86)\Microchip\xc8\v2.00\pic\include\pic16f877a.h"
    98                           PORTA equ 05h ;# 
    99  0005                     # 218 "C:\Program Files (x86)\Microchip\xc8\v2.00\pic\include\pic16f877a.h"
   100                           PORTB equ 06h ;# 
   101  0006                     # 280 "C:\Program Files (x86)\Microchip\xc8\v2.00\pic\include\pic16f877a.h"
   102                           PORTC equ 07h ;# 
   103  0007                     # 342 "C:\Program Files (x86)\Microchip\xc8\v2.00\pic\include\pic16f877a.h"
   104                           PORTD equ 08h ;# 
   105  0008                     # 404 "C:\Program Files (x86)\Microchip\xc8\v2.00\pic\include\pic16f877a.h"
   106                           PORTE equ 09h ;# 
   107  0009                     # 436 "C:\Program Files (x86)\Microchip\xc8\v2.00\pic\include\pic16f877a.h"
   108                           PCLATH equ 0Ah ;# 
   109  000A                     # 456 "C:\Program Files (x86)\Microchip\xc8\v2.00\pic\include\pic16f877a.h"
   110                           INTCON equ 0Bh ;# 
   111  000B                     # 534 "C:\Program Files (x86)\Microchip\xc8\v2.00\pic\include\pic16f877a.h"
   112                           PIR1 equ 0Ch ;# 
   113  000C                     # 596 "C:\Program Files (x86)\Microchip\xc8\v2.00\pic\include\pic16f877a.h"
   114                           PIR2 equ 0Dh ;# 
   115  000D                     # 636 "C:\Program Files (x86)\Microchip\xc8\v2.00\pic\include\pic16f877a.h"
   116                           TMR1 equ 0Eh ;# 
   117  000E                     # 643 "C:\Program Files (x86)\Microchip\xc8\v2.00\pic\include\pic16f877a.h"
   118                           TMR1L equ 0Eh ;# 
   119  000E                     # 650 "C:\Program Files (x86)\Microchip\xc8\v2.00\pic\include\pic16f877a.h"
   120                           TMR1H equ 0Fh ;# 
   121  000F                     # 657 "C:\Program Files (x86)\Microchip\xc8\v2.00\pic\include\pic16f877a.h"
   122                           T1CON equ 010h ;# 
   123  0010                     # 732 "C:\Program Files (x86)\Microchip\xc8\v2.00\pic\include\pic16f877a.h"
   124                           TMR2 equ 011h ;# 
   125  0011                     # 739 "C:\Program Files (x86)\Microchip\xc8\v2.00\pic\include\pic16f877a.h"
   126                           T2CON equ 012h ;# 
   127  0012                     # 810 "C:\Program Files (x86)\Microchip\xc8\v2.00\pic\include\pic16f877a.h"
   128                           SSPBUF equ 013h ;# 
   129  0013                     # 817 "C:\Program Files (x86)\Microchip\xc8\v2.00\pic\include\pic16f877a.h"
   130                           SSPCON equ 014h ;# 
   131  0014                     # 887 "C:\Program Files (x86)\Microchip\xc8\v2.00\pic\include\pic16f877a.h"
   132                           CCPR1 equ 015h ;# 
   133  0015                     # 894 "C:\Program Files (x86)\Microchip\xc8\v2.00\pic\include\pic16f877a.h"
   134                           CCPR1L equ 015h ;# 
   135  0015                     # 901 "C:\Program Files (x86)\Microchip\xc8\v2.00\pic\include\pic16f877a.h"
   136                           CCPR1H equ 016h ;# 
   137  0016                     # 908 "C:\Program Files (x86)\Microchip\xc8\v2.00\pic\include\pic16f877a.h"
   138                           CCP1CON equ 017h ;# 
   139  0017                     # 966 "C:\Program Files (x86)\Microchip\xc8\v2.00\pic\include\pic16f877a.h"
   140                           RCSTA equ 018h ;# 
   141  0018                     # 1061 "C:\Program Files (x86)\Microchip\xc8\v2.00\pic\include\pic16f877a.h"
   142                           TXREG equ 019h ;# 
   143  0019                     # 1068 "C:\Program Files (x86)\Microchip\xc8\v2.00\pic\include\pic16f877a.h"
   144                           RCREG equ 01Ah ;# 
   145  001A                     # 1075 "C:\Program Files (x86)\Microchip\xc8\v2.00\pic\include\pic16f877a.h"
   146                           CCPR2 equ 01Bh ;# 
   147  001B                     # 1082 "C:\Program Files (x86)\Microchip\xc8\v2.00\pic\include\pic16f877a.h"
   148                           CCPR2L equ 01Bh ;# 
   149  001B                     # 1089 "C:\Program Files (x86)\Microchip\xc8\v2.00\pic\include\pic16f877a.h"
   150                           CCPR2H equ 01Ch ;# 
   151  001C                     # 1096 "C:\Program Files (x86)\Microchip\xc8\v2.00\pic\include\pic16f877a.h"
   152                           CCP2CON equ 01Dh ;# 
   153  001D                     # 1154 "C:\Program Files (x86)\Microchip\xc8\v2.00\pic\include\pic16f877a.h"
   154                           ADRESH equ 01Eh ;# 
   155  001E                     # 1161 "C:\Program Files (x86)\Microchip\xc8\v2.00\pic\include\pic16f877a.h"
   156                           ADCON0 equ 01Fh ;# 
   157  001F                     # 1257 "C:\Program Files (x86)\Microchip\xc8\v2.00\pic\include\pic16f877a.h"
   158                           OPTION_REG equ 081h ;# 
   159  0081                     # 1327 "C:\Program Files (x86)\Microchip\xc8\v2.00\pic\include\pic16f877a.h"
   160                           TRISA equ 085h ;# 
   161  0085                     # 1377 "C:\Program Files (x86)\Microchip\xc8\v2.00\pic\include\pic16f877a.h"
   162                           TRISB equ 086h ;# 
   163  0086                     # 1439 "C:\Program Files (x86)\Microchip\xc8\v2.00\pic\include\pic16f877a.h"
   164                           TRISC equ 087h ;# 
   165  0087                     # 1501 "C:\Program Files (x86)\Microchip\xc8\v2.00\pic\include\pic16f877a.h"
   166                           TRISD equ 088h ;# 
   167  0088                     # 1563 "C:\Program Files (x86)\Microchip\xc8\v2.00\pic\include\pic16f877a.h"
   168                           TRISE equ 089h ;# 
   169  0089                     # 1620 "C:\Program Files (x86)\Microchip\xc8\v2.00\pic\include\pic16f877a.h"
   170                           PIE1 equ 08Ch ;# 
   171  008C                     # 1682 "C:\Program Files (x86)\Microchip\xc8\v2.00\pic\include\pic16f877a.h"
   172                           PIE2 equ 08Dh ;# 
   173  008D                     # 1722 "C:\Program Files (x86)\Microchip\xc8\v2.00\pic\include\pic16f877a.h"
   174                           PCON equ 08Eh ;# 
   175  008E                     # 1756 "C:\Program Files (x86)\Microchip\xc8\v2.00\pic\include\pic16f877a.h"
   176                           SSPCON2 equ 091h ;# 
   177  0091                     # 1818 "C:\Program Files (x86)\Microchip\xc8\v2.00\pic\include\pic16f877a.h"
   178                           PR2 equ 092h ;# 
   179  0092                     # 1825 "C:\Program Files (x86)\Microchip\xc8\v2.00\pic\include\pic16f877a.h"
   180                           SSPADD equ 093h ;# 
   181  0093                     # 1832 "C:\Program Files (x86)\Microchip\xc8\v2.00\pic\include\pic16f877a.h"
   182                           SSPSTAT equ 094h ;# 
   183  0094                     # 2001 "C:\Program Files (x86)\Microchip\xc8\v2.00\pic\include\pic16f877a.h"
   184                           TXSTA equ 098h ;# 
   185  0098                     # 2082 "C:\Program Files (x86)\Microchip\xc8\v2.00\pic\include\pic16f877a.h"
   186                           SPBRG equ 099h ;# 
   187  0099                     # 2089 "C:\Program Files (x86)\Microchip\xc8\v2.00\pic\include\pic16f877a.h"
   188                           CMCON equ 09Ch ;# 
   189  009C                     # 2159 "C:\Program Files (x86)\Microchip\xc8\v2.00\pic\include\pic16f877a.h"
   190                           CVRCON equ 09Dh ;# 
   191  009D                     # 2224 "C:\Program Files (x86)\Microchip\xc8\v2.00\pic\include\pic16f877a.h"
   192                           ADRESL equ 09Eh ;# 
   193  009E                     # 2231 "C:\Program Files (x86)\Microchip\xc8\v2.00\pic\include\pic16f877a.h"
   194                           ADCON1 equ 09Fh ;# 
   195  009F                     # 2290 "C:\Program Files (x86)\Microchip\xc8\v2.00\pic\include\pic16f877a.h"
   196                           EEDATA equ 010Ch ;# 
   197  010C                     # 2297 "C:\Program Files (x86)\Microchip\xc8\v2.00\pic\include\pic16f877a.h"
   198                           EEADR equ 010Dh ;# 
   199  010D                     # 2304 "C:\Program Files (x86)\Microchip\xc8\v2.00\pic\include\pic16f877a.h"
   200                           EEDATH equ 010Eh ;# 
   201  010E                     # 2311 "C:\Program Files (x86)\Microchip\xc8\v2.00\pic\include\pic16f877a.h"
   202                           EEADRH equ 010Fh ;# 
   203  010F                     # 2318 "C:\Program Files (x86)\Microchip\xc8\v2.00\pic\include\pic16f877a.h"
   204                           EECON1 equ 018Ch ;# 
   205  018C                     # 2363 "C:\Program Files (x86)\Microchip\xc8\v2.00\pic\include\pic16f877a.h"
   206                           EECON2 equ 018Dh ;# 
   207  018D                     # 54 "C:\Program Files (x86)\Microchip\xc8\v2.00\pic\include\pic16f877a.h"
   208                           INDF equ 00h ;# 
   209  0000                     # 61 "C:\Program Files (x86)\Microchip\xc8\v2.00\pic\include\pic16f877a.h"
   210                           TMR0 equ 01h ;# 
   211  0001                     # 68 "C:\Program Files (x86)\Microchip\xc8\v2.00\pic\include\pic16f877a.h"
   212                           PCL equ 02h ;# 
   213  0002                     # 75 "C:\Program Files (x86)\Microchip\xc8\v2.00\pic\include\pic16f877a.h"
   214                           STATUS equ 03h ;# 
   215  0003                     # 161 "C:\Program Files (x86)\Microchip\xc8\v2.00\pic\include\pic16f877a.h"
   216                           FSR equ 04h ;# 
   217  0004                     # 168 "C:\Program Files (x86)\Microchip\xc8\v2.00\pic\include\pic16f877a.h"
   218                           PORTA equ 05h ;# 
   219  0005                     # 218 "C:\Program Files (x86)\Microchip\xc8\v2.00\pic\include\pic16f877a.h"
   220                           PORTB equ 06h ;# 
   221  0006                     # 280 "C:\Program Files (x86)\Microchip\xc8\v2.00\pic\include\pic16f877a.h"
   222                           PORTC equ 07h ;# 
   223  0007                     # 342 "C:\Program Files (x86)\Microchip\xc8\v2.00\pic\include\pic16f877a.h"
   224                           PORTD equ 08h ;# 
   225  0008                     # 404 "C:\Program Files (x86)\Microchip\xc8\v2.00\pic\include\pic16f877a.h"
   226                           PORTE equ 09h ;# 
   227  0009                     # 436 "C:\Program Files (x86)\Microchip\xc8\v2.00\pic\include\pic16f877a.h"
   228                           PCLATH equ 0Ah ;# 
   229  000A                     # 456 "C:\Program Files (x86)\Microchip\xc8\v2.00\pic\include\pic16f877a.h"
   230                           INTCON equ 0Bh ;# 
   231  000B                     # 534 "C:\Program Files (x86)\Microchip\xc8\v2.00\pic\include\pic16f877a.h"
   232                           PIR1 equ 0Ch ;# 
   233  000C                     # 596 "C:\Program Files (x86)\Microchip\xc8\v2.00\pic\include\pic16f877a.h"
   234                           PIR2 equ 0Dh ;# 
   235  000D                     # 636 "C:\Program Files (x86)\Microchip\xc8\v2.00\pic\include\pic16f877a.h"
   236                           TMR1 equ 0Eh ;# 
   237  000E                     # 643 "C:\Program Files (x86)\Microchip\xc8\v2.00\pic\include\pic16f877a.h"
   238                           TMR1L equ 0Eh ;# 
   239  000E                     # 650 "C:\Program Files (x86)\Microchip\xc8\v2.00\pic\include\pic16f877a.h"
   240                           TMR1H equ 0Fh ;# 
   241  000F                     # 657 "C:\Program Files (x86)\Microchip\xc8\v2.00\pic\include\pic16f877a.h"
   242                           T1CON equ 010h ;# 
   243  0010                     # 732 "C:\Program Files (x86)\Microchip\xc8\v2.00\pic\include\pic16f877a.h"
   244                           TMR2 equ 011h ;# 
   245  0011                     # 739 "C:\Program Files (x86)\Microchip\xc8\v2.00\pic\include\pic16f877a.h"
   246                           T2CON equ 012h ;# 
   247  0012                     # 810 "C:\Program Files (x86)\Microchip\xc8\v2.00\pic\include\pic16f877a.h"
   248                           SSPBUF equ 013h ;# 
   249  0013                     # 817 "C:\Program Files (x86)\Microchip\xc8\v2.00\pic\include\pic16f877a.h"
   250                           SSPCON equ 014h ;# 
   251  0014                     # 887 "C:\Program Files (x86)\Microchip\xc8\v2.00\pic\include\pic16f877a.h"
   252                           CCPR1 equ 015h ;# 
   253  0015                     # 894 "C:\Program Files (x86)\Microchip\xc8\v2.00\pic\include\pic16f877a.h"
   254                           CCPR1L equ 015h ;# 
   255  0015                     # 901 "C:\Program Files (x86)\Microchip\xc8\v2.00\pic\include\pic16f877a.h"
   256                           CCPR1H equ 016h ;# 
   257  0016                     # 908 "C:\Program Files (x86)\Microchip\xc8\v2.00\pic\include\pic16f877a.h"
   258                           CCP1CON equ 017h ;# 
   259  0017                     # 966 "C:\Program Files (x86)\Microchip\xc8\v2.00\pic\include\pic16f877a.h"
   260                           RCSTA equ 018h ;# 
   261  0018                     # 1061 "C:\Program Files (x86)\Microchip\xc8\v2.00\pic\include\pic16f877a.h"
   262                           TXREG equ 019h ;# 
   263  0019                     # 1068 "C:\Program Files (x86)\Microchip\xc8\v2.00\pic\include\pic16f877a.h"
   264                           RCREG equ 01Ah ;# 
   265  001A                     # 1075 "C:\Program Files (x86)\Microchip\xc8\v2.00\pic\include\pic16f877a.h"
   266                           CCPR2 equ 01Bh ;# 
   267  001B                     # 1082 "C:\Program Files (x86)\Microchip\xc8\v2.00\pic\include\pic16f877a.h"
   268                           CCPR2L equ 01Bh ;# 
   269  001B                     # 1089 "C:\Program Files (x86)\Microchip\xc8\v2.00\pic\include\pic16f877a.h"
   270                           CCPR2H equ 01Ch ;# 
   271  001C                     # 1096 "C:\Program Files (x86)\Microchip\xc8\v2.00\pic\include\pic16f877a.h"
   272                           CCP2CON equ 01Dh ;# 
   273  001D                     # 1154 "C:\Program Files (x86)\Microchip\xc8\v2.00\pic\include\pic16f877a.h"
   274                           ADRESH equ 01Eh ;# 
   275  001E                     # 1161 "C:\Program Files (x86)\Microchip\xc8\v2.00\pic\include\pic16f877a.h"
   276                           ADCON0 equ 01Fh ;# 
   277  001F                     # 1257 "C:\Program Files (x86)\Microchip\xc8\v2.00\pic\include\pic16f877a.h"
   278                           OPTION_REG equ 081h ;# 
   279  0081                     # 1327 "C:\Program Files (x86)\Microchip\xc8\v2.00\pic\include\pic16f877a.h"
   280                           TRISA equ 085h ;# 
   281  0085                     # 1377 "C:\Program Files (x86)\Microchip\xc8\v2.00\pic\include\pic16f877a.h"
   282                           TRISB equ 086h ;# 
   283  0086                     # 1439 "C:\Program Files (x86)\Microchip\xc8\v2.00\pic\include\pic16f877a.h"
   284                           TRISC equ 087h ;# 
   285  0087                     # 1501 "C:\Program Files (x86)\Microchip\xc8\v2.00\pic\include\pic16f877a.h"
   286                           TRISD equ 088h ;# 
   287  0088                     # 1563 "C:\Program Files (x86)\Microchip\xc8\v2.00\pic\include\pic16f877a.h"
   288                           TRISE equ 089h ;# 
   289  0089                     # 1620 "C:\Program Files (x86)\Microchip\xc8\v2.00\pic\include\pic16f877a.h"
   290                           PIE1 equ 08Ch ;# 
   291  008C                     # 1682 "C:\Program Files (x86)\Microchip\xc8\v2.00\pic\include\pic16f877a.h"
   292                           PIE2 equ 08Dh ;# 
   293  008D                     # 1722 "C:\Program Files (x86)\Microchip\xc8\v2.00\pic\include\pic16f877a.h"
   294                           PCON equ 08Eh ;# 
   295  008E                     # 1756 "C:\Program Files (x86)\Microchip\xc8\v2.00\pic\include\pic16f877a.h"
   296                           SSPCON2 equ 091h ;# 
   297  0091                     # 1818 "C:\Program Files (x86)\Microchip\xc8\v2.00\pic\include\pic16f877a.h"
   298                           PR2 equ 092h ;# 
   299  0092                     # 1825 "C:\Program Files (x86)\Microchip\xc8\v2.00\pic\include\pic16f877a.h"
   300                           SSPADD equ 093h ;# 
   301  0093                     # 1832 "C:\Program Files (x86)\Microchip\xc8\v2.00\pic\include\pic16f877a.h"
   302                           SSPSTAT equ 094h ;# 
   303  0094                     # 2001 "C:\Program Files (x86)\Microchip\xc8\v2.00\pic\include\pic16f877a.h"
   304                           TXSTA equ 098h ;# 
   305  0098                     # 2082 "C:\Program Files (x86)\Microchip\xc8\v2.00\pic\include\pic16f877a.h"
   306                           SPBRG equ 099h ;# 
   307  0099                     # 2089 "C:\Program Files (x86)\Microchip\xc8\v2.00\pic\include\pic16f877a.h"
   308                           CMCON equ 09Ch ;# 
   309  009C                     # 2159 "C:\Program Files (x86)\Microchip\xc8\v2.00\pic\include\pic16f877a.h"
   310                           CVRCON equ 09Dh ;# 
   311  009D                     # 2224 "C:\Program Files (x86)\Microchip\xc8\v2.00\pic\include\pic16f877a.h"
   312                           ADRESL equ 09Eh ;# 
   313  009E                     # 2231 "C:\Program Files (x86)\Microchip\xc8\v2.00\pic\include\pic16f877a.h"
   314                           ADCON1 equ 09Fh ;# 
   315  009F                     # 2290 "C:\Program Files (x86)\Microchip\xc8\v2.00\pic\include\pic16f877a.h"
   316                           EEDATA equ 010Ch ;# 
   317  010C                     # 2297 "C:\Program Files (x86)\Microchip\xc8\v2.00\pic\include\pic16f877a.h"
   318                           EEADR equ 010Dh ;# 
   319  010D                     # 2304 "C:\Program Files (x86)\Microchip\xc8\v2.00\pic\include\pic16f877a.h"
   320                           EEDATH equ 010Eh ;# 
   321  010E                     # 2311 "C:\Program Files (x86)\Microchip\xc8\v2.00\pic\include\pic16f877a.h"
   322                           EEADRH equ 010Fh ;# 
   323  010F                     # 2318 "C:\Program Files (x86)\Microchip\xc8\v2.00\pic\include\pic16f877a.h"
   324                           EECON1 equ 018Ch ;# 
   325  018C                     # 2363 "C:\Program Files (x86)\Microchip\xc8\v2.00\pic\include\pic16f877a.h"
   326                           EECON2 equ 018Dh ;# 
   327  018D                     # 54 "C:\Program Files (x86)\Microchip\xc8\v2.00\pic\include\pic16f877a.h"
   328                           INDF equ 00h ;# 
   329  0000                     # 61 "C:\Program Files (x86)\Microchip\xc8\v2.00\pic\include\pic16f877a.h"
   330                           TMR0 equ 01h ;# 
   331  0001                     # 68 "C:\Program Files (x86)\Microchip\xc8\v2.00\pic\include\pic16f877a.h"
   332                           PCL equ 02h ;# 
   333  0002                     # 75 "C:\Program Files (x86)\Microchip\xc8\v2.00\pic\include\pic16f877a.h"
   334                           STATUS equ 03h ;# 
   335  0003                     # 161 "C:\Program Files (x86)\Microchip\xc8\v2.00\pic\include\pic16f877a.h"
   336                           FSR equ 04h ;# 
   337  0004                     # 168 "C:\Program Files (x86)\Microchip\xc8\v2.00\pic\include\pic16f877a.h"
   338                           PORTA equ 05h ;# 
   339  0005                     # 218 "C:\Program Files (x86)\Microchip\xc8\v2.00\pic\include\pic16f877a.h"
   340                           PORTB equ 06h ;# 
   341  0006                     # 280 "C:\Program Files (x86)\Microchip\xc8\v2.00\pic\include\pic16f877a.h"
   342                           PORTC equ 07h ;# 
   343  0007                     # 342 "C:\Program Files (x86)\Microchip\xc8\v2.00\pic\include\pic16f877a.h"
   344                           PORTD equ 08h ;# 
   345  0008                     # 404 "C:\Program Files (x86)\Microchip\xc8\v2.00\pic\include\pic16f877a.h"
   346                           PORTE equ 09h ;# 
   347  0009                     # 436 "C:\Program Files (x86)\Microchip\xc8\v2.00\pic\include\pic16f877a.h"
   348                           PCLATH equ 0Ah ;# 
   349  000A                     # 456 "C:\Program Files (x86)\Microchip\xc8\v2.00\pic\include\pic16f877a.h"
   350                           INTCON equ 0Bh ;# 
   351  000B                     # 534 "C:\Program Files (x86)\Microchip\xc8\v2.00\pic\include\pic16f877a.h"
   352                           PIR1 equ 0Ch ;# 
   353  000C                     # 596 "C:\Program Files (x86)\Microchip\xc8\v2.00\pic\include\pic16f877a.h"
   354                           PIR2 equ 0Dh ;# 
   355  000D                     # 636 "C:\Program Files (x86)\Microchip\xc8\v2.00\pic\include\pic16f877a.h"
   356                           TMR1 equ 0Eh ;# 
   357  000E                     # 643 "C:\Program Files (x86)\Microchip\xc8\v2.00\pic\include\pic16f877a.h"
   358                           TMR1L equ 0Eh ;# 
   359  000E                     # 650 "C:\Program Files (x86)\Microchip\xc8\v2.00\pic\include\pic16f877a.h"
   360                           TMR1H equ 0Fh ;# 
   361  000F                     # 657 "C:\Program Files (x86)\Microchip\xc8\v2.00\pic\include\pic16f877a.h"
   362                           T1CON equ 010h ;# 
   363  0010                     # 732 "C:\Program Files (x86)\Microchip\xc8\v2.00\pic\include\pic16f877a.h"
   364                           TMR2 equ 011h ;# 
   365  0011                     # 739 "C:\Program Files (x86)\Microchip\xc8\v2.00\pic\include\pic16f877a.h"
   366                           T2CON equ 012h ;# 
   367  0012                     # 810 "C:\Program Files (x86)\Microchip\xc8\v2.00\pic\include\pic16f877a.h"
   368                           SSPBUF equ 013h ;# 
   369  0013                     # 817 "C:\Program Files (x86)\Microchip\xc8\v2.00\pic\include\pic16f877a.h"
   370                           SSPCON equ 014h ;# 
   371  0014                     # 887 "C:\Program Files (x86)\Microchip\xc8\v2.00\pic\include\pic16f877a.h"
   372                           CCPR1 equ 015h ;# 
   373  0015                     # 894 "C:\Program Files (x86)\Microchip\xc8\v2.00\pic\include\pic16f877a.h"
   374                           CCPR1L equ 015h ;# 
   375  0015                     # 901 "C:\Program Files (x86)\Microchip\xc8\v2.00\pic\include\pic16f877a.h"
   376                           CCPR1H equ 016h ;# 
   377  0016                     # 908 "C:\Program Files (x86)\Microchip\xc8\v2.00\pic\include\pic16f877a.h"
   378                           CCP1CON equ 017h ;# 
   379  0017                     # 966 "C:\Program Files (x86)\Microchip\xc8\v2.00\pic\include\pic16f877a.h"
   380                           RCSTA equ 018h ;# 
   381  0018                     # 1061 "C:\Program Files (x86)\Microchip\xc8\v2.00\pic\include\pic16f877a.h"
   382                           TXREG equ 019h ;# 
   383  0019                     # 1068 "C:\Program Files (x86)\Microchip\xc8\v2.00\pic\include\pic16f877a.h"
   384                           RCREG equ 01Ah ;# 
   385  001A                     # 1075 "C:\Program Files (x86)\Microchip\xc8\v2.00\pic\include\pic16f877a.h"
   386                           CCPR2 equ 01Bh ;# 
   387  001B                     # 1082 "C:\Program Files (x86)\Microchip\xc8\v2.00\pic\include\pic16f877a.h"
   388                           CCPR2L equ 01Bh ;# 
   389  001B                     # 1089 "C:\Program Files (x86)\Microchip\xc8\v2.00\pic\include\pic16f877a.h"
   390                           CCPR2H equ 01Ch ;# 
   391  001C                     # 1096 "C:\Program Files (x86)\Microchip\xc8\v2.00\pic\include\pic16f877a.h"
   392                           CCP2CON equ 01Dh ;# 
   393  001D                     # 1154 "C:\Program Files (x86)\Microchip\xc8\v2.00\pic\include\pic16f877a.h"
   394                           ADRESH equ 01Eh ;# 
   395  001E                     # 1161 "C:\Program Files (x86)\Microchip\xc8\v2.00\pic\include\pic16f877a.h"
   396                           ADCON0 equ 01Fh ;# 
   397  001F                     # 1257 "C:\Program Files (x86)\Microchip\xc8\v2.00\pic\include\pic16f877a.h"
   398                           OPTION_REG equ 081h ;# 
   399  0081                     # 1327 "C:\Program Files (x86)\Microchip\xc8\v2.00\pic\include\pic16f877a.h"
   400                           TRISA equ 085h ;# 
   401  0085                     # 1377 "C:\Program Files (x86)\Microchip\xc8\v2.00\pic\include\pic16f877a.h"
   402                           TRISB equ 086h ;# 
   403  0086                     # 1439 "C:\Program Files (x86)\Microchip\xc8\v2.00\pic\include\pic16f877a.h"
   404                           TRISC equ 087h ;# 
   405  0087                     # 1501 "C:\Program Files (x86)\Microchip\xc8\v2.00\pic\include\pic16f877a.h"
   406                           TRISD equ 088h ;# 
   407  0088                     # 1563 "C:\Program Files (x86)\Microchip\xc8\v2.00\pic\include\pic16f877a.h"
   408                           TRISE equ 089h ;# 
   409  0089                     # 1620 "C:\Program Files (x86)\Microchip\xc8\v2.00\pic\include\pic16f877a.h"
   410                           PIE1 equ 08Ch ;# 
   411  008C                     # 1682 "C:\Program Files (x86)\Microchip\xc8\v2.00\pic\include\pic16f877a.h"
   412                           PIE2 equ 08Dh ;# 
   413  008D                     # 1722 "C:\Program Files (x86)\Microchip\xc8\v2.00\pic\include\pic16f877a.h"
   414                           PCON equ 08Eh ;# 
   415  008E                     # 1756 "C:\Program Files (x86)\Microchip\xc8\v2.00\pic\include\pic16f877a.h"
   416                           SSPCON2 equ 091h ;# 
   417  0091                     # 1818 "C:\Program Files (x86)\Microchip\xc8\v2.00\pic\include\pic16f877a.h"
   418                           PR2 equ 092h ;# 
   419  0092                     # 1825 "C:\Program Files (x86)\Microchip\xc8\v2.00\pic\include\pic16f877a.h"
   420                           SSPADD equ 093h ;# 
   421  0093                     # 1832 "C:\Program Files (x86)\Microchip\xc8\v2.00\pic\include\pic16f877a.h"
   422                           SSPSTAT equ 094h ;# 
   423  0094                     # 2001 "C:\Program Files (x86)\Microchip\xc8\v2.00\pic\include\pic16f877a.h"
   424                           TXSTA equ 098h ;# 
   425  0098                     # 2082 "C:\Program Files (x86)\Microchip\xc8\v2.00\pic\include\pic16f877a.h"
   426                           SPBRG equ 099h ;# 
   427  0099                     # 2089 "C:\Program Files (x86)\Microchip\xc8\v2.00\pic\include\pic16f877a.h"
   428                           CMCON equ 09Ch ;# 
   429  009C                     # 2159 "C:\Program Files (x86)\Microchip\xc8\v2.00\pic\include\pic16f877a.h"
   430                           CVRCON equ 09Dh ;# 
   431  009D                     # 2224 "C:\Program Files (x86)\Microchip\xc8\v2.00\pic\include\pic16f877a.h"
   432                           ADRESL equ 09Eh ;# 
   433  009E                     # 2231 "C:\Program Files (x86)\Microchip\xc8\v2.00\pic\include\pic16f877a.h"
   434                           ADCON1 equ 09Fh ;# 
   435  009F                     # 2290 "C:\Program Files (x86)\Microchip\xc8\v2.00\pic\include\pic16f877a.h"
   436                           EEDATA equ 010Ch ;# 
   437  010C                     # 2297 "C:\Program Files (x86)\Microchip\xc8\v2.00\pic\include\pic16f877a.h"
   438                           EEADR equ 010Dh ;# 
   439  010D                     # 2304 "C:\Program Files (x86)\Microchip\xc8\v2.00\pic\include\pic16f877a.h"
   440                           EEDATH equ 010Eh ;# 
   441  010E                     # 2311 "C:\Program Files (x86)\Microchip\xc8\v2.00\pic\include\pic16f877a.h"
   442                           EEADRH equ 010Fh ;# 
   443  010F                     # 2318 "C:\Program Files (x86)\Microchip\xc8\v2.00\pic\include\pic16f877a.h"
   444                           EECON1 equ 018Ch ;# 
   445  018C                     # 2363 "C:\Program Files (x86)\Microchip\xc8\v2.00\pic\include\pic16f877a.h"
   446                           EECON2 equ 018Dh ;# 
   447  018D                     	FNCALL	_main,_Initialization
   448                           	FNCALL	_main,_loop
   449                           	FNCALL	_main,_setup
   450                           	FNCALL	_setup,_SerialBegin
   451                           	FNCALL	_setup,_SerialPrint
   452                           	FNCALL	_setup,_SerialPrintLn
   453                           	FNCALL	_setup,_digitalWrite
   454                           	FNCALL	_setup,_pinMode
   455                           	FNCALL	_SerialPrint,_SerialWrite
   456                           	FNCALL	_SerialBegin,___aldiv
   457                           	FNCALL	_loop,_SerialPrintLn
   458                           	FNCALL	_loop,_delay
   459                           	FNCALL	_loop,_digitalWrite
   460                           	FNCALL	_SerialPrintLn,_SerialWrite
   461                           	FNCALL	_Initialization,_CCP1Configuration
   462                           	FNROOT	_main
   463                           	global	_LED
   464                           psect	strings,class=STRING,delta=2,noexec
   465                           global __pstrings
   466                           __pstrings:
   467  0003                     stringtab:
   468  0003                     	global    __stringtab
   469                           __stringtab:
   470  0003                     ;	String table - string pointers are 1 byte each
   471                           	btfsc	(btemp+1),7
   472  0003  1BFF               	ljmp	stringcode
   473  0004  280D               	bcf	status,7
   474  0005  1383               	btfsc	(btemp+1),0
   475  0006  187F               	bsf	status,7
   476  0007  1783               	movf	indf,w
   477  0008  0800               	incf fsr
   478  0009  0A84               skipnz
   479  000A  1903               incf btemp+1
   480  000B  0AFF               	return
   481  000C  0008               stringcode:stringdir:
   482  000D                     movlw high(stringdir)
      + 000D                     stringdir:	
   483  000D  3000               movwf pclath
   484  000E  008A               movf fsr,w
   485  000F  0804               incf fsr
   486  0010  0A84               	addwf pc
   487  0011  0782               	global __stringbase
   488                           __stringbase:
   489  0012                     	retlw	0
   490  0012  3400               psect	strings
   491                           	global    __end_of__stringtab
   492                           __end_of__stringtab:
   493  0013                     	file	"application.c"
   494                           	line	3
   495                           _LED:
   496  0013                     	retlw	0Dh
   497  0013  340D               	retlw	0
   498  0014  3400               
   499                           	global __end_of_LED
   500                           __end_of_LED:
   501  0015                     	global	_LED
   502                           	global	_state
   503                           psect	nvBANK0,class=BANK0,space=1,noexec
   504                           global __pnvBANK0
   505                           __pnvBANK0:
   506  0032                     _state:
   507  0032                            ds      1
   508  0032                     
   509                           	global	_SSPBUF
   510                           _SSPBUF	set	0x13
   511  0013                     	global	_SSPCON
   512                           _SSPCON	set	0x14
   513  0014                     	global	_RCREG
   514                           _RCREG	set	0x1A
   515  001A                     	global	_TXREG
   516                           _TXREG	set	0x19
   517  0019                     	global	_PORTEbits
   518                           _PORTEbits	set	0x9
   519  0009                     	global	_CCPR1L
   520                           _CCPR1L	set	0x15
   521  0015                     	global	_CCPR2L
   522                           _CCPR2L	set	0x1B
   523  001B                     	global	_ADRESH
   524                           _ADRESH	set	0x1E
   525  001E                     	global	_ADCON0bits
   526                           _ADCON0bits	set	0x1F
   527  001F                     	global	_PORTAbits
   528                           _PORTAbits	set	0x5
   529  0005                     	global	_PORTBbits
   530                           _PORTBbits	set	0x6
   531  0006                     	global	_PORTDbits
   532                           _PORTDbits	set	0x8
   533  0008                     	global	_PORTCbits
   534                           _PORTCbits	set	0x7
   535  0007                     	global	_CCP2CON
   536                           _CCP2CON	set	0x1D
   537  001D                     	global	_CCP1CON
   538                           _CCP1CON	set	0x17
   539  0017                     	global	_T2CON
   540                           _T2CON	set	0x12
   541  0012                     	global	_PORTE
   542                           _PORTE	set	0x9
   543  0009                     	global	_ADCON0
   544                           _ADCON0	set	0x1F
   545  001F                     	global	_SSPIF
   546                           _SSPIF	set	0x63
   547  0063                     	global	_PEIE
   548                           _PEIE	set	0x5E
   549  005E                     	global	_GIE
   550                           _GIE	set	0x5F
   551  005F                     	global	_RCIF
   552                           _RCIF	set	0x65
   553  0065                     	global	_TXIF
   554                           _TXIF	set	0x64
   555  0064                     	global	_OERR
   556                           _OERR	set	0xC1
   557  00C1                     	global	_FERR
   558                           _FERR	set	0xC2
   559  00C2                     	global	_CREN
   560                           _CREN	set	0xC4
   561  00C4                     	global	_SPEN
   562                           _SPEN	set	0xC7
   563  00C7                     	global	_CCP1Y
   564                           _CCP1Y	set	0xBC
   565  00BC                     	global	_CCP1X
   566                           _CCP1X	set	0xBD
   567  00BD                     	global	_CCP2Y
   568                           _CCP2Y	set	0xEC
   569  00EC                     	global	_CCP2X
   570                           _CCP2X	set	0xED
   571  00ED                     	global	_SSPSTAT
   572                           _SSPSTAT	set	0x94
   573  0094                     	global	_SSPADD
   574                           _SSPADD	set	0x93
   575  0093                     	global	_SSPCON2
   576                           _SSPCON2	set	0x91
   577  0091                     	global	_SPBRG
   578                           _SPBRG	set	0x99
   579  0099                     	global	_ADRESL
   580                           _ADRESL	set	0x9E
   581  009E                     	global	_ADCON1bits
   582                           _ADCON1bits	set	0x9F
   583  009F                     	global	_TRISAbits
   584                           _TRISAbits	set	0x85
   585  0085                     	global	_TRISBbits
   586                           _TRISBbits	set	0x86
   587  0086                     	global	_TRISDbits
   588                           _TRISDbits	set	0x88
   589  0088                     	global	_TRISCbits
   590                           _TRISCbits	set	0x87
   591  0087                     	global	_PR2
   592                           _PR2	set	0x92
   593  0092                     	global	_TRISE
   594                           _TRISE	set	0x89
   595  0089                     	global	_ADCON1
   596                           _ADCON1	set	0x9F
   597  009F                     	global	_ACKEN
   598                           _ACKEN	set	0x48C
   599  048C                     	global	_ACKDT
   600                           _ACKDT	set	0x48D
   601  048D                     	global	_RCEN
   602                           _RCEN	set	0x48B
   603  048B                     	global	_PEN
   604                           _PEN	set	0x48A
   605  048A                     	global	_RSEN
   606                           _RSEN	set	0x489
   607  0489                     	global	_SEN
   608                           _SEN	set	0x488
   609  0488                     	global	_SSPIE
   610                           _SSPIE	set	0x463
   611  0463                     	global	_TRISC4
   612                           _TRISC4	set	0x43C
   613  043C                     	global	_TRISC3
   614                           _TRISC3	set	0x43B
   615  043B                     	global	_TRMT
   616                           _TRMT	set	0x4C1
   617  04C1                     	global	_TXEN
   618                           _TXEN	set	0x4C5
   619  04C5                     	global	_TRISC6
   620                           _TRISC6	set	0x43E
   621  043E                     	global	_TRISC7
   622                           _TRISC7	set	0x43F
   623  043F                     	global	_SYNC
   624                           _SYNC	set	0x4C4
   625  04C4                     	global	_BRGH
   626                           _BRGH	set	0x4C2
   627  04C2                     psect	strings
   628                           	
   629                           STR_2:	
   630  0015                     	retlw	72	;'H'
   631  0015  3448               	retlw	73	;'I'
   632  0016  3449               	retlw	0
   633  0017  3400               psect	strings
   634                           	
   635                           STR_1:	
   636  0018                     	retlw	59	;';'
   637  0018  343B               	retlw	0
   638  0019  3400               psect	strings
   639                           ; #config settings
   640                           global __CFG_FOSC$HS
   641                           __CFG_FOSC$HS equ 0x0
   642  0000                     global __CFG_WDTE$OFF
   643                           __CFG_WDTE$OFF equ 0x0
   644  0000                     global __CFG_PWRTE$OFF
   645                           __CFG_PWRTE$OFF equ 0x0
   646  0000                     global __CFG_BOREN$OFF
   647                           __CFG_BOREN$OFF equ 0x0
   648  0000                     global __CFG_LVP$ON
   649                           __CFG_LVP$ON equ 0x0
   650  0000                     global __CFG_CPD$OFF
   651                           __CFG_CPD$OFF equ 0x0
   652  0000                     global __CFG_WRT$OFF
   653                           __CFG_WRT$OFF equ 0x0
   654  0000                     global __CFG_CP$OFF
   655                           __CFG_CP$OFF equ 0x0
   656  0000                     	file	"C:\Users\c4810\AppData\Local\Temp\sdts."
   657                           	line	#
   658                           psect cinit,class=CODE,delta=2
   659                           global start_initialization
   660                           start_initialization:
   661  07F6                     
   662                           global __initialization
   663                           __initialization:
   664  07F6                     psect	bssBANK0,class=BANK0,space=1,noexec
   665                           global __pbssBANK0
   666                           __pbssBANK0:
   667  002E                     _data:
   668  002E                            ds      4
   669  002E                     
   670                           	file	"C:\Users\c4810\AppData\Local\Temp\sdts."
   671                           	line	#
   672                           ; Clear objects allocated to BANK0
   673                           psect cinit,class=CODE,delta=2,merge=1
   674                           	bcf	status, 5	;RP0=0, select bank0
   675  07F6  1283               	bcf	status, 6	;RP1=0, select bank0
   676  07F7  1303               	clrf	((__pbssBANK0)+0)&07Fh
   677  07F8  01AE               	clrf	((__pbssBANK0)+1)&07Fh
   678  07F9  01AF               	clrf	((__pbssBANK0)+2)&07Fh
   679  07FA  01B0               	clrf	((__pbssBANK0)+3)&07Fh
   680  07FB  01B1               psect cinit,class=CODE,delta=2,merge=1
   681                           global end_of_initialization,__end_of__initialization
   682                           
   683                           ;End of C runtime variable initialization code
   684                           
   685                           end_of_initialization:
   686  07FC                     __end_of__initialization:
   687  07FC                     clrf status
   688  07FC  0183               ljmp _main	;jump to C main() function
   689  07FD  120A  118A  2AD8   psect	cstackCOMMON,class=COMMON,space=1,noexec
   690                           global __pcstackCOMMON
   691                           __pcstackCOMMON:
   692  0070                     ?_Initialization:	; 1 bytes @ 0x0
   693  0070                     ??_Initialization:	; 1 bytes @ 0x0
   694  0070                     ?_setup:	; 1 bytes @ 0x0
   695  0070                     ?_loop:	; 1 bytes @ 0x0
   696  0070                     ?_CCP1Configuration:	; 1 bytes @ 0x0
   697  0070                     ??_CCP1Configuration:	; 1 bytes @ 0x0
   698  0070                     ?_pinMode:	; 1 bytes @ 0x0
   699  0070                     ?_digitalWrite:	; 1 bytes @ 0x0
   700  0070                     ?_SerialWrite:	; 1 bytes @ 0x0
   701  0070                     ??_SerialWrite:	; 1 bytes @ 0x0
   702  0070                     ?_SerialPrint:	; 1 bytes @ 0x0
   703  0070                     ?_delay:	; 1 bytes @ 0x0
   704  0070                     ?_main:	; 2 bytes @ 0x0
   705  0070                     	global	?___aldiv
   706                           ?___aldiv:	; 4 bytes @ 0x0
   707  0070                     	global	pinMode@mode
   708                           pinMode@mode:	; 1 bytes @ 0x0
   709  0070                     	global	digitalWrite@value
   710                           digitalWrite@value:	; 1 bytes @ 0x0
   711  0070                     	global	SerialWrite@dataWrite
   712                           SerialWrite@dataWrite:	; 1 bytes @ 0x0
   713  0070                     	global	delay@milis
   714                           delay@milis:	; 2 bytes @ 0x0
   715  0070                     	global	___aldiv@divisor
   716                           ___aldiv@divisor:	; 4 bytes @ 0x0
   717  0070                     	ds	1
   718  0070                     ??_pinMode:	; 1 bytes @ 0x1
   719  0071                     ??_digitalWrite:	; 1 bytes @ 0x1
   720  0071                     ??_SerialPrint:	; 1 bytes @ 0x1
   721  0071                     ?_SerialPrintLn:	; 1 bytes @ 0x1
   722  0071                     	global	SerialPrint@i
   723                           SerialPrint@i:	; 2 bytes @ 0x1
   724  0071                     	global	SerialPrintLn@dataText
   725                           SerialPrintLn@dataText:	; 2 bytes @ 0x1
   726  0071                     	ds	1
   727  0071                     ??_delay:	; 1 bytes @ 0x2
   728  0072                     	ds	1
   729  0072                     ??_SerialPrintLn:	; 1 bytes @ 0x3
   730  0073                     	global	pinMode@pin
   731                           pinMode@pin:	; 1 bytes @ 0x3
   732  0073                     	global	digitalWrite@pin
   733                           digitalWrite@pin:	; 1 bytes @ 0x3
   734  0073                     	global	SerialPrint@dataText
   735                           SerialPrint@dataText:	; 1 bytes @ 0x3
   736  0073                     	global	SerialPrintLn@i
   737                           SerialPrintLn@i:	; 2 bytes @ 0x3
   738  0073                     	global	delay@j
   739                           delay@j:	; 2 bytes @ 0x3
   740  0073                     	ds	1
   741  0073                     	global	___aldiv@dividend
   742                           ___aldiv@dividend:	; 4 bytes @ 0x4
   743  0074                     	ds	1
   744  0074                     	global	delay@i
   745                           delay@i:	; 2 bytes @ 0x5
   746  0075                     	ds	2
   747  0075                     ??_loop:	; 1 bytes @ 0x7
   748  0077                     	ds	1
   749  0077                     ??___aldiv:	; 1 bytes @ 0x8
   750  0078                     	ds	1
   751  0078                     ??_SerialBegin:	; 1 bytes @ 0x9
   752  0079                     	ds	4
   753  0079                     	global	setup@i
   754                           setup@i:	; 1 bytes @ 0xD
   755  007D                     	ds	1
   756  007D                     ??_main:	; 1 bytes @ 0xE
   757  007E                     psect	cstackBANK0,class=BANK0,space=1,noexec
   758                           global __pcstackBANK0
   759                           __pcstackBANK0:
   760  0020                     	global	___aldiv@counter
   761                           ___aldiv@counter:	; 1 bytes @ 0x0
   762  0020                     	ds	1
   763  0020                     	global	___aldiv@sign
   764                           ___aldiv@sign:	; 1 bytes @ 0x1
   765  0021                     	ds	1
   766  0021                     	global	___aldiv@quotient
   767                           ___aldiv@quotient:	; 4 bytes @ 0x2
   768  0022                     	ds	4
   769  0022                     ?_SerialBegin:	; 1 bytes @ 0x6
   770  0026                     	global	SerialBegin@BaudRate
   771                           SerialBegin@BaudRate:	; 4 bytes @ 0x6
   772  0026                     	ds	4
   773  0026                     	global	SerialBegin@x
   774                           SerialBegin@x:	; 2 bytes @ 0xA
   775  002A                     	ds	2
   776  002A                     ??_setup:	; 1 bytes @ 0xC
   777  002C                     	ds	2
   778  002C                     ;!
   779                           ;!Data Sizes:
   780                           ;!    Strings     5
   781                           ;!    Constant    2
   782                           ;!    Data        0
   783                           ;!    BSS         4
   784                           ;!    Persistent  1
   785                           ;!    Stack       0
   786                           ;!
   787                           ;!Auto Spaces:
   788                           ;!    Space          Size  Autos    Used
   789                           ;!    COMMON           14     14      14
   790                           ;!    BANK0            80     14      19
   791                           ;!    BANK1            80      0       0
   792                           ;!    BANK3            96      0       0
   793                           ;!    BANK2            96      0       0
   794                           
   795                           ;!
   796                           ;!Pointer List with Targets:
   797                           ;!
   798                           ;!    SerialPrintLn@dataText	PTR unsigned char  size(2) Largest target is 512
   799                           ;!		 -> STR_2(CODE[3]), RAM(DATA[512]), 
   800                           ;!
   801                           ;!    SerialPrint@dataText	PTR unsigned char  size(1) Largest target is 2
   802                           ;!		 -> STR_1(CODE[2]), 
   803                           ;!
   804                           
   805                           
   806                           ;!
   807                           ;!Critical Paths under _main in COMMON
   808                           ;!
   809                           ;!    _main->_setup
   810                           ;!    _setup->_SerialBegin
   811                           ;!    _SerialPrint->_SerialWrite
   812                           ;!    _SerialBegin->___aldiv
   813                           ;!    _loop->_delay
   814                           ;!    _SerialPrintLn->_SerialWrite
   815                           ;!
   816                           ;!Critical Paths under _main in BANK0
   817                           ;!
   818                           ;!    _main->_setup
   819                           ;!    _setup->_SerialBegin
   820                           ;!    _SerialBegin->___aldiv
   821                           ;!
   822                           ;!Critical Paths under _main in BANK1
   823                           ;!
   824                           ;!    None.
   825                           ;!
   826                           ;!Critical Paths under _main in BANK3
   827                           ;!
   828                           ;!    None.
   829                           ;!
   830                           ;!Critical Paths under _main in BANK2
   831                           ;!
   832                           ;!    None.
   833                           
   834 ;;
   835 ;;Main: autosize = 0, tempsize = 0, incstack = 0, save=0
   836 ;;
   837                           
   838                           ;!
   839                           ;!Call Graph Tables:
   840                           ;!
   841                           ;! ---------------------------------------------------------------------------------
   842                           ;! (Depth) Function   	        Calls       Base Space   Used Autos Params    Refs
   843                           ;! ---------------------------------------------------------------------------------
   844                           ;! (0) _main                                                 0     0      0    4157
   845                           ;!                     _Initialization
   846                           ;!                               _loop
   847                           ;!                              _setup
   848                           ;! ---------------------------------------------------------------------------------
   849                           ;! (1) _setup                                                3     3      0    2761
   850                           ;!                                             13 COMMON     1     1      0
   851                           ;!                                             12 BANK0      2     2      0
   852                           ;!                        _SerialBegin
   853                           ;!                        _SerialPrint
   854                           ;!                      _SerialPrintLn
   855                           ;!                       _digitalWrite
   856                           ;!                            _pinMode
   857                           ;! ---------------------------------------------------------------------------------
   858                           ;! (2) _pinMode                                              4     3      1     692
   859                           ;!                                              0 COMMON     4     3      1
   860                           ;! ---------------------------------------------------------------------------------
   861                           ;! (2) _SerialPrint                                          3     3      0     145
   862                           ;!                                              1 COMMON     3     3      0
   863                           ;!                        _SerialWrite
   864                           ;! ---------------------------------------------------------------------------------
   865                           ;! (2) _SerialBegin                                         10     6      4     792
   866                           ;!                                              9 COMMON     4     4      0
   867                           ;!                                              6 BANK0      6     2      4
   868                           ;!                            ___aldiv
   869                           ;! ---------------------------------------------------------------------------------
   870                           ;! (3) ___aldiv                                             15     7      8     604
   871                           ;!                                              0 COMMON     9     1      8
   872                           ;!                                              0 BANK0      6     6      0
   873                           ;! ---------------------------------------------------------------------------------
   874                           ;! (1) _loop                                                 0     0      0    1396
   875                           ;!                      _SerialPrintLn
   876                           ;!                              _delay
   877                           ;!                       _digitalWrite
   878                           ;! ---------------------------------------------------------------------------------
   879                           ;! (2) _digitalWrite                                         4     3      1     844
   880                           ;!                                              0 COMMON     4     3      1
   881                           ;! ---------------------------------------------------------------------------------
   882                           ;! (2) _delay                                                7     5      2     288
   883                           ;!                                              0 COMMON     7     5      2
   884                           ;! ---------------------------------------------------------------------------------
   885                           ;! (2) _SerialPrintLn                                        4     2      2     264
   886                           ;!                                              1 COMMON     4     2      2
   887                           ;!                        _SerialWrite
   888                           ;! ---------------------------------------------------------------------------------
   889                           ;! (3) _SerialWrite                                          1     1      0      22
   890                           ;!                                              0 COMMON     1     1      0
   891                           ;! ---------------------------------------------------------------------------------
   892                           ;! (1) _Initialization                                       0     0      0       0
   893                           ;!                  _CCP1Configuration
   894                           ;! ---------------------------------------------------------------------------------
   895                           ;! (2) _CCP1Configuration                                    0     0      0       0
   896                           ;! ---------------------------------------------------------------------------------
   897                           ;! Estimated maximum stack depth 3
   898                           ;! ---------------------------------------------------------------------------------
   899                           ;!
   900                           ;! Call Graph Graphs:
   901                           ;!
   902                           ;! _main (ROOT)
   903                           ;!   _Initialization
   904                           ;!     _CCP1Configuration
   905                           ;!   _loop
   906                           ;!     _SerialPrintLn
   907                           ;!       _SerialWrite
   908                           ;!     _delay
   909                           ;!     _digitalWrite
   910                           ;!   _setup
   911                           ;!     _SerialBegin
   912                           ;!       ___aldiv
   913                           ;!     _SerialPrint
   914                           ;!       _SerialWrite
   915                           ;!     _SerialPrintLn
   916                           ;!       _SerialWrite
   917                           ;!     _digitalWrite
   918                           ;!     _pinMode
   919                           ;!
   920                           
   921                           ;! Address spaces:
   922                           
   923                           ;!Name               Size   Autos  Total    Cost      Usage
   924                           ;!BITCOMMON            E      0       0       0        0.0%
   925                           ;!EEDATA             100      0       0       0        0.0%
   926                           ;!NULL                 0      0       0       0        0.0%
   927                           ;!CODE                 0      0       0       0        0.0%
   928                           ;!COMMON               E      E       E       1      100.0%
   929                           ;!BITSFR0              0      0       0       1        0.0%
   930                           ;!SFR0                 0      0       0       1        0.0%
   931                           ;!BITSFR1              0      0       0       2        0.0%
   932                           ;!SFR1                 0      0       0       2        0.0%
   933                           ;!STACK                0      0       0       2        0.0%
   934                           ;!ABS                  0      0      21       3        0.0%
   935                           ;!BITBANK0            50      0       0       4        0.0%
   936                           ;!BITSFR3              0      0       0       4        0.0%
   937                           ;!SFR3                 0      0       0       4        0.0%
   938                           ;!BANK0               50      E      13       5       23.8%
   939                           ;!BITSFR2              0      0       0       5        0.0%
   940                           ;!SFR2                 0      0       0       5        0.0%
   941                           ;!BITBANK1            50      0       0       6        0.0%
   942                           ;!BANK1               50      0       0       7        0.0%
   943                           ;!BITBANK3            60      0       0       8        0.0%
   944                           ;!BANK3               60      0       0       9        0.0%
   945                           ;!BITBANK2            60      0       0      10        0.0%
   946                           ;!BANK2               60      0       0      11        0.0%
   947                           ;!DATA                 0      0      21      12        0.0%
   948                           
   949                           	global	_main
   950                           
   951 ;; *************** function _main *****************
   952 ;; Defined at:
   953 ;;		line 7 in file "source.c"
   954 ;; Parameters:    Size  Location     Type
   955 ;;		None
   956 ;; Auto vars:     Size  Location     Type
   957 ;;		None
   958 ;; Return value:  Size  Location     Type
   959 ;;                  2  130[None  ] int 
   960 ;; Registers used:
   961 ;;		wreg, fsr0l, fsr0h, status,2, status,0, btemp+1, pclath, cstack
   962 ;; Tracked objects:
   963 ;;		On entry : B00/0
   964 ;;		On exit  : 0/0
   965 ;;		Unchanged: 0/0
   966 ;; Data sizes:     COMMON   BANK0   BANK1   BANK3   BANK2
   967 ;;      Params:         0       0       0       0       0
   968 ;;      Locals:         0       0       0       0       0
   969 ;;      Temps:          0       0       0       0       0
   970 ;;      Totals:         0       0       0       0       0
   971 ;;Total ram usage:        0 bytes
   972 ;; Hardware stack levels required when called:    3
   973 ;; This function calls:
   974 ;;		_Initialization
   975 ;;		_loop
   976 ;;		_setup
   977 ;; This function is called by:
   978 ;;		Startup code after reset
   979 ;; This function uses a non-reentrant model
   980 ;;
   981                           psect	maintext,global,class=CODE,delta=2,split=1,group=0
   982                           	file	"source.c"
   983                           	line	7
   984                           global __pmaintext
   985                           __pmaintext:	;psect for function _main
   986  02D8                     psect	maintext
   987                           	file	"source.c"
   988                           	line	7
   989                           	global	__size_of_main
   990                           	__size_of_main	equ	__end_of_main-_main
   991  0015                     	
   992                           _main:	
   993  02D8                     ;incstack = 0
   994                           	opt	stack 5
   995                           ; Regs used in _main: [wreg-fsr0h+status,2+status,0+btemp+1+pclath+cstack]
   996                           	line	9
   997                           	
   998                           l2059:	
   999  02D8                     ;source.c: 9:     Initialization();
  1000                           	fcall	_Initialization
  1001  02D8  120A  118A  22ED  120A  118A  	line	10
  1002                           	
  1003                           l2061:	
  1004  02DD                     ;source.c: 10:     setup();
  1005                           	fcall	_setup
  1006  02DD  120A  118A  23E8  120A  118A  	goto	l2063
  1007  02E2  2AE3               	line	11
  1008                           ;source.c: 11:     while(1)
  1009                           	
  1010                           l131:	
  1011  02E3                     	line	13
  1012                           	
  1013                           l2063:	
  1014  02E3                     ;source.c: 12:     {;source.c: 13:         loop();
  1015                           	fcall	_loop
  1016  02E3  120A  118A  2335  120A  118A  	goto	l2063
  1017  02E8  2AE3               	line	14
  1018                           ;source.c: 14:     }
  1019                           	
  1020                           l132:	
  1021  02E9                     	goto	l2063
  1022  02E9  2AE3               	
  1023                           l133:	
  1024  02EA                     	line	16
  1025                           ;source.c: 15:     return 0;;	Return value of _main is never used
  1026                           	
  1027                           l134:	
  1028  02EA                     	global	start
  1029                           	ljmp	start
  1030  02EA  120A  118A  2800   	opt stack 0
  1031                           GLOBAL	__end_of_main
  1032                           	__end_of_main:
  1033  02ED                     	signat	_main,90
  1034                           	global	_setup
  1035                           
  1036 ;; *************** function _setup *****************
  1037 ;; Defined at:
  1038 ;;		line 6 in file "application.c"
  1039 ;; Parameters:    Size  Location     Type
  1040 ;;		None
  1041 ;; Auto vars:     Size  Location     Type
  1042 ;;  i               1   13[COMMON] unsigned char 
  1043 ;; Return value:  Size  Location     Type
  1044 ;;                  1    wreg      void 
  1045 ;; Registers used:
  1046 ;;		wreg, fsr0l, fsr0h, status,2, status,0, btemp+1, pclath, cstack
  1047 ;; Tracked objects:
  1048 ;;		On entry : 0/0
  1049 ;;		On exit  : 0/0
  1050 ;;		Unchanged: 0/0
  1051 ;; Data sizes:     COMMON   BANK0   BANK1   BANK3   BANK2
  1052 ;;      Params:         0       0       0       0       0
  1053 ;;      Locals:         1       0       0       0       0
  1054 ;;      Temps:          0       2       0       0       0
  1055 ;;      Totals:         1       2       0       0       0
  1056 ;;Total ram usage:        3 bytes
  1057 ;; Hardware stack levels used:    1
  1058 ;; Hardware stack levels required when called:    2
  1059 ;; This function calls:
  1060 ;;		_SerialBegin
  1061 ;;		_SerialPrint
  1062 ;;		_SerialPrintLn
  1063 ;;		_digitalWrite
  1064 ;;		_pinMode
  1065 ;; This function is called by:
  1066 ;;		_main
  1067 ;; This function uses a non-reentrant model
  1068 ;;
  1069                           psect	text1,local,class=CODE,delta=2,merge=1,group=0
  1070                           	file	"application.c"
  1071                           	line	6
  1072                           global __ptext1
  1073                           __ptext1:	;psect for function _setup
  1074  03E8                     psect	text1
  1075                           	file	"application.c"
  1076                           	line	6
  1077                           	global	__size_of_setup
  1078                           	__size_of_setup	equ	__end_of_setup-_setup
  1079  0052                     	
  1080                           _setup:	
  1081  03E8                     ;incstack = 0
  1082                           	opt	stack 5
  1083                           ; Regs used in _setup: [wreg-fsr0h+status,2+status,0+btemp+1+pclath+cstack]
  1084                           	line	8
  1085                           	
  1086                           l2033:	
  1087  03E8                     ;application.c: 8:     state = SerialBegin(9600);
  1088                           	movlw	0
  1089  03E8  3000               	bcf	status, 5	;RP0=0, select bank0
  1090  03E9  1283               	bcf	status, 6	;RP1=0, select bank0
  1091  03EA  1303               	movwf	(SerialBegin@BaudRate+3)
  1092  03EB  00A9               	movlw	0
  1093  03EC  3000               	movwf	(SerialBegin@BaudRate+2)
  1094  03ED  00A8               	movlw	025h
  1095  03EE  3025               	movwf	(SerialBegin@BaudRate+1)
  1096  03EF  00A7               	movlw	080h
  1097  03F0  3080               	movwf	(SerialBegin@BaudRate)
  1098  03F1  00A6               
  1099                           	fcall	_SerialBegin
  1100  03F2  120A  118A  243A  120A  118A  	bcf	status, 5	;RP0=0, select bank0
  1101  03F7  1283               	bcf	status, 6	;RP1=0, select bank0
  1102  03F8  1303               	movwf	(??_setup+0)+0
  1103  03F9  00AC               	movf	(??_setup+0)+0,w
  1104  03FA  082C               	movwf	(_state)
  1105  03FB  00B2               	line	9
  1106                           	
  1107                           l2035:	
  1108  03FC                     ;application.c: 9:     pinMode(LED,0);
  1109                           	clrf	(pinMode@mode)
  1110  03FC  01F0               	movlw	low((_LED-__stringbase))
  1111  03FD  3001               	movwf	fsr0
  1112  03FE  0084               	fcall	stringdir
  1113  03FF  120A  118A  200D  120A  118A  	fcall	_pinMode
  1114  0404  120A  118A  26B7  120A  118A  	line	10
  1115                           	
  1116                           l2037:	
  1117  0409                     ;application.c: 10:     digitalWrite(LED,state);
  1118                           	bcf	status, 5	;RP0=0, select bank0
  1119  0409  1283               	bcf	status, 6	;RP1=0, select bank0
  1120  040A  1303               	movf	(_state),w
  1121  040B  0832               	movwf	(??_setup+0)+0
  1122  040C  00AC               	movf	(??_setup+0)+0,w
  1123  040D  082C               	movwf	(digitalWrite@value)
  1124  040E  00F0               	movlw	low((_LED-__stringbase))
  1125  040F  3001               	movwf	fsr0
  1126  0410  0084               	fcall	stringdir
  1127  0411  120A  118A  200D  120A  118A  	fcall	_digitalWrite
  1128  0416  120A  118A  2580  120A  118A  	line	11
  1129                           	
  1130                           l2039:	
  1131  041B                     ;application.c: 11:     for(char i=0;i<256;i++)
  1132                           	clrf	(setup@i)
  1133  041B  01FD               	goto	l2043
  1134  041C  2C1E               	
  1135                           l2041:	
  1136  041D                     	goto	l421
  1137  041D  2C39               	
  1138                           l419:	
  1139  041E                     	line	13
  1140                           	
  1141                           l2043:	
  1142  041E                     ;application.c: 12:     {;application.c: 13:         SerialPrint(";");
  1143                           	movlw	(low((((STR_1)-__stringbase)|8000h)))&0ffh
  1144  041E  3006               	fcall	_SerialPrint
  1145  041F  120A  118A  230E  120A  118A  	line	14
  1146                           	
  1147                           l2045:	
  1148  0424                     ;application.c: 14:         SerialPrintLn(i);
  1149                           	movf	(setup@i),w
  1150  0424  087D               	bcf	status, 5	;RP0=0, select bank0
  1151  0425  1283               	bcf	status, 6	;RP1=0, select bank0
  1152  0426  1303               	movwf	(??_setup+0)+0
  1153  0427  00AC               	clrf	(??_setup+0)+0+1
  1154  0428  01AD               		movf	(??_setup+0)+0,w
  1155  0429  082C               	movwf	(SerialPrintLn@dataText)
  1156  042A  00F1               movf	(??_setup+0)+1,w
  1157  042B  082D               movwf	(SerialPrintLn@dataText+1)
  1158  042C  00F2               
  1159                           	fcall	_SerialPrintLn
  1160  042D  120A  118A  2360  120A  118A  	line	16
  1161                           	
  1162                           l2047:	
  1163  0432                     ;application.c: 16:     }
  1164                           	movlw	low(01h)
  1165  0432  3001               	bcf	status, 5	;RP0=0, select bank0
  1166  0433  1283               	bcf	status, 6	;RP1=0, select bank0
  1167  0434  1303               	movwf	(??_setup+0)+0
  1168  0435  00AC               	movf	(??_setup+0)+0,w
  1169  0436  082C               	addwf	(setup@i),f
  1170  0437  07FD               	goto	l2043
  1171  0438  2C1E               	
  1172                           l420:	
  1173  0439                     	line	17
  1174                           	
  1175                           l421:	
  1176  0439                     	return
  1177  0439  0008               	opt stack 0
  1178                           GLOBAL	__end_of_setup
  1179                           	__end_of_setup:
  1180  043A                     	signat	_setup,89
  1181                           	global	_pinMode
  1182                           
  1183 ;; *************** function _pinMode *****************
  1184 ;; Defined at:
  1185 ;;		line 62 in file "source.c"
  1186 ;; Parameters:    Size  Location     Type
  1187 ;;  pin             1    wreg     unsigned char 
  1188 ;;  mode            1    0[COMMON] unsigned char 
  1189 ;; Auto vars:     Size  Location     Type
  1190 ;;  pin             1    3[COMMON] unsigned char 
  1191 ;; Return value:  Size  Location     Type
  1192 ;;                  1    wreg      void 
  1193 ;; Registers used:
  1194 ;;		wreg, fsr0l, fsr0h, status,2, status,0
  1195 ;; Tracked objects:
  1196 ;;		On entry : 0/0
  1197 ;;		On exit  : 0/0
  1198 ;;		Unchanged: 0/0
  1199 ;; Data sizes:     COMMON   BANK0   BANK1   BANK3   BANK2
  1200 ;;      Params:         1       0       0       0       0
  1201 ;;      Locals:         1       0       0       0       0
  1202 ;;      Temps:          2       0       0       0       0
  1203 ;;      Totals:         4       0       0       0       0
  1204 ;;Total ram usage:        4 bytes
  1205 ;; Hardware stack levels used:    1
  1206 ;; This function calls:
  1207 ;;		Nothing
  1208 ;; This function is called by:
  1209 ;;		_setup
  1210 ;; This function uses a non-reentrant model
  1211 ;;
  1212                           psect	text2,local,class=CODE,delta=2,merge=1,group=0
  1213                           	file	"source.c"
  1214                           	line	62
  1215                           global __ptext2
  1216                           __ptext2:	;psect for function _pinMode
  1217  06B7                     psect	text2
  1218                           	file	"source.c"
  1219                           	line	62
  1220                           	global	__size_of_pinMode
  1221                           	__size_of_pinMode	equ	__end_of_pinMode-_pinMode
  1222  013F                     	
  1223                           _pinMode:	
  1224  06B7                     ;incstack = 0
  1225                           	opt	stack 6
  1226                           ; Regs used in _pinMode: [wreg-fsr0h+status,2+status,0]
  1227                           ;pinMode@pin stored from wreg
  1228                           	movwf	(pinMode@pin)
  1229  06B7  00F3               	line	64
  1230                           	
  1231                           l1823:	
  1232  06B8                     ;source.c: 62: void pinMode(char pin, char mode);source.c: 63: {;source.c: 64:     switc
                                 h(pin)
  1233                           	goto	l1881
  1234  06B8  2F9A               	line	66
  1235                           ;source.c: 65:     {;source.c: 66:         case 0:
  1236                           	
  1237                           l153:	
  1238  06B9                     	line	67
  1239                           	
  1240                           l1825:	
  1241  06B9                     ;source.c: 67:             TRISCbits.TRISC7 = mode;
  1242                           	rrf	(pinMode@mode),w
  1243  06B9  0C70               	bsf	status, 5	;RP0=1, select bank1
  1244  06BA  1683               	bcf	status, 6	;RP1=0, select bank1
  1245  06BB  1303               	skipc
  1246  06BC  1C03               	bcf	(135)^080h,7	;volatile
  1247  06BD  1387               	skipnc
  1248  06BE  1803               	bsf	(135)^080h,7	;volatile
  1249  06BF  1787               	line	68
  1250                           ;source.c: 68:             break;
  1251                           	goto	l181
  1252  06C0  2FF5               	line	69
  1253                           ;source.c: 69:         case 1:
  1254                           	
  1255                           l155:	
  1256  06C1                     	line	70
  1257                           	
  1258                           l1827:	
  1259  06C1                     ;source.c: 70:             TRISCbits.TRISC6 = mode;
  1260                           	rrf	(pinMode@mode),w
  1261  06C1  0C70               	bsf	status, 5	;RP0=1, select bank1
  1262  06C2  1683               	bcf	status, 6	;RP1=0, select bank1
  1263  06C3  1303               	skipc
  1264  06C4  1C03               	bcf	(135)^080h,6	;volatile
  1265  06C5  1307               	skipnc
  1266  06C6  1803               	bsf	(135)^080h,6	;volatile
  1267  06C7  1707               	line	71
  1268                           ;source.c: 71:             break;
  1269                           	goto	l181
  1270  06C8  2FF5               	line	72
  1271                           ;source.c: 72:         case 2:
  1272                           	
  1273                           l156:	
  1274  06C9                     	line	73
  1275                           	
  1276                           l1829:	
  1277  06C9                     ;source.c: 73:             TRISDbits.TRISD2 = mode;
  1278                           	rrf	(pinMode@mode),w
  1279  06C9  0C70               	bsf	status, 5	;RP0=1, select bank1
  1280  06CA  1683               	bcf	status, 6	;RP1=0, select bank1
  1281  06CB  1303               	skipc
  1282  06CC  1C03               	bcf	(136)^080h,2	;volatile
  1283  06CD  1108               	skipnc
  1284  06CE  1803               	bsf	(136)^080h,2	;volatile
  1285  06CF  1508               	line	74
  1286                           ;source.c: 74:             break;
  1287                           	goto	l181
  1288  06D0  2FF5               	line	75
  1289                           ;source.c: 75:         case 3:
  1290                           	
  1291                           l157:	
  1292  06D1                     	line	76
  1293                           	
  1294                           l1831:	
  1295  06D1                     ;source.c: 76:             TRISDbits.TRISD3 = mode;
  1296                           	rrf	(pinMode@mode),w
  1297  06D1  0C70               	bsf	status, 5	;RP0=1, select bank1
  1298  06D2  1683               	bcf	status, 6	;RP1=0, select bank1
  1299  06D3  1303               	skipc
  1300  06D4  1C03               	bcf	(136)^080h,3	;volatile
  1301  06D5  1188               	skipnc
  1302  06D6  1803               	bsf	(136)^080h,3	;volatile
  1303  06D7  1588               	line	77
  1304                           ;source.c: 77:             break;
  1305                           	goto	l181
  1306  06D8  2FF5               	line	78
  1307                           ;source.c: 78:         case 4:
  1308                           	
  1309                           l158:	
  1310  06D9                     	line	79
  1311                           	
  1312                           l1833:	
  1313  06D9                     ;source.c: 79:             TRISCbits.TRISC4 = mode;
  1314                           	rrf	(pinMode@mode),w
  1315  06D9  0C70               	bsf	status, 5	;RP0=1, select bank1
  1316  06DA  1683               	bcf	status, 6	;RP1=0, select bank1
  1317  06DB  1303               	skipc
  1318  06DC  1C03               	bcf	(135)^080h,4	;volatile
  1319  06DD  1207               	skipnc
  1320  06DE  1803               	bsf	(135)^080h,4	;volatile
  1321  06DF  1607               	line	80
  1322                           ;source.c: 80:             break;
  1323                           	goto	l181
  1324  06E0  2FF5               	line	81
  1325                           ;source.c: 81:         case 5:
  1326                           	
  1327                           l159:	
  1328  06E1                     	line	82
  1329                           	
  1330                           l1835:	
  1331  06E1                     ;source.c: 82:             TRISCbits.TRISC5 = mode;
  1332                           	rrf	(pinMode@mode),w
  1333  06E1  0C70               	bsf	status, 5	;RP0=1, select bank1
  1334  06E2  1683               	bcf	status, 6	;RP1=0, select bank1
  1335  06E3  1303               	skipc
  1336  06E4  1C03               	bcf	(135)^080h,5	;volatile
  1337  06E5  1287               	skipnc
  1338  06E6  1803               	bsf	(135)^080h,5	;volatile
  1339  06E7  1687               	line	83
  1340                           ;source.c: 83:             break;
  1341                           	goto	l181
  1342  06E8  2FF5               	line	84
  1343                           ;source.c: 84:         case 6:
  1344                           	
  1345                           l160:	
  1346  06E9                     	line	85
  1347                           	
  1348                           l1837:	
  1349  06E9                     ;source.c: 85:             TRISDbits.TRISD4 = mode;
  1350                           	rrf	(pinMode@mode),w
  1351  06E9  0C70               	bsf	status, 5	;RP0=1, select bank1
  1352  06EA  1683               	bcf	status, 6	;RP1=0, select bank1
  1353  06EB  1303               	skipc
  1354  06EC  1C03               	bcf	(136)^080h,4	;volatile
  1355  06ED  1208               	skipnc
  1356  06EE  1803               	bsf	(136)^080h,4	;volatile
  1357  06EF  1608               	line	86
  1358                           ;source.c: 86:             break;
  1359                           	goto	l181
  1360  06F0  2FF5               	line	87
  1361                           ;source.c: 87:         case 7:
  1362                           	
  1363                           l161:	
  1364  06F1                     	line	88
  1365                           	
  1366                           l1839:	
  1367  06F1                     ;source.c: 88:             TRISDbits.TRISD5 = mode;
  1368                           	rrf	(pinMode@mode),w
  1369  06F1  0C70               	bsf	status, 5	;RP0=1, select bank1
  1370  06F2  1683               	bcf	status, 6	;RP1=0, select bank1
  1371  06F3  1303               	skipc
  1372  06F4  1C03               	bcf	(136)^080h,5	;volatile
  1373  06F5  1288               	skipnc
  1374  06F6  1803               	bsf	(136)^080h,5	;volatile
  1375  06F7  1688               	line	89
  1376                           ;source.c: 89:             break;
  1377                           	goto	l181
  1378  06F8  2FF5               	line	90
  1379                           ;source.c: 90:         case 8:
  1380                           	
  1381                           l162:	
  1382  06F9                     	line	91
  1383                           	
  1384                           l1841:	
  1385  06F9                     ;source.c: 91:             TRISDbits.TRISD6 = mode;
  1386                           	rrf	(pinMode@mode),w
  1387  06F9  0C70               	bsf	status, 5	;RP0=1, select bank1
  1388  06FA  1683               	bcf	status, 6	;RP1=0, select bank1
  1389  06FB  1303               	skipc
  1390  06FC  1C03               	bcf	(136)^080h,6	;volatile
  1391  06FD  1308               	skipnc
  1392  06FE  1803               	bsf	(136)^080h,6	;volatile
  1393  06FF  1708               	line	92
  1394                           ;source.c: 92:             break;
  1395                           	goto	l181
  1396  0700  2FF5               	line	93
  1397                           ;source.c: 93:         case 9:
  1398                           	
  1399                           l163:	
  1400  0701                     	line	94
  1401                           	
  1402                           l1843:	
  1403  0701                     ;source.c: 94:             TRISDbits.TRISD7 = mode;
  1404                           	rrf	(pinMode@mode),w
  1405  0701  0C70               	bsf	status, 5	;RP0=1, select bank1
  1406  0702  1683               	bcf	status, 6	;RP1=0, select bank1
  1407  0703  1303               	skipc
  1408  0704  1C03               	bcf	(136)^080h,7	;volatile
  1409  0705  1388               	skipnc
  1410  0706  1803               	bsf	(136)^080h,7	;volatile
  1411  0707  1788               	line	95
  1412                           ;source.c: 95:             break;
  1413                           	goto	l181
  1414  0708  2FF5               	line	96
  1415                           ;source.c: 96:         case 10:
  1416                           	
  1417                           l164:	
  1418  0709                     	line	97
  1419                           	
  1420                           l1845:	
  1421  0709                     ;source.c: 97:             TRISBbits.TRISB0 = mode;
  1422                           	rrf	(pinMode@mode),w
  1423  0709  0C70               	bsf	status, 5	;RP0=1, select bank1
  1424  070A  1683               	bcf	status, 6	;RP1=0, select bank1
  1425  070B  1303               	skipc
  1426  070C  1C03               	bcf	(134)^080h,0	;volatile
  1427  070D  1006               	skipnc
  1428  070E  1803               	bsf	(134)^080h,0	;volatile
  1429  070F  1406               	line	98
  1430                           ;source.c: 98:             break;
  1431                           	goto	l181
  1432  0710  2FF5               	line	99
  1433                           ;source.c: 99:         case 11:
  1434                           	
  1435                           l165:	
  1436  0711                     	line	100
  1437                           	
  1438                           l1847:	
  1439  0711                     ;source.c: 100:             TRISBbits.TRISB1 = mode;
  1440                           	rrf	(pinMode@mode),w
  1441  0711  0C70               	bsf	status, 5	;RP0=1, select bank1
  1442  0712  1683               	bcf	status, 6	;RP1=0, select bank1
  1443  0713  1303               	skipc
  1444  0714  1C03               	bcf	(134)^080h,1	;volatile
  1445  0715  1086               	skipnc
  1446  0716  1803               	bsf	(134)^080h,1	;volatile
  1447  0717  1486               	line	101
  1448                           ;source.c: 101:             break;
  1449                           	goto	l181
  1450  0718  2FF5               	line	102
  1451                           ;source.c: 102:         case 12:
  1452                           	
  1453                           l166:	
  1454  0719                     	line	103
  1455                           	
  1456                           l1849:	
  1457  0719                     ;source.c: 103:             TRISBbits.TRISB2 = mode;
  1458                           	rrf	(pinMode@mode),w
  1459  0719  0C70               	bsf	status, 5	;RP0=1, select bank1
  1460  071A  1683               	bcf	status, 6	;RP1=0, select bank1
  1461  071B  1303               	skipc
  1462  071C  1C03               	bcf	(134)^080h,2	;volatile
  1463  071D  1106               	skipnc
  1464  071E  1803               	bsf	(134)^080h,2	;volatile
  1465  071F  1506               	line	104
  1466                           ;source.c: 104:             break;
  1467                           	goto	l181
  1468  0720  2FF5               	line	105
  1469                           ;source.c: 105:         case 13:
  1470                           	
  1471                           l167:	
  1472  0721                     	line	106
  1473                           	
  1474                           l1851:	
  1475  0721                     ;source.c: 106:             TRISBbits.TRISB4 = mode;
  1476                           	rrf	(pinMode@mode),w
  1477  0721  0C70               	bsf	status, 5	;RP0=1, select bank1
  1478  0722  1683               	bcf	status, 6	;RP1=0, select bank1
  1479  0723  1303               	skipc
  1480  0724  1C03               	bcf	(134)^080h,4	;volatile
  1481  0725  1206               	skipnc
  1482  0726  1803               	bsf	(134)^080h,4	;volatile
  1483  0727  1606               	line	107
  1484                           ;source.c: 107:             break;
  1485                           	goto	l181
  1486  0728  2FF5               	line	108
  1487                           ;source.c: 108:         case 14:
  1488                           	
  1489                           l168:	
  1490  0729                     	line	109
  1491                           	
  1492                           l1853:	
  1493  0729                     ;source.c: 109:             TRISBbits.TRISB3 = mode;
  1494                           	rrf	(pinMode@mode),w
  1495  0729  0C70               	bsf	status, 5	;RP0=1, select bank1
  1496  072A  1683               	bcf	status, 6	;RP1=0, select bank1
  1497  072B  1303               	skipc
  1498  072C  1C03               	bcf	(134)^080h,3	;volatile
  1499  072D  1186               	skipnc
  1500  072E  1803               	bsf	(134)^080h,3	;volatile
  1501  072F  1586               	line	110
  1502                           ;source.c: 110:             break;
  1503                           	goto	l181
  1504  0730  2FF5               	line	111
  1505                           ;source.c: 111:         case 15:
  1506                           	
  1507                           l169:	
  1508  0731                     	line	112
  1509                           	
  1510                           l1855:	
  1511  0731                     ;source.c: 112:             TRISBbits.TRISB5 = mode;
  1512                           	rrf	(pinMode@mode),w
  1513  0731  0C70               	bsf	status, 5	;RP0=1, select bank1
  1514  0732  1683               	bcf	status, 6	;RP1=0, select bank1
  1515  0733  1303               	skipc
  1516  0734  1C03               	bcf	(134)^080h,5	;volatile
  1517  0735  1286               	skipnc
  1518  0736  1803               	bsf	(134)^080h,5	;volatile
  1519  0737  1686               	line	113
  1520                           ;source.c: 113:             break;
  1521                           	goto	l181
  1522  0738  2FF5               	line	114
  1523                           ;source.c: 114:         case 16:
  1524                           	
  1525                           l170:	
  1526  0739                     	line	115
  1527                           	
  1528                           l1857:	
  1529  0739                     ;source.c: 115:             TRISBbits.TRISB6 = mode;
  1530                           	rrf	(pinMode@mode),w
  1531  0739  0C70               	bsf	status, 5	;RP0=1, select bank1
  1532  073A  1683               	bcf	status, 6	;RP1=0, select bank1
  1533  073B  1303               	skipc
  1534  073C  1C03               	bcf	(134)^080h,6	;volatile
  1535  073D  1306               	skipnc
  1536  073E  1803               	bsf	(134)^080h,6	;volatile
  1537  073F  1706               	line	116
  1538                           ;source.c: 116:             break;
  1539                           	goto	l181
  1540  0740  2FF5               	line	117
  1541                           ;source.c: 117:         case 17:
  1542                           	
  1543                           l171:	
  1544  0741                     	line	118
  1545                           	
  1546                           l1859:	
  1547  0741                     ;source.c: 118:             TRISCbits.TRISC3 = mode;
  1548                           	rrf	(pinMode@mode),w
  1549  0741  0C70               	bsf	status, 5	;RP0=1, select bank1
  1550  0742  1683               	bcf	status, 6	;RP1=0, select bank1
  1551  0743  1303               	skipc
  1552  0744  1C03               	bcf	(135)^080h,3	;volatile
  1553  0745  1187               	skipnc
  1554  0746  1803               	bsf	(135)^080h,3	;volatile
  1555  0747  1587               	line	119
  1556                           ;source.c: 119:             break;
  1557                           	goto	l181
  1558  0748  2FF5               	line	120
  1559                           ;source.c: 120:         case 18:
  1560                           	
  1561                           l172:	
  1562  0749                     	line	121
  1563                           	
  1564                           l1861:	
  1565  0749                     ;source.c: 121:             TRISBbits.TRISB7 = mode;
  1566                           	rrf	(pinMode@mode),w
  1567  0749  0C70               	bsf	status, 5	;RP0=1, select bank1
  1568  074A  1683               	bcf	status, 6	;RP1=0, select bank1
  1569  074B  1303               	skipc
  1570  074C  1C03               	bcf	(134)^080h,7	;volatile
  1571  074D  1386               	skipnc
  1572  074E  1803               	bsf	(134)^080h,7	;volatile
  1573  074F  1786               	line	122
  1574                           ;source.c: 122:             break;
  1575                           	goto	l181
  1576  0750  2FF5               	line	123
  1577                           ;source.c: 123:         case 19:
  1578                           	
  1579                           l173:	
  1580  0751                     	line	124
  1581                           	
  1582                           l1863:	
  1583  0751                     ;source.c: 124:             TRISAbits.TRISA4 = mode;
  1584                           	rrf	(pinMode@mode),w
  1585  0751  0C70               	bsf	status, 5	;RP0=1, select bank1
  1586  0752  1683               	bcf	status, 6	;RP1=0, select bank1
  1587  0753  1303               	skipc
  1588  0754  1C03               	bcf	(133)^080h,4	;volatile
  1589  0755  1205               	skipnc
  1590  0756  1803               	bsf	(133)^080h,4	;volatile
  1591  0757  1605               	line	125
  1592                           ;source.c: 125:             break;
  1593                           	goto	l181
  1594  0758  2FF5               	line	126
  1595                           ;source.c: 126:         case 20:
  1596                           	
  1597                           l174:	
  1598  0759                     	line	127
  1599                           ;source.c: 127:             ADCON1bits.PCFG3 = 0;
  1600                           	bsf	status, 5	;RP0=1, select bank1
  1601  0759  1683               	bcf	status, 6	;RP1=0, select bank1
  1602  075A  1303               	bcf	(159)^080h,3	;volatile
  1603  075B  119F               	line	128
  1604                           ;source.c: 128:             ADCON1bits.PCFG2 = 1;
  1605                           	bsf	(159)^080h,2	;volatile
  1606  075C  151F               	line	129
  1607                           ;source.c: 129:             ADCON1bits.PCFG1 = 0;
  1608                           	bcf	(159)^080h,1	;volatile
  1609  075D  109F               	line	130
  1610                           ;source.c: 130:             ADCON1bits.PCFG0 = 0;
  1611                           	bcf	(159)^080h,0	;volatile
  1612  075E  101F               	line	131
  1613                           	
  1614                           l1865:	
  1615  075F                     ;source.c: 131:             TRISAbits.TRISA5 = mode;
  1616                           	rrf	(pinMode@mode),w
  1617  075F  0C70               	skipc
  1618  0760  1C03               	bcf	(133)^080h,5	;volatile
  1619  0761  1285               	skipnc
  1620  0762  1803               	bsf	(133)^080h,5	;volatile
  1621  0763  1685               	line	134
  1622                           ;source.c: 134:             break;
  1623                           	goto	l181
  1624  0764  2FF5               	line	135
  1625                           ;source.c: 135:         case 21:
  1626                           	
  1627                           l175:	
  1628  0765                     	line	136
  1629                           	
  1630                           l1867:	
  1631  0765                     ;source.c: 136:             TRISCbits.TRISC0 = mode;
  1632                           	rrf	(pinMode@mode),w
  1633  0765  0C70               	bsf	status, 5	;RP0=1, select bank1
  1634  0766  1683               	bcf	status, 6	;RP1=0, select bank1
  1635  0767  1303               	skipc
  1636  0768  1C03               	bcf	(135)^080h,0	;volatile
  1637  0769  1007               	skipnc
  1638  076A  1803               	bsf	(135)^080h,0	;volatile
  1639  076B  1407               	line	137
  1640                           ;source.c: 137:             break;
  1641                           	goto	l181
  1642  076C  2FF5               	line	138
  1643                           ;source.c: 138:         case 22:
  1644                           	
  1645                           l176:	
  1646  076D                     	line	139
  1647                           	
  1648                           l1869:	
  1649  076D                     ;source.c: 139:             TRISCbits.TRISC1 = mode;
  1650                           	rrf	(pinMode@mode),w
  1651  076D  0C70               	bsf	status, 5	;RP0=1, select bank1
  1652  076E  1683               	bcf	status, 6	;RP1=0, select bank1
  1653  076F  1303               	skipc
  1654  0770  1C03               	bcf	(135)^080h,1	;volatile
  1655  0771  1087               	skipnc
  1656  0772  1803               	bsf	(135)^080h,1	;volatile
  1657  0773  1487               	line	140
  1658                           ;source.c: 140:             break;
  1659                           	goto	l181
  1660  0774  2FF5               	line	141
  1661                           ;source.c: 141:         case 23:
  1662                           	
  1663                           l177:	
  1664  0775                     	line	142
  1665                           	
  1666                           l1871:	
  1667  0775                     ;source.c: 142:             TRISCbits.TRISC2 = mode;
  1668                           	rrf	(pinMode@mode),w
  1669  0775  0C70               	bsf	status, 5	;RP0=1, select bank1
  1670  0776  1683               	bcf	status, 6	;RP1=0, select bank1
  1671  0777  1303               	skipc
  1672  0778  1C03               	bcf	(135)^080h,2	;volatile
  1673  0779  1107               	skipnc
  1674  077A  1803               	bsf	(135)^080h,2	;volatile
  1675  077B  1507               	line	143
  1676                           ;source.c: 143:             break;
  1677                           	goto	l181
  1678  077C  2FF5               	line	144
  1679                           ;source.c: 144:         case 24:
  1680                           	
  1681                           l178:	
  1682  077D                     	line	145
  1683                           	
  1684                           l1873:	
  1685  077D                     ;source.c: 145:             TRISDbits.TRISD1 = mode;
  1686                           	rrf	(pinMode@mode),w
  1687  077D  0C70               	bsf	status, 5	;RP0=1, select bank1
  1688  077E  1683               	bcf	status, 6	;RP1=0, select bank1
  1689  077F  1303               	skipc
  1690  0780  1C03               	bcf	(136)^080h,1	;volatile
  1691  0781  1088               	skipnc
  1692  0782  1803               	bsf	(136)^080h,1	;volatile
  1693  0783  1488               	line	146
  1694                           ;source.c: 146:             break;
  1695                           	goto	l181
  1696  0784  2FF5               	line	147
  1697                           ;source.c: 147:         case 25:
  1698                           	
  1699                           l179:	
  1700  0785                     	line	148
  1701                           	
  1702                           l1875:	
  1703  0785                     ;source.c: 148:             TRISDbits.TRISD0 = mode;
  1704                           	rrf	(pinMode@mode),w
  1705  0785  0C70               	bsf	status, 5	;RP0=1, select bank1
  1706  0786  1683               	bcf	status, 6	;RP1=0, select bank1
  1707  0787  1303               	skipc
  1708  0788  1C03               	bcf	(136)^080h,0	;volatile
  1709  0789  1008               	skipnc
  1710  078A  1803               	bsf	(136)^080h,0	;volatile
  1711  078B  1408               	line	149
  1712                           ;source.c: 149:             break;
  1713                           	goto	l181
  1714  078C  2FF5               	line	150
  1715                           ;source.c: 150:         case 26:
  1716                           	
  1717                           l180:	
  1718  078D                     	line	151
  1719                           ;source.c: 151:             ADCON1bits.PCFG3 = 0;
  1720                           	bsf	status, 5	;RP0=1, select bank1
  1721  078D  1683               	bcf	status, 6	;RP1=0, select bank1
  1722  078E  1303               	bcf	(159)^080h,3	;volatile
  1723  078F  119F               	line	152
  1724                           ;source.c: 152:             ADCON1bits.PCFG2 = 1;
  1725                           	bsf	(159)^080h,2	;volatile
  1726  0790  151F               	line	153
  1727                           ;source.c: 153:             ADCON1bits.PCFG1 = 0;
  1728                           	bcf	(159)^080h,1	;volatile
  1729  0791  109F               	line	154
  1730                           ;source.c: 154:             ADCON1bits.PCFG0 = 0;
  1731                           	bcf	(159)^080h,0	;volatile
  1732  0792  101F               	line	155
  1733                           	
  1734                           l1877:	
  1735  0793                     ;source.c: 155:             TRISAbits.TRISA2 = mode;
  1736                           	rrf	(pinMode@mode),w
  1737  0793  0C70               	skipc
  1738  0794  1C03               	bcf	(133)^080h,2	;volatile
  1739  0795  1105               	skipnc
  1740  0796  1803               	bsf	(133)^080h,2	;volatile
  1741  0797  1505               	line	158
  1742                           ;source.c: 158:             break;
  1743                           	goto	l181
  1744  0798  2FF5               	line	159
  1745                           	
  1746                           l1879:	
  1747  0799                     ;source.c: 159:     }
  1748                           	goto	l181
  1749  0799  2FF5               	
  1750                           l152:	
  1751  079A                     	
  1752                           l1881:	
  1753  079A                     	movf	(pinMode@pin),w
  1754  079A  0873               	movwf	(??_pinMode+0)+0
  1755  079B  00F1               	clrf	(??_pinMode+0)+0+1
  1756  079C  01F2               	; Switch on 2 bytes has been partitioned into a top level switch of size 1, and 1 sub-s
                                 witches
  1757                           ; Switch size 1, requested type "space"
  1758                           ; Number of cases is 1, Range of values is 0 to 0
  1759                           ; switch strategies available:
  1760                           ; Name         Instructions Cycles
  1761                           ; simple_byte            4     3 (average)
  1762                           ; direct_byte           11     8 (fixed)
  1763                           ; jumptable            260     6 (fixed)
  1764                           ;	Chosen strategy is simple_byte
  1765                           
  1766                           	movf 1+(??_pinMode+0)+0,w
  1767  079D  0872               	opt asmopt_push
  1768                           	opt asmopt_off
  1769                           	xorlw	0^0	; case 0
  1770  079E  3A00               	skipnz
  1771  079F  1903               	goto	l2113
  1772  07A0  2FA2               	goto	l181
  1773  07A1  2FF5               	opt asmopt_pop
  1774                           	
  1775                           l2113:	
  1776  07A2                     ; Switch size 1, requested type "space"
  1777                           ; Number of cases is 27, Range of values is 0 to 26
  1778                           ; switch strategies available:
  1779                           ; Name         Instructions Cycles
  1780                           ; simple_byte           82    42 (average)
  1781                           ; direct_byte           89     8 (fixed)
  1782                           ; jumptable            260     6 (fixed)
  1783                           ;	Chosen strategy is simple_byte
  1784                           
  1785                           	movf 0+(??_pinMode+0)+0,w
  1786  07A2  0871               	opt asmopt_push
  1787                           	opt asmopt_off
  1788                           	xorlw	0^0	; case 0
  1789  07A3  3A00               	skipnz
  1790  07A4  1903               	goto	l1825
  1791  07A5  2EB9               	xorlw	1^0	; case 1
  1792  07A6  3A01               	skipnz
  1793  07A7  1903               	goto	l1827
  1794  07A8  2EC1               	xorlw	2^1	; case 2
  1795  07A9  3A03               	skipnz
  1796  07AA  1903               	goto	l1829
  1797  07AB  2EC9               	xorlw	3^2	; case 3
  1798  07AC  3A01               	skipnz
  1799  07AD  1903               	goto	l1831
  1800  07AE  2ED1               	xorlw	4^3	; case 4
  1801  07AF  3A07               	skipnz
  1802  07B0  1903               	goto	l1833
  1803  07B1  2ED9               	xorlw	5^4	; case 5
  1804  07B2  3A01               	skipnz
  1805  07B3  1903               	goto	l1835
  1806  07B4  2EE1               	xorlw	6^5	; case 6
  1807  07B5  3A03               	skipnz
  1808  07B6  1903               	goto	l1837
  1809  07B7  2EE9               	xorlw	7^6	; case 7
  1810  07B8  3A01               	skipnz
  1811  07B9  1903               	goto	l1839
  1812  07BA  2EF1               	xorlw	8^7	; case 8
  1813  07BB  3A0F               	skipnz
  1814  07BC  1903               	goto	l1841
  1815  07BD  2EF9               	xorlw	9^8	; case 9
  1816  07BE  3A01               	skipnz
  1817  07BF  1903               	goto	l1843
  1818  07C0  2F01               	xorlw	10^9	; case 10
  1819  07C1  3A03               	skipnz
  1820  07C2  1903               	goto	l1845
  1821  07C3  2F09               	xorlw	11^10	; case 11
  1822  07C4  3A01               	skipnz
  1823  07C5  1903               	goto	l1847
  1824  07C6  2F11               	xorlw	12^11	; case 12
  1825  07C7  3A07               	skipnz
  1826  07C8  1903               	goto	l1849
  1827  07C9  2F19               	xorlw	13^12	; case 13
  1828  07CA  3A01               	skipnz
  1829  07CB  1903               	goto	l1851
  1830  07CC  2F21               	xorlw	14^13	; case 14
  1831  07CD  3A03               	skipnz
  1832  07CE  1903               	goto	l1853
  1833  07CF  2F29               	xorlw	15^14	; case 15
  1834  07D0  3A01               	skipnz
  1835  07D1  1903               	goto	l1855
  1836  07D2  2F31               	xorlw	16^15	; case 16
  1837  07D3  3A1F               	skipnz
  1838  07D4  1903               	goto	l1857
  1839  07D5  2F39               	xorlw	17^16	; case 17
  1840  07D6  3A01               	skipnz
  1841  07D7  1903               	goto	l1859
  1842  07D8  2F41               	xorlw	18^17	; case 18
  1843  07D9  3A03               	skipnz
  1844  07DA  1903               	goto	l1861
  1845  07DB  2F49               	xorlw	19^18	; case 19
  1846  07DC  3A01               	skipnz
  1847  07DD  1903               	goto	l1863
  1848  07DE  2F51               	xorlw	20^19	; case 20
  1849  07DF  3A07               	skipnz
  1850  07E0  1903               	goto	l174
  1851  07E1  2F59               	xorlw	21^20	; case 21
  1852  07E2  3A01               	skipnz
  1853  07E3  1903               	goto	l1867
  1854  07E4  2F65               	xorlw	22^21	; case 22
  1855  07E5  3A03               	skipnz
  1856  07E6  1903               	goto	l1869
  1857  07E7  2F6D               	xorlw	23^22	; case 23
  1858  07E8  3A01               	skipnz
  1859  07E9  1903               	goto	l1871
  1860  07EA  2F75               	xorlw	24^23	; case 24
  1861  07EB  3A0F               	skipnz
  1862  07EC  1903               	goto	l1873
  1863  07ED  2F7D               	xorlw	25^24	; case 25
  1864  07EE  3A01               	skipnz
  1865  07EF  1903               	goto	l1875
  1866  07F0  2F85               	xorlw	26^25	; case 26
  1867  07F1  3A03               	skipnz
  1868  07F2  1903               	goto	l180
  1869  07F3  2F8D               	goto	l181
  1870  07F4  2FF5               	opt asmopt_pop
  1871                           
  1872                           	
  1873                           l154:	
  1874  07F5                     	line	160
  1875                           	
  1876                           l181:	
  1877  07F5                     	return
  1878  07F5  0008               	opt stack 0
  1879                           GLOBAL	__end_of_pinMode
  1880                           	__end_of_pinMode:
  1881  07F6                     	signat	_pinMode,8313
  1882                           	global	_SerialPrint
  1883                           
  1884 ;; *************** function _SerialPrint *****************
  1885 ;; Defined at:
  1886 ;;		line 506 in file "source.c"
  1887 ;; Parameters:    Size  Location     Type
  1888 ;;  dataText        1    wreg     PTR unsigned char 
  1889 ;;		 -> STR_1(2), 
  1890 ;; Auto vars:     Size  Location     Type
  1891 ;;  dataText        1    3[COMMON] PTR unsigned char 
  1892 ;;		 -> STR_1(2), 
  1893 ;;  i               2    1[COMMON] unsigned int 
  1894 ;; Return value:  Size  Location     Type
  1895 ;;                  1    wreg      void 
  1896 ;; Registers used:
  1897 ;;		wreg, fsr0l, fsr0h, status,2, status,0, pclath, cstack
  1898 ;; Tracked objects:
  1899 ;;		On entry : 0/0
  1900 ;;		On exit  : 0/0
  1901 ;;		Unchanged: 0/0
  1902 ;; Data sizes:     COMMON   BANK0   BANK1   BANK3   BANK2
  1903 ;;      Params:         0       0       0       0       0
  1904 ;;      Locals:         3       0       0       0       0
  1905 ;;      Temps:          0       0       0       0       0
  1906 ;;      Totals:         3       0       0       0       0
  1907 ;;Total ram usage:        3 bytes
  1908 ;; Hardware stack levels used:    1
  1909 ;; Hardware stack levels required when called:    1
  1910 ;; This function calls:
  1911 ;;		_SerialWrite
  1912 ;; This function is called by:
  1913 ;;		_setup
  1914 ;; This function uses a non-reentrant model
  1915 ;;
  1916                           psect	text3,local,class=CODE,delta=2,merge=1,group=0
  1917                           	line	506
  1918                           global __ptext3
  1919                           __ptext3:	;psect for function _SerialPrint
  1920  030E                     psect	text3
  1921                           	file	"source.c"
  1922                           	line	506
  1923                           	global	__size_of_SerialPrint
  1924                           	__size_of_SerialPrint	equ	__end_of_SerialPrint-_SerialPrint
  1925  0027                     	
  1926                           _SerialPrint:	
  1927  030E                     ;incstack = 0
  1928                           	opt	stack 5
  1929                           ; Regs used in _SerialPrint: [wreg-fsr0h+status,2+status,0+pclath+cstack]
  1930                           ;SerialPrint@dataText stored from wreg
  1931                           	movwf	(SerialPrint@dataText)
  1932  030E  00F3               	line	508
  1933                           	
  1934                           l1997:	
  1935  030F                     ;source.c: 506: void SerialPrint(char *dataText);source.c: 507: {;source.c: 508:     for
                                 (unsigned int i=0;dataText[i]!='\0';i++)
  1936                           	clrf	(SerialPrint@i)
  1937  030F  01F1               	clrf	(SerialPrint@i+1)
  1938  0310  01F2               	goto	l2003
  1939  0311  2B26               	
  1940                           l333:	
  1941  0312                     	line	510
  1942                           	
  1943                           l1999:	
  1944  0312                     ;source.c: 509:     {;source.c: 510:         SerialWrite(dataText[i]);
  1945                           	movf	(SerialPrint@i),w
  1946  0312  0871               	addwf	(SerialPrint@dataText),w
  1947  0313  0773               	movwf	fsr0
  1948  0314  0084               	fcall	stringdir
  1949  0315  120A  118A  200D  120A  118A  	fcall	_SerialWrite
  1950  031A  120A  118A  22CC  120A  118A  	line	511
  1951                           	
  1952                           l2001:	
  1953  031F                     ;source.c: 511:     }
  1954                           	movlw	01h
  1955  031F  3001               	addwf	(SerialPrint@i),f
  1956  0320  07F1               	skipnc
  1957  0321  1803               	incf	(SerialPrint@i+1),f
  1958  0322  0AF2               	movlw	0
  1959  0323  3000               	addwf	(SerialPrint@i+1),f
  1960  0324  07F2               	goto	l2003
  1961  0325  2B26               	
  1962                           l332:	
  1963  0326                     	
  1964                           l2003:	
  1965  0326                     	movf	(SerialPrint@i),w
  1966  0326  0871               	addwf	(SerialPrint@dataText),w
  1967  0327  0773               	movwf	fsr0
  1968  0328  0084               	fcall	stringdir
  1969  0329  120A  118A  200D  120A  118A  	xorlw	0
  1970  032E  3A00               	skipz
  1971  032F  1D03               	goto	u641
  1972  0330  2B32               	goto	u640
  1973  0331  2B33               u641:
  1974  0332                     	goto	l1999
  1975  0332  2B12               u640:
  1976  0333                     	goto	l335
  1977  0333  2B34               	
  1978                           l334:	
  1979  0334                     	line	512
  1980                           	
  1981                           l335:	
  1982  0334                     	return
  1983  0334  0008               	opt stack 0
  1984                           GLOBAL	__end_of_SerialPrint
  1985                           	__end_of_SerialPrint:
  1986  0335                     	signat	_SerialPrint,4217
  1987                           	global	_SerialBegin
  1988                           
  1989 ;; *************** function _SerialBegin *****************
  1990 ;; Defined at:
  1991 ;;		line 435 in file "source.c"
  1992 ;; Parameters:    Size  Location     Type
  1993 ;;  BaudRate        4    6[BANK0 ] const long 
  1994 ;; Auto vars:     Size  Location     Type
  1995 ;;  x               2   10[BANK0 ] unsigned int 
  1996 ;; Return value:  Size  Location     Type
  1997 ;;                  1    wreg      unsigned char 
  1998 ;; Registers used:
  1999 ;;		wreg, status,2, status,0, pclath, cstack
  2000 ;; Tracked objects:
  2001 ;;		On entry : 0/0
  2002 ;;		On exit  : 0/0
  2003 ;;		Unchanged: 0/0
  2004 ;; Data sizes:     COMMON   BANK0   BANK1   BANK3   BANK2
  2005 ;;      Params:         0       4       0       0       0
  2006 ;;      Locals:         0       2       0       0       0
  2007 ;;      Temps:          4       0       0       0       0
  2008 ;;      Totals:         4       6       0       0       0
  2009 ;;Total ram usage:       10 bytes
  2010 ;; Hardware stack levels used:    1
  2011 ;; Hardware stack levels required when called:    1
  2012 ;; This function calls:
  2013 ;;		___aldiv
  2014 ;; This function is called by:
  2015 ;;		_setup
  2016 ;; This function uses a non-reentrant model
  2017 ;;
  2018                           psect	text4,local,class=CODE,delta=2,merge=1,group=0
  2019                           	line	435
  2020                           global __ptext4
  2021                           __ptext4:	;psect for function _SerialBegin
  2022  043A                     psect	text4
  2023                           	file	"source.c"
  2024                           	line	435
  2025                           	global	__size_of_SerialBegin
  2026                           	__size_of_SerialBegin	equ	__end_of_SerialBegin-_SerialBegin
  2027  00A0                     	
  2028                           _SerialBegin:	
  2029  043A                     ;incstack = 0
  2030                           	opt	stack 5
  2031                           ; Regs used in _SerialBegin: [wreg+status,2+status,0+pclath+cstack]
  2032                           	line	441
  2033                           	
  2034                           l1951:	
  2035  043A                     ;source.c: 435: char SerialBegin(const long int BaudRate);source.c: 436: {;source.c: 440
                                 :  unsigned int x;;source.c: 441:  BRGH = 0;
  2036                           	bsf	status, 5	;RP0=1, select bank1
  2037  043A  1683               	bcf	status, 6	;RP1=0, select bank1
  2038  043B  1303               	bcf	(1218/8)^080h,(1218)&7	;volatile
  2039  043C  1118               	line	442
  2040                           	
  2041                           l1953:	
  2042  043D                     ;source.c: 442:  x = (20000000 / (64 * BaudRate)) - 1;
  2043                           	bcf	status, 5	;RP0=0, select bank0
  2044  043D  1283               	bcf	status, 6	;RP1=0, select bank0
  2045  043E  1303               	movf	(SerialBegin@BaudRate),w
  2046  043F  0826               	movwf	(??_SerialBegin+0)+0
  2047  0440  00F9               	movf	(SerialBegin@BaudRate+1),w
  2048  0441  0827               	movwf	((??_SerialBegin+0)+0+1)
  2049  0442  00FA               	movf	(SerialBegin@BaudRate+2),w
  2050  0443  0828               	movwf	((??_SerialBegin+0)+0+2)
  2051  0444  00FB               	movf	(SerialBegin@BaudRate+3),w
  2052  0445  0829               	movwf	((??_SerialBegin+0)+0+3)
  2053  0446  00FC               	movlw	06h
  2054  0447  3006               u615:
  2055  0448                     	clrc
  2056  0448  1003               	rlf	(??_SerialBegin+0)+0,f
  2057  0449  0DF9               	rlf	(??_SerialBegin+0)+1,f
  2058  044A  0DFA               	rlf	(??_SerialBegin+0)+2,f
  2059  044B  0DFB               	rlf	(??_SerialBegin+0)+3,f
  2060  044C  0DFC               u610:
  2061  044D                     	addlw	-1
  2062  044D  3EFF               	skipz
  2063  044E  1D03               	goto	u615
  2064  044F  2C48               	movf	3+(??_SerialBegin+0)+0,w
  2065  0450  087C               	movwf	(___aldiv@divisor+3)
  2066  0451  00F3               	movf	2+(??_SerialBegin+0)+0,w
  2067  0452  087B               	movwf	(___aldiv@divisor+2)
  2068  0453  00F2               	movf	1+(??_SerialBegin+0)+0,w
  2069  0454  087A               	movwf	(___aldiv@divisor+1)
  2070  0455  00F1               	movf	0+(??_SerialBegin+0)+0,w
  2071  0456  0879               	movwf	(___aldiv@divisor)
  2072  0457  00F0               
  2073                           	movlw	01h
  2074  0458  3001               	movwf	(___aldiv@dividend+3)
  2075  0459  00F7               	movlw	031h
  2076  045A  3031               	movwf	(___aldiv@dividend+2)
  2077  045B  00F6               	movlw	02Dh
  2078  045C  302D               	movwf	(___aldiv@dividend+1)
  2079  045D  00F5               	movlw	0
  2080  045E  3000               	movwf	(___aldiv@dividend)
  2081  045F  00F4               
  2082                           	fcall	___aldiv
  2083  0460  120A  118A  24DA  120A  118A  	movf	(0+(?___aldiv)),w
  2084  0465  0870               	addlw	low(0FFFFh)
  2085  0466  3EFF               	bcf	status, 5	;RP0=0, select bank0
  2086  0467  1283               	bcf	status, 6	;RP1=0, select bank0
  2087  0468  1303               	movwf	(SerialBegin@x)
  2088  0469  00AA               	movf	(1+(?___aldiv)),w
  2089  046A  0871               	skipnc
  2090  046B  1803               	addlw	1
  2091  046C  3E01               	addlw	high(0FFFFh)
  2092  046D  3EFF               	movwf	1+(SerialBegin@x)
  2093  046E  00AB               	line	443
  2094                           	
  2095                           l1955:	
  2096  046F                     ;source.c: 443:  if(x > 255)
  2097                           	movlw	01h
  2098  046F  3001               	subwf	(SerialBegin@x+1),w
  2099  0470  022B               	movlw	0
  2100  0471  3000               	skipnz
  2101  0472  1903               	subwf	(SerialBegin@x),w
  2102  0473  022A               	skipc
  2103  0474  1C03               	goto	u621
  2104  0475  2C77               	goto	u620
  2105  0476  2C78               u621:
  2106  0477                     	goto	l1981
  2107  0477  2CC3               u620:
  2108  0478                     	line	445
  2109                           	
  2110                           l1957:	
  2111  0478                     ;source.c: 444:  {;source.c: 445:   BRGH = 1;
  2112                           	bsf	status, 5	;RP0=1, select bank1
  2113  0478  1683               	bcf	status, 6	;RP1=0, select bank1
  2114  0479  1303               	bsf	(1218/8)^080h,(1218)&7	;volatile
  2115  047A  1518               	line	446
  2116                           	
  2117                           l1959:	
  2118  047B                     ;source.c: 446:   x = (20000000 / (16 * BaudRate)) - 1;
  2119                           	bcf	status, 5	;RP0=0, select bank0
  2120  047B  1283               	bcf	status, 6	;RP1=0, select bank0
  2121  047C  1303               	movf	(SerialBegin@BaudRate),w
  2122  047D  0826               	movwf	(??_SerialBegin+0)+0
  2123  047E  00F9               	movf	(SerialBegin@BaudRate+1),w
  2124  047F  0827               	movwf	((??_SerialBegin+0)+0+1)
  2125  0480  00FA               	movf	(SerialBegin@BaudRate+2),w
  2126  0481  0828               	movwf	((??_SerialBegin+0)+0+2)
  2127  0482  00FB               	movf	(SerialBegin@BaudRate+3),w
  2128  0483  0829               	movwf	((??_SerialBegin+0)+0+3)
  2129  0484  00FC               	movlw	04h
  2130  0485  3004               u635:
  2131  0486                     	clrc
  2132  0486  1003               	rlf	(??_SerialBegin+0)+0,f
  2133  0487  0DF9               	rlf	(??_SerialBegin+0)+1,f
  2134  0488  0DFA               	rlf	(??_SerialBegin+0)+2,f
  2135  0489  0DFB               	rlf	(??_SerialBegin+0)+3,f
  2136  048A  0DFC               u630:
  2137  048B                     	addlw	-1
  2138  048B  3EFF               	skipz
  2139  048C  1D03               	goto	u635
  2140  048D  2C86               	movf	3+(??_SerialBegin+0)+0,w
  2141  048E  087C               	movwf	(___aldiv@divisor+3)
  2142  048F  00F3               	movf	2+(??_SerialBegin+0)+0,w
  2143  0490  087B               	movwf	(___aldiv@divisor+2)
  2144  0491  00F2               	movf	1+(??_SerialBegin+0)+0,w
  2145  0492  087A               	movwf	(___aldiv@divisor+1)
  2146  0493  00F1               	movf	0+(??_SerialBegin+0)+0,w
  2147  0494  0879               	movwf	(___aldiv@divisor)
  2148  0495  00F0               
  2149                           	movlw	01h
  2150  0496  3001               	movwf	(___aldiv@dividend+3)
  2151  0497  00F7               	movlw	031h
  2152  0498  3031               	movwf	(___aldiv@dividend+2)
  2153  0499  00F6               	movlw	02Dh
  2154  049A  302D               	movwf	(___aldiv@dividend+1)
  2155  049B  00F5               	movlw	0
  2156  049C  3000               	movwf	(___aldiv@dividend)
  2157  049D  00F4               
  2158                           	fcall	___aldiv
  2159  049E  120A  118A  24DA  120A  118A  	movf	(0+(?___aldiv)),w
  2160  04A3  0870               	addlw	low(0FFFFh)
  2161  04A4  3EFF               	bcf	status, 5	;RP0=0, select bank0
  2162  04A5  1283               	bcf	status, 6	;RP1=0, select bank0
  2163  04A6  1303               	movwf	(SerialBegin@x)
  2164  04A7  00AA               	movf	(1+(?___aldiv)),w
  2165  04A8  0871               	skipnc
  2166  04A9  1803               	addlw	1
  2167  04AA  3E01               	addlw	high(0FFFFh)
  2168  04AB  3EFF               	movwf	1+(SerialBegin@x)
  2169  04AC  00AB               	line	447
  2170                           	
  2171                           l1961:	
  2172  04AD                     ;source.c: 447:   SPBRG = x;
  2173                           	movf	(SerialBegin@x),w
  2174  04AD  082A               	bsf	status, 5	;RP0=1, select bank1
  2175  04AE  1683               	bcf	status, 6	;RP1=0, select bank1
  2176  04AF  1303               	movwf	(153)^080h	;volatile
  2177  04B0  0099               	line	448
  2178                           	
  2179                           l1963:	
  2180  04B1                     ;source.c: 448:   SYNC = 0;
  2181                           	bcf	(1220/8)^080h,(1220)&7	;volatile
  2182  04B1  1218               	line	449
  2183                           	
  2184                           l1965:	
  2185  04B2                     ;source.c: 449:   SPEN = 1;
  2186                           	bcf	status, 5	;RP0=0, select bank0
  2187  04B2  1283               	bcf	status, 6	;RP1=0, select bank0
  2188  04B3  1303               	bsf	(199/8),(199)&7	;volatile
  2189  04B4  1798               	line	450
  2190                           	
  2191                           l1967:	
  2192  04B5                     ;source.c: 450:   TRISC7 = 1;
  2193                           	bsf	status, 5	;RP0=1, select bank1
  2194  04B5  1683               	bcf	status, 6	;RP1=0, select bank1
  2195  04B6  1303               	bsf	(1087/8)^080h,(1087)&7	;volatile
  2196  04B7  1787               	line	451
  2197                           	
  2198                           l1969:	
  2199  04B8                     ;source.c: 451:   TRISC6 = 1;
  2200                           	bsf	(1086/8)^080h,(1086)&7	;volatile
  2201  04B8  1707               	line	452
  2202                           	
  2203                           l1971:	
  2204  04B9                     ;source.c: 452:   CREN = 1;
  2205                           	bcf	status, 5	;RP0=0, select bank0
  2206  04B9  1283               	bcf	status, 6	;RP1=0, select bank0
  2207  04BA  1303               	bsf	(196/8),(196)&7	;volatile
  2208  04BB  1618               	line	453
  2209                           	
  2210                           l1973:	
  2211  04BC                     ;source.c: 453:   TXEN = 1;
  2212                           	bsf	status, 5	;RP0=1, select bank1
  2213  04BC  1683               	bcf	status, 6	;RP1=0, select bank1
  2214  04BD  1303               	bsf	(1221/8)^080h,(1221)&7	;volatile
  2215  04BE  1698               	line	454
  2216                           	
  2217                           l1975:	
  2218  04BF                     ;source.c: 454:   return 0;
  2219                           	movlw	low(0)
  2220  04BF  3000               	goto	l300
  2221  04C0  2CD9               	
  2222                           l1977:	
  2223  04C1                     	goto	l300
  2224  04C1  2CD9               	line	455
  2225                           	
  2226                           l1979:	
  2227  04C2                     ;source.c: 455:  }
  2228                           	goto	l300
  2229  04C2  2CD9               	line	456
  2230                           ;source.c: 456:  else
  2231                           	
  2232                           l299:	
  2233  04C3                     	line	458
  2234                           	
  2235                           l1981:	
  2236  04C3                     ;source.c: 457:  {;source.c: 458:   SPBRG = x;
  2237                           	bcf	status, 5	;RP0=0, select bank0
  2238  04C3  1283               	movf	(SerialBegin@x),w
  2239  04C4  082A               	bsf	status, 5	;RP0=1, select bank1
  2240  04C5  1683               	bcf	status, 6	;RP1=0, select bank1
  2241  04C6  1303               	movwf	(153)^080h	;volatile
  2242  04C7  0099               	line	459
  2243                           	
  2244                           l1983:	
  2245  04C8                     ;source.c: 459:   SYNC = 0;
  2246                           	bcf	(1220/8)^080h,(1220)&7	;volatile
  2247  04C8  1218               	line	460
  2248                           	
  2249                           l1985:	
  2250  04C9                     ;source.c: 460:   SPEN = 1;
  2251                           	bcf	status, 5	;RP0=0, select bank0
  2252  04C9  1283               	bcf	status, 6	;RP1=0, select bank0
  2253  04CA  1303               	bsf	(199/8),(199)&7	;volatile
  2254  04CB  1798               	line	461
  2255                           	
  2256                           l1987:	
  2257  04CC                     ;source.c: 461:   TRISC7 = 1;
  2258                           	bsf	status, 5	;RP0=1, select bank1
  2259  04CC  1683               	bcf	status, 6	;RP1=0, select bank1
  2260  04CD  1303               	bsf	(1087/8)^080h,(1087)&7	;volatile
  2261  04CE  1787               	line	462
  2262                           	
  2263                           l1989:	
  2264  04CF                     ;source.c: 462:   TRISC6 = 1;
  2265                           	bsf	(1086/8)^080h,(1086)&7	;volatile
  2266  04CF  1707               	line	463
  2267                           	
  2268                           l1991:	
  2269  04D0                     ;source.c: 463:   CREN = 1;
  2270                           	bcf	status, 5	;RP0=0, select bank0
  2271  04D0  1283               	bcf	status, 6	;RP1=0, select bank0
  2272  04D1  1303               	bsf	(196/8),(196)&7	;volatile
  2273  04D2  1618               	line	464
  2274                           	
  2275                           l1993:	
  2276  04D3                     ;source.c: 464:   TXEN = 1;
  2277                           	bsf	status, 5	;RP0=1, select bank1
  2278  04D3  1683               	bcf	status, 6	;RP1=0, select bank1
  2279  04D4  1303               	bsf	(1221/8)^080h,(1221)&7	;volatile
  2280  04D5  1698               	line	465
  2281                           ;source.c: 465:   return 1;
  2282                           	movlw	low(01h)
  2283  04D6  3001               	goto	l300
  2284  04D7  2CD9               	
  2285                           l1995:	
  2286  04D8                     	goto	l300
  2287  04D8  2CD9               	line	466
  2288                           ;source.c: 466:  }
  2289                           	
  2290                           l301:	
  2291  04D9                     	line	467
  2292                           	
  2293                           l300:	
  2294  04D9                     	return
  2295  04D9  0008               	opt stack 0
  2296                           GLOBAL	__end_of_SerialBegin
  2297                           	__end_of_SerialBegin:
  2298  04DA                     	signat	_SerialBegin,4217
  2299                           	global	___aldiv
  2300                           
  2301 ;; *************** function ___aldiv *****************
  2302 ;; Defined at:
  2303 ;;		line 5 in file "C:\Program Files (x86)\Microchip\xc8\v2.00\pic\sources\c90\common\aldiv.c"
  2304 ;; Parameters:    Size  Location     Type
  2305 ;;  divisor         4    0[COMMON] long 
  2306 ;;  dividend        4    4[COMMON] long 
  2307 ;; Auto vars:     Size  Location     Type
  2308 ;;  quotient        4    2[BANK0 ] long 
  2309 ;;  sign            1    1[BANK0 ] unsigned char 
  2310 ;;  counter         1    0[BANK0 ] unsigned char 
  2311 ;; Return value:  Size  Location     Type
  2312 ;;                  4    0[COMMON] long 
  2313 ;; Registers used:
  2314 ;;		wreg, status,2, status,0
  2315 ;; Tracked objects:
  2316 ;;		On entry : 0/0
  2317 ;;		On exit  : 0/0
  2318 ;;		Unchanged: 0/0
  2319 ;; Data sizes:     COMMON   BANK0   BANK1   BANK3   BANK2
  2320 ;;      Params:         8       0       0       0       0
  2321 ;;      Locals:         0       6       0       0       0
  2322 ;;      Temps:          1       0       0       0       0
  2323 ;;      Totals:         9       6       0       0       0
  2324 ;;Total ram usage:       15 bytes
  2325 ;; Hardware stack levels used:    1
  2326 ;; This function calls:
  2327 ;;		Nothing
  2328 ;; This function is called by:
  2329 ;;		_SerialBegin
  2330 ;; This function uses a non-reentrant model
  2331 ;;
  2332                           psect	text5,local,class=CODE,delta=2,merge=1,group=1
  2333                           	file	"C:\Program Files (x86)\Microchip\xc8\v2.00\pic\sources\c90\common\aldiv.c"
  2334                           	line	5
  2335                           global __ptext5
  2336                           __ptext5:	;psect for function ___aldiv
  2337  04DA                     psect	text5
  2338                           	file	"C:\Program Files (x86)\Microchip\xc8\v2.00\pic\sources\c90\common\aldiv.c"
  2339                           	line	5
  2340                           	global	__size_of___aldiv
  2341                           	__size_of___aldiv	equ	__end_of___aldiv-___aldiv
  2342  00A6                     	
  2343                           ___aldiv:	
  2344  04DA                     ;incstack = 0
  2345                           	opt	stack 5
  2346                           ; Regs used in ___aldiv: [wreg+status,2+status,0]
  2347                           	line	13
  2348                           	
  2349                           l1783:	
  2350  04DA                     	bcf	status, 5	;RP0=0, select bank0
  2351  04DA  1283               	bcf	status, 6	;RP1=0, select bank0
  2352  04DB  1303               	clrf	(___aldiv@sign)
  2353  04DC  01A1               	line	14
  2354                           	
  2355                           l1785:	
  2356  04DD                     	btfss	(___aldiv@divisor+3),7
  2357  04DD  1FF3               	goto	u511
  2358  04DE  2CE0               	goto	u510
  2359  04DF  2CE1               u511:
  2360  04E0                     	goto	l575
  2361  04E0  2CEE               u510:
  2362  04E1                     	line	15
  2363                           	
  2364                           l1787:	
  2365  04E1                     	comf	(___aldiv@divisor),f
  2366  04E1  09F0               	comf	(___aldiv@divisor+1),f
  2367  04E2  09F1               	comf	(___aldiv@divisor+2),f
  2368  04E3  09F2               	comf	(___aldiv@divisor+3),f
  2369  04E4  09F3               	incf	(___aldiv@divisor),f
  2370  04E5  0AF0               	skipnz
  2371  04E6  1903               	incf	(___aldiv@divisor+1),f
  2372  04E7  0AF1               	skipnz
  2373  04E8  1903               	incf	(___aldiv@divisor+2),f
  2374  04E9  0AF2               	skipnz
  2375  04EA  1903               	incf	(___aldiv@divisor+3),f
  2376  04EB  0AF3               	line	16
  2377                           	clrf	(___aldiv@sign)
  2378  04EC  01A1               	incf	(___aldiv@sign),f
  2379  04ED  0AA1               	line	17
  2380                           	
  2381                           l575:	
  2382  04EE                     	line	18
  2383                           	btfss	(___aldiv@dividend+3),7
  2384  04EE  1FF7               	goto	u521
  2385  04EF  2CF1               	goto	u520
  2386  04F0  2CF2               u521:
  2387  04F1                     	goto	l1793
  2388  04F1  2D02               u520:
  2389  04F2                     	line	19
  2390                           	
  2391                           l1789:	
  2392  04F2                     	comf	(___aldiv@dividend),f
  2393  04F2  09F4               	comf	(___aldiv@dividend+1),f
  2394  04F3  09F5               	comf	(___aldiv@dividend+2),f
  2395  04F4  09F6               	comf	(___aldiv@dividend+3),f
  2396  04F5  09F7               	incf	(___aldiv@dividend),f
  2397  04F6  0AF4               	skipnz
  2398  04F7  1903               	incf	(___aldiv@dividend+1),f
  2399  04F8  0AF5               	skipnz
  2400  04F9  1903               	incf	(___aldiv@dividend+2),f
  2401  04FA  0AF6               	skipnz
  2402  04FB  1903               	incf	(___aldiv@dividend+3),f
  2403  04FC  0AF7               	line	20
  2404                           	
  2405                           l1791:	
  2406  04FD                     	movlw	low(01h)
  2407  04FD  3001               	movwf	(??___aldiv+0)+0
  2408  04FE  00F8               	movf	(??___aldiv+0)+0,w
  2409  04FF  0878               	xorwf	(___aldiv@sign),f
  2410  0500  06A1               	goto	l1793
  2411  0501  2D02               	line	21
  2412                           	
  2413                           l576:	
  2414  0502                     	line	22
  2415                           	
  2416                           l1793:	
  2417  0502                     	movlw	high highword(0)
  2418  0502  3000               	movwf	(___aldiv@quotient+3)
  2419  0503  00A5               	movlw	low highword(0)
  2420  0504  3000               	movwf	(___aldiv@quotient+2)
  2421  0505  00A4               	movlw	high(0)
  2422  0506  3000               	movwf	(___aldiv@quotient+1)
  2423  0507  00A3               	movlw	low(0)
  2424  0508  3000               	movwf	(___aldiv@quotient)
  2425  0509  00A2               
  2426                           	line	23
  2427                           	
  2428                           l1795:	
  2429  050A                     	movf	(___aldiv@divisor+3),w
  2430  050A  0873               	iorwf	(___aldiv@divisor+2),w
  2431  050B  0472               	iorwf	(___aldiv@divisor+1),w
  2432  050C  0471               	iorwf	(___aldiv@divisor),w
  2433  050D  0470               	skipnz
  2434  050E  1903               	goto	u531
  2435  050F  2D11               	goto	u530
  2436  0510  2D12               u531:
  2437  0511                     	goto	l1815
  2438  0511  2D65               u530:
  2439  0512                     	line	24
  2440                           	
  2441                           l1797:	
  2442  0512                     	clrf	(___aldiv@counter)
  2443  0512  01A0               	incf	(___aldiv@counter),f
  2444  0513  0AA0               	line	25
  2445                           	goto	l1801
  2446  0514  2D23               	
  2447                           l579:	
  2448  0515                     	line	26
  2449                           	
  2450                           l1799:	
  2451  0515                     	movlw	01h
  2452  0515  3001               	movwf	(??___aldiv+0)+0
  2453  0516  00F8               u545:
  2454  0517                     	clrc
  2455  0517  1003               	rlf	(___aldiv@divisor),f
  2456  0518  0DF0               	rlf	(___aldiv@divisor+1),f
  2457  0519  0DF1               	rlf	(___aldiv@divisor+2),f
  2458  051A  0DF2               	rlf	(___aldiv@divisor+3),f
  2459  051B  0DF3               	decfsz	(??___aldiv+0)+0
  2460  051C  0BF8               	goto	u545
  2461  051D  2D17               	line	27
  2462                           	movlw	low(01h)
  2463  051E  3001               	movwf	(??___aldiv+0)+0
  2464  051F  00F8               	movf	(??___aldiv+0)+0,w
  2465  0520  0878               	addwf	(___aldiv@counter),f
  2466  0521  07A0               	goto	l1801
  2467  0522  2D23               	line	28
  2468                           	
  2469                           l578:	
  2470  0523                     	line	25
  2471                           	
  2472                           l1801:	
  2473  0523                     	btfss	(___aldiv@divisor+3),(31)&7
  2474  0523  1FF3               	goto	u551
  2475  0524  2D26               	goto	u550
  2476  0525  2D27               u551:
  2477  0526                     	goto	l1799
  2478  0526  2D15               u550:
  2479  0527                     	goto	l1803
  2480  0527  2D29               	
  2481                           l580:	
  2482  0528                     	goto	l1803
  2483  0528  2D29               	line	29
  2484                           	
  2485                           l581:	
  2486  0529                     	line	30
  2487                           	
  2488                           l1803:	
  2489  0529                     	movlw	01h
  2490  0529  3001               	movwf	(??___aldiv+0)+0
  2491  052A  00F8               u565:
  2492  052B                     	clrc
  2493  052B  1003               	rlf	(___aldiv@quotient),f
  2494  052C  0DA2               	rlf	(___aldiv@quotient+1),f
  2495  052D  0DA3               	rlf	(___aldiv@quotient+2),f
  2496  052E  0DA4               	rlf	(___aldiv@quotient+3),f
  2497  052F  0DA5               	decfsz	(??___aldiv+0)+0
  2498  0530  0BF8               	goto	u565
  2499  0531  2D2B               	line	31
  2500                           	
  2501                           l1805:	
  2502  0532                     	movf	(___aldiv@divisor+3),w
  2503  0532  0873               	subwf	(___aldiv@dividend+3),w
  2504  0533  0277               	skipz
  2505  0534  1D03               	goto	u575
  2506  0535  2D40               	movf	(___aldiv@divisor+2),w
  2507  0536  0872               	subwf	(___aldiv@dividend+2),w
  2508  0537  0276               	skipz
  2509  0538  1D03               	goto	u575
  2510  0539  2D40               	movf	(___aldiv@divisor+1),w
  2511  053A  0871               	subwf	(___aldiv@dividend+1),w
  2512  053B  0275               	skipz
  2513  053C  1D03               	goto	u575
  2514  053D  2D40               	movf	(___aldiv@divisor),w
  2515  053E  0870               	subwf	(___aldiv@dividend),w
  2516  053F  0274               u575:
  2517  0540                     	skipc
  2518  0540  1C03               	goto	u571
  2519  0541  2D43               	goto	u570
  2520  0542  2D44               u571:
  2521  0543                     	goto	l1811
  2522  0543  2D54               u570:
  2523  0544                     	line	32
  2524                           	
  2525                           l1807:	
  2526  0544                     	movf	(___aldiv@divisor),w
  2527  0544  0870               	subwf	(___aldiv@dividend),f
  2528  0545  02F4               	movf	(___aldiv@divisor+1),w
  2529  0546  0871               	skipc
  2530  0547  1C03               	incfsz	(___aldiv@divisor+1),w
  2531  0548  0F71               	subwf	(___aldiv@dividend+1),f
  2532  0549  02F5               	movf	(___aldiv@divisor+2),w
  2533  054A  0872               	skipc
  2534  054B  1C03               	incfsz	(___aldiv@divisor+2),w
  2535  054C  0F72               	subwf	(___aldiv@dividend+2),f
  2536  054D  02F6               	movf	(___aldiv@divisor+3),w
  2537  054E  0873               	skipc
  2538  054F  1C03               	incfsz	(___aldiv@divisor+3),w
  2539  0550  0F73               	subwf	(___aldiv@dividend+3),f
  2540  0551  02F7               	line	33
  2541                           	
  2542                           l1809:	
  2543  0552                     	bsf	(___aldiv@quotient)+(0/8),(0)&7
  2544  0552  1422               	goto	l1811
  2545  0553  2D54               	line	34
  2546                           	
  2547                           l582:	
  2548  0554                     	line	35
  2549                           	
  2550                           l1811:	
  2551  0554                     	movlw	01h
  2552  0554  3001               u585:
  2553  0555                     	clrc
  2554  0555  1003               	rrf	(___aldiv@divisor+3),f
  2555  0556  0CF3               	rrf	(___aldiv@divisor+2),f
  2556  0557  0CF2               	rrf	(___aldiv@divisor+1),f
  2557  0558  0CF1               	rrf	(___aldiv@divisor),f
  2558  0559  0CF0               	addlw	-1
  2559  055A  3EFF               	skipz
  2560  055B  1D03               	goto	u585
  2561  055C  2D55               
  2562                           	line	36
  2563                           	
  2564                           l1813:	
  2565  055D                     	movlw	01h
  2566  055D  3001               	subwf	(___aldiv@counter),f
  2567  055E  02A0               	btfss	status,2
  2568  055F  1D03               	goto	u591
  2569  0560  2D62               	goto	u590
  2570  0561  2D63               u591:
  2571  0562                     	goto	l1803
  2572  0562  2D29               u590:
  2573  0563                     	goto	l1815
  2574  0563  2D65               	
  2575                           l583:	
  2576  0564                     	goto	l1815
  2577  0564  2D65               	line	37
  2578                           	
  2579                           l577:	
  2580  0565                     	line	38
  2581                           	
  2582                           l1815:	
  2583  0565                     	movf	((___aldiv@sign)),w
  2584  0565  0821               	btfsc	status,2
  2585  0566  1903               	goto	u601
  2586  0567  2D69               	goto	u600
  2587  0568  2D6A               u601:
  2588  0569                     	goto	l1819
  2589  0569  2D76               u600:
  2590  056A                     	line	39
  2591                           	
  2592                           l1817:	
  2593  056A                     	comf	(___aldiv@quotient),f
  2594  056A  09A2               	comf	(___aldiv@quotient+1),f
  2595  056B  09A3               	comf	(___aldiv@quotient+2),f
  2596  056C  09A4               	comf	(___aldiv@quotient+3),f
  2597  056D  09A5               	incf	(___aldiv@quotient),f
  2598  056E  0AA2               	skipnz
  2599  056F  1903               	incf	(___aldiv@quotient+1),f
  2600  0570  0AA3               	skipnz
  2601  0571  1903               	incf	(___aldiv@quotient+2),f
  2602  0572  0AA4               	skipnz
  2603  0573  1903               	incf	(___aldiv@quotient+3),f
  2604  0574  0AA5               	goto	l1819
  2605  0575  2D76               	
  2606                           l584:	
  2607  0576                     	line	40
  2608                           	
  2609                           l1819:	
  2610  0576                     	movf	(___aldiv@quotient+3),w
  2611  0576  0825               	movwf	(?___aldiv+3)
  2612  0577  00F3               	movf	(___aldiv@quotient+2),w
  2613  0578  0824               	movwf	(?___aldiv+2)
  2614  0579  00F2               	movf	(___aldiv@quotient+1),w
  2615  057A  0823               	movwf	(?___aldiv+1)
  2616  057B  00F1               	movf	(___aldiv@quotient),w
  2617  057C  0822               	movwf	(?___aldiv)
  2618  057D  00F0               
  2619                           	goto	l585
  2620  057E  2D7F               	
  2621                           l1821:	
  2622  057F                     	line	41
  2623                           	
  2624                           l585:	
  2625  057F                     	return
  2626  057F  0008               	opt stack 0
  2627                           GLOBAL	__end_of___aldiv
  2628                           	__end_of___aldiv:
  2629  0580                     	signat	___aldiv,8316
  2630                           	global	_loop
  2631                           
  2632 ;; *************** function _loop *****************
  2633 ;; Defined at:
  2634 ;;		line 20 in file "application.c"
  2635 ;; Parameters:    Size  Location     Type
  2636 ;;		None
  2637 ;; Auto vars:     Size  Location     Type
  2638 ;;		None
  2639 ;; Return value:  Size  Location     Type
  2640 ;;                  1    wreg      void 
  2641 ;; Registers used:
  2642 ;;		wreg, fsr0l, fsr0h, status,2, status,0, btemp+1, pclath, cstack
  2643 ;; Tracked objects:
  2644 ;;		On entry : 0/0
  2645 ;;		On exit  : 0/0
  2646 ;;		Unchanged: 0/0
  2647 ;; Data sizes:     COMMON   BANK0   BANK1   BANK3   BANK2
  2648 ;;      Params:         0       0       0       0       0
  2649 ;;      Locals:         0       0       0       0       0
  2650 ;;      Temps:          0       0       0       0       0
  2651 ;;      Totals:         0       0       0       0       0
  2652 ;;Total ram usage:        0 bytes
  2653 ;; Hardware stack levels used:    1
  2654 ;; Hardware stack levels required when called:    2
  2655 ;; This function calls:
  2656 ;;		_SerialPrintLn
  2657 ;;		_delay
  2658 ;;		_digitalWrite
  2659 ;; This function is called by:
  2660 ;;		_main
  2661 ;; This function uses a non-reentrant model
  2662 ;;
  2663                           psect	text6,local,class=CODE,delta=2,merge=1,group=0
  2664                           	file	"application.c"
  2665                           	line	20
  2666                           global __ptext6
  2667                           __ptext6:	;psect for function _loop
  2668  0335                     psect	text6
  2669                           	file	"application.c"
  2670                           	line	20
  2671                           	global	__size_of_loop
  2672                           	__size_of_loop	equ	__end_of_loop-_loop
  2673  002B                     	
  2674                           _loop:	
  2675  0335                     ;incstack = 0
  2676                           	opt	stack 5
  2677                           ; Regs used in _loop: [wreg-fsr0h+status,2+status,0+btemp+1+pclath+cstack]
  2678                           	line	22
  2679                           	
  2680                           l2049:	
  2681  0335                     ;application.c: 22:     SerialPrintLn("HI");
  2682                           	movlw	(low((((STR_2)-__stringbase)|8000h)))&0ffh
  2683  0335  3003               	movwf	(SerialPrintLn@dataText)
  2684  0336  00F1               	movlw	80h
  2685  0337  3080               	movwf	(SerialPrintLn@dataText+1)
  2686  0338  00F2               	fcall	_SerialPrintLn
  2687  0339  120A  118A  2360  120A  118A  	line	23
  2688                           	
  2689                           l2051:	
  2690  033E                     ;application.c: 23:     digitalWrite(13,1);
  2691                           	clrf	(digitalWrite@value)
  2692  033E  01F0               	incf	(digitalWrite@value),f
  2693  033F  0AF0               	movlw	low(0Dh)
  2694  0340  300D               	fcall	_digitalWrite
  2695  0341  120A  118A  2580  120A  118A  	line	24
  2696                           	
  2697                           l2053:	
  2698  0346                     ;application.c: 24:     delay(500);
  2699                           	movlw	0F4h
  2700  0346  30F4               	movwf	(delay@milis)
  2701  0347  00F0               	movlw	01h
  2702  0348  3001               	movwf	((delay@milis))+1
  2703  0349  00F1               	fcall	_delay
  2704  034A  120A  118A  239A  120A  118A  	line	25
  2705                           	
  2706                           l2055:	
  2707  034F                     ;application.c: 25:     digitalWrite(13,0);
  2708                           	clrf	(digitalWrite@value)
  2709  034F  01F0               	movlw	low(0Dh)
  2710  0350  300D               	fcall	_digitalWrite
  2711  0351  120A  118A  2580  120A  118A  	line	26
  2712                           	
  2713                           l2057:	
  2714  0356                     ;application.c: 26:     delay(500);
  2715                           	movlw	0F4h
  2716  0356  30F4               	movwf	(delay@milis)
  2717  0357  00F0               	movlw	01h
  2718  0358  3001               	movwf	((delay@milis))+1
  2719  0359  00F1               	fcall	_delay
  2720  035A  120A  118A  239A  120A  118A  	line	27
  2721                           	
  2722                           l424:	
  2723  035F                     	return
  2724  035F  0008               	opt stack 0
  2725                           GLOBAL	__end_of_loop
  2726                           	__end_of_loop:
  2727  0360                     	signat	_loop,89
  2728                           	global	_digitalWrite
  2729                           
  2730 ;; *************** function _digitalWrite *****************
  2731 ;; Defined at:
  2732 ;;		line 161 in file "source.c"
  2733 ;; Parameters:    Size  Location     Type
  2734 ;;  pin             1    wreg     unsigned char 
  2735 ;;  value           1    0[COMMON] unsigned char 
  2736 ;; Auto vars:     Size  Location     Type
  2737 ;;  pin             1    3[COMMON] unsigned char 
  2738 ;; Return value:  Size  Location     Type
  2739 ;;                  1    wreg      void 
  2740 ;; Registers used:
  2741 ;;		wreg, fsr0l, fsr0h, status,2, status,0
  2742 ;; Tracked objects:
  2743 ;;		On entry : 0/0
  2744 ;;		On exit  : 0/0
  2745 ;;		Unchanged: 0/0
  2746 ;; Data sizes:     COMMON   BANK0   BANK1   BANK3   BANK2
  2747 ;;      Params:         1       0       0       0       0
  2748 ;;      Locals:         1       0       0       0       0
  2749 ;;      Temps:          2       0       0       0       0
  2750 ;;      Totals:         4       0       0       0       0
  2751 ;;Total ram usage:        4 bytes
  2752 ;; Hardware stack levels used:    1
  2753 ;; This function calls:
  2754 ;;		Nothing
  2755 ;; This function is called by:
  2756 ;;		_setup
  2757 ;;		_loop
  2758 ;; This function uses a non-reentrant model
  2759 ;;
  2760                           psect	text7,local,class=CODE,delta=2,merge=1,group=0
  2761                           	file	"source.c"
  2762                           	line	161
  2763                           global __ptext7
  2764                           __ptext7:	;psect for function _digitalWrite
  2765  0580                     psect	text7
  2766                           	file	"source.c"
  2767                           	line	161
  2768                           	global	__size_of_digitalWrite
  2769                           	__size_of_digitalWrite	equ	__end_of_digitalWrite-_digitalWrite
  2770  0137                     	
  2771                           _digitalWrite:	
  2772  0580                     ;incstack = 0
  2773                           	opt	stack 6
  2774                           ; Regs used in _digitalWrite: [wreg-fsr0h+status,2+status,0]
  2775                           ;digitalWrite@pin stored from wreg
  2776                           	movwf	(digitalWrite@pin)
  2777  0580  00F3               	line	163
  2778                           	
  2779                           l1887:	
  2780  0581                     ;source.c: 161: void digitalWrite(char pin, char value);source.c: 162: {;source.c: 163: 
                                     switch(pin)
  2781                           	goto	l1945
  2782  0581  2E5B               	line	165
  2783                           ;source.c: 164:     {;source.c: 165:         case 0:
  2784                           	
  2785                           l185:	
  2786  0582                     	line	166
  2787                           	
  2788                           l1889:	
  2789  0582                     ;source.c: 166:             PORTCbits.RC7 = value;
  2790                           	rrf	(digitalWrite@value),w
  2791  0582  0C70               	bcf	status, 5	;RP0=0, select bank0
  2792  0583  1283               	bcf	status, 6	;RP1=0, select bank0
  2793  0584  1303               	skipc
  2794  0585  1C03               	bcf	(7),7	;volatile
  2795  0586  1387               	skipnc
  2796  0587  1803               	bsf	(7),7	;volatile
  2797  0588  1787               	line	167
  2798                           ;source.c: 167:             break;
  2799                           	goto	l213
  2800  0589  2EB6               	line	168
  2801                           ;source.c: 168:         case 1:
  2802                           	
  2803                           l187:	
  2804  058A                     	line	169
  2805                           	
  2806                           l1891:	
  2807  058A                     ;source.c: 169:             PORTCbits.RC6 = value;
  2808                           	rrf	(digitalWrite@value),w
  2809  058A  0C70               	bcf	status, 5	;RP0=0, select bank0
  2810  058B  1283               	bcf	status, 6	;RP1=0, select bank0
  2811  058C  1303               	skipc
  2812  058D  1C03               	bcf	(7),6	;volatile
  2813  058E  1307               	skipnc
  2814  058F  1803               	bsf	(7),6	;volatile
  2815  0590  1707               	line	170
  2816                           ;source.c: 170:             break;
  2817                           	goto	l213
  2818  0591  2EB6               	line	171
  2819                           ;source.c: 171:         case 2:
  2820                           	
  2821                           l188:	
  2822  0592                     	line	172
  2823                           	
  2824                           l1893:	
  2825  0592                     ;source.c: 172:             PORTDbits.RD2 = value;
  2826                           	rrf	(digitalWrite@value),w
  2827  0592  0C70               	bcf	status, 5	;RP0=0, select bank0
  2828  0593  1283               	bcf	status, 6	;RP1=0, select bank0
  2829  0594  1303               	skipc
  2830  0595  1C03               	bcf	(8),2	;volatile
  2831  0596  1108               	skipnc
  2832  0597  1803               	bsf	(8),2	;volatile
  2833  0598  1508               	line	173
  2834                           ;source.c: 173:             break;
  2835                           	goto	l213
  2836  0599  2EB6               	line	174
  2837                           ;source.c: 174:         case 3:
  2838                           	
  2839                           l189:	
  2840  059A                     	line	175
  2841                           	
  2842                           l1895:	
  2843  059A                     ;source.c: 175:             PORTDbits.RD3 = value;
  2844                           	rrf	(digitalWrite@value),w
  2845  059A  0C70               	bcf	status, 5	;RP0=0, select bank0
  2846  059B  1283               	bcf	status, 6	;RP1=0, select bank0
  2847  059C  1303               	skipc
  2848  059D  1C03               	bcf	(8),3	;volatile
  2849  059E  1188               	skipnc
  2850  059F  1803               	bsf	(8),3	;volatile
  2851  05A0  1588               	line	176
  2852                           ;source.c: 176:             break;
  2853                           	goto	l213
  2854  05A1  2EB6               	line	177
  2855                           ;source.c: 177:         case 4:
  2856                           	
  2857                           l190:	
  2858  05A2                     	line	178
  2859                           	
  2860                           l1897:	
  2861  05A2                     ;source.c: 178:             PORTCbits.RC4 = value;
  2862                           	rrf	(digitalWrite@value),w
  2863  05A2  0C70               	bcf	status, 5	;RP0=0, select bank0
  2864  05A3  1283               	bcf	status, 6	;RP1=0, select bank0
  2865  05A4  1303               	skipc
  2866  05A5  1C03               	bcf	(7),4	;volatile
  2867  05A6  1207               	skipnc
  2868  05A7  1803               	bsf	(7),4	;volatile
  2869  05A8  1607               	line	179
  2870                           ;source.c: 179:             break;
  2871                           	goto	l213
  2872  05A9  2EB6               	line	180
  2873                           ;source.c: 180:         case 5:
  2874                           	
  2875                           l191:	
  2876  05AA                     	line	181
  2877                           	
  2878                           l1899:	
  2879  05AA                     ;source.c: 181:             PORTCbits.RC5 = value;
  2880                           	rrf	(digitalWrite@value),w
  2881  05AA  0C70               	bcf	status, 5	;RP0=0, select bank0
  2882  05AB  1283               	bcf	status, 6	;RP1=0, select bank0
  2883  05AC  1303               	skipc
  2884  05AD  1C03               	bcf	(7),5	;volatile
  2885  05AE  1287               	skipnc
  2886  05AF  1803               	bsf	(7),5	;volatile
  2887  05B0  1687               	line	182
  2888                           ;source.c: 182:             break;
  2889                           	goto	l213
  2890  05B1  2EB6               	line	183
  2891                           ;source.c: 183:         case 6:
  2892                           	
  2893                           l192:	
  2894  05B2                     	line	184
  2895                           	
  2896                           l1901:	
  2897  05B2                     ;source.c: 184:             PORTDbits.RD4 = value;
  2898                           	rrf	(digitalWrite@value),w
  2899  05B2  0C70               	bcf	status, 5	;RP0=0, select bank0
  2900  05B3  1283               	bcf	status, 6	;RP1=0, select bank0
  2901  05B4  1303               	skipc
  2902  05B5  1C03               	bcf	(8),4	;volatile
  2903  05B6  1208               	skipnc
  2904  05B7  1803               	bsf	(8),4	;volatile
  2905  05B8  1608               	line	185
  2906                           ;source.c: 185:             break;
  2907                           	goto	l213
  2908  05B9  2EB6               	line	186
  2909                           ;source.c: 186:         case 7:
  2910                           	
  2911                           l193:	
  2912  05BA                     	line	187
  2913                           	
  2914                           l1903:	
  2915  05BA                     ;source.c: 187:             PORTDbits.RD5 = value;
  2916                           	rrf	(digitalWrite@value),w
  2917  05BA  0C70               	bcf	status, 5	;RP0=0, select bank0
  2918  05BB  1283               	bcf	status, 6	;RP1=0, select bank0
  2919  05BC  1303               	skipc
  2920  05BD  1C03               	bcf	(8),5	;volatile
  2921  05BE  1288               	skipnc
  2922  05BF  1803               	bsf	(8),5	;volatile
  2923  05C0  1688               	line	188
  2924                           ;source.c: 188:             break;
  2925                           	goto	l213
  2926  05C1  2EB6               	line	189
  2927                           ;source.c: 189:         case 8:
  2928                           	
  2929                           l194:	
  2930  05C2                     	line	190
  2931                           	
  2932                           l1905:	
  2933  05C2                     ;source.c: 190:             PORTDbits.RD6 = value;
  2934                           	rrf	(digitalWrite@value),w
  2935  05C2  0C70               	bcf	status, 5	;RP0=0, select bank0
  2936  05C3  1283               	bcf	status, 6	;RP1=0, select bank0
  2937  05C4  1303               	skipc
  2938  05C5  1C03               	bcf	(8),6	;volatile
  2939  05C6  1308               	skipnc
  2940  05C7  1803               	bsf	(8),6	;volatile
  2941  05C8  1708               	line	191
  2942                           ;source.c: 191:             break;
  2943                           	goto	l213
  2944  05C9  2EB6               	line	192
  2945                           ;source.c: 192:         case 9:
  2946                           	
  2947                           l195:	
  2948  05CA                     	line	193
  2949                           	
  2950                           l1907:	
  2951  05CA                     ;source.c: 193:             PORTDbits.RD7 = value;
  2952                           	rrf	(digitalWrite@value),w
  2953  05CA  0C70               	bcf	status, 5	;RP0=0, select bank0
  2954  05CB  1283               	bcf	status, 6	;RP1=0, select bank0
  2955  05CC  1303               	skipc
  2956  05CD  1C03               	bcf	(8),7	;volatile
  2957  05CE  1388               	skipnc
  2958  05CF  1803               	bsf	(8),7	;volatile
  2959  05D0  1788               	line	194
  2960                           ;source.c: 194:             break;
  2961                           	goto	l213
  2962  05D1  2EB6               	line	195
  2963                           ;source.c: 195:         case 10:
  2964                           	
  2965                           l196:	
  2966  05D2                     	line	196
  2967                           	
  2968                           l1909:	
  2969  05D2                     ;source.c: 196:             PORTBbits.RB0 = value;
  2970                           	rrf	(digitalWrite@value),w
  2971  05D2  0C70               	bcf	status, 5	;RP0=0, select bank0
  2972  05D3  1283               	bcf	status, 6	;RP1=0, select bank0
  2973  05D4  1303               	skipc
  2974  05D5  1C03               	bcf	(6),0	;volatile
  2975  05D6  1006               	skipnc
  2976  05D7  1803               	bsf	(6),0	;volatile
  2977  05D8  1406               	line	197
  2978                           ;source.c: 197:             break;
  2979                           	goto	l213
  2980  05D9  2EB6               	line	198
  2981                           ;source.c: 198:         case 11:
  2982                           	
  2983                           l197:	
  2984  05DA                     	line	199
  2985                           	
  2986                           l1911:	
  2987  05DA                     ;source.c: 199:             PORTBbits.RB1 = value;
  2988                           	rrf	(digitalWrite@value),w
  2989  05DA  0C70               	bcf	status, 5	;RP0=0, select bank0
  2990  05DB  1283               	bcf	status, 6	;RP1=0, select bank0
  2991  05DC  1303               	skipc
  2992  05DD  1C03               	bcf	(6),1	;volatile
  2993  05DE  1086               	skipnc
  2994  05DF  1803               	bsf	(6),1	;volatile
  2995  05E0  1486               	line	200
  2996                           ;source.c: 200:             break;
  2997                           	goto	l213
  2998  05E1  2EB6               	line	201
  2999                           ;source.c: 201:         case 12:
  3000                           	
  3001                           l198:	
  3002  05E2                     	line	202
  3003                           	
  3004                           l1913:	
  3005  05E2                     ;source.c: 202:             PORTBbits.RB2 = value;
  3006                           	rrf	(digitalWrite@value),w
  3007  05E2  0C70               	bcf	status, 5	;RP0=0, select bank0
  3008  05E3  1283               	bcf	status, 6	;RP1=0, select bank0
  3009  05E4  1303               	skipc
  3010  05E5  1C03               	bcf	(6),2	;volatile
  3011  05E6  1106               	skipnc
  3012  05E7  1803               	bsf	(6),2	;volatile
  3013  05E8  1506               	line	203
  3014                           ;source.c: 203:             break;
  3015                           	goto	l213
  3016  05E9  2EB6               	line	204
  3017                           ;source.c: 204:         case 13:
  3018                           	
  3019                           l199:	
  3020  05EA                     	line	205
  3021                           	
  3022                           l1915:	
  3023  05EA                     ;source.c: 205:             PORTBbits.RB4 = value;
  3024                           	rrf	(digitalWrite@value),w
  3025  05EA  0C70               	bcf	status, 5	;RP0=0, select bank0
  3026  05EB  1283               	bcf	status, 6	;RP1=0, select bank0
  3027  05EC  1303               	skipc
  3028  05ED  1C03               	bcf	(6),4	;volatile
  3029  05EE  1206               	skipnc
  3030  05EF  1803               	bsf	(6),4	;volatile
  3031  05F0  1606               	line	206
  3032                           ;source.c: 206:             break;
  3033                           	goto	l213
  3034  05F1  2EB6               	line	207
  3035                           ;source.c: 207:         case 14:
  3036                           	
  3037                           l200:	
  3038  05F2                     	line	208
  3039                           	
  3040                           l1917:	
  3041  05F2                     ;source.c: 208:             PORTBbits.RB3 = value;
  3042                           	rrf	(digitalWrite@value),w
  3043  05F2  0C70               	bcf	status, 5	;RP0=0, select bank0
  3044  05F3  1283               	bcf	status, 6	;RP1=0, select bank0
  3045  05F4  1303               	skipc
  3046  05F5  1C03               	bcf	(6),3	;volatile
  3047  05F6  1186               	skipnc
  3048  05F7  1803               	bsf	(6),3	;volatile
  3049  05F8  1586               	line	209
  3050                           ;source.c: 209:             break;
  3051                           	goto	l213
  3052  05F9  2EB6               	line	210
  3053                           ;source.c: 210:         case 15:
  3054                           	
  3055                           l201:	
  3056  05FA                     	line	211
  3057                           	
  3058                           l1919:	
  3059  05FA                     ;source.c: 211:             PORTBbits.RB5 = value;
  3060                           	rrf	(digitalWrite@value),w
  3061  05FA  0C70               	bcf	status, 5	;RP0=0, select bank0
  3062  05FB  1283               	bcf	status, 6	;RP1=0, select bank0
  3063  05FC  1303               	skipc
  3064  05FD  1C03               	bcf	(6),5	;volatile
  3065  05FE  1286               	skipnc
  3066  05FF  1803               	bsf	(6),5	;volatile
  3067  0600  1686               	line	212
  3068                           ;source.c: 212:             break;
  3069                           	goto	l213
  3070  0601  2EB6               	line	213
  3071                           ;source.c: 213:         case 16:
  3072                           	
  3073                           l202:	
  3074  0602                     	line	214
  3075                           	
  3076                           l1921:	
  3077  0602                     ;source.c: 214:             PORTBbits.RB6 = value;
  3078                           	rrf	(digitalWrite@value),w
  3079  0602  0C70               	bcf	status, 5	;RP0=0, select bank0
  3080  0603  1283               	bcf	status, 6	;RP1=0, select bank0
  3081  0604  1303               	skipc
  3082  0605  1C03               	bcf	(6),6	;volatile
  3083  0606  1306               	skipnc
  3084  0607  1803               	bsf	(6),6	;volatile
  3085  0608  1706               	line	215
  3086                           ;source.c: 215:             break;
  3087                           	goto	l213
  3088  0609  2EB6               	line	216
  3089                           ;source.c: 216:         case 17:
  3090                           	
  3091                           l203:	
  3092  060A                     	line	217
  3093                           	
  3094                           l1923:	
  3095  060A                     ;source.c: 217:             PORTCbits.RC3 = value;
  3096                           	rrf	(digitalWrite@value),w
  3097  060A  0C70               	bcf	status, 5	;RP0=0, select bank0
  3098  060B  1283               	bcf	status, 6	;RP1=0, select bank0
  3099  060C  1303               	skipc
  3100  060D  1C03               	bcf	(7),3	;volatile
  3101  060E  1187               	skipnc
  3102  060F  1803               	bsf	(7),3	;volatile
  3103  0610  1587               	line	218
  3104                           ;source.c: 218:             break;
  3105                           	goto	l213
  3106  0611  2EB6               	line	219
  3107                           ;source.c: 219:         case 18:
  3108                           	
  3109                           l204:	
  3110  0612                     	line	220
  3111                           	
  3112                           l1925:	
  3113  0612                     ;source.c: 220:             PORTBbits.RB7 = value;
  3114                           	rrf	(digitalWrite@value),w
  3115  0612  0C70               	bcf	status, 5	;RP0=0, select bank0
  3116  0613  1283               	bcf	status, 6	;RP1=0, select bank0
  3117  0614  1303               	skipc
  3118  0615  1C03               	bcf	(6),7	;volatile
  3119  0616  1386               	skipnc
  3120  0617  1803               	bsf	(6),7	;volatile
  3121  0618  1786               	line	221
  3122                           ;source.c: 221:             break;
  3123                           	goto	l213
  3124  0619  2EB6               	line	222
  3125                           ;source.c: 222:         case 19:
  3126                           	
  3127                           l205:	
  3128  061A                     	line	223
  3129                           	
  3130                           l1927:	
  3131  061A                     ;source.c: 223:             PORTAbits.RA4 = value;
  3132                           	rrf	(digitalWrite@value),w
  3133  061A  0C70               	bcf	status, 5	;RP0=0, select bank0
  3134  061B  1283               	bcf	status, 6	;RP1=0, select bank0
  3135  061C  1303               	skipc
  3136  061D  1C03               	bcf	(5),4	;volatile
  3137  061E  1205               	skipnc
  3138  061F  1803               	bsf	(5),4	;volatile
  3139  0620  1605               	line	224
  3140                           ;source.c: 224:             break;
  3141                           	goto	l213
  3142  0621  2EB6               	line	225
  3143                           ;source.c: 225:         case 20:
  3144                           	
  3145                           l206:	
  3146  0622                     	line	226
  3147                           	
  3148                           l1929:	
  3149  0622                     ;source.c: 226:             PORTAbits.RA5 = value;
  3150                           	rrf	(digitalWrite@value),w
  3151  0622  0C70               	bcf	status, 5	;RP0=0, select bank0
  3152  0623  1283               	bcf	status, 6	;RP1=0, select bank0
  3153  0624  1303               	skipc
  3154  0625  1C03               	bcf	(5),5	;volatile
  3155  0626  1285               	skipnc
  3156  0627  1803               	bsf	(5),5	;volatile
  3157  0628  1685               	line	227
  3158                           ;source.c: 227:             break;
  3159                           	goto	l213
  3160  0629  2EB6               	line	228
  3161                           ;source.c: 228:         case 21:
  3162                           	
  3163                           l207:	
  3164  062A                     	line	229
  3165                           	
  3166                           l1931:	
  3167  062A                     ;source.c: 229:             PORTCbits.RC0 = value;
  3168                           	rrf	(digitalWrite@value),w
  3169  062A  0C70               	bcf	status, 5	;RP0=0, select bank0
  3170  062B  1283               	bcf	status, 6	;RP1=0, select bank0
  3171  062C  1303               	skipc
  3172  062D  1C03               	bcf	(7),0	;volatile
  3173  062E  1007               	skipnc
  3174  062F  1803               	bsf	(7),0	;volatile
  3175  0630  1407               	line	230
  3176                           ;source.c: 230:             break;
  3177                           	goto	l213
  3178  0631  2EB6               	line	231
  3179                           ;source.c: 231:         case 22:
  3180                           	
  3181                           l208:	
  3182  0632                     	line	232
  3183                           	
  3184                           l1933:	
  3185  0632                     ;source.c: 232:             PORTCbits.RC1 = value;
  3186                           	rrf	(digitalWrite@value),w
  3187  0632  0C70               	bcf	status, 5	;RP0=0, select bank0
  3188  0633  1283               	bcf	status, 6	;RP1=0, select bank0
  3189  0634  1303               	skipc
  3190  0635  1C03               	bcf	(7),1	;volatile
  3191  0636  1087               	skipnc
  3192  0637  1803               	bsf	(7),1	;volatile
  3193  0638  1487               	line	233
  3194                           ;source.c: 233:             break;
  3195                           	goto	l213
  3196  0639  2EB6               	line	234
  3197                           ;source.c: 234:         case 23:
  3198                           	
  3199                           l209:	
  3200  063A                     	line	235
  3201                           	
  3202                           l1935:	
  3203  063A                     ;source.c: 235:             PORTCbits.RC2 = value;
  3204                           	rrf	(digitalWrite@value),w
  3205  063A  0C70               	bcf	status, 5	;RP0=0, select bank0
  3206  063B  1283               	bcf	status, 6	;RP1=0, select bank0
  3207  063C  1303               	skipc
  3208  063D  1C03               	bcf	(7),2	;volatile
  3209  063E  1107               	skipnc
  3210  063F  1803               	bsf	(7),2	;volatile
  3211  0640  1507               	line	236
  3212                           ;source.c: 236:             break;
  3213                           	goto	l213
  3214  0641  2EB6               	line	237
  3215                           ;source.c: 237:         case 24:
  3216                           	
  3217                           l210:	
  3218  0642                     	line	238
  3219                           	
  3220                           l1937:	
  3221  0642                     ;source.c: 238:             PORTDbits.RD1 = value;
  3222                           	rrf	(digitalWrite@value),w
  3223  0642  0C70               	bcf	status, 5	;RP0=0, select bank0
  3224  0643  1283               	bcf	status, 6	;RP1=0, select bank0
  3225  0644  1303               	skipc
  3226  0645  1C03               	bcf	(8),1	;volatile
  3227  0646  1088               	skipnc
  3228  0647  1803               	bsf	(8),1	;volatile
  3229  0648  1488               	line	239
  3230                           ;source.c: 239:             break;
  3231                           	goto	l213
  3232  0649  2EB6               	line	240
  3233                           ;source.c: 240:         case 25:
  3234                           	
  3235                           l211:	
  3236  064A                     	line	241
  3237                           	
  3238                           l1939:	
  3239  064A                     ;source.c: 241:             PORTDbits.RD0 = value;
  3240                           	rrf	(digitalWrite@value),w
  3241  064A  0C70               	bcf	status, 5	;RP0=0, select bank0
  3242  064B  1283               	bcf	status, 6	;RP1=0, select bank0
  3243  064C  1303               	skipc
  3244  064D  1C03               	bcf	(8),0	;volatile
  3245  064E  1008               	skipnc
  3246  064F  1803               	bsf	(8),0	;volatile
  3247  0650  1408               	line	242
  3248                           ;source.c: 242:             break;
  3249                           	goto	l213
  3250  0651  2EB6               	line	243
  3251                           ;source.c: 243:         case 26:
  3252                           	
  3253                           l212:	
  3254  0652                     	line	244
  3255                           	
  3256                           l1941:	
  3257  0652                     ;source.c: 244:             PORTAbits.RA2 = value;
  3258                           	rrf	(digitalWrite@value),w
  3259  0652  0C70               	bcf	status, 5	;RP0=0, select bank0
  3260  0653  1283               	bcf	status, 6	;RP1=0, select bank0
  3261  0654  1303               	skipc
  3262  0655  1C03               	bcf	(5),2	;volatile
  3263  0656  1105               	skipnc
  3264  0657  1803               	bsf	(5),2	;volatile
  3265  0658  1505               	line	245
  3266                           ;source.c: 245:             break;
  3267                           	goto	l213
  3268  0659  2EB6               	line	246
  3269                           	
  3270                           l1943:	
  3271  065A                     ;source.c: 246:     }
  3272                           	goto	l213
  3273  065A  2EB6               	
  3274                           l184:	
  3275  065B                     	
  3276                           l1945:	
  3277  065B                     	movf	(digitalWrite@pin),w
  3278  065B  0873               	movwf	(??_digitalWrite+0)+0
  3279  065C  00F1               	clrf	(??_digitalWrite+0)+0+1
  3280  065D  01F2               	; Switch on 2 bytes has been partitioned into a top level switch of size 1, and 1 sub-s
                                 witches
  3281                           ; Switch size 1, requested type "space"
  3282                           ; Number of cases is 1, Range of values is 0 to 0
  3283                           ; switch strategies available:
  3284                           ; Name         Instructions Cycles
  3285                           ; simple_byte            4     3 (average)
  3286                           ; direct_byte           11     8 (fixed)
  3287                           ; jumptable            260     6 (fixed)
  3288                           ;	Chosen strategy is simple_byte
  3289                           
  3290                           	movf 1+(??_digitalWrite+0)+0,w
  3291  065E  0872               	opt asmopt_push
  3292                           	opt asmopt_off
  3293                           	xorlw	0^0	; case 0
  3294  065F  3A00               	skipnz
  3295  0660  1903               	goto	l2115
  3296  0661  2E63               	goto	l213
  3297  0662  2EB6               	opt asmopt_pop
  3298                           	
  3299                           l2115:	
  3300  0663                     ; Switch size 1, requested type "space"
  3301                           ; Number of cases is 27, Range of values is 0 to 26
  3302                           ; switch strategies available:
  3303                           ; Name         Instructions Cycles
  3304                           ; simple_byte           82    42 (average)
  3305                           ; direct_byte           89     8 (fixed)
  3306                           ; jumptable            260     6 (fixed)
  3307                           ;	Chosen strategy is simple_byte
  3308                           
  3309                           	movf 0+(??_digitalWrite+0)+0,w
  3310  0663  0871               	opt asmopt_push
  3311                           	opt asmopt_off
  3312                           	xorlw	0^0	; case 0
  3313  0664  3A00               	skipnz
  3314  0665  1903               	goto	l1889
  3315  0666  2D82               	xorlw	1^0	; case 1
  3316  0667  3A01               	skipnz
  3317  0668  1903               	goto	l1891
  3318  0669  2D8A               	xorlw	2^1	; case 2
  3319  066A  3A03               	skipnz
  3320  066B  1903               	goto	l1893
  3321  066C  2D92               	xorlw	3^2	; case 3
  3322  066D  3A01               	skipnz
  3323  066E  1903               	goto	l1895
  3324  066F  2D9A               	xorlw	4^3	; case 4
  3325  0670  3A07               	skipnz
  3326  0671  1903               	goto	l1897
  3327  0672  2DA2               	xorlw	5^4	; case 5
  3328  0673  3A01               	skipnz
  3329  0674  1903               	goto	l1899
  3330  0675  2DAA               	xorlw	6^5	; case 6
  3331  0676  3A03               	skipnz
  3332  0677  1903               	goto	l1901
  3333  0678  2DB2               	xorlw	7^6	; case 7
  3334  0679  3A01               	skipnz
  3335  067A  1903               	goto	l1903
  3336  067B  2DBA               	xorlw	8^7	; case 8
  3337  067C  3A0F               	skipnz
  3338  067D  1903               	goto	l1905
  3339  067E  2DC2               	xorlw	9^8	; case 9
  3340  067F  3A01               	skipnz
  3341  0680  1903               	goto	l1907
  3342  0681  2DCA               	xorlw	10^9	; case 10
  3343  0682  3A03               	skipnz
  3344  0683  1903               	goto	l1909
  3345  0684  2DD2               	xorlw	11^10	; case 11
  3346  0685  3A01               	skipnz
  3347  0686  1903               	goto	l1911
  3348  0687  2DDA               	xorlw	12^11	; case 12
  3349  0688  3A07               	skipnz
  3350  0689  1903               	goto	l1913
  3351  068A  2DE2               	xorlw	13^12	; case 13
  3352  068B  3A01               	skipnz
  3353  068C  1903               	goto	l1915
  3354  068D  2DEA               	xorlw	14^13	; case 14
  3355  068E  3A03               	skipnz
  3356  068F  1903               	goto	l1917
  3357  0690  2DF2               	xorlw	15^14	; case 15
  3358  0691  3A01               	skipnz
  3359  0692  1903               	goto	l1919
  3360  0693  2DFA               	xorlw	16^15	; case 16
  3361  0694  3A1F               	skipnz
  3362  0695  1903               	goto	l1921
  3363  0696  2E02               	xorlw	17^16	; case 17
  3364  0697  3A01               	skipnz
  3365  0698  1903               	goto	l1923
  3366  0699  2E0A               	xorlw	18^17	; case 18
  3367  069A  3A03               	skipnz
  3368  069B  1903               	goto	l1925
  3369  069C  2E12               	xorlw	19^18	; case 19
  3370  069D  3A01               	skipnz
  3371  069E  1903               	goto	l1927
  3372  069F  2E1A               	xorlw	20^19	; case 20
  3373  06A0  3A07               	skipnz
  3374  06A1  1903               	goto	l1929
  3375  06A2  2E22               	xorlw	21^20	; case 21
  3376  06A3  3A01               	skipnz
  3377  06A4  1903               	goto	l1931
  3378  06A5  2E2A               	xorlw	22^21	; case 22
  3379  06A6  3A03               	skipnz
  3380  06A7  1903               	goto	l1933
  3381  06A8  2E32               	xorlw	23^22	; case 23
  3382  06A9  3A01               	skipnz
  3383  06AA  1903               	goto	l1935
  3384  06AB  2E3A               	xorlw	24^23	; case 24
  3385  06AC  3A0F               	skipnz
  3386  06AD  1903               	goto	l1937
  3387  06AE  2E42               	xorlw	25^24	; case 25
  3388  06AF  3A01               	skipnz
  3389  06B0  1903               	goto	l1939
  3390  06B1  2E4A               	xorlw	26^25	; case 26
  3391  06B2  3A03               	skipnz
  3392  06B3  1903               	goto	l1941
  3393  06B4  2E52               	goto	l213
  3394  06B5  2EB6               	opt asmopt_pop
  3395                           
  3396                           	
  3397                           l186:	
  3398  06B6                     	line	247
  3399                           	
  3400                           l213:	
  3401  06B6                     	return
  3402  06B6  0008               	opt stack 0
  3403                           GLOBAL	__end_of_digitalWrite
  3404                           	__end_of_digitalWrite:
  3405  06B7                     	signat	_digitalWrite,8313
  3406                           	global	_delay
  3407                           
  3408 ;; *************** function _delay *****************
  3409 ;; Defined at:
  3410 ;;		line 607 in file "source.c"
  3411 ;; Parameters:    Size  Location     Type
  3412 ;;  milis           2    0[COMMON] const int 
  3413 ;; Auto vars:     Size  Location     Type
  3414 ;;  i               2    5[COMMON] int 
  3415 ;;  j               2    3[COMMON] int 
  3416 ;; Return value:  Size  Location     Type
  3417 ;;                  1    wreg      void 
  3418 ;; Registers used:
  3419 ;;		wreg, status,2, btemp+1
  3420 ;; Tracked objects:
  3421 ;;		On entry : 0/0
  3422 ;;		On exit  : 0/0
  3423 ;;		Unchanged: 0/0
  3424 ;; Data sizes:     COMMON   BANK0   BANK1   BANK3   BANK2
  3425 ;;      Params:         2       0       0       0       0
  3426 ;;      Locals:         4       0       0       0       0
  3427 ;;      Temps:          1       0       0       0       0
  3428 ;;      Totals:         7       0       0       0       0
  3429 ;;Total ram usage:        7 bytes
  3430 ;; Hardware stack levels used:    1
  3431 ;; This function calls:
  3432 ;;		Nothing
  3433 ;; This function is called by:
  3434 ;;		_loop
  3435 ;; This function uses a non-reentrant model
  3436 ;;
  3437                           psect	text8,local,class=CODE,delta=2,merge=1,group=0
  3438                           	line	607
  3439                           global __ptext8
  3440                           __ptext8:	;psect for function _delay
  3441  039A                     psect	text8
  3442                           	file	"source.c"
  3443                           	line	607
  3444                           	global	__size_of_delay
  3445                           	__size_of_delay	equ	__end_of_delay-_delay
  3446  004E                     	
  3447                           _delay:	
  3448  039A                     ;incstack = 0
  3449                           	opt	stack 6
  3450                           ; Regs used in _delay: [wreg+status,2+btemp+1]
  3451                           	line	609
  3452                           	
  3453                           l2015:	
  3454  039A                     ;source.c: 607: void delay(const int milis);source.c: 608: {;source.c: 609:     for(int 
                                 j=0;j<milis;j++)
  3455                           	clrf	(delay@j)
  3456  039A  01F3               	clrf	(delay@j+1)
  3457  039B  01F4               	
  3458                           l2017:	
  3459  039C                     	movf	(delay@j+1),w
  3460  039C  0874               	xorlw	80h
  3461  039D  3A80               	movwf	(??_delay+0)+0
  3462  039E  00F2               	movf	(delay@milis+1),w
  3463  039F  0871               	xorlw	80h
  3464  03A0  3A80               	subwf	(??_delay+0)+0,w
  3465  03A1  0272               	skipz
  3466  03A2  1D03               	goto	u665
  3467  03A3  2BA6               	movf	(delay@milis),w
  3468  03A4  0870               	subwf	(delay@j),w
  3469  03A5  0273               u665:
  3470  03A6                     
  3471                           	skipc
  3472  03A6  1C03               	goto	u661
  3473  03A7  2BA9               	goto	u660
  3474  03A8  2BAA               u661:
  3475  03A9                     	goto	l2021
  3476  03A9  2BAC               u660:
  3477  03AA                     	goto	l393
  3478  03AA  2BE7               	
  3479                           l2019:	
  3480  03AB                     	goto	l393
  3481  03AB  2BE7               	
  3482                           l389:	
  3483  03AC                     	line	612
  3484                           	
  3485                           l2021:	
  3486  03AC                     ;source.c: 610:     {;source.c: 612:         for(int i=0;i<400;i++)
  3487                           	clrf	(delay@i)
  3488  03AC  01F5               	clrf	(delay@i+1)
  3489  03AD  01F6               	
  3490                           l2023:	
  3491  03AE                     	movf	(delay@i+1),w
  3492  03AE  0876               	xorlw	80h
  3493  03AF  3A80               	movwf	btemp+1
  3494  03B0  00FF               	movlw	(01h)^80h
  3495  03B1  3081               	subwf	btemp+1,w
  3496  03B2  027F               	skipz
  3497  03B3  1D03               	goto	u675
  3498  03B4  2BB7               	movlw	090h
  3499  03B5  3090               	subwf	(delay@i),w
  3500  03B6  0275               u675:
  3501  03B7                     
  3502                           	skipc
  3503  03B7  1C03               	goto	u671
  3504  03B8  2BBA               	goto	u670
  3505  03B9  2BBB               u671:
  3506  03BA                     	goto	l391
  3507  03BA  2BBD               u670:
  3508  03BB                     	goto	l2031
  3509  03BB  2BD2               	
  3510                           l2025:	
  3511  03BC                     	goto	l2031
  3512  03BC  2BD2               	
  3513                           l391:	
  3514  03BD                     	line	614
  3515                           # 614 "source.c"
  3516                           NOP ;# 
  3517  03BD  0000               psect	text8
  3518                           	line	615
  3519                           	
  3520                           l2027:	
  3521  03BE                     ;source.c: 615:         }
  3522                           	movlw	01h
  3523  03BE  3001               	addwf	(delay@i),f
  3524  03BF  07F5               	skipnc
  3525  03C0  1803               	incf	(delay@i+1),f
  3526  03C1  0AF6               	movlw	0
  3527  03C2  3000               	addwf	(delay@i+1),f
  3528  03C3  07F6               	
  3529                           l2029:	
  3530  03C4                     	movf	(delay@i+1),w
  3531  03C4  0876               	xorlw	80h
  3532  03C5  3A80               	movwf	btemp+1
  3533  03C6  00FF               	movlw	(01h)^80h
  3534  03C7  3081               	subwf	btemp+1,w
  3535  03C8  027F               	skipz
  3536  03C9  1D03               	goto	u685
  3537  03CA  2BCD               	movlw	090h
  3538  03CB  3090               	subwf	(delay@i),w
  3539  03CC  0275               u685:
  3540  03CD                     
  3541                           	skipc
  3542  03CD  1C03               	goto	u681
  3543  03CE  2BD0               	goto	u680
  3544  03CF  2BD1               u681:
  3545  03D0                     	goto	l391
  3546  03D0  2BBD               u680:
  3547  03D1                     	goto	l2031
  3548  03D1  2BD2               	
  3549                           l392:	
  3550  03D2                     	line	616
  3551                           	
  3552                           l2031:	
  3553  03D2                     ;source.c: 616:     }
  3554                           	movlw	01h
  3555  03D2  3001               	addwf	(delay@j),f
  3556  03D3  07F3               	skipnc
  3557  03D4  1803               	incf	(delay@j+1),f
  3558  03D5  0AF4               	movlw	0
  3559  03D6  3000               	addwf	(delay@j+1),f
  3560  03D7  07F4               	movf	(delay@j+1),w
  3561  03D8  0874               	xorlw	80h
  3562  03D9  3A80               	movwf	(??_delay+0)+0
  3563  03DA  00F2               	movf	(delay@milis+1),w
  3564  03DB  0871               	xorlw	80h
  3565  03DC  3A80               	subwf	(??_delay+0)+0,w
  3566  03DD  0272               	skipz
  3567  03DE  1D03               	goto	u695
  3568  03DF  2BE2               	movf	(delay@milis),w
  3569  03E0  0870               	subwf	(delay@j),w
  3570  03E1  0273               u695:
  3571  03E2                     
  3572                           	skipc
  3573  03E2  1C03               	goto	u691
  3574  03E3  2BE5               	goto	u690
  3575  03E4  2BE6               u691:
  3576  03E5                     	goto	l2021
  3577  03E5  2BAC               u690:
  3578  03E6                     	goto	l393
  3579  03E6  2BE7               	
  3580                           l390:	
  3581  03E7                     	line	617
  3582                           	
  3583                           l393:	
  3584  03E7                     	return
  3585  03E7  0008               	opt stack 0
  3586                           GLOBAL	__end_of_delay
  3587                           	__end_of_delay:
  3588  03E8                     	signat	_delay,4217
  3589                           	global	_SerialPrintLn
  3590                           
  3591 ;; *************** function _SerialPrintLn *****************
  3592 ;; Defined at:
  3593 ;;		line 513 in file "source.c"
  3594 ;; Parameters:    Size  Location     Type
  3595 ;;  dataText        2    1[COMMON] PTR unsigned char 
  3596 ;;		 -> STR_2(3), RAM(512), 
  3597 ;; Auto vars:     Size  Location     Type
  3598 ;;  i               2    3[COMMON] unsigned int 
  3599 ;; Return value:  Size  Location     Type
  3600 ;;                  1    wreg      void 
  3601 ;; Registers used:
  3602 ;;		wreg, fsr0l, fsr0h, status,2, status,0, btemp+1, pclath, cstack
  3603 ;; Tracked objects:
  3604 ;;		On entry : 0/0
  3605 ;;		On exit  : 0/0
  3606 ;;		Unchanged: 0/0
  3607 ;; Data sizes:     COMMON   BANK0   BANK1   BANK3   BANK2
  3608 ;;      Params:         2       0       0       0       0
  3609 ;;      Locals:         2       0       0       0       0
  3610 ;;      Temps:          0       0       0       0       0
  3611 ;;      Totals:         4       0       0       0       0
  3612 ;;Total ram usage:        4 bytes
  3613 ;; Hardware stack levels used:    1
  3614 ;; Hardware stack levels required when called:    1
  3615 ;; This function calls:
  3616 ;;		_SerialWrite
  3617 ;; This function is called by:
  3618 ;;		_setup
  3619 ;;		_loop
  3620 ;; This function uses a non-reentrant model
  3621 ;;
  3622                           psect	text9,local,class=CODE,delta=2,merge=1,group=0
  3623                           	line	513
  3624                           global __ptext9
  3625                           __ptext9:	;psect for function _SerialPrintLn
  3626  0360                     psect	text9
  3627                           	file	"source.c"
  3628                           	line	513
  3629                           	global	__size_of_SerialPrintLn
  3630                           	__size_of_SerialPrintLn	equ	__end_of_SerialPrintLn-_SerialPrintLn
  3631  003A                     	
  3632                           _SerialPrintLn:	
  3633  0360                     ;incstack = 0
  3634                           	opt	stack 5
  3635                           ; Regs used in _SerialPrintLn: [wreg-fsr0h+status,2+status,0+btemp+1+pclath+cstack]
  3636                           	line	516
  3637                           	
  3638                           l2005:	
  3639  0360                     ;source.c: 513: void SerialPrintLn(char *dataText);source.c: 514: {;source.c: 515:     u
                                 nsigned int i;;source.c: 516:         for(i=0;dataText[i]!='\0';i++)
  3640                           	clrf	(SerialPrintLn@i)
  3641  0360  01F3               	clrf	(SerialPrintLn@i+1)
  3642  0361  01F4               	goto	l2011
  3643  0362  2B7E               	
  3644                           l339:	
  3645  0363                     	line	518
  3646                           	
  3647                           l2007:	
  3648  0363                     ;source.c: 517:         {;source.c: 518:             SerialWrite(dataText[i]);
  3649                           	movf	(SerialPrintLn@i),w
  3650  0363  0873               	addwf	(SerialPrintLn@dataText),w
  3651  0364  0771               	movwf	fsr0
  3652  0365  0084               	movf	(SerialPrintLn@i+1),w
  3653  0366  0874               	skipnc
  3654  0367  1803               	incf	(SerialPrintLn@i+1),w
  3655  0368  0A74               	addwf	(SerialPrintLn@dataText+1),w
  3656  0369  0772               	bcf	status, 5	;RP0=0, select bank0
  3657  036A  1283               	bcf	status, 6	;RP1=0, select bank0
  3658  036B  1303               	movwf	btemp+1
  3659  036C  00FF               	fcall	stringtab
  3660  036D  120A  118A  2003  120A  118A  	fcall	_SerialWrite
  3661  0372  120A  118A  22CC  120A  118A  	line	519
  3662                           	
  3663                           l2009:	
  3664  0377                     ;source.c: 519:         }
  3665                           	movlw	01h
  3666  0377  3001               	addwf	(SerialPrintLn@i),f
  3667  0378  07F3               	skipnc
  3668  0379  1803               	incf	(SerialPrintLn@i+1),f
  3669  037A  0AF4               	movlw	0
  3670  037B  3000               	addwf	(SerialPrintLn@i+1),f
  3671  037C  07F4               	goto	l2011
  3672  037D  2B7E               	
  3673                           l338:	
  3674  037E                     	
  3675                           l2011:	
  3676  037E                     	movf	(SerialPrintLn@i),w
  3677  037E  0873               	addwf	(SerialPrintLn@dataText),w
  3678  037F  0771               	movwf	fsr0
  3679  0380  0084               	movf	(SerialPrintLn@i+1),w
  3680  0381  0874               	skipnc
  3681  0382  1803               	incf	(SerialPrintLn@i+1),w
  3682  0383  0A74               	addwf	(SerialPrintLn@dataText+1),w
  3683  0384  0772               	bcf	status, 5	;RP0=0, select bank0
  3684  0385  1283               	bcf	status, 6	;RP1=0, select bank0
  3685  0386  1303               	movwf	btemp+1
  3686  0387  00FF               	fcall	stringtab
  3687  0388  120A  118A  2003  120A  118A  	xorlw	0
  3688  038D  3A00               	skipz
  3689  038E  1D03               	goto	u651
  3690  038F  2B91               	goto	u650
  3691  0390  2B92               u651:
  3692  0391                     	goto	l2007
  3693  0391  2B63               u650:
  3694  0392                     	goto	l2013
  3695  0392  2B93               	
  3696                           l340:	
  3697  0393                     	line	520
  3698                           	
  3699                           l2013:	
  3700  0393                     ;source.c: 520:         SerialWrite(0x0A);
  3701                           	movlw	low(0Ah)
  3702  0393  300A               	fcall	_SerialWrite
  3703  0394  120A  118A  22CC  120A  118A  	line	521
  3704                           	
  3705                           l341:	
  3706  0399                     	return
  3707  0399  0008               	opt stack 0
  3708                           GLOBAL	__end_of_SerialPrintLn
  3709                           	__end_of_SerialPrintLn:
  3710  039A                     	signat	_SerialPrintLn,4217
  3711                           	global	_SerialWrite
  3712                           
  3713 ;; *************** function _SerialWrite *****************
  3714 ;; Defined at:
  3715 ;;		line 492 in file "source.c"
  3716 ;; Parameters:    Size  Location     Type
  3717 ;;  dataWrite       1    wreg     unsigned char 
  3718 ;; Auto vars:     Size  Location     Type
  3719 ;;  dataWrite       1    0[COMMON] unsigned char 
  3720 ;; Return value:  Size  Location     Type
  3721 ;;                  1    wreg      void 
  3722 ;; Registers used:
  3723 ;;		wreg
  3724 ;; Tracked objects:
  3725 ;;		On entry : 0/0
  3726 ;;		On exit  : 0/0
  3727 ;;		Unchanged: 0/0
  3728 ;; Data sizes:     COMMON   BANK0   BANK1   BANK3   BANK2
  3729 ;;      Params:         0       0       0       0       0
  3730 ;;      Locals:         1       0       0       0       0
  3731 ;;      Temps:          0       0       0       0       0
  3732 ;;      Totals:         1       0       0       0       0
  3733 ;;Total ram usage:        1 bytes
  3734 ;; Hardware stack levels used:    1
  3735 ;; This function calls:
  3736 ;;		Nothing
  3737 ;; This function is called by:
  3738 ;;		_SerialPrint
  3739 ;;		_SerialPrintLn
  3740 ;;		_SerialWriteText
  3741 ;; This function uses a non-reentrant model
  3742 ;;
  3743                           psect	text10,local,class=CODE,delta=2,merge=1,group=0
  3744                           	line	492
  3745                           global __ptext10
  3746                           __ptext10:	;psect for function _SerialWrite
  3747  02CC                     psect	text10
  3748                           	file	"source.c"
  3749                           	line	492
  3750                           	global	__size_of_SerialWrite
  3751                           	__size_of_SerialWrite	equ	__end_of_SerialWrite-_SerialWrite
  3752  000C                     	
  3753                           _SerialWrite:	
  3754  02CC                     ;incstack = 0
  3755                           	opt	stack 5
  3756                           ; Regs used in _SerialWrite: [wreg]
  3757                           ;SerialWrite@dataWrite stored from wreg
  3758                           	movwf	(SerialWrite@dataWrite)
  3759  02CC  00F0               	line	494
  3760                           	
  3761                           l1779:	
  3762  02CD                     ;source.c: 492: void SerialWrite(char dataWrite);source.c: 493: {;source.c: 494:     whi
                                 le(!TXIF);
  3763                           	goto	l320
  3764  02CD  2ACE               	
  3765                           l321:	
  3766  02CE                     	
  3767                           l320:	
  3768  02CE                     	bcf	status, 5	;RP0=0, select bank0
  3769  02CE  1283               	bcf	status, 6	;RP1=0, select bank0
  3770  02CF  1303               	btfss	(100/8),(100)&7	;volatile
  3771  02D0  1E0C               	goto	u501
  3772  02D1  2AD3               	goto	u500
  3773  02D2  2AD4               u501:
  3774  02D3                     	goto	l320
  3775  02D3  2ACE               u500:
  3776  02D4                     	goto	l1781
  3777  02D4  2AD5               	
  3778                           l322:	
  3779  02D5                     	line	495
  3780                           	
  3781                           l1781:	
  3782  02D5                     ;source.c: 495:     TXREG = dataWrite;
  3783                           	movf	(SerialWrite@dataWrite),w
  3784  02D5  0870               	movwf	(25)	;volatile
  3785  02D6  0099               	line	496
  3786                           	
  3787                           l323:	
  3788  02D7                     	return
  3789  02D7  0008               	opt stack 0
  3790                           GLOBAL	__end_of_SerialWrite
  3791                           	__end_of_SerialWrite:
  3792  02D8                     	signat	_SerialWrite,4217
  3793                           	global	_Initialization
  3794                           
  3795 ;; *************** function _Initialization *****************
  3796 ;; Defined at:
  3797 ;;		line 18 in file "source.c"
  3798 ;; Parameters:    Size  Location     Type
  3799 ;;		None
  3800 ;; Auto vars:     Size  Location     Type
  3801 ;;		None
  3802 ;; Return value:  Size  Location     Type
  3803 ;;                  1    wreg      void 
  3804 ;; Registers used:
  3805 ;;		wreg, status,2, status,0, pclath, cstack
  3806 ;; Tracked objects:
  3807 ;;		On entry : 0/0
  3808 ;;		On exit  : 0/0
  3809 ;;		Unchanged: 0/0
  3810 ;; Data sizes:     COMMON   BANK0   BANK1   BANK3   BANK2
  3811 ;;      Params:         0       0       0       0       0
  3812 ;;      Locals:         0       0       0       0       0
  3813 ;;      Temps:          0       0       0       0       0
  3814 ;;      Totals:         0       0       0       0       0
  3815 ;;Total ram usage:        0 bytes
  3816 ;; Hardware stack levels used:    1
  3817 ;; Hardware stack levels required when called:    1
  3818 ;; This function calls:
  3819 ;;		_CCP1Configuration
  3820 ;; This function is called by:
  3821 ;;		_main
  3822 ;; This function uses a non-reentrant model
  3823 ;;
  3824                           psect	text11,local,class=CODE,delta=2,merge=1,group=0
  3825                           	line	18
  3826                           global __ptext11
  3827                           __ptext11:	;psect for function _Initialization
  3828  02ED                     psect	text11
  3829                           	file	"source.c"
  3830                           	line	18
  3831                           	global	__size_of_Initialization
  3832                           	__size_of_Initialization	equ	__end_of_Initialization-_Initialization
  3833  0021                     	
  3834                           _Initialization:	
  3835  02ED                     ;incstack = 0
  3836                           	opt	stack 6
  3837                           ; Regs used in _Initialization: [wreg+status,2+status,0+pclath+cstack]
  3838                           	line	21
  3839                           	
  3840                           l1273:	
  3841  02ED                     ;source.c: 21:     ADCON0 = 0x81;
  3842                           	movlw	low(081h)
  3843  02ED  3081               	bcf	status, 5	;RP0=0, select bank0
  3844  02EE  1283               	bcf	status, 6	;RP1=0, select bank0
  3845  02EF  1303               	movwf	(31)	;volatile
  3846  02F0  009F               	line	22
  3847                           ;source.c: 22:     ADCON1 = 0xC2;
  3848                           	movlw	low(0C2h)
  3849  02F1  30C2               	bsf	status, 5	;RP0=1, select bank1
  3850  02F2  1683               	bcf	status, 6	;RP1=0, select bank1
  3851  02F3  1303               	movwf	(159)^080h	;volatile
  3852  02F4  009F               	line	24
  3853                           # 24 "source.c"
  3854                           CLRF PORTA ;# 
  3855  02F5  0185               	line	25
  3856                           # 25 "source.c"
  3857                           MOVLW 0x3F ;# 
  3858  02F6  303F               	line	26
  3859                           # 26 "source.c"
  3860                           MOVWF TRISA ;# 
  3861  02F7  0085               	line	28
  3862                           # 28 "source.c"
  3863                           CLRF PORTB ;# 
  3864  02F8  0186               	line	29
  3865                           # 29 "source.c"
  3866                           MOVLW 0x00 ;# 
  3867  02F9  3000               	line	30
  3868                           # 30 "source.c"
  3869                           MOVWF TRISB ;# 
  3870  02FA  0086               	line	32
  3871                           # 32 "source.c"
  3872                           CLRF PORTC ;# 
  3873  02FB  0187               	line	33
  3874                           # 33 "source.c"
  3875                           MOVLW 0x00 ;# 
  3876  02FC  3000               	line	34
  3877                           # 34 "source.c"
  3878                           MOVWF TRISC ;# 
  3879  02FD  0087               psect	text11
  3880                           	line	35
  3881                           	
  3882                           l1275:	
  3883  02FE                     ;source.c: 35:     CCP1Configuration();
  3884                           	fcall	_CCP1Configuration
  3885  02FE  120A  118A  22C1  120A  118A  	line	37
  3886                           # 37 "source.c"
  3887                           CLRF PORTD ;# 
  3888  0303  0188               	line	38
  3889                           # 38 "source.c"
  3890                           MOVLW 0x00 ;# 
  3891  0304  3000               	line	39
  3892                           # 39 "source.c"
  3893                           MOVF TRISD ;# 
  3894  0305  0888               psect	text11
  3895                           	line	40
  3896                           	
  3897                           l1277:	
  3898  0306                     ;source.c: 40:     PORTE = 0x00;
  3899                           	bcf	status, 5	;RP0=0, select bank0
  3900  0306  1283               	bcf	status, 6	;RP1=0, select bank0
  3901  0307  1303               	clrf	(9)	;volatile
  3902  0308  0189               	line	41
  3903                           	
  3904                           l1279:	
  3905  0309                     ;source.c: 41:     TRISE = 0x07;
  3906                           	movlw	low(07h)
  3907  0309  3007               	bsf	status, 5	;RP0=1, select bank1
  3908  030A  1683               	bcf	status, 6	;RP1=0, select bank1
  3909  030B  1303               	movwf	(137)^080h	;volatile
  3910  030C  0089               	line	42
  3911                           	
  3912                           l137:	
  3913  030D                     	return
  3914  030D  0008               	opt stack 0
  3915                           GLOBAL	__end_of_Initialization
  3916                           	__end_of_Initialization:
  3917  030E                     	signat	_Initialization,89
  3918                           	global	_CCP1Configuration
  3919                           
  3920 ;; *************** function _CCP1Configuration *****************
  3921 ;; Defined at:
  3922 ;;		line 43 in file "source.c"
  3923 ;; Parameters:    Size  Location     Type
  3924 ;;		None
  3925 ;; Auto vars:     Size  Location     Type
  3926 ;;		None
  3927 ;; Return value:  Size  Location     Type
  3928 ;;                  1    wreg      void 
  3929 ;; Registers used:
  3930 ;;		wreg
  3931 ;; Tracked objects:
  3932 ;;		On entry : 0/0
  3933 ;;		On exit  : 0/0
  3934 ;;		Unchanged: 0/0
  3935 ;; Data sizes:     COMMON   BANK0   BANK1   BANK3   BANK2
  3936 ;;      Params:         0       0       0       0       0
  3937 ;;      Locals:         0       0       0       0       0
  3938 ;;      Temps:          0       0       0       0       0
  3939 ;;      Totals:         0       0       0       0       0
  3940 ;;Total ram usage:        0 bytes
  3941 ;; Hardware stack levels used:    1
  3942 ;; This function calls:
  3943 ;;		Nothing
  3944 ;; This function is called by:
  3945 ;;		_Initialization
  3946 ;; This function uses a non-reentrant model
  3947 ;;
  3948                           psect	text12,local,class=CODE,delta=2,merge=1,group=0
  3949                           	line	43
  3950                           global __ptext12
  3951                           __ptext12:	;psect for function _CCP1Configuration
  3952  02C1                     psect	text12
  3953                           	file	"source.c"
  3954                           	line	43
  3955                           	global	__size_of_CCP1Configuration
  3956                           	__size_of_CCP1Configuration	equ	__end_of_CCP1Configuration-_CCP1Configuration
  3957  000B                     	
  3958                           _CCP1Configuration:	
  3959  02C1                     ;incstack = 0
  3960                           	opt	stack 6
  3961                           ; Regs used in _CCP1Configuration: [wreg]
  3962                           	line	45
  3963                           	
  3964                           l1061:	
  3965  02C1                     ;source.c: 45:     PR2 = 0xFF;
  3966                           	movlw	low(0FFh)
  3967  02C1  30FF               	bsf	status, 5	;RP0=1, select bank1
  3968  02C2  1683               	bcf	status, 6	;RP1=0, select bank1
  3969  02C3  1303               	movwf	(146)^080h	;volatile
  3970  02C4  0092               	line	46
  3971                           ;source.c: 46:     T2CON = 0x05;
  3972                           	movlw	low(05h)
  3973  02C5  3005               	bcf	status, 5	;RP0=0, select bank0
  3974  02C6  1283               	bcf	status, 6	;RP1=0, select bank0
  3975  02C7  1303               	movwf	(18)	;volatile
  3976  02C8  0092               	line	47
  3977                           ;source.c: 47:     CCP1CON = 0x4F;
  3978                           	movlw	low(04Fh)
  3979  02C9  304F               	movwf	(23)	;volatile
  3980  02CA  0097               	line	48
  3981                           	
  3982                           l140:	
  3983  02CB                     	return
  3984  02CB  0008               	opt stack 0
  3985                           GLOBAL	__end_of_CCP1Configuration
  3986                           	__end_of_CCP1Configuration:
  3987  02CC                     	signat	_CCP1Configuration,89
  3988                           global	___latbits
  3989                           ___latbits	equ	2
  3990  0002                     	global	btemp
  3991                           	btemp set 07Eh
  3992  007E                     
  3993                           	DABS	1,126,2	;btemp
  3994                           	global	wtemp0
  3995                           	wtemp0 set btemp+0
  3996  007E                     	end


Data Sizes:
    Strings     5
    Constant    2
    Data        0
    BSS         4
    Persistent  1
    Stack       0

Auto Spaces:
    Space          Size  Autos    Used
    COMMON           14     14      14
    BANK0            80     14      19
    BANK1            80      0       0
    BANK3            96      0       0
    BANK2            96      0       0

Pointer List with Targets:

    SerialPrintLn@dataText	PTR unsigned char  size(2) Largest target is 512
		 -> STR_2(CODE[3]), RAM(DATA[512]), 

    SerialPrint@dataText	PTR unsigned char  size(1) Largest target is 2
		 -> STR_1(CODE[2]), 


Critical Paths under _main in COMMON

    _main->_setup
    _setup->_SerialBegin
    _SerialPrint->_SerialWrite
    _SerialBegin->___aldiv
    _loop->_delay
    _SerialPrintLn->_SerialWrite

Critical Paths under _main in BANK0

    _main->_setup
    _setup->_SerialBegin
    _SerialBegin->___aldiv

Critical Paths under _main in BANK1

    None.

Critical Paths under _main in BANK3

    None.

Critical Paths under _main in BANK2

    None.

Call Graph Tables:

 ---------------------------------------------------------------------------------
 (Depth) Function   	        Calls       Base Space   Used Autos Params    Refs
 ---------------------------------------------------------------------------------
 (0) _main                                                 0     0      0    4157
                     _Initialization
                               _loop
                              _setup
 ---------------------------------------------------------------------------------
 (1) _setup                                                3     3      0    2761
                                             13 COMMON     1     1      0
                                             12 BANK0      2     2      0
                        _SerialBegin
                        _SerialPrint
                      _SerialPrintLn
                       _digitalWrite
                            _pinMode
 ---------------------------------------------------------------------------------
 (2) _pinMode                                              4     3      1     692
                                              0 COMMON     4     3      1
 ---------------------------------------------------------------------------------
 (2) _SerialPrint                                          3     3      0     145
                                              1 COMMON     3     3      0
                        _SerialWrite
 ---------------------------------------------------------------------------------
 (2) _SerialBegin                                         10     6      4     792
                                              9 COMMON     4     4      0
                                              6 BANK0      6     2      4
                            ___aldiv
 ---------------------------------------------------------------------------------
 (3) ___aldiv                                             15     7      8     604
                                              0 COMMON     9     1      8
                                              0 BANK0      6     6      0
 ---------------------------------------------------------------------------------
 (1) _loop                                                 0     0      0    1396
                      _SerialPrintLn
                              _delay
                       _digitalWrite
 ---------------------------------------------------------------------------------
 (2) _digitalWrite                                         4     3      1     844
                                              0 COMMON     4     3      1
 ---------------------------------------------------------------------------------
 (2) _delay                                                7     5      2     288
                                              0 COMMON     7     5      2
 ---------------------------------------------------------------------------------
 (2) _SerialPrintLn                                        4     2      2     264
                                              1 COMMON     4     2      2
                        _SerialWrite
 ---------------------------------------------------------------------------------
 (3) _SerialWrite                                          1     1      0      22
                                              0 COMMON     1     1      0
 ---------------------------------------------------------------------------------
 (1) _Initialization                                       0     0      0       0
                  _CCP1Configuration
 ---------------------------------------------------------------------------------
 (2) _CCP1Configuration                                    0     0      0       0
 ---------------------------------------------------------------------------------
 Estimated maximum stack depth 3
 ---------------------------------------------------------------------------------

 Call Graph Graphs:

 _main (ROOT)
   _Initialization
     _CCP1Configuration
   _loop
     _SerialPrintLn
       _SerialWrite
     _delay
     _digitalWrite
   _setup
     _SerialBegin
       ___aldiv
     _SerialPrint
       _SerialWrite
     _SerialPrintLn
       _SerialWrite
     _digitalWrite
     _pinMode

 Address spaces:
Name               Size   Autos  Total    Cost      Usage
BITCOMMON            E      0       0       0        0.0%
EEDATA             100      0       0       0        0.0%
NULL                 0      0       0       0        0.0%
CODE                 0      0       0       0        0.0%
COMMON               E      E       E       1      100.0%
BITSFR0              0      0       0       1        0.0%
SFR0                 0      0       0       1        0.0%
BITSFR1              0      0       0       2        0.0%
SFR1                 0      0       0       2        0.0%
STACK                0      0       0       2        0.0%
ABS                  0      0      21       3        0.0%
BITBANK0            50      0       0       4        0.0%
BITSFR3              0      0       0       4        0.0%
SFR3                 0      0       0       4        0.0%
BANK0               50      E      13       5       23.8%
BITSFR2              0      0       0       5        0.0%
SFR2                 0      0       0       5        0.0%
BITBANK1            50      0       0       6        0.0%
BANK1               50      0       0       7        0.0%
BITBANK3            60      0       0       8        0.0%
BANK3               60      0       0       9        0.0%
BITBANK2            60      0       0      10        0.0%
BANK2               60      0       0      11        0.0%
DATA                 0      0      21      12        0.0%


Microchip Technology PIC Macro Assembler V2.00 build -1524193055 
Symbol Table                                                                                   Wed Oct 16 18:46:42 2019

                         pc 0002                 __CFG_CP$OFF 0000                          fsr 0004  
               __CFG_LVP$ON 0000                         l200 05F2                         l201 05FA  
                       l210 0642                         l202 0602                         l211 064A  
                       l203 060A                         l131 02E3                         l140 02CB  
                       l212 0652                         l204 0612                         l300 04D9  
                       l132 02E9                         l205 061A                         l213 06B6  
                       l301 04D9                         l133 02EA                         l206 0622  
                       l134 02EA                         l207 062A                         l320 02CE  
                       l208 0632                         l152 079A                         l160 06E9  
                       l137 030D                         l321 02CE                         l209 063A  
                       l161 06F1                         l153 06B9                         l322 02D5  
                       l154 07F5                         l170 0739                         l162 06F9  
                       l323 02D7                         l171 0741                         l163 0701  
                       l155 06C1                         l340 0393                         l332 0326  
                       l180 078D                         l172 0749                         l164 0709  
                       l156 06C9                         l420 0439                         l341 0399  
                       l333 0312                         l173 0751                         l165 0711  
                       l157 06D1                         l181 07F5                         l421 0439  
                       l190 05A2                         l334 0334                         l174 0759  
                       l166 0719                         l158 06D9                         l191 05AA  
                       l335 0334                         l175 0765                         l167 0721  
                       l159 06E1                         l184 065B                         l192 05B2  
                       l424 035F                         l176 076D                         l168 0729  
                       l193 05BA                         l185 0582                         l177 0775  
                       l169 0731                         l338 037E                         l186 06B6  
                       l194 05C2                         l178 077D                         l339 0363  
                       l195 05CA                         l187 058A                         l179 0785  
                       l419 041E                         l196 05D2                         l188 0592  
                       l197 05DA                         l189 059A                         l390 03E7  
                       l198 05E2                         l391 03BD                         l199 05EA  
                       l392 03D2                         l393 03E7                         l299 04C3  
                       l580 0528                         l389 03AC                         l581 0529  
                       l582 0554                         l583 0564                         l575 04EE  
                       l584 0576                         l576 0502                         l585 057F  
                       l577 0565                         l578 0523                         l579 0515  
                       _GIE 005F                         _LED 0013                         u500 02D4  
                       u501 02D3                         u510 04E1                         _PR2 0092  
                       u511 04E0                         u600 056A                         u520 04F2  
                       _PEN 048A                         u601 0569                         u521 04F1  
                       u530 0512                         u610 044D                __CFG_CPD$OFF 0000  
                       u531 0511                         u620 0478                         u621 0477  
                       u550 0527                         u630 048B                         u551 0526  
                       u615 0448                         u640 0333                         u545 0517  
                       u641 0332                         u650 0392                         u570 0544  
                       u651 0391                         u571 0543                         u635 0486  
                       u660 03AA                         _SEN 0488                         u661 03A9  
                       u565 052B                         u670 03BB                         u590 0563  
                       u671 03BA                         u591 0562                         u575 0540  
                       u680 03D1                         u681 03D0                         u665 03A6  
                       u585 0555                         u690 03E6                         u691 03E5  
                       u675 03B7                         u685 03CD                         u695 03E2  
                       fsr0 0004                         indf 0000                __CFG_FOSC$HS 0000  
                      l2001 031F                        l2011 037E                        l2003 0326  
                      l1061 02C1                        l2013 0393                        l2005 0360  
                      l2021 03AC                        l2007 0363                        l2031 03D2  
                      l2023 03AE                        l2015 039A                        l2009 0377  
                      l2025 03BC                        l2017 039C                        l2113 07A2  
                      l2041 041D                        l2033 03E8                        PORTA 0005  
                      PORTB 0006                        l2027 03BE                        l2019 03AB  
                      l2115 0663                        l2051 033E                        l2043 041E  
                      l2035 03FC                        PORTC 0007                        PORTD 0008  
                      l2029 03C4                        l2053 0346                        l2045 0424  
                      l2037 0409                        l2061 02DD                        l2055 034F  
                      l2047 0432                        l2039 041B                        l2063 02E3  
                      l1273 02ED                        l2057 0356                        l2049 0335  
                      l1275 02FE                        l2059 02D8                        l1277 0306  
                      l1279 0309                        l1801 0523                        l1811 0554  
                      l1803 0529                        l1901 05B2                        l1821 057F  
                      l1813 055D                        l1805 0532                        l1911 05DA  
                      l1903 05BA                        l1807 0544                        l1815 0565  
                      l1831 06D1                        l1823 06B8                        l1921 0602  
                      l1913 05E2                        l1905 05C2                        l1817 056A  
                      l1809 0552                        l1841 06F9                        l1833 06D9  
                      l1825 06B9                        l1931 062A                        l1923 060A  
                      l1915 05EA                        l1907 05CA                        l1819 0576  
                      l1851 0721                        l1843 0701                        l1835 06E1  
                      l1827 06C1                        l1781 02D5                        l1941 0652  
                      l1933 0632                        l1925 0612                        l1917 05F2  
                      l1909 05D2                        l1861 0749                        l1853 0729  
                      l1845 0709                        l1837 06E9                        l1829 06C9  
                      l1943 065A                        l1935 063A                        l1927 061A  
                      l1919 05FA                        l1791 04FD                        l1783 04DA  
                      l1951 043A                        l1871 0775                        l1863 0751  
                      l1855 0731                        l1847 0711                        l1839 06F1  
                      l1937 0642                        l1929 0622                        l1945 065B  
                      l1793 0502                        l1785 04DD                        l1961 04AD  
                      l1953 043D                        l1873 077D                        l1865 075F  
                      l1857 0739                        l1849 0719                        l1881 079A  
                      l1779 02CD                        l1939 064A                        l1891 058A  
                      l1795 050A                        l1787 04E1                        l1971 04B9  
                      l1963 04B1                        l1955 046F                        l1875 0785  
                      l1867 0765                        l1859 0741                        l1893 0592  
                      l1797 0512                        l1789 04F2                        l1973 04BC  
                      l1965 04B2                        l1957 0478                        l1981 04C3  
                      l1877 0793                        l1869 076D                        l1895 059A  
                      l1887 0581                        l1799 0515                        l1991 04D0  
                      l1983 04C8                        l1975 04BF                        l1967 04B5  
                      l1959 047B                        l1879 0799                        l1897 05A2  
                      l1889 0582                        l1993 04D3                        l1985 04C9  
                      l1977 04C1                        l1969 04B8                        l1899 05AA  
                      l1995 04D8                        l1987 04CC                        l1979 04C2  
                      l1989 04CF                        l1997 030F                        l1999 0312  
                      TRISA 0085                        TRISB 0086                        TRISC 0087  
                      TRISD 0088                        STR_1 0018                        STR_2 0015  
                      _BRGH 04C2                        _CREN 00C4                        _FERR 00C2  
                      _PEIE 005E                        _RCEN 048B                        _RCIF 0065  
                      _OERR 00C1                        _SPEN 00C7                        _RSEN 0489  
                      _TRMT 04C1                        _TXEN 04C5                        _TXIF 0064  
                      _SYNC 04C4                __CFG_WRT$OFF 0000                        _data 002E  
                      _main 02D8                        _loop 0335                        btemp 007E  
                      start 0000       SerialPrintLn@dataText 0071             __end_of___aldiv 0580  
                     ?_main 0070                       _ACKEN 048C                       _ACKDT 048D  
                     _CCP1X 00BD                       _CCP1Y 00BC                       _CCP2X 00ED  
                     _CCP2Y 00EC                       ?_loop 0070               __CFG_WDTE$OFF 0000  
                     _T2CON 0012                       _RCREG 001A       __end_of_SerialPrintLn 039A  
                     _SPBRG 0099                       _PORTE 0009                       _SSPIE 0463  
                     _TRISE 0089                       _SSPIF 0063                       _TXREG 0019  
                     _delay 039A             __end_of_pinMode 07F6                       _setup 03E8  
                     _state 0032              __CFG_BOREN$OFF 0000                       pclath 000A  
                     status 0003                       wtemp0 007E  __size_of_CCP1Configuration 000B  
      __end_of_digitalWrite 06B7             __initialization 07F6                __end_of_main 02ED  
              __end_of_loop 0360     __size_of_Initialization 0021                      ??_main 007E  
                    ??_loop 0077                      ?_delay 0070                      _ADCON0 001F  
                    _ADCON1 009F                      _ADRESH 001E                      _ADRESL 009E  
                    _CCPR1L 0015                      _CCPR2L 001B                      ?_setup 0070  
             ??_SerialBegin 0079                      _SSPADD 0093         SerialBegin@BaudRate 0026  
                    _TRISC3 043B                      _TRISC4 043C                      _TRISC6 043E  
                    _TRISC7 043F                      _SSPCON 0014                      _SSPBUF 0013  
             ??_SerialPrint 0071               ??_SerialWrite 0070              __CFG_PWRTE$OFF 0000  
                 ??___aldiv 0078                      delay@i 0075                      delay@j 0073  
                 ??_pinMode 0071                      setup@i 007D         SerialPrint@dataText 0073  
   __end_of__initialization 07FC                 pinMode@mode 0070         __end_of_SerialBegin 04DA  
            __pcstackCOMMON 0070         __end_of_SerialPrint 0335               __end_of_delay 03E8  
       __end_of_SerialWrite 02D8               __end_of_setup 043A                     ??_delay 0072  
                   ??_setup 002C                  __pbssBANK0 002E       __size_of_digitalWrite 0137  
      SerialWrite@dataWrite 0070                  __pmaintext 02D8              _Initialization 02ED  
                   _CCP1CON 0017                     _CCP2CON 001D                _digitalWrite 0580  
                   _SSPCON2 0091                     _SSPSTAT 0094                  __stringtab 0003  
               _SerialBegin 043A                 _SerialPrint 030E                 _SerialWrite 02CC  
    __end_of_Initialization 030E                     ___aldiv 04DA                     __ptext1 03E8  
                   __ptext2 06B7                     __ptext3 030E                     __ptext4 043A  
                   __ptext5 04DA                     __ptext6 0335                     __ptext7 0580  
                   __ptext8 039A                     __ptext9 0360                     _pinMode 06B7  
                delay@milis 0070            ___aldiv@dividend 0074        end_of_initialization 07FC  
    __size_of_SerialPrintLn 003A             ?_Initialization 0070            ___aldiv@quotient 0022  
                 _PORTAbits 0005                   _PORTBbits 0006                   _PORTCbits 0007  
                 _PORTDbits 0008                   _PORTEbits 0009                   _TRISAbits 0085  
                 _TRISBbits 0086                   _TRISCbits 0087                   _TRISDbits 0088  
             _SerialPrintLn 0360         start_initialization 07F6                 __end_of_LED 0015  
            ?_SerialPrintLn 0071                   ___latbits 0002               __pcstackBANK0 0020  
                pinMode@pin 0073                ?_SerialBegin 0026                ?_SerialPrint 0070  
                 __pnvBANK0 0032                ?_SerialWrite 0070                    ?___aldiv 0070  
              SerialBegin@x 002A                   __pstrings 0003                    ?_pinMode 0070  
              SerialPrint@i 0071              __size_of_delay 004E              __size_of_setup 0052  
           ___aldiv@divisor 0070            ??_Initialization 0070             ___aldiv@counter 0020  
           ??_SerialPrintLn 0073                  _ADCON0bits 001F                 __stringbase 0012  
                _ADCON1bits 009F              SerialPrintLn@i 0073            __size_of___aldiv 00A6  
        __end_of__stringtab 0013            __size_of_pinMode 013F                    __ptext10 02CC  
                  __ptext11 02ED                    __ptext12 02C1               __size_of_main 0015  
             __size_of_loop 002B        __size_of_SerialBegin 00A0        __size_of_SerialPrint 0027  
      __size_of_SerialWrite 000C               ?_digitalWrite 0070           digitalWrite@value 0070  
                 stringcode 000D           _CCP1Configuration 02C1          ?_CCP1Configuration 0070  
            ??_digitalWrite 0071                    stringdir 000D                    stringtab 0003  
       ??_CCP1Configuration 0070                ___aldiv@sign 0021             digitalWrite@pin 0073  
 __end_of_CCP1Configuration 02CC  
