

Microchip Technology PIC LITE Macro Assembler V2.00 build -1524193055 
                                                                                               Sat Mar 26 19:32:27 2022

Microchip Technology Omniscient Code Generator v2.00 (Free mode) build 20180527130849
     1  0000                     
      + 0000                     
     2                           ; Version 2.00
     3                           ; Generated 27/05/2018 GMT
     4                           
     5                           ; 
     6                           ; Copyright © 2018, Microchip Technology Inc. and its subsidiaries ("Microchip")
     7                           ; All rights reserved.
     8                           ; 
     9                           ; This software is developed by Microchip Technology Inc. and its subsidiaries ("Microch
                                 ip").
    10                           ; 
    11                           ; Redistribution and use in source and binary forms, with or without modification, are
    12                           ; permitted provided that the following conditions are met:
    13                           ; 
    14                           ;     1. Redistributions of source code must retain the above copyright notice, this lis
                                 t of
    15                           ;        conditions and the following disclaimer.
    16                           ; 
    17                           ;     2. Redistributions in binary form must reproduce the above copyright notice, this 
                                 list
    18                           ;        of conditions and the following disclaimer in the documentation and/or other
    19                           ;        materials provided with the distribution.
    20                           ; 
    21                           ;     3. Microchip's name may not be used to endorse or promote products derived from th
                                 is
    22                           ;        software without specific prior written permission.
    23                           ; 
    24                           ; THIS SOFTWARE IS PROVIDED BY MICROCHIP "AS IS" AND ANY EXPRESS OR IMPLIED WARRANTIES,

    25                           ; INCLUDING, BUT NOT LIMITED TO, THE IMPLIED WARRANTIES OF MERCHANTABILITY AND FITNESS F
                                 OR
    26                           ; PURPOSE ARE DISCLAIMED.  IN NO EVENT SHALL MICROCHIP BE LIABLE FOR ANY DIRECT, INDIREC
                                 T,
    27                           ; INCIDENTAL, SPECIAL, EXEMPLARY, OR CONSEQUENTIAL DAMAGES (INCLUDING BUT NOT LIMITED TO
                                 
    28                           ; PROCUREMENT OF SUBSTITUTE GOODS OR SERVICES; LOSS OF USE, DATA OR PROFITS; OR BUSINESS
                                 
    29                           ; INTERRUPTION) HOWSOEVER CAUSED AND ON ANY THEORY OF LIABILITY, WHETHER IN CONTRACT, ST
                                 RICT
    30                           ; LIABILITY, OR TORT (INCLUDING NEGLIGENCE OR OTHERWISE) ARISING IN ANY WAY OUT OF THE U
                                 SE OF
    31                           ; THIS SOFTWARE, EVEN IF ADVISED OF THE POSSIBILITY OF SUCH DAMAGE.
    32                           ; 
    33                           
    34                           
    35                           ; 
    36                           ; Code-generator required, PIC16F877A Definitions
    37                           ; 
    38  0004                     fsr0 equ 04h
    39  0004                     indf equ 00h
    40  0000                     indf0 equ 00h
    41  0000                     pc equ 02h
    42  0002                     pcl equ 02h
    43  0002                     pclath equ 0Ah
    44  000A                     status equ 03h
    45  0003                     
     2                           opt pagewidth 120
     3  0000                     byte0	macro	val
     4                           	(getbyte(val,0))
     5                           endm
     6  0000                     byte1	macro	val
     7                           	(getbyte(val,1))
     8                           endm
     9  0000                     byte2	macro	val
    10                           	(getbyte(val,2))
    11                           endm
    12  0000                     byte3	macro	val
    13                           	(getbyte(val,3))
    14                           endm
    15  0000                     byte4	macro	val
    16                           	(getbyte(val,4))
    17                           endm
    18  0000                     byte5	macro	val
    19                           	(getbyte(val,5))
    20                           endm
    21  0000                     byte6	macro	val
    22                           	(getbyte(val,6))
    23                           endm
    24  0000                     byte7	macro	val
    25                           	(getbyte(val,7))
    26                           endm
    27  0000                     getword	macro	val,pos
    28                           	(((val) >> (8 * pos)) and 0xffff)
    29                           endm
    30  0000                     word0	macro	val
    31                           	(getword(val,0))
    32                           endm
    33  0000                     word1	macro	val
    34                           	(getword(val,2))
    35                           endm
    36  0000                     word2	macro	val
    37                           	(getword(val,4))
    38                           endm
    39  0000                     word3	macro	val
    40                           	(getword(val,6))
    41                           endm
    42  0000                     gettword	macro	val,pos
    43                           	(((val) >> (8 * pos)) and 0xffffff)
    44                           endm
    45  0000                     tword0	macro	val
    46                           	(gettword(val,0))
    47                           endm
    48  0000                     tword1	macro	val
    49                           	(gettword(val,3))
    50                           endm
    51  0000                     tword2	macro	val
    52                           	(gettword(val,6))
    53                           endm
    54  0000                     getdword	macro	val,pos
    55                           	(((val) >> (8 * pos)) and 0xffffffff)
    56                           endm
    57  0000                     dword0	macro	val
    58                           	(getdword(val,0))
    59                           endm
    60  0000                     dword1	macro	val
    61                           	(getdword(val,4))
    62                           endm
    63  0000                     clrc	macro
    64                           	bcf	3,0
    65                           	endm
    66  0000                     clrz	macro
    67                           	bcf	3,2
    68                           	endm
    69  0000                     setc	macro
    70                           	bsf	3,0
    71                           	endm
    72  0000                     setz	macro
    73                           	bsf	3,2
    74                           	endm
    75  0000                     skipc	macro
    76                           	btfss	3,0
    77                           	endm
    78  0000                     skipz	macro
    79                           	btfss	3,2
    80                           	endm
    81  0000                     skipnc	macro
    82                           	btfsc	3,0
    83                           	endm
    84  0000                     skipnz	macro
    85                           	btfsc	3,2
    86                           	endm
    87  0000                     # 54 "C:\Program Files (x86)\Microchip\xc8\v2.00\pic\include\pic16f877a.h"
    88                           INDF equ 00h ;# 
    89  0000                     # 61 "C:\Program Files (x86)\Microchip\xc8\v2.00\pic\include\pic16f877a.h"
    90                           TMR0 equ 01h ;# 
    91  0001                     # 68 "C:\Program Files (x86)\Microchip\xc8\v2.00\pic\include\pic16f877a.h"
    92                           PCL equ 02h ;# 
    93  0002                     # 75 "C:\Program Files (x86)\Microchip\xc8\v2.00\pic\include\pic16f877a.h"
    94                           STATUS equ 03h ;# 
    95  0003                     # 161 "C:\Program Files (x86)\Microchip\xc8\v2.00\pic\include\pic16f877a.h"
    96                           FSR equ 04h ;# 
    97  0004                     # 168 "C:\Program Files (x86)\Microchip\xc8\v2.00\pic\include\pic16f877a.h"
    98                           PORTA equ 05h ;# 
    99  0005                     # 218 "C:\Program Files (x86)\Microchip\xc8\v2.00\pic\include\pic16f877a.h"
   100                           PORTB equ 06h ;# 
   101  0006                     # 280 "C:\Program Files (x86)\Microchip\xc8\v2.00\pic\include\pic16f877a.h"
   102                           PORTC equ 07h ;# 
   103  0007                     # 342 "C:\Program Files (x86)\Microchip\xc8\v2.00\pic\include\pic16f877a.h"
   104                           PORTD equ 08h ;# 
   105  0008                     # 404 "C:\Program Files (x86)\Microchip\xc8\v2.00\pic\include\pic16f877a.h"
   106                           PORTE equ 09h ;# 
   107  0009                     # 436 "C:\Program Files (x86)\Microchip\xc8\v2.00\pic\include\pic16f877a.h"
   108                           PCLATH equ 0Ah ;# 
   109  000A                     # 456 "C:\Program Files (x86)\Microchip\xc8\v2.00\pic\include\pic16f877a.h"
   110                           INTCON equ 0Bh ;# 
   111  000B                     # 534 "C:\Program Files (x86)\Microchip\xc8\v2.00\pic\include\pic16f877a.h"
   112                           PIR1 equ 0Ch ;# 
   113  000C                     # 596 "C:\Program Files (x86)\Microchip\xc8\v2.00\pic\include\pic16f877a.h"
   114                           PIR2 equ 0Dh ;# 
   115  000D                     # 636 "C:\Program Files (x86)\Microchip\xc8\v2.00\pic\include\pic16f877a.h"
   116                           TMR1 equ 0Eh ;# 
   117  000E                     # 643 "C:\Program Files (x86)\Microchip\xc8\v2.00\pic\include\pic16f877a.h"
   118                           TMR1L equ 0Eh ;# 
   119  000E                     # 650 "C:\Program Files (x86)\Microchip\xc8\v2.00\pic\include\pic16f877a.h"
   120                           TMR1H equ 0Fh ;# 
   121  000F                     # 657 "C:\Program Files (x86)\Microchip\xc8\v2.00\pic\include\pic16f877a.h"
   122                           T1CON equ 010h ;# 
   123  0010                     # 732 "C:\Program Files (x86)\Microchip\xc8\v2.00\pic\include\pic16f877a.h"
   124                           TMR2 equ 011h ;# 
   125  0011                     # 739 "C:\Program Files (x86)\Microchip\xc8\v2.00\pic\include\pic16f877a.h"
   126                           T2CON equ 012h ;# 
   127  0012                     # 810 "C:\Program Files (x86)\Microchip\xc8\v2.00\pic\include\pic16f877a.h"
   128                           SSPBUF equ 013h ;# 
   129  0013                     # 817 "C:\Program Files (x86)\Microchip\xc8\v2.00\pic\include\pic16f877a.h"
   130                           SSPCON equ 014h ;# 
   131  0014                     # 887 "C:\Program Files (x86)\Microchip\xc8\v2.00\pic\include\pic16f877a.h"
   132                           CCPR1 equ 015h ;# 
   133  0015                     # 894 "C:\Program Files (x86)\Microchip\xc8\v2.00\pic\include\pic16f877a.h"
   134                           CCPR1L equ 015h ;# 
   135  0015                     # 901 "C:\Program Files (x86)\Microchip\xc8\v2.00\pic\include\pic16f877a.h"
   136                           CCPR1H equ 016h ;# 
   137  0016                     # 908 "C:\Program Files (x86)\Microchip\xc8\v2.00\pic\include\pic16f877a.h"
   138                           CCP1CON equ 017h ;# 
   139  0017                     # 966 "C:\Program Files (x86)\Microchip\xc8\v2.00\pic\include\pic16f877a.h"
   140                           RCSTA equ 018h ;# 
   141  0018                     # 1061 "C:\Program Files (x86)\Microchip\xc8\v2.00\pic\include\pic16f877a.h"
   142                           TXREG equ 019h ;# 
   143  0019                     # 1068 "C:\Program Files (x86)\Microchip\xc8\v2.00\pic\include\pic16f877a.h"
   144                           RCREG equ 01Ah ;# 
   145  001A                     # 1075 "C:\Program Files (x86)\Microchip\xc8\v2.00\pic\include\pic16f877a.h"
   146                           CCPR2 equ 01Bh ;# 
   147  001B                     # 1082 "C:\Program Files (x86)\Microchip\xc8\v2.00\pic\include\pic16f877a.h"
   148                           CCPR2L equ 01Bh ;# 
   149  001B                     # 1089 "C:\Program Files (x86)\Microchip\xc8\v2.00\pic\include\pic16f877a.h"
   150                           CCPR2H equ 01Ch ;# 
   151  001C                     # 1096 "C:\Program Files (x86)\Microchip\xc8\v2.00\pic\include\pic16f877a.h"
   152                           CCP2CON equ 01Dh ;# 
   153  001D                     # 1154 "C:\Program Files (x86)\Microchip\xc8\v2.00\pic\include\pic16f877a.h"
   154                           ADRESH equ 01Eh ;# 
   155  001E                     # 1161 "C:\Program Files (x86)\Microchip\xc8\v2.00\pic\include\pic16f877a.h"
   156                           ADCON0 equ 01Fh ;# 
   157  001F                     # 1257 "C:\Program Files (x86)\Microchip\xc8\v2.00\pic\include\pic16f877a.h"
   158                           OPTION_REG equ 081h ;# 
   159  0081                     # 1327 "C:\Program Files (x86)\Microchip\xc8\v2.00\pic\include\pic16f877a.h"
   160                           TRISA equ 085h ;# 
   161  0085                     # 1377 "C:\Program Files (x86)\Microchip\xc8\v2.00\pic\include\pic16f877a.h"
   162                           TRISB equ 086h ;# 
   163  0086                     # 1439 "C:\Program Files (x86)\Microchip\xc8\v2.00\pic\include\pic16f877a.h"
   164                           TRISC equ 087h ;# 
   165  0087                     # 1501 "C:\Program Files (x86)\Microchip\xc8\v2.00\pic\include\pic16f877a.h"
   166                           TRISD equ 088h ;# 
   167  0088                     # 1563 "C:\Program Files (x86)\Microchip\xc8\v2.00\pic\include\pic16f877a.h"
   168                           TRISE equ 089h ;# 
   169  0089                     # 1620 "C:\Program Files (x86)\Microchip\xc8\v2.00\pic\include\pic16f877a.h"
   170                           PIE1 equ 08Ch ;# 
   171  008C                     # 1682 "C:\Program Files (x86)\Microchip\xc8\v2.00\pic\include\pic16f877a.h"
   172                           PIE2 equ 08Dh ;# 
   173  008D                     # 1722 "C:\Program Files (x86)\Microchip\xc8\v2.00\pic\include\pic16f877a.h"
   174                           PCON equ 08Eh ;# 
   175  008E                     # 1756 "C:\Program Files (x86)\Microchip\xc8\v2.00\pic\include\pic16f877a.h"
   176                           SSPCON2 equ 091h ;# 
   177  0091                     # 1818 "C:\Program Files (x86)\Microchip\xc8\v2.00\pic\include\pic16f877a.h"
   178                           PR2 equ 092h ;# 
   179  0092                     # 1825 "C:\Program Files (x86)\Microchip\xc8\v2.00\pic\include\pic16f877a.h"
   180                           SSPADD equ 093h ;# 
   181  0093                     # 1832 "C:\Program Files (x86)\Microchip\xc8\v2.00\pic\include\pic16f877a.h"
   182                           SSPSTAT equ 094h ;# 
   183  0094                     # 2001 "C:\Program Files (x86)\Microchip\xc8\v2.00\pic\include\pic16f877a.h"
   184                           TXSTA equ 098h ;# 
   185  0098                     # 2082 "C:\Program Files (x86)\Microchip\xc8\v2.00\pic\include\pic16f877a.h"
   186                           SPBRG equ 099h ;# 
   187  0099                     # 2089 "C:\Program Files (x86)\Microchip\xc8\v2.00\pic\include\pic16f877a.h"
   188                           CMCON equ 09Ch ;# 
   189  009C                     # 2159 "C:\Program Files (x86)\Microchip\xc8\v2.00\pic\include\pic16f877a.h"
   190                           CVRCON equ 09Dh ;# 
   191  009D                     # 2224 "C:\Program Files (x86)\Microchip\xc8\v2.00\pic\include\pic16f877a.h"
   192                           ADRESL equ 09Eh ;# 
   193  009E                     # 2231 "C:\Program Files (x86)\Microchip\xc8\v2.00\pic\include\pic16f877a.h"
   194                           ADCON1 equ 09Fh ;# 
   195  009F                     # 2290 "C:\Program Files (x86)\Microchip\xc8\v2.00\pic\include\pic16f877a.h"
   196                           EEDATA equ 010Ch ;# 
   197  010C                     # 2297 "C:\Program Files (x86)\Microchip\xc8\v2.00\pic\include\pic16f877a.h"
   198                           EEADR equ 010Dh ;# 
   199  010D                     # 2304 "C:\Program Files (x86)\Microchip\xc8\v2.00\pic\include\pic16f877a.h"
   200                           EEDATH equ 010Eh ;# 
   201  010E                     # 2311 "C:\Program Files (x86)\Microchip\xc8\v2.00\pic\include\pic16f877a.h"
   202                           EEADRH equ 010Fh ;# 
   203  010F                     # 2318 "C:\Program Files (x86)\Microchip\xc8\v2.00\pic\include\pic16f877a.h"
   204                           EECON1 equ 018Ch ;# 
   205  018C                     # 2363 "C:\Program Files (x86)\Microchip\xc8\v2.00\pic\include\pic16f877a.h"
   206                           EECON2 equ 018Dh ;# 
   207  018D                     # 54 "C:\Program Files (x86)\Microchip\xc8\v2.00\pic\include\pic16f877a.h"
   208                           INDF equ 00h ;# 
   209  0000                     # 61 "C:\Program Files (x86)\Microchip\xc8\v2.00\pic\include\pic16f877a.h"
   210                           TMR0 equ 01h ;# 
   211  0001                     # 68 "C:\Program Files (x86)\Microchip\xc8\v2.00\pic\include\pic16f877a.h"
   212                           PCL equ 02h ;# 
   213  0002                     # 75 "C:\Program Files (x86)\Microchip\xc8\v2.00\pic\include\pic16f877a.h"
   214                           STATUS equ 03h ;# 
   215  0003                     # 161 "C:\Program Files (x86)\Microchip\xc8\v2.00\pic\include\pic16f877a.h"
   216                           FSR equ 04h ;# 
   217  0004                     # 168 "C:\Program Files (x86)\Microchip\xc8\v2.00\pic\include\pic16f877a.h"
   218                           PORTA equ 05h ;# 
   219  0005                     # 218 "C:\Program Files (x86)\Microchip\xc8\v2.00\pic\include\pic16f877a.h"
   220                           PORTB equ 06h ;# 
   221  0006                     # 280 "C:\Program Files (x86)\Microchip\xc8\v2.00\pic\include\pic16f877a.h"
   222                           PORTC equ 07h ;# 
   223  0007                     # 342 "C:\Program Files (x86)\Microchip\xc8\v2.00\pic\include\pic16f877a.h"
   224                           PORTD equ 08h ;# 
   225  0008                     # 404 "C:\Program Files (x86)\Microchip\xc8\v2.00\pic\include\pic16f877a.h"
   226                           PORTE equ 09h ;# 
   227  0009                     # 436 "C:\Program Files (x86)\Microchip\xc8\v2.00\pic\include\pic16f877a.h"
   228                           PCLATH equ 0Ah ;# 
   229  000A                     # 456 "C:\Program Files (x86)\Microchip\xc8\v2.00\pic\include\pic16f877a.h"
   230                           INTCON equ 0Bh ;# 
   231  000B                     # 534 "C:\Program Files (x86)\Microchip\xc8\v2.00\pic\include\pic16f877a.h"
   232                           PIR1 equ 0Ch ;# 
   233  000C                     # 596 "C:\Program Files (x86)\Microchip\xc8\v2.00\pic\include\pic16f877a.h"
   234                           PIR2 equ 0Dh ;# 
   235  000D                     # 636 "C:\Program Files (x86)\Microchip\xc8\v2.00\pic\include\pic16f877a.h"
   236                           TMR1 equ 0Eh ;# 
   237  000E                     # 643 "C:\Program Files (x86)\Microchip\xc8\v2.00\pic\include\pic16f877a.h"
   238                           TMR1L equ 0Eh ;# 
   239  000E                     # 650 "C:\Program Files (x86)\Microchip\xc8\v2.00\pic\include\pic16f877a.h"
   240                           TMR1H equ 0Fh ;# 
   241  000F                     # 657 "C:\Program Files (x86)\Microchip\xc8\v2.00\pic\include\pic16f877a.h"
   242                           T1CON equ 010h ;# 
   243  0010                     # 732 "C:\Program Files (x86)\Microchip\xc8\v2.00\pic\include\pic16f877a.h"
   244                           TMR2 equ 011h ;# 
   245  0011                     # 739 "C:\Program Files (x86)\Microchip\xc8\v2.00\pic\include\pic16f877a.h"
   246                           T2CON equ 012h ;# 
   247  0012                     # 810 "C:\Program Files (x86)\Microchip\xc8\v2.00\pic\include\pic16f877a.h"
   248                           SSPBUF equ 013h ;# 
   249  0013                     # 817 "C:\Program Files (x86)\Microchip\xc8\v2.00\pic\include\pic16f877a.h"
   250                           SSPCON equ 014h ;# 
   251  0014                     # 887 "C:\Program Files (x86)\Microchip\xc8\v2.00\pic\include\pic16f877a.h"
   252                           CCPR1 equ 015h ;# 
   253  0015                     # 894 "C:\Program Files (x86)\Microchip\xc8\v2.00\pic\include\pic16f877a.h"
   254                           CCPR1L equ 015h ;# 
   255  0015                     # 901 "C:\Program Files (x86)\Microchip\xc8\v2.00\pic\include\pic16f877a.h"
   256                           CCPR1H equ 016h ;# 
   257  0016                     # 908 "C:\Program Files (x86)\Microchip\xc8\v2.00\pic\include\pic16f877a.h"
   258                           CCP1CON equ 017h ;# 
   259  0017                     # 966 "C:\Program Files (x86)\Microchip\xc8\v2.00\pic\include\pic16f877a.h"
   260                           RCSTA equ 018h ;# 
   261  0018                     # 1061 "C:\Program Files (x86)\Microchip\xc8\v2.00\pic\include\pic16f877a.h"
   262                           TXREG equ 019h ;# 
   263  0019                     # 1068 "C:\Program Files (x86)\Microchip\xc8\v2.00\pic\include\pic16f877a.h"
   264                           RCREG equ 01Ah ;# 
   265  001A                     # 1075 "C:\Program Files (x86)\Microchip\xc8\v2.00\pic\include\pic16f877a.h"
   266                           CCPR2 equ 01Bh ;# 
   267  001B                     # 1082 "C:\Program Files (x86)\Microchip\xc8\v2.00\pic\include\pic16f877a.h"
   268                           CCPR2L equ 01Bh ;# 
   269  001B                     # 1089 "C:\Program Files (x86)\Microchip\xc8\v2.00\pic\include\pic16f877a.h"
   270                           CCPR2H equ 01Ch ;# 
   271  001C                     # 1096 "C:\Program Files (x86)\Microchip\xc8\v2.00\pic\include\pic16f877a.h"
   272                           CCP2CON equ 01Dh ;# 
   273  001D                     # 1154 "C:\Program Files (x86)\Microchip\xc8\v2.00\pic\include\pic16f877a.h"
   274                           ADRESH equ 01Eh ;# 
   275  001E                     # 1161 "C:\Program Files (x86)\Microchip\xc8\v2.00\pic\include\pic16f877a.h"
   276                           ADCON0 equ 01Fh ;# 
   277  001F                     # 1257 "C:\Program Files (x86)\Microchip\xc8\v2.00\pic\include\pic16f877a.h"
   278                           OPTION_REG equ 081h ;# 
   279  0081                     # 1327 "C:\Program Files (x86)\Microchip\xc8\v2.00\pic\include\pic16f877a.h"
   280                           TRISA equ 085h ;# 
   281  0085                     # 1377 "C:\Program Files (x86)\Microchip\xc8\v2.00\pic\include\pic16f877a.h"
   282                           TRISB equ 086h ;# 
   283  0086                     # 1439 "C:\Program Files (x86)\Microchip\xc8\v2.00\pic\include\pic16f877a.h"
   284                           TRISC equ 087h ;# 
   285  0087                     # 1501 "C:\Program Files (x86)\Microchip\xc8\v2.00\pic\include\pic16f877a.h"
   286                           TRISD equ 088h ;# 
   287  0088                     # 1563 "C:\Program Files (x86)\Microchip\xc8\v2.00\pic\include\pic16f877a.h"
   288                           TRISE equ 089h ;# 
   289  0089                     # 1620 "C:\Program Files (x86)\Microchip\xc8\v2.00\pic\include\pic16f877a.h"
   290                           PIE1 equ 08Ch ;# 
   291  008C                     # 1682 "C:\Program Files (x86)\Microchip\xc8\v2.00\pic\include\pic16f877a.h"
   292                           PIE2 equ 08Dh ;# 
   293  008D                     # 1722 "C:\Program Files (x86)\Microchip\xc8\v2.00\pic\include\pic16f877a.h"
   294                           PCON equ 08Eh ;# 
   295  008E                     # 1756 "C:\Program Files (x86)\Microchip\xc8\v2.00\pic\include\pic16f877a.h"
   296                           SSPCON2 equ 091h ;# 
   297  0091                     # 1818 "C:\Program Files (x86)\Microchip\xc8\v2.00\pic\include\pic16f877a.h"
   298                           PR2 equ 092h ;# 
   299  0092                     # 1825 "C:\Program Files (x86)\Microchip\xc8\v2.00\pic\include\pic16f877a.h"
   300                           SSPADD equ 093h ;# 
   301  0093                     # 1832 "C:\Program Files (x86)\Microchip\xc8\v2.00\pic\include\pic16f877a.h"
   302                           SSPSTAT equ 094h ;# 
   303  0094                     # 2001 "C:\Program Files (x86)\Microchip\xc8\v2.00\pic\include\pic16f877a.h"
   304                           TXSTA equ 098h ;# 
   305  0098                     # 2082 "C:\Program Files (x86)\Microchip\xc8\v2.00\pic\include\pic16f877a.h"
   306                           SPBRG equ 099h ;# 
   307  0099                     # 2089 "C:\Program Files (x86)\Microchip\xc8\v2.00\pic\include\pic16f877a.h"
   308                           CMCON equ 09Ch ;# 
   309  009C                     # 2159 "C:\Program Files (x86)\Microchip\xc8\v2.00\pic\include\pic16f877a.h"
   310                           CVRCON equ 09Dh ;# 
   311  009D                     # 2224 "C:\Program Files (x86)\Microchip\xc8\v2.00\pic\include\pic16f877a.h"
   312                           ADRESL equ 09Eh ;# 
   313  009E                     # 2231 "C:\Program Files (x86)\Microchip\xc8\v2.00\pic\include\pic16f877a.h"
   314                           ADCON1 equ 09Fh ;# 
   315  009F                     # 2290 "C:\Program Files (x86)\Microchip\xc8\v2.00\pic\include\pic16f877a.h"
   316                           EEDATA equ 010Ch ;# 
   317  010C                     # 2297 "C:\Program Files (x86)\Microchip\xc8\v2.00\pic\include\pic16f877a.h"
   318                           EEADR equ 010Dh ;# 
   319  010D                     # 2304 "C:\Program Files (x86)\Microchip\xc8\v2.00\pic\include\pic16f877a.h"
   320                           EEDATH equ 010Eh ;# 
   321  010E                     # 2311 "C:\Program Files (x86)\Microchip\xc8\v2.00\pic\include\pic16f877a.h"
   322                           EEADRH equ 010Fh ;# 
   323  010F                     # 2318 "C:\Program Files (x86)\Microchip\xc8\v2.00\pic\include\pic16f877a.h"
   324                           EECON1 equ 018Ch ;# 
   325  018C                     # 2363 "C:\Program Files (x86)\Microchip\xc8\v2.00\pic\include\pic16f877a.h"
   326                           EECON2 equ 018Dh ;# 
   327  018D                     # 54 "C:\Program Files (x86)\Microchip\xc8\v2.00\pic\include\pic16f877a.h"
   328                           INDF equ 00h ;# 
   329  0000                     # 61 "C:\Program Files (x86)\Microchip\xc8\v2.00\pic\include\pic16f877a.h"
   330                           TMR0 equ 01h ;# 
   331  0001                     # 68 "C:\Program Files (x86)\Microchip\xc8\v2.00\pic\include\pic16f877a.h"
   332                           PCL equ 02h ;# 
   333  0002                     # 75 "C:\Program Files (x86)\Microchip\xc8\v2.00\pic\include\pic16f877a.h"
   334                           STATUS equ 03h ;# 
   335  0003                     # 161 "C:\Program Files (x86)\Microchip\xc8\v2.00\pic\include\pic16f877a.h"
   336                           FSR equ 04h ;# 
   337  0004                     # 168 "C:\Program Files (x86)\Microchip\xc8\v2.00\pic\include\pic16f877a.h"
   338                           PORTA equ 05h ;# 
   339  0005                     # 218 "C:\Program Files (x86)\Microchip\xc8\v2.00\pic\include\pic16f877a.h"
   340                           PORTB equ 06h ;# 
   341  0006                     # 280 "C:\Program Files (x86)\Microchip\xc8\v2.00\pic\include\pic16f877a.h"
   342                           PORTC equ 07h ;# 
   343  0007                     # 342 "C:\Program Files (x86)\Microchip\xc8\v2.00\pic\include\pic16f877a.h"
   344                           PORTD equ 08h ;# 
   345  0008                     # 404 "C:\Program Files (x86)\Microchip\xc8\v2.00\pic\include\pic16f877a.h"
   346                           PORTE equ 09h ;# 
   347  0009                     # 436 "C:\Program Files (x86)\Microchip\xc8\v2.00\pic\include\pic16f877a.h"
   348                           PCLATH equ 0Ah ;# 
   349  000A                     # 456 "C:\Program Files (x86)\Microchip\xc8\v2.00\pic\include\pic16f877a.h"
   350                           INTCON equ 0Bh ;# 
   351  000B                     # 534 "C:\Program Files (x86)\Microchip\xc8\v2.00\pic\include\pic16f877a.h"
   352                           PIR1 equ 0Ch ;# 
   353  000C                     # 596 "C:\Program Files (x86)\Microchip\xc8\v2.00\pic\include\pic16f877a.h"
   354                           PIR2 equ 0Dh ;# 
   355  000D                     # 636 "C:\Program Files (x86)\Microchip\xc8\v2.00\pic\include\pic16f877a.h"
   356                           TMR1 equ 0Eh ;# 
   357  000E                     # 643 "C:\Program Files (x86)\Microchip\xc8\v2.00\pic\include\pic16f877a.h"
   358                           TMR1L equ 0Eh ;# 
   359  000E                     # 650 "C:\Program Files (x86)\Microchip\xc8\v2.00\pic\include\pic16f877a.h"
   360                           TMR1H equ 0Fh ;# 
   361  000F                     # 657 "C:\Program Files (x86)\Microchip\xc8\v2.00\pic\include\pic16f877a.h"
   362                           T1CON equ 010h ;# 
   363  0010                     # 732 "C:\Program Files (x86)\Microchip\xc8\v2.00\pic\include\pic16f877a.h"
   364                           TMR2 equ 011h ;# 
   365  0011                     # 739 "C:\Program Files (x86)\Microchip\xc8\v2.00\pic\include\pic16f877a.h"
   366                           T2CON equ 012h ;# 
   367  0012                     # 810 "C:\Program Files (x86)\Microchip\xc8\v2.00\pic\include\pic16f877a.h"
   368                           SSPBUF equ 013h ;# 
   369  0013                     # 817 "C:\Program Files (x86)\Microchip\xc8\v2.00\pic\include\pic16f877a.h"
   370                           SSPCON equ 014h ;# 
   371  0014                     # 887 "C:\Program Files (x86)\Microchip\xc8\v2.00\pic\include\pic16f877a.h"
   372                           CCPR1 equ 015h ;# 
   373  0015                     # 894 "C:\Program Files (x86)\Microchip\xc8\v2.00\pic\include\pic16f877a.h"
   374                           CCPR1L equ 015h ;# 
   375  0015                     # 901 "C:\Program Files (x86)\Microchip\xc8\v2.00\pic\include\pic16f877a.h"
   376                           CCPR1H equ 016h ;# 
   377  0016                     # 908 "C:\Program Files (x86)\Microchip\xc8\v2.00\pic\include\pic16f877a.h"
   378                           CCP1CON equ 017h ;# 
   379  0017                     # 966 "C:\Program Files (x86)\Microchip\xc8\v2.00\pic\include\pic16f877a.h"
   380                           RCSTA equ 018h ;# 
   381  0018                     # 1061 "C:\Program Files (x86)\Microchip\xc8\v2.00\pic\include\pic16f877a.h"
   382                           TXREG equ 019h ;# 
   383  0019                     # 1068 "C:\Program Files (x86)\Microchip\xc8\v2.00\pic\include\pic16f877a.h"
   384                           RCREG equ 01Ah ;# 
   385  001A                     # 1075 "C:\Program Files (x86)\Microchip\xc8\v2.00\pic\include\pic16f877a.h"
   386                           CCPR2 equ 01Bh ;# 
   387  001B                     # 1082 "C:\Program Files (x86)\Microchip\xc8\v2.00\pic\include\pic16f877a.h"
   388                           CCPR2L equ 01Bh ;# 
   389  001B                     # 1089 "C:\Program Files (x86)\Microchip\xc8\v2.00\pic\include\pic16f877a.h"
   390                           CCPR2H equ 01Ch ;# 
   391  001C                     # 1096 "C:\Program Files (x86)\Microchip\xc8\v2.00\pic\include\pic16f877a.h"
   392                           CCP2CON equ 01Dh ;# 
   393  001D                     # 1154 "C:\Program Files (x86)\Microchip\xc8\v2.00\pic\include\pic16f877a.h"
   394                           ADRESH equ 01Eh ;# 
   395  001E                     # 1161 "C:\Program Files (x86)\Microchip\xc8\v2.00\pic\include\pic16f877a.h"
   396                           ADCON0 equ 01Fh ;# 
   397  001F                     # 1257 "C:\Program Files (x86)\Microchip\xc8\v2.00\pic\include\pic16f877a.h"
   398                           OPTION_REG equ 081h ;# 
   399  0081                     # 1327 "C:\Program Files (x86)\Microchip\xc8\v2.00\pic\include\pic16f877a.h"
   400                           TRISA equ 085h ;# 
   401  0085                     # 1377 "C:\Program Files (x86)\Microchip\xc8\v2.00\pic\include\pic16f877a.h"
   402                           TRISB equ 086h ;# 
   403  0086                     # 1439 "C:\Program Files (x86)\Microchip\xc8\v2.00\pic\include\pic16f877a.h"
   404                           TRISC equ 087h ;# 
   405  0087                     # 1501 "C:\Program Files (x86)\Microchip\xc8\v2.00\pic\include\pic16f877a.h"
   406                           TRISD equ 088h ;# 
   407  0088                     # 1563 "C:\Program Files (x86)\Microchip\xc8\v2.00\pic\include\pic16f877a.h"
   408                           TRISE equ 089h ;# 
   409  0089                     # 1620 "C:\Program Files (x86)\Microchip\xc8\v2.00\pic\include\pic16f877a.h"
   410                           PIE1 equ 08Ch ;# 
   411  008C                     # 1682 "C:\Program Files (x86)\Microchip\xc8\v2.00\pic\include\pic16f877a.h"
   412                           PIE2 equ 08Dh ;# 
   413  008D                     # 1722 "C:\Program Files (x86)\Microchip\xc8\v2.00\pic\include\pic16f877a.h"
   414                           PCON equ 08Eh ;# 
   415  008E                     # 1756 "C:\Program Files (x86)\Microchip\xc8\v2.00\pic\include\pic16f877a.h"
   416                           SSPCON2 equ 091h ;# 
   417  0091                     # 1818 "C:\Program Files (x86)\Microchip\xc8\v2.00\pic\include\pic16f877a.h"
   418                           PR2 equ 092h ;# 
   419  0092                     # 1825 "C:\Program Files (x86)\Microchip\xc8\v2.00\pic\include\pic16f877a.h"
   420                           SSPADD equ 093h ;# 
   421  0093                     # 1832 "C:\Program Files (x86)\Microchip\xc8\v2.00\pic\include\pic16f877a.h"
   422                           SSPSTAT equ 094h ;# 
   423  0094                     # 2001 "C:\Program Files (x86)\Microchip\xc8\v2.00\pic\include\pic16f877a.h"
   424                           TXSTA equ 098h ;# 
   425  0098                     # 2082 "C:\Program Files (x86)\Microchip\xc8\v2.00\pic\include\pic16f877a.h"
   426                           SPBRG equ 099h ;# 
   427  0099                     # 2089 "C:\Program Files (x86)\Microchip\xc8\v2.00\pic\include\pic16f877a.h"
   428                           CMCON equ 09Ch ;# 
   429  009C                     # 2159 "C:\Program Files (x86)\Microchip\xc8\v2.00\pic\include\pic16f877a.h"
   430                           CVRCON equ 09Dh ;# 
   431  009D                     # 2224 "C:\Program Files (x86)\Microchip\xc8\v2.00\pic\include\pic16f877a.h"
   432                           ADRESL equ 09Eh ;# 
   433  009E                     # 2231 "C:\Program Files (x86)\Microchip\xc8\v2.00\pic\include\pic16f877a.h"
   434                           ADCON1 equ 09Fh ;# 
   435  009F                     # 2290 "C:\Program Files (x86)\Microchip\xc8\v2.00\pic\include\pic16f877a.h"
   436                           EEDATA equ 010Ch ;# 
   437  010C                     # 2297 "C:\Program Files (x86)\Microchip\xc8\v2.00\pic\include\pic16f877a.h"
   438                           EEADR equ 010Dh ;# 
   439  010D                     # 2304 "C:\Program Files (x86)\Microchip\xc8\v2.00\pic\include\pic16f877a.h"
   440                           EEDATH equ 010Eh ;# 
   441  010E                     # 2311 "C:\Program Files (x86)\Microchip\xc8\v2.00\pic\include\pic16f877a.h"
   442                           EEADRH equ 010Fh ;# 
   443  010F                     # 2318 "C:\Program Files (x86)\Microchip\xc8\v2.00\pic\include\pic16f877a.h"
   444                           EECON1 equ 018Ch ;# 
   445  018C                     # 2363 "C:\Program Files (x86)\Microchip\xc8\v2.00\pic\include\pic16f877a.h"
   446                           EECON2 equ 018Dh ;# 
   447  018D                     # 54 "C:\Program Files (x86)\Microchip\xc8\v2.00\pic\include\pic16f877a.h"
   448                           INDF equ 00h ;# 
   449  0000                     # 61 "C:\Program Files (x86)\Microchip\xc8\v2.00\pic\include\pic16f877a.h"
   450                           TMR0 equ 01h ;# 
   451  0001                     # 68 "C:\Program Files (x86)\Microchip\xc8\v2.00\pic\include\pic16f877a.h"
   452                           PCL equ 02h ;# 
   453  0002                     # 75 "C:\Program Files (x86)\Microchip\xc8\v2.00\pic\include\pic16f877a.h"
   454                           STATUS equ 03h ;# 
   455  0003                     # 161 "C:\Program Files (x86)\Microchip\xc8\v2.00\pic\include\pic16f877a.h"
   456                           FSR equ 04h ;# 
   457  0004                     # 168 "C:\Program Files (x86)\Microchip\xc8\v2.00\pic\include\pic16f877a.h"
   458                           PORTA equ 05h ;# 
   459  0005                     # 218 "C:\Program Files (x86)\Microchip\xc8\v2.00\pic\include\pic16f877a.h"
   460                           PORTB equ 06h ;# 
   461  0006                     # 280 "C:\Program Files (x86)\Microchip\xc8\v2.00\pic\include\pic16f877a.h"
   462                           PORTC equ 07h ;# 
   463  0007                     # 342 "C:\Program Files (x86)\Microchip\xc8\v2.00\pic\include\pic16f877a.h"
   464                           PORTD equ 08h ;# 
   465  0008                     # 404 "C:\Program Files (x86)\Microchip\xc8\v2.00\pic\include\pic16f877a.h"
   466                           PORTE equ 09h ;# 
   467  0009                     # 436 "C:\Program Files (x86)\Microchip\xc8\v2.00\pic\include\pic16f877a.h"
   468                           PCLATH equ 0Ah ;# 
   469  000A                     # 456 "C:\Program Files (x86)\Microchip\xc8\v2.00\pic\include\pic16f877a.h"
   470                           INTCON equ 0Bh ;# 
   471  000B                     # 534 "C:\Program Files (x86)\Microchip\xc8\v2.00\pic\include\pic16f877a.h"
   472                           PIR1 equ 0Ch ;# 
   473  000C                     # 596 "C:\Program Files (x86)\Microchip\xc8\v2.00\pic\include\pic16f877a.h"
   474                           PIR2 equ 0Dh ;# 
   475  000D                     # 636 "C:\Program Files (x86)\Microchip\xc8\v2.00\pic\include\pic16f877a.h"
   476                           TMR1 equ 0Eh ;# 
   477  000E                     # 643 "C:\Program Files (x86)\Microchip\xc8\v2.00\pic\include\pic16f877a.h"
   478                           TMR1L equ 0Eh ;# 
   479  000E                     # 650 "C:\Program Files (x86)\Microchip\xc8\v2.00\pic\include\pic16f877a.h"
   480                           TMR1H equ 0Fh ;# 
   481  000F                     # 657 "C:\Program Files (x86)\Microchip\xc8\v2.00\pic\include\pic16f877a.h"
   482                           T1CON equ 010h ;# 
   483  0010                     # 732 "C:\Program Files (x86)\Microchip\xc8\v2.00\pic\include\pic16f877a.h"
   484                           TMR2 equ 011h ;# 
   485  0011                     # 739 "C:\Program Files (x86)\Microchip\xc8\v2.00\pic\include\pic16f877a.h"
   486                           T2CON equ 012h ;# 
   487  0012                     # 810 "C:\Program Files (x86)\Microchip\xc8\v2.00\pic\include\pic16f877a.h"
   488                           SSPBUF equ 013h ;# 
   489  0013                     # 817 "C:\Program Files (x86)\Microchip\xc8\v2.00\pic\include\pic16f877a.h"
   490                           SSPCON equ 014h ;# 
   491  0014                     # 887 "C:\Program Files (x86)\Microchip\xc8\v2.00\pic\include\pic16f877a.h"
   492                           CCPR1 equ 015h ;# 
   493  0015                     # 894 "C:\Program Files (x86)\Microchip\xc8\v2.00\pic\include\pic16f877a.h"
   494                           CCPR1L equ 015h ;# 
   495  0015                     # 901 "C:\Program Files (x86)\Microchip\xc8\v2.00\pic\include\pic16f877a.h"
   496                           CCPR1H equ 016h ;# 
   497  0016                     # 908 "C:\Program Files (x86)\Microchip\xc8\v2.00\pic\include\pic16f877a.h"
   498                           CCP1CON equ 017h ;# 
   499  0017                     # 966 "C:\Program Files (x86)\Microchip\xc8\v2.00\pic\include\pic16f877a.h"
   500                           RCSTA equ 018h ;# 
   501  0018                     # 1061 "C:\Program Files (x86)\Microchip\xc8\v2.00\pic\include\pic16f877a.h"
   502                           TXREG equ 019h ;# 
   503  0019                     # 1068 "C:\Program Files (x86)\Microchip\xc8\v2.00\pic\include\pic16f877a.h"
   504                           RCREG equ 01Ah ;# 
   505  001A                     # 1075 "C:\Program Files (x86)\Microchip\xc8\v2.00\pic\include\pic16f877a.h"
   506                           CCPR2 equ 01Bh ;# 
   507  001B                     # 1082 "C:\Program Files (x86)\Microchip\xc8\v2.00\pic\include\pic16f877a.h"
   508                           CCPR2L equ 01Bh ;# 
   509  001B                     # 1089 "C:\Program Files (x86)\Microchip\xc8\v2.00\pic\include\pic16f877a.h"
   510                           CCPR2H equ 01Ch ;# 
   511  001C                     # 1096 "C:\Program Files (x86)\Microchip\xc8\v2.00\pic\include\pic16f877a.h"
   512                           CCP2CON equ 01Dh ;# 
   513  001D                     # 1154 "C:\Program Files (x86)\Microchip\xc8\v2.00\pic\include\pic16f877a.h"
   514                           ADRESH equ 01Eh ;# 
   515  001E                     # 1161 "C:\Program Files (x86)\Microchip\xc8\v2.00\pic\include\pic16f877a.h"
   516                           ADCON0 equ 01Fh ;# 
   517  001F                     # 1257 "C:\Program Files (x86)\Microchip\xc8\v2.00\pic\include\pic16f877a.h"
   518                           OPTION_REG equ 081h ;# 
   519  0081                     # 1327 "C:\Program Files (x86)\Microchip\xc8\v2.00\pic\include\pic16f877a.h"
   520                           TRISA equ 085h ;# 
   521  0085                     # 1377 "C:\Program Files (x86)\Microchip\xc8\v2.00\pic\include\pic16f877a.h"
   522                           TRISB equ 086h ;# 
   523  0086                     # 1439 "C:\Program Files (x86)\Microchip\xc8\v2.00\pic\include\pic16f877a.h"
   524                           TRISC equ 087h ;# 
   525  0087                     # 1501 "C:\Program Files (x86)\Microchip\xc8\v2.00\pic\include\pic16f877a.h"
   526                           TRISD equ 088h ;# 
   527  0088                     # 1563 "C:\Program Files (x86)\Microchip\xc8\v2.00\pic\include\pic16f877a.h"
   528                           TRISE equ 089h ;# 
   529  0089                     # 1620 "C:\Program Files (x86)\Microchip\xc8\v2.00\pic\include\pic16f877a.h"
   530                           PIE1 equ 08Ch ;# 
   531  008C                     # 1682 "C:\Program Files (x86)\Microchip\xc8\v2.00\pic\include\pic16f877a.h"
   532                           PIE2 equ 08Dh ;# 
   533  008D                     # 1722 "C:\Program Files (x86)\Microchip\xc8\v2.00\pic\include\pic16f877a.h"
   534                           PCON equ 08Eh ;# 
   535  008E                     # 1756 "C:\Program Files (x86)\Microchip\xc8\v2.00\pic\include\pic16f877a.h"
   536                           SSPCON2 equ 091h ;# 
   537  0091                     # 1818 "C:\Program Files (x86)\Microchip\xc8\v2.00\pic\include\pic16f877a.h"
   538                           PR2 equ 092h ;# 
   539  0092                     # 1825 "C:\Program Files (x86)\Microchip\xc8\v2.00\pic\include\pic16f877a.h"
   540                           SSPADD equ 093h ;# 
   541  0093                     # 1832 "C:\Program Files (x86)\Microchip\xc8\v2.00\pic\include\pic16f877a.h"
   542                           SSPSTAT equ 094h ;# 
   543  0094                     # 2001 "C:\Program Files (x86)\Microchip\xc8\v2.00\pic\include\pic16f877a.h"
   544                           TXSTA equ 098h ;# 
   545  0098                     # 2082 "C:\Program Files (x86)\Microchip\xc8\v2.00\pic\include\pic16f877a.h"
   546                           SPBRG equ 099h ;# 
   547  0099                     # 2089 "C:\Program Files (x86)\Microchip\xc8\v2.00\pic\include\pic16f877a.h"
   548                           CMCON equ 09Ch ;# 
   549  009C                     # 2159 "C:\Program Files (x86)\Microchip\xc8\v2.00\pic\include\pic16f877a.h"
   550                           CVRCON equ 09Dh ;# 
   551  009D                     # 2224 "C:\Program Files (x86)\Microchip\xc8\v2.00\pic\include\pic16f877a.h"
   552                           ADRESL equ 09Eh ;# 
   553  009E                     # 2231 "C:\Program Files (x86)\Microchip\xc8\v2.00\pic\include\pic16f877a.h"
   554                           ADCON1 equ 09Fh ;# 
   555  009F                     # 2290 "C:\Program Files (x86)\Microchip\xc8\v2.00\pic\include\pic16f877a.h"
   556                           EEDATA equ 010Ch ;# 
   557  010C                     # 2297 "C:\Program Files (x86)\Microchip\xc8\v2.00\pic\include\pic16f877a.h"
   558                           EEADR equ 010Dh ;# 
   559  010D                     # 2304 "C:\Program Files (x86)\Microchip\xc8\v2.00\pic\include\pic16f877a.h"
   560                           EEDATH equ 010Eh ;# 
   561  010E                     # 2311 "C:\Program Files (x86)\Microchip\xc8\v2.00\pic\include\pic16f877a.h"
   562                           EEADRH equ 010Fh ;# 
   563  010F                     # 2318 "C:\Program Files (x86)\Microchip\xc8\v2.00\pic\include\pic16f877a.h"
   564                           EECON1 equ 018Ch ;# 
   565  018C                     # 2363 "C:\Program Files (x86)\Microchip\xc8\v2.00\pic\include\pic16f877a.h"
   566                           EECON2 equ 018Dh ;# 
   567  018D                     # 54 "C:\Program Files (x86)\Microchip\xc8\v2.00\pic\include\pic16f877a.h"
   568                           INDF equ 00h ;# 
   569  0000                     # 61 "C:\Program Files (x86)\Microchip\xc8\v2.00\pic\include\pic16f877a.h"
   570                           TMR0 equ 01h ;# 
   571  0001                     # 68 "C:\Program Files (x86)\Microchip\xc8\v2.00\pic\include\pic16f877a.h"
   572                           PCL equ 02h ;# 
   573  0002                     # 75 "C:\Program Files (x86)\Microchip\xc8\v2.00\pic\include\pic16f877a.h"
   574                           STATUS equ 03h ;# 
   575  0003                     # 161 "C:\Program Files (x86)\Microchip\xc8\v2.00\pic\include\pic16f877a.h"
   576                           FSR equ 04h ;# 
   577  0004                     # 168 "C:\Program Files (x86)\Microchip\xc8\v2.00\pic\include\pic16f877a.h"
   578                           PORTA equ 05h ;# 
   579  0005                     # 218 "C:\Program Files (x86)\Microchip\xc8\v2.00\pic\include\pic16f877a.h"
   580                           PORTB equ 06h ;# 
   581  0006                     # 280 "C:\Program Files (x86)\Microchip\xc8\v2.00\pic\include\pic16f877a.h"
   582                           PORTC equ 07h ;# 
   583  0007                     # 342 "C:\Program Files (x86)\Microchip\xc8\v2.00\pic\include\pic16f877a.h"
   584                           PORTD equ 08h ;# 
   585  0008                     # 404 "C:\Program Files (x86)\Microchip\xc8\v2.00\pic\include\pic16f877a.h"
   586                           PORTE equ 09h ;# 
   587  0009                     # 436 "C:\Program Files (x86)\Microchip\xc8\v2.00\pic\include\pic16f877a.h"
   588                           PCLATH equ 0Ah ;# 
   589  000A                     # 456 "C:\Program Files (x86)\Microchip\xc8\v2.00\pic\include\pic16f877a.h"
   590                           INTCON equ 0Bh ;# 
   591  000B                     # 534 "C:\Program Files (x86)\Microchip\xc8\v2.00\pic\include\pic16f877a.h"
   592                           PIR1 equ 0Ch ;# 
   593  000C                     # 596 "C:\Program Files (x86)\Microchip\xc8\v2.00\pic\include\pic16f877a.h"
   594                           PIR2 equ 0Dh ;# 
   595  000D                     # 636 "C:\Program Files (x86)\Microchip\xc8\v2.00\pic\include\pic16f877a.h"
   596                           TMR1 equ 0Eh ;# 
   597  000E                     # 643 "C:\Program Files (x86)\Microchip\xc8\v2.00\pic\include\pic16f877a.h"
   598                           TMR1L equ 0Eh ;# 
   599  000E                     # 650 "C:\Program Files (x86)\Microchip\xc8\v2.00\pic\include\pic16f877a.h"
   600                           TMR1H equ 0Fh ;# 
   601  000F                     # 657 "C:\Program Files (x86)\Microchip\xc8\v2.00\pic\include\pic16f877a.h"
   602                           T1CON equ 010h ;# 
   603  0010                     # 732 "C:\Program Files (x86)\Microchip\xc8\v2.00\pic\include\pic16f877a.h"
   604                           TMR2 equ 011h ;# 
   605  0011                     # 739 "C:\Program Files (x86)\Microchip\xc8\v2.00\pic\include\pic16f877a.h"
   606                           T2CON equ 012h ;# 
   607  0012                     # 810 "C:\Program Files (x86)\Microchip\xc8\v2.00\pic\include\pic16f877a.h"
   608                           SSPBUF equ 013h ;# 
   609  0013                     # 817 "C:\Program Files (x86)\Microchip\xc8\v2.00\pic\include\pic16f877a.h"
   610                           SSPCON equ 014h ;# 
   611  0014                     # 887 "C:\Program Files (x86)\Microchip\xc8\v2.00\pic\include\pic16f877a.h"
   612                           CCPR1 equ 015h ;# 
   613  0015                     # 894 "C:\Program Files (x86)\Microchip\xc8\v2.00\pic\include\pic16f877a.h"
   614                           CCPR1L equ 015h ;# 
   615  0015                     # 901 "C:\Program Files (x86)\Microchip\xc8\v2.00\pic\include\pic16f877a.h"
   616                           CCPR1H equ 016h ;# 
   617  0016                     # 908 "C:\Program Files (x86)\Microchip\xc8\v2.00\pic\include\pic16f877a.h"
   618                           CCP1CON equ 017h ;# 
   619  0017                     # 966 "C:\Program Files (x86)\Microchip\xc8\v2.00\pic\include\pic16f877a.h"
   620                           RCSTA equ 018h ;# 
   621  0018                     # 1061 "C:\Program Files (x86)\Microchip\xc8\v2.00\pic\include\pic16f877a.h"
   622                           TXREG equ 019h ;# 
   623  0019                     # 1068 "C:\Program Files (x86)\Microchip\xc8\v2.00\pic\include\pic16f877a.h"
   624                           RCREG equ 01Ah ;# 
   625  001A                     # 1075 "C:\Program Files (x86)\Microchip\xc8\v2.00\pic\include\pic16f877a.h"
   626                           CCPR2 equ 01Bh ;# 
   627  001B                     # 1082 "C:\Program Files (x86)\Microchip\xc8\v2.00\pic\include\pic16f877a.h"
   628                           CCPR2L equ 01Bh ;# 
   629  001B                     # 1089 "C:\Program Files (x86)\Microchip\xc8\v2.00\pic\include\pic16f877a.h"
   630                           CCPR2H equ 01Ch ;# 
   631  001C                     # 1096 "C:\Program Files (x86)\Microchip\xc8\v2.00\pic\include\pic16f877a.h"
   632                           CCP2CON equ 01Dh ;# 
   633  001D                     # 1154 "C:\Program Files (x86)\Microchip\xc8\v2.00\pic\include\pic16f877a.h"
   634                           ADRESH equ 01Eh ;# 
   635  001E                     # 1161 "C:\Program Files (x86)\Microchip\xc8\v2.00\pic\include\pic16f877a.h"
   636                           ADCON0 equ 01Fh ;# 
   637  001F                     # 1257 "C:\Program Files (x86)\Microchip\xc8\v2.00\pic\include\pic16f877a.h"
   638                           OPTION_REG equ 081h ;# 
   639  0081                     # 1327 "C:\Program Files (x86)\Microchip\xc8\v2.00\pic\include\pic16f877a.h"
   640                           TRISA equ 085h ;# 
   641  0085                     # 1377 "C:\Program Files (x86)\Microchip\xc8\v2.00\pic\include\pic16f877a.h"
   642                           TRISB equ 086h ;# 
   643  0086                     # 1439 "C:\Program Files (x86)\Microchip\xc8\v2.00\pic\include\pic16f877a.h"
   644                           TRISC equ 087h ;# 
   645  0087                     # 1501 "C:\Program Files (x86)\Microchip\xc8\v2.00\pic\include\pic16f877a.h"
   646                           TRISD equ 088h ;# 
   647  0088                     # 1563 "C:\Program Files (x86)\Microchip\xc8\v2.00\pic\include\pic16f877a.h"
   648                           TRISE equ 089h ;# 
   649  0089                     # 1620 "C:\Program Files (x86)\Microchip\xc8\v2.00\pic\include\pic16f877a.h"
   650                           PIE1 equ 08Ch ;# 
   651  008C                     # 1682 "C:\Program Files (x86)\Microchip\xc8\v2.00\pic\include\pic16f877a.h"
   652                           PIE2 equ 08Dh ;# 
   653  008D                     # 1722 "C:\Program Files (x86)\Microchip\xc8\v2.00\pic\include\pic16f877a.h"
   654                           PCON equ 08Eh ;# 
   655  008E                     # 1756 "C:\Program Files (x86)\Microchip\xc8\v2.00\pic\include\pic16f877a.h"
   656                           SSPCON2 equ 091h ;# 
   657  0091                     # 1818 "C:\Program Files (x86)\Microchip\xc8\v2.00\pic\include\pic16f877a.h"
   658                           PR2 equ 092h ;# 
   659  0092                     # 1825 "C:\Program Files (x86)\Microchip\xc8\v2.00\pic\include\pic16f877a.h"
   660                           SSPADD equ 093h ;# 
   661  0093                     # 1832 "C:\Program Files (x86)\Microchip\xc8\v2.00\pic\include\pic16f877a.h"
   662                           SSPSTAT equ 094h ;# 
   663  0094                     # 2001 "C:\Program Files (x86)\Microchip\xc8\v2.00\pic\include\pic16f877a.h"
   664                           TXSTA equ 098h ;# 
   665  0098                     # 2082 "C:\Program Files (x86)\Microchip\xc8\v2.00\pic\include\pic16f877a.h"
   666                           SPBRG equ 099h ;# 
   667  0099                     # 2089 "C:\Program Files (x86)\Microchip\xc8\v2.00\pic\include\pic16f877a.h"
   668                           CMCON equ 09Ch ;# 
   669  009C                     # 2159 "C:\Program Files (x86)\Microchip\xc8\v2.00\pic\include\pic16f877a.h"
   670                           CVRCON equ 09Dh ;# 
   671  009D                     # 2224 "C:\Program Files (x86)\Microchip\xc8\v2.00\pic\include\pic16f877a.h"
   672                           ADRESL equ 09Eh ;# 
   673  009E                     # 2231 "C:\Program Files (x86)\Microchip\xc8\v2.00\pic\include\pic16f877a.h"
   674                           ADCON1 equ 09Fh ;# 
   675  009F                     # 2290 "C:\Program Files (x86)\Microchip\xc8\v2.00\pic\include\pic16f877a.h"
   676                           EEDATA equ 010Ch ;# 
   677  010C                     # 2297 "C:\Program Files (x86)\Microchip\xc8\v2.00\pic\include\pic16f877a.h"
   678                           EEADR equ 010Dh ;# 
   679  010D                     # 2304 "C:\Program Files (x86)\Microchip\xc8\v2.00\pic\include\pic16f877a.h"
   680                           EEDATH equ 010Eh ;# 
   681  010E                     # 2311 "C:\Program Files (x86)\Microchip\xc8\v2.00\pic\include\pic16f877a.h"
   682                           EEADRH equ 010Fh ;# 
   683  010F                     # 2318 "C:\Program Files (x86)\Microchip\xc8\v2.00\pic\include\pic16f877a.h"
   684                           EECON1 equ 018Ch ;# 
   685  018C                     # 2363 "C:\Program Files (x86)\Microchip\xc8\v2.00\pic\include\pic16f877a.h"
   686                           EECON2 equ 018Dh ;# 
   687  018D                     	FNCALL	_main,_Initialization
   688                           	FNCALL	_main,_loop
   689                           	FNCALL	_main,_setup
   690                           	FNCALL	_setup,_SerialBegin
   691                           	FNCALL	_SerialBegin,___aldiv
   692                           	FNCALL	_loop,_SerialPrintLn
   693                           	FNCALL	_loop,___bmul
   694                           	FNCALL	_loop,___fldiv
   695                           	FNCALL	_loop,___fltol
   696                           	FNCALL	_loop,___lwdiv
   697                           	FNCALL	_loop,_delay
   698                           	FNCALL	_loop,_sprintf
   699                           	FNCALL	_sprintf,___lwdiv
   700                           	FNCALL	_sprintf,___lwmod
   701                           	FNCALL	_SerialPrintLn,_SerialWrite
   702                           	FNCALL	_Initialization,_PWMConfiguration
   703                           	FNROOT	_main
   704                           	FNCALL	_ISR,___xxtofl
   705                           	FNCALL	intlevel1,_ISR
   706                           	global	intlevel1
   707                           	FNROOT	intlevel1
   708                           	global	_dpowers
   709                           psect	strings,class=STRING,delta=2,noexec
   710                           global __pstrings
   711                           __pstrings:
   712  07BE                     stringtab:
   713  07BE                     	global    __stringtab
   714                           __stringtab:
   715  07BE                     ;	String table - string pointers are 1 byte each
   716                           stringcode:stringdir:
   717  07BE                     movlw high(stringdir)
      + 07BE                     stringdir:	
   718  07BE  3007               movwf pclath
   719  07BF  008A               movf fsr,w
   720  07C0  0804               incf fsr
   721  07C1  0A84               	addwf pc
   722  07C2  0782               	global __stringbase
   723                           __stringbase:
   724  07C3                     	retlw	0
   725  07C3  3400               psect	strings
   726                           	global    __end_of__stringtab
   727                           __end_of__stringtab:
   728  07C4                     	file	"C:\Program Files (x86)\Microchip\xc8\v2.00\pic\sources\c90\common\doprnt.c"
   729                           	line	358
   730                           _dpowers:
   731  07C4                     	retlw	01h
   732  07C4  3401               	retlw	0
   733  07C5  3400               
   734                           	retlw	0Ah
   735  07C6  340A               	retlw	0
   736  07C7  3400               
   737                           	retlw	064h
   738  07C8  3464               	retlw	0
   739  07C9  3400               
   740                           	retlw	0E8h
   741  07CA  34E8               	retlw	03h
   742  07CB  3403               
   743                           	retlw	010h
   744  07CC  3410               	retlw	027h
   745  07CD  3427               
   746                           	global __end_of_dpowers
   747                           __end_of_dpowers:
   748  07CE                     	global	_dpowers
   749                           	global	_RPMs
   750                           	global	_Last
   751                           	global	_New
   752                           	global	_buffer
   753                           	global	_d7Pin
   754                           	global	_d6Pin
   755                           	global	_d5Pin
   756                           	global	_d4Pin
   757                           	global	_RWPin
   758                           	global	_ENPin
   759                           	global	_RSPin
   760                           	global	_Unidades
   761                           	global	digitalWrite@DataPD
   762                           	global	digitalWrite@DataPB
   763                           	global	digitalWrite@DataPC
   764                           	global	pinMode@DataPD
   765                           	global	pinMode@DataPB
   766                           	global	pinMode@DataPC
   767                           	global	_Period
   768                           	global	_Decenas
   769                           	global	_data
   770                           	global	_TMR1
   771                           _TMR1	set	0xE
   772  000E                     	global	_CCPR2H
   773                           _CCPR2H	set	0x1C
   774  001C                     	global	_SSPBUF
   775                           _SSPBUF	set	0x13
   776  0013                     	global	_SSPCON
   777                           _SSPCON	set	0x14
   778  0014                     	global	_RCREG
   779                           _RCREG	set	0x1A
   780  001A                     	global	_TXREG
   781                           _TXREG	set	0x19
   782  0019                     	global	_PORTEbits
   783                           _PORTEbits	set	0x9
   784  0009                     	global	_CCPR1L
   785                           _CCPR1L	set	0x15
   786  0015                     	global	_CCPR2L
   787                           _CCPR2L	set	0x1B
   788  001B                     	global	_ADRESH
   789                           _ADRESH	set	0x1E
   790  001E                     	global	_ADCON0bits
   791                           _ADCON0bits	set	0x1F
   792  001F                     	global	_PORTD
   793                           _PORTD	set	0x8
   794  0008                     	global	_PORTC
   795                           _PORTC	set	0x7
   796  0007                     	global	_PORTB
   797                           _PORTB	set	0x6
   798  0006                     	global	_PORTAbits
   799                           _PORTAbits	set	0x5
   800  0005                     	global	_PORTDbits
   801                           _PORTDbits	set	0x8
   802  0008                     	global	_PORTBbits
   803                           _PORTBbits	set	0x6
   804  0006                     	global	_PORTCbits
   805                           _PORTCbits	set	0x7
   806  0007                     	global	_CCP2CON
   807                           _CCP2CON	set	0x1D
   808  001D                     	global	_CCP1CON
   809                           _CCP1CON	set	0x17
   810  0017                     	global	_T2CON
   811                           _T2CON	set	0x12
   812  0012                     	global	_PORTE
   813                           _PORTE	set	0x9
   814  0009                     	global	_ADCON0
   815                           _ADCON0	set	0x1F
   816  001F                     	global	_CCP2IF
   817                           _CCP2IF	set	0x68
   818  0068                     	global	_CCP2M0
   819                           _CCP2M0	set	0xE8
   820  00E8                     	global	_CCP2M1
   821                           _CCP2M1	set	0xE9
   822  00E9                     	global	_CCP2M2
   823                           _CCP2M2	set	0xEA
   824  00EA                     	global	_CCP2M3
   825                           _CCP2M3	set	0xEB
   826  00EB                     	global	_TMR1ON
   827                           _TMR1ON	set	0x80
   828  0080                     	global	_T1CKPS1
   829                           _T1CKPS1	set	0x85
   830  0085                     	global	_T1CKPS0
   831                           _T1CKPS0	set	0x84
   832  0084                     	global	_TMR1CS
   833                           _TMR1CS	set	0x81
   834  0081                     	global	_SSPIF
   835                           _SSPIF	set	0x63
   836  0063                     	global	_PEIE
   837                           _PEIE	set	0x5E
   838  005E                     	global	_GIE
   839                           _GIE	set	0x5F
   840  005F                     	global	_RCIF
   841                           _RCIF	set	0x65
   842  0065                     	global	_TXIF
   843                           _TXIF	set	0x64
   844  0064                     	global	_OERR
   845                           _OERR	set	0xC1
   846  00C1                     	global	_FERR
   847                           _FERR	set	0xC2
   848  00C2                     	global	_CREN
   849                           _CREN	set	0xC4
   850  00C4                     	global	_SPEN
   851                           _SPEN	set	0xC7
   852  00C7                     	global	_CCP1Y
   853                           _CCP1Y	set	0xBC
   854  00BC                     	global	_CCP1X
   855                           _CCP1X	set	0xBD
   856  00BD                     	global	_CCP2Y
   857                           _CCP2Y	set	0xEC
   858  00EC                     	global	_CCP2X
   859                           _CCP2X	set	0xED
   860  00ED                     	global	_SSPSTAT
   861                           _SSPSTAT	set	0x94
   862  0094                     	global	_SSPADD
   863                           _SSPADD	set	0x93
   864  0093                     	global	_SSPCON2
   865                           _SSPCON2	set	0x91
   866  0091                     	global	_SPBRG
   867                           _SPBRG	set	0x99
   868  0099                     	global	_ADRESL
   869                           _ADRESL	set	0x9E
   870  009E                     	global	_TRISD
   871                           _TRISD	set	0x88
   872  0088                     	global	_TRISC
   873                           _TRISC	set	0x87
   874  0087                     	global	_TRISB
   875                           _TRISB	set	0x86
   876  0086                     	global	_TRISAbits
   877                           _TRISAbits	set	0x85
   878  0085                     	global	_TRISDbits
   879                           _TRISDbits	set	0x88
   880  0088                     	global	_TRISBbits
   881                           _TRISBbits	set	0x86
   882  0086                     	global	_TRISCbits
   883                           _TRISCbits	set	0x87
   884  0087                     	global	_PR2
   885                           _PR2	set	0x92
   886  0092                     	global	_TRISE
   887                           _TRISE	set	0x89
   888  0089                     	global	_ADCON1
   889                           _ADCON1	set	0x9F
   890  009F                     	global	_TRISC1
   891                           _TRISC1	set	0x439
   892  0439                     	global	_CCP2IE
   893                           _CCP2IE	set	0x468
   894  0468                     	global	_ACKEN
   895                           _ACKEN	set	0x48C
   896  048C                     	global	_ACKDT
   897                           _ACKDT	set	0x48D
   898  048D                     	global	_RCEN
   899                           _RCEN	set	0x48B
   900  048B                     	global	_PEN
   901                           _PEN	set	0x48A
   902  048A                     	global	_RSEN
   903                           _RSEN	set	0x489
   904  0489                     	global	_SEN
   905                           _SEN	set	0x488
   906  0488                     	global	_SSPIE
   907                           _SSPIE	set	0x463
   908  0463                     	global	_TRISC4
   909                           _TRISC4	set	0x43C
   910  043C                     	global	_TRISC3
   911                           _TRISC3	set	0x43B
   912  043B                     	global	_TRMT
   913                           _TRMT	set	0x4C1
   914  04C1                     	global	_TXEN
   915                           _TXEN	set	0x4C5
   916  04C5                     	global	_TRISC6
   917                           _TRISC6	set	0x43E
   918  043E                     	global	_TRISC7
   919                           _TRISC7	set	0x43F
   920  043F                     	global	_SYNC
   921                           _SYNC	set	0x4C4
   922  04C4                     	global	_BRGH
   923                           _BRGH	set	0x4C2
   924  04C2                     	
   925                           STR_1:	
   926  07CE                     	retlw	70	;'F'
   927  07CE  3446               	retlw	114	;'r'
   928  07CF  3472               	retlw	101	;'e'
   929  07D0  3465               	retlw	113	;'q'
   930  07D1  3471               	retlw	32	;' '
   931  07D2  3420               	retlw	58	;':'
   932  07D3  343A               	retlw	32	;' '
   933  07D4  3420               	retlw	37	;'%'
   934  07D5  3425               	retlw	117	;'u'
   935  07D6  3475               	retlw	46	;'.'
   936  07D7  342E               	retlw	37	;'%'
   937  07D8  3425               	retlw	117	;'u'
   938  07D9  3475               	retlw	32	;' '
   939  07DA  3420               	retlw	72	;'H'
   940  07DB  3448               	retlw	122	;'z'
   941  07DC  347A               	retlw	32	;' '
   942  07DD  3420               	retlw	124	;'|'
   943  07DE  347C               	retlw	32	;' '
   944  07DF  3420               	retlw	82	;'R'
   945  07E0  3452               	retlw	80	;'P'
   946  07E1  3450               	retlw	77	;'M'
   947  07E2  344D               	retlw	115	;'s'
   948  07E3  3473               	retlw	32	;' '
   949  07E4  3420               	retlw	58	;':'
   950  07E5  343A               	retlw	32	;' '
   951  07E6  3420               	retlw	37	;'%'
   952  07E7  3425               	retlw	117	;'u'
   953  07E8  3475               	retlw	0
   954  07E9  3400               psect	strings
   955                           ; #config settings
   956                           global __CFG_FOSC$HS
   957                           __CFG_FOSC$HS equ 0x0
   958  0000                     global __CFG_WDTE$OFF
   959                           __CFG_WDTE$OFF equ 0x0
   960  0000                     global __CFG_PWRTE$OFF
   961                           __CFG_PWRTE$OFF equ 0x0
   962  0000                     global __CFG_BOREN$OFF
   963                           __CFG_BOREN$OFF equ 0x0
   964  0000                     global __CFG_LVP$OFF
   965                           __CFG_LVP$OFF equ 0x0
   966  0000                     global __CFG_CPD$OFF
   967                           __CFG_CPD$OFF equ 0x0
   968  0000                     global __CFG_WRT$OFF
   969                           __CFG_WRT$OFF equ 0x0
   970  0000                     global __CFG_CP$OFF
   971                           __CFG_CP$OFF equ 0x0
   972  0000                     	file	"C:\Users\TONCHE~1\AppData\Local\Temp\s67k."
   973                           	line	#
   974                           psect cinit,class=CODE,delta=2
   975                           global start_initialization
   976                           start_initialization:
   977  0011                     
   978                           global __initialization
   979                           __initialization:
   980  0011                     psect	bssBANK0,class=BANK0,space=1,noexec
   981                           global __pbssBANK0
   982                           __pbssBANK0:
   983  0049                     _RPMs:
   984  0049                            ds      2
   985  0049                     
   986                           _Last:
   987  004B                            ds      2
   988  004B                     
   989                           _New:
   990  004D                            ds      2
   991  004D                     
   992                           _buffer:
   993  004F                            ds      2
   994  004F                     
   995                           _d7Pin:
   996  0051                            ds      2
   997  0051                     
   998                           _d6Pin:
   999  0053                            ds      2
  1000  0053                     
  1001                           _d5Pin:
  1002  0055                            ds      2
  1003  0055                     
  1004                           _d4Pin:
  1005  0057                            ds      2
  1006  0057                     
  1007                           _RWPin:
  1008  0059                            ds      2
  1009  0059                     
  1010                           _ENPin:
  1011  005B                            ds      2
  1012  005B                     
  1013                           _RSPin:
  1014  005D                            ds      2
  1015  005D                     
  1016                           _Unidades:
  1017  005F                            ds      1
  1018  005F                     
  1019                           digitalWrite@DataPD:
  1020  0060                            ds      1
  1021  0060                     
  1022                           digitalWrite@DataPB:
  1023  0061                            ds      1
  1024  0061                     
  1025                           digitalWrite@DataPC:
  1026  0062                            ds      1
  1027  0062                     
  1028                           pinMode@DataPD:
  1029  0063                            ds      1
  1030  0063                     
  1031                           pinMode@DataPB:
  1032  0064                            ds      1
  1033  0064                     
  1034                           pinMode@DataPC:
  1035  0065                            ds      1
  1036  0065                     
  1037                           _Period:
  1038  0066                            ds      4
  1039  0066                     
  1040                           _Decenas:
  1041  006A                            ds      2
  1042  006A                     
  1043                           psect	bssBANK1,class=BANK1,space=1,noexec
  1044                           global __pbssBANK1
  1045                           __pbssBANK1:
  1046  00A0                     _RevsPerMinute:
  1047  00A0                            ds      4
  1048  00A0                     
  1049                           _data:
  1050  00A4                            ds      30
  1051  00A4                     
  1052                           	file	"C:\Users\TONCHE~1\AppData\Local\Temp\s67k."
  1053                           	line	#
  1054                           psect clrtext,class=CODE,delta=2
  1055                           global clear_ram0
  1056                           ;	Called with FSR containing the base address, and
  1057                           ;	W with the last address+1
  1058                           clear_ram0:
  1059  0F7F                     	clrwdt			;clear the watchdog before getting into this loop
  1060  0F7F  0064               clrloop0:
  1061  0F80                     	clrf	indf		;clear RAM location pointed to by FSR
  1062  0F80  0180               	incf	fsr,f		;increment pointer
  1063  0F81  0A84               	xorwf	fsr,w		;XOR with final address
  1064  0F82  0604               	btfsc	status,2	;have we reached the end yet?
  1065  0F83  1903               	retlw	0		;all done for this memory range, return
  1066  0F84  3400               	xorwf	fsr,w		;XOR again to restore value
  1067  0F85  0604               	goto	clrloop0		;do the next byte
  1068  0F86  2F80               
  1069                           ; Clear objects allocated to BANK0
  1070                           psect cinit,class=CODE,delta=2,merge=1
  1071                           	bcf	status, 7	;select IRP bank0
  1072  0011  1383               	movlw	low(__pbssBANK0)
  1073  0012  3049               	movwf	fsr
  1074  0013  0084               	movlw	low((__pbssBANK0)+023h)
  1075  0014  306C               	fcall	clear_ram0
  1076  0015  120A  158A  277F  120A  118A  ; Clear objects allocated to BANK1
  1077                           psect cinit,class=CODE,delta=2,merge=1
  1078                           	movlw	low(__pbssBANK1)
  1079  001A  30A0               	movwf	fsr
  1080  001B  0084               	movlw	low((__pbssBANK1)+022h)
  1081  001C  30C2               	fcall	clear_ram0
  1082  001D  120A  158A  277F  120A  118A  psect cinit,class=CODE,delta=2,merge=1
  1083                           global end_of_initialization,__end_of__initialization
  1084                           
  1085                           ;End of C runtime variable initialization code
  1086                           
  1087                           end_of_initialization:
  1088  0022                     __end_of__initialization:
  1089  0022                     clrf status
  1090  0022  0183               ljmp _main	;jump to C main() function
  1091  0023  120A  118A  2FEA   psect	cstackBANK1,class=BANK1,space=1,noexec
  1092                           global __pcstackBANK1
  1093                           __pcstackBANK1:
  1094  00C2                     ??_loop:	; 1 bytes @ 0x0
  1095  00C2                     	ds	3
  1096  00C2                     psect	cstackCOMMON,class=COMMON,space=1,noexec
  1097                           global __pcstackCOMMON
  1098                           __pcstackCOMMON:
  1099  0070                     ?_Initialization:	; 1 bytes @ 0x0
  1100  0070                     ?_setup:	; 1 bytes @ 0x0
  1101  0070                     ?_loop:	; 1 bytes @ 0x0
  1102  0070                     ?_PWMConfiguration:	; 1 bytes @ 0x0
  1103  0070                     ?_SerialWrite:	; 1 bytes @ 0x0
  1104  0070                     ?_SerialPrintLn:	; 1 bytes @ 0x0
  1105  0070                     ?_ISR:	; 1 bytes @ 0x0
  1106  0070                     ?_main:	; 2 bytes @ 0x0
  1107  0070                     	global	?___xxtofl
  1108                           ?___xxtofl:	; 4 bytes @ 0x0
  1109  0070                     	global	___xxtofl@val
  1110                           ___xxtofl@val:	; 4 bytes @ 0x0
  1111  0070                     	ds	4
  1112  0070                     ??___xxtofl:	; 1 bytes @ 0x4
  1113  0074                     	ds	4
  1114  0074                     	global	___xxtofl@sign
  1115                           ___xxtofl@sign:	; 1 bytes @ 0x8
  1116  0078                     	ds	1
  1117  0078                     	global	___xxtofl@exp
  1118                           ___xxtofl@exp:	; 1 bytes @ 0x9
  1119  0079                     	ds	1
  1120  0079                     	global	___xxtofl@arg
  1121                           ___xxtofl@arg:	; 4 bytes @ 0xA
  1122  007A                     	ds	4
  1123  007A                     psect	cstackBANK0,class=BANK0,space=1,noexec
  1124                           global __pcstackBANK0
  1125                           __pcstackBANK0:
  1126  0020                     ??_ISR:	; 1 bytes @ 0x0
  1127  0020                     	ds	4
  1128  0020                     ?_delay:	; 1 bytes @ 0x4
  1129  0024                     ??_Initialization:	; 1 bytes @ 0x4
  1130  0024                     ??_PWMConfiguration:	; 1 bytes @ 0x4
  1131  0024                     ??_SerialWrite:	; 1 bytes @ 0x4
  1132  0024                     ?___bmul:	; 1 bytes @ 0x4
  1133  0024                     	global	?___lwdiv
  1134                           ?___lwdiv:	; 2 bytes @ 0x4
  1135  0024                     	global	?___aldiv
  1136                           ?___aldiv:	; 4 bytes @ 0x4
  1137  0024                     	global	?___fldiv
  1138                           ?___fldiv:	; 4 bytes @ 0x4
  1139  0024                     	global	SerialWrite@dataWrite
  1140                           SerialWrite@dataWrite:	; 1 bytes @ 0x4
  1141  0024                     	global	___bmul@multiplicand
  1142                           ___bmul@multiplicand:	; 1 bytes @ 0x4
  1143  0024                     	global	delay@milis
  1144                           delay@milis:	; 2 bytes @ 0x4
  1145  0024                     	global	___lwdiv@divisor
  1146                           ___lwdiv@divisor:	; 2 bytes @ 0x4
  1147  0024                     	global	___aldiv@divisor
  1148                           ___aldiv@divisor:	; 4 bytes @ 0x4
  1149  0024                     	global	___fldiv@a
  1150                           ___fldiv@a:	; 4 bytes @ 0x4
  1151  0024                     	ds	1
  1152  0024                     ??_SerialPrintLn:	; 1 bytes @ 0x5
  1153  0025                     ??___bmul:	; 1 bytes @ 0x5
  1154  0025                     	ds	1
  1155  0025                     ??_delay:	; 1 bytes @ 0x6
  1156  0026                     	global	___bmul@product
  1157                           ___bmul@product:	; 1 bytes @ 0x6
  1158  0026                     	global	SerialPrintLn@i
  1159                           SerialPrintLn@i:	; 2 bytes @ 0x6
  1160  0026                     	global	___lwdiv@dividend
  1161                           ___lwdiv@dividend:	; 2 bytes @ 0x6
  1162  0026                     	ds	1
  1163  0026                     	global	___bmul@multiplier
  1164                           ___bmul@multiplier:	; 1 bytes @ 0x7
  1165  0027                     	global	delay@j
  1166                           delay@j:	; 2 bytes @ 0x7
  1167  0027                     	ds	1
  1168  0027                     ??___lwdiv:	; 1 bytes @ 0x8
  1169  0028                     	global	SerialPrintLn@dataText
  1170                           SerialPrintLn@dataText:	; 1 bytes @ 0x8
  1171  0028                     	global	___aldiv@dividend
  1172                           ___aldiv@dividend:	; 4 bytes @ 0x8
  1173  0028                     	global	___fldiv@b
  1174                           ___fldiv@b:	; 4 bytes @ 0x8
  1175  0028                     	ds	1
  1176  0028                     	global	delay@i
  1177                           delay@i:	; 2 bytes @ 0x9
  1178  0029                     	global	___lwdiv@quotient
  1179                           ___lwdiv@quotient:	; 2 bytes @ 0x9
  1180  0029                     	ds	2
  1181  0029                     	global	___lwdiv@counter
  1182                           ___lwdiv@counter:	; 1 bytes @ 0xB
  1183  002B                     	ds	1
  1184  002B                     ??___aldiv:	; 1 bytes @ 0xC
  1185  002C                     ??___fldiv:	; 1 bytes @ 0xC
  1186  002C                     	global	?___lwmod
  1187                           ?___lwmod:	; 2 bytes @ 0xC
  1188  002C                     	global	___lwmod@divisor
  1189                           ___lwmod@divisor:	; 2 bytes @ 0xC
  1190  002C                     	ds	1
  1191  002C                     	global	___aldiv@counter
  1192                           ___aldiv@counter:	; 1 bytes @ 0xD
  1193  002D                     	ds	1
  1194  002D                     	global	___aldiv@sign
  1195                           ___aldiv@sign:	; 1 bytes @ 0xE
  1196  002E                     	global	___lwmod@dividend
  1197                           ___lwmod@dividend:	; 2 bytes @ 0xE
  1198  002E                     	ds	1
  1199  002E                     	global	___aldiv@quotient
  1200                           ___aldiv@quotient:	; 4 bytes @ 0xF
  1201  002F                     	ds	1
  1202  002F                     ??___lwmod:	; 1 bytes @ 0x10
  1203  0030                     	ds	1
  1204  0030                     	global	___lwmod@counter
  1205                           ___lwmod@counter:	; 1 bytes @ 0x11
  1206  0031                     	global	___fldiv@rem
  1207                           ___fldiv@rem:	; 4 bytes @ 0x11
  1208  0031                     	ds	1
  1209  0031                     	global	?_sprintf
  1210                           ?_sprintf:	; 2 bytes @ 0x12
  1211  0032                     	global	sprintf@f
  1212                           sprintf@f:	; 1 bytes @ 0x12
  1213  0032                     	ds	1
  1214  0032                     ?_SerialBegin:	; 1 bytes @ 0x13
  1215  0033                     	global	SerialBegin@BaudRate
  1216                           SerialBegin@BaudRate:	; 4 bytes @ 0x13
  1217  0033                     	ds	2
  1218  0033                     	global	___fldiv@sign
  1219                           ___fldiv@sign:	; 1 bytes @ 0x15
  1220  0035                     	ds	1
  1221  0035                     	global	___fldiv@new_exp
  1222                           ___fldiv@new_exp:	; 2 bytes @ 0x16
  1223  0036                     	ds	1
  1224  0036                     ??_SerialBegin:	; 1 bytes @ 0x17
  1225  0037                     	ds	1
  1226  0037                     	global	___fldiv@grs
  1227                           ___fldiv@grs:	; 4 bytes @ 0x18
  1228  0038                     	ds	1
  1229  0038                     ??_sprintf:	; 1 bytes @ 0x19
  1230  0039                     	ds	2
  1231  0039                     	global	SerialBegin@x
  1232                           SerialBegin@x:	; 2 bytes @ 0x1B
  1233  003B                     	ds	1
  1234  003B                     	global	sprintf@flag
  1235                           sprintf@flag:	; 1 bytes @ 0x1C
  1236  003C                     	global	___fldiv@bexp
  1237                           ___fldiv@bexp:	; 1 bytes @ 0x1C
  1238  003C                     	ds	1
  1239  003C                     ??_setup:	; 1 bytes @ 0x1D
  1240  003D                     	global	sprintf@ap
  1241                           sprintf@ap:	; 1 bytes @ 0x1D
  1242  003D                     	global	___fldiv@aexp
  1243                           ___fldiv@aexp:	; 1 bytes @ 0x1D
  1244  003D                     	ds	1
  1245  003D                     	global	?___fltol
  1246                           ?___fltol:	; 4 bytes @ 0x1E
  1247  003E                     	global	sprintf@val
  1248                           sprintf@val:	; 2 bytes @ 0x1E
  1249  003E                     	global	___fltol@f1
  1250                           ___fltol@f1:	; 4 bytes @ 0x1E
  1251  003E                     	ds	2
  1252  003E                     	global	sprintf@prec
  1253                           sprintf@prec:	; 1 bytes @ 0x20
  1254  0040                     	ds	1
  1255  0040                     	global	sprintf@sp
  1256                           sprintf@sp:	; 1 bytes @ 0x21
  1257  0041                     	ds	1
  1258  0041                     ??___fltol:	; 1 bytes @ 0x22
  1259  0042                     	global	sprintf@c
  1260                           sprintf@c:	; 1 bytes @ 0x22
  1261  0042                     	ds	5
  1262  0042                     	global	___fltol@sign1
  1263                           ___fltol@sign1:	; 1 bytes @ 0x27
  1264  0047                     	ds	1
  1265  0047                     	global	___fltol@exp1
  1266                           ___fltol@exp1:	; 1 bytes @ 0x28
  1267  0048                     	ds	1
  1268  0048                     ??_main:	; 1 bytes @ 0x29
  1269  0049                     ;!
  1270                           ;!Data Sizes:
  1271                           ;!    Strings     28
  1272                           ;!    Constant    10
  1273                           ;!    Data        0
  1274                           ;!    BSS         69
  1275                           ;!    Persistent  0
  1276                           ;!    Stack       0
  1277                           ;!
  1278                           ;!Auto Spaces:
  1279                           ;!    Space          Size  Autos    Used
  1280                           ;!    COMMON           14     14      14
  1281                           ;!    BANK0            80     41      76
  1282                           ;!    BANK1            80      3      37
  1283                           ;!    BANK3            96      0       0
  1284                           ;!    BANK2            96      0       0
  1285                           
  1286                           ;!
  1287                           ;!Pointer List with Targets:
  1288                           ;!
  1289                           ;!    sprintf@f	PTR const unsigned char  size(1) Largest target is 28
  1290                           ;!		 -> STR_1(CODE[28]), 
  1291                           ;!
  1292                           ;!    sprintf@sp	PTR unsigned char  size(1) Largest target is 30
  1293                           ;!		 -> data(BANK1[30]), 
  1294                           ;!
  1295                           ;!    sprintf@ap	PTR void [1] size(1) Largest target is 2
  1296                           ;!		 -> ?_sprintf(BANK0[2]), 
  1297                           ;!
  1298                           ;!    SerialPrintLn@dataText	PTR unsigned char  size(1) Largest target is 30
  1299                           ;!		 -> data(BANK1[30]), 
  1300                           ;!
  1301                           
  1302                           
  1303                           ;!
  1304                           ;!Critical Paths under _main in COMMON
  1305                           ;!
  1306                           ;!    None.
  1307                           ;!
  1308                           ;!Critical Paths under _ISR in COMMON
  1309                           ;!
  1310                           ;!    _ISR->___xxtofl
  1311                           ;!
  1312                           ;!Critical Paths under _main in BANK0
  1313                           ;!
  1314                           ;!    _setup->_SerialBegin
  1315                           ;!    _SerialBegin->___aldiv
  1316                           ;!    _loop->___fltol
  1317                           ;!    _sprintf->___lwmod
  1318                           ;!    ___lwmod->___lwdiv
  1319                           ;!    ___fltol->___fldiv
  1320                           ;!    _SerialPrintLn->_SerialWrite
  1321                           ;!
  1322                           ;!Critical Paths under _ISR in BANK0
  1323                           ;!
  1324                           ;!    None.
  1325                           ;!
  1326                           ;!Critical Paths under _main in BANK1
  1327                           ;!
  1328                           ;!    _main->_loop
  1329                           ;!
  1330                           ;!Critical Paths under _ISR in BANK1
  1331                           ;!
  1332                           ;!    None.
  1333                           ;!
  1334                           ;!Critical Paths under _main in BANK3
  1335                           ;!
  1336                           ;!    None.
  1337                           ;!
  1338                           ;!Critical Paths under _ISR in BANK3
  1339                           ;!
  1340                           ;!    None.
  1341                           ;!
  1342                           ;!Critical Paths under _main in BANK2
  1343                           ;!
  1344                           ;!    None.
  1345                           ;!
  1346                           ;!Critical Paths under _ISR in BANK2
  1347                           ;!
  1348                           ;!    None.
  1349                           
  1350 ;;
  1351 ;;Main: autosize = 0, tempsize = 0, incstack = 0, save=0
  1352 ;;
  1353                           
  1354                           ;!
  1355                           ;!Call Graph Tables:
  1356                           ;!
  1357                           ;! ---------------------------------------------------------------------------------
  1358                           ;! (Depth) Function   	        Calls       Base Space   Used Autos Params    Refs
  1359                           ;! ---------------------------------------------------------------------------------
  1360                           ;! (0) _main                                                 0     0      0    5774
  1361                           ;!                     _Initialization
  1362                           ;!                               _loop
  1363                           ;!                              _setup
  1364                           ;! ---------------------------------------------------------------------------------
  1365                           ;! (1) _setup                                                0     0      0     792
  1366                           ;!                        _SerialBegin
  1367                           ;! ---------------------------------------------------------------------------------
  1368                           ;! (2) _SerialBegin                                         10     6      4     792
  1369                           ;!                                             19 BANK0     10     6      4
  1370                           ;!                            ___aldiv
  1371                           ;! ---------------------------------------------------------------------------------
  1372                           ;! (3) ___aldiv                                             15     7      8     604
  1373                           ;!                                              4 BANK0     15     7      8
  1374                           ;! ---------------------------------------------------------------------------------
  1375                           ;! (1) _loop                                                 3     3      0    4982
  1376                           ;!                                              0 BANK1      3     3      0
  1377                           ;!                      _SerialPrintLn
  1378                           ;!                             ___bmul
  1379                           ;!                            ___fldiv
  1380                           ;!                            ___fltol
  1381                           ;!                            ___lwdiv
  1382                           ;!                              _delay
  1383                           ;!                            _sprintf
  1384                           ;! ---------------------------------------------------------------------------------
  1385                           ;! (2) _sprintf                                             25    18      7    1273
  1386                           ;!                                             18 BANK0     17    10      7
  1387                           ;!                            ___lwdiv
  1388                           ;!                            ___lwmod
  1389                           ;! ---------------------------------------------------------------------------------
  1390                           ;! (3) ___lwmod                                              6     2      4     311
  1391                           ;!                                             12 BANK0      6     2      4
  1392                           ;!                            ___lwdiv (ARG)
  1393                           ;! ---------------------------------------------------------------------------------
  1394                           ;! (3) ___lwdiv                                              8     4      4     466
  1395                           ;!                                              4 BANK0      8     4      4
  1396                           ;! ---------------------------------------------------------------------------------
  1397                           ;! (2) _delay                                                7     5      2     972
  1398                           ;!                                              4 BANK0      7     5      2
  1399                           ;! ---------------------------------------------------------------------------------
  1400                           ;! (2) ___fltol                                             11     7      4     381
  1401                           ;!                                             30 BANK0     11     7      4
  1402                           ;!                            ___fldiv (ARG)
  1403                           ;! ---------------------------------------------------------------------------------
  1404                           ;! (2) ___fldiv                                             26    18      8    1577
  1405                           ;!                                              4 BANK0     26    18      8
  1406                           ;! ---------------------------------------------------------------------------------
  1407                           ;! (2) ___bmul                                               4     3      1     168
  1408                           ;!                                              4 BANK0      4     3      1
  1409                           ;! ---------------------------------------------------------------------------------
  1410                           ;! (2) _SerialPrintLn                                        4     4      0     145
  1411                           ;!                                              5 BANK0      4     4      0
  1412                           ;!                        _SerialWrite
  1413                           ;! ---------------------------------------------------------------------------------
  1414                           ;! (3) _SerialWrite                                          1     1      0      22
  1415                           ;!                                              4 BANK0      1     1      0
  1416                           ;! ---------------------------------------------------------------------------------
  1417                           ;! (1) _Initialization                                       0     0      0       0
  1418                           ;!                   _PWMConfiguration
  1419                           ;! ---------------------------------------------------------------------------------
  1420                           ;! (2) _PWMConfiguration                                     0     0      0       0
  1421                           ;! ---------------------------------------------------------------------------------
  1422                           ;! Estimated maximum stack depth 3
  1423                           ;! ---------------------------------------------------------------------------------
  1424                           ;! (Depth) Function   	        Calls       Base Space   Used Autos Params    Refs
  1425                           ;! ---------------------------------------------------------------------------------
  1426                           ;! (4) _ISR                                                  4     4      0     398
  1427                           ;!                                              0 BANK0      4     4      0
  1428                           ;!                           ___xxtofl
  1429                           ;! ---------------------------------------------------------------------------------
  1430                           ;! (5) ___xxtofl                                            14    10      4     398
  1431                           ;!                                              0 COMMON    14    10      4
  1432                           ;! ---------------------------------------------------------------------------------
  1433                           ;! Estimated maximum stack depth 5
  1434                           ;! ---------------------------------------------------------------------------------
  1435                           ;!
  1436                           ;! Call Graph Graphs:
  1437                           ;!
  1438                           ;! _main (ROOT)
  1439                           ;!   _Initialization
  1440                           ;!     _PWMConfiguration
  1441                           ;!   _loop
  1442                           ;!     _SerialPrintLn
  1443                           ;!       _SerialWrite
  1444                           ;!     ___bmul
  1445                           ;!     ___fldiv
  1446                           ;!     ___fltol
  1447                           ;!       ___fldiv (ARG)
  1448                           ;!     ___lwdiv
  1449                           ;!     _delay
  1450                           ;!     _sprintf
  1451                           ;!       ___lwdiv
  1452                           ;!       ___lwmod
  1453                           ;!         ___lwdiv (ARG)
  1454                           ;!   _setup
  1455                           ;!     _SerialBegin
  1456                           ;!       ___aldiv
  1457                           ;!
  1458                           ;! _ISR (ROOT)
  1459                           ;!   ___xxtofl
  1460                           ;!
  1461                           
  1462                           ;! Address spaces:
  1463                           
  1464                           ;!Name               Size   Autos  Total    Cost      Usage
  1465                           ;!BITCOMMON            E      0       0       0        0.0%
  1466                           ;!EEDATA             100      0       0       0        0.0%
  1467                           ;!NULL                 0      0       0       0        0.0%
  1468                           ;!CODE                 0      0       0       0        0.0%
  1469                           ;!COMMON               E      E       E       1      100.0%
  1470                           ;!BITSFR0              0      0       0       1        0.0%
  1471                           ;!SFR0                 0      0       0       1        0.0%
  1472                           ;!BITSFR1              0      0       0       2        0.0%
  1473                           ;!SFR1                 0      0       0       2        0.0%
  1474                           ;!STACK                0      0       0       2        0.0%
  1475                           ;!ABS                  0      0      7F       3        0.0%
  1476                           ;!BITBANK0            50      0       0       4        0.0%
  1477                           ;!BITSFR3              0      0       0       4        0.0%
  1478                           ;!SFR3                 0      0       0       4        0.0%
  1479                           ;!BANK0               50     29      4C       5       95.0%
  1480                           ;!BITSFR2              0      0       0       5        0.0%
  1481                           ;!SFR2                 0      0       0       5        0.0%
  1482                           ;!BITBANK1            50      0       0       6        0.0%
  1483                           ;!BANK1               50      3      25       7       46.3%
  1484                           ;!BITBANK3            60      0       0       8        0.0%
  1485                           ;!BANK3               60      0       0       9        0.0%
  1486                           ;!BITBANK2            60      0       0      10        0.0%
  1487                           ;!BANK2               60      0       0      11        0.0%
  1488                           ;!DATA                 0      0      7F      12        0.0%
  1489                           
  1490                           	global	_main
  1491                           
  1492 ;; *************** function _main *****************
  1493 ;; Defined at:
  1494 ;;		line 7 in file "source.c"
  1495 ;; Parameters:    Size  Location     Type
  1496 ;;		None
  1497 ;; Auto vars:     Size  Location     Type
  1498 ;;		None
  1499 ;; Return value:  Size  Location     Type
  1500 ;;                  2  234[None  ] int 
  1501 ;; Registers used:
  1502 ;;		wreg, fsr0l, fsr0h, status,2, status,0, btemp+1, pclath, cstack
  1503 ;; Tracked objects:
  1504 ;;		On entry : B00/0
  1505 ;;		On exit  : 0/0
  1506 ;;		Unchanged: 0/0
  1507 ;; Data sizes:     COMMON   BANK0   BANK1   BANK3   BANK2
  1508 ;;      Params:         0       0       0       0       0
  1509 ;;      Locals:         0       0       0       0       0
  1510 ;;      Temps:          0       0       0       0       0
  1511 ;;      Totals:         0       0       0       0       0
  1512 ;;Total ram usage:        0 bytes
  1513 ;; Hardware stack levels required when called:    5
  1514 ;; This function calls:
  1515 ;;		_Initialization
  1516 ;;		_loop
  1517 ;;		_setup
  1518 ;; This function is called by:
  1519 ;;		Startup code after reset
  1520 ;; This function uses a non-reentrant model
  1521 ;;
  1522                           psect	maintext,global,class=CODE,delta=2,split=1,group=0
  1523                           	file	"source.c"
  1524                           	line	7
  1525                           global __pmaintext
  1526                           __pmaintext:	;psect for function _main
  1527  07EA                     psect	maintext
  1528                           	file	"source.c"
  1529                           	line	7
  1530                           	global	__size_of_main
  1531                           	__size_of_main	equ	__end_of_main-_main
  1532  0015                     	
  1533                           _main:	
  1534  07EA                     ;incstack = 0
  1535                           	opt	stack 3
  1536                           ; Regs used in _main: [wreg-fsr0h+status,2+status,0+btemp+1+pclath+cstack]
  1537                           	line	9
  1538                           	
  1539                           l3620:	
  1540  07EA                     ;source.c: 9:     Initialization();
  1541                           	fcall	_Initialization
  1542  07EA  120A  158A  27BB  120A  118A  	line	10
  1543                           ;source.c: 10:     setup();
  1544                           	fcall	_setup
  1545  07EF  120A  158A  27DB  120A  118A  	goto	l3622
  1546  07F4  2FF5               	line	11
  1547                           ;source.c: 11:     while(1)
  1548                           	
  1549                           l235:	
  1550  07F5                     	line	13
  1551                           	
  1552                           l3622:	
  1553  07F5                     ;source.c: 12:     {;source.c: 13:         loop();
  1554                           	fcall	_loop
  1555  07F5  120A  118A  23D3  120A  118A  	goto	l3622
  1556  07FA  2FF5               	line	14
  1557                           ;source.c: 14:     }
  1558                           	
  1559                           l236:	
  1560  07FB                     	goto	l3622
  1561  07FB  2FF5               	
  1562                           l237:	
  1563  07FC                     	line	16
  1564                           ;source.c: 15:     return 0;;	Return value of _main is never used
  1565                           	
  1566                           l238:	
  1567  07FC                     	global	start
  1568                           	ljmp	start
  1569  07FC  120A  118A  280E   	opt stack 0
  1570                           GLOBAL	__end_of_main
  1571                           	__end_of_main:
  1572  07FF                     	signat	_main,90
  1573                           	global	_setup
  1574                           
  1575 ;; *************** function _setup *****************
  1576 ;; Defined at:
  1577 ;;		line 14 in file "Application.c"
  1578 ;; Parameters:    Size  Location     Type
  1579 ;;		None
  1580 ;; Auto vars:     Size  Location     Type
  1581 ;;		None
  1582 ;; Return value:  Size  Location     Type
  1583 ;;                  1    wreg      void 
  1584 ;; Registers used:
  1585 ;;		wreg, status,2, status,0, pclath, cstack
  1586 ;; Tracked objects:
  1587 ;;		On entry : 0/0
  1588 ;;		On exit  : 0/0
  1589 ;;		Unchanged: 0/0
  1590 ;; Data sizes:     COMMON   BANK0   BANK1   BANK3   BANK2
  1591 ;;      Params:         0       0       0       0       0
  1592 ;;      Locals:         0       0       0       0       0
  1593 ;;      Temps:          0       0       0       0       0
  1594 ;;      Totals:         0       0       0       0       0
  1595 ;;Total ram usage:        0 bytes
  1596 ;; Hardware stack levels used:    1
  1597 ;; Hardware stack levels required when called:    4
  1598 ;; This function calls:
  1599 ;;		_SerialBegin
  1600 ;; This function is called by:
  1601 ;;		_main
  1602 ;; This function uses a non-reentrant model
  1603 ;;
  1604                           psect	text1,local,class=CODE,delta=2,merge=1,group=0
  1605                           	file	"Application.c"
  1606                           	line	14
  1607                           global __ptext1
  1608                           __ptext1:	;psect for function _setup
  1609  0FDB                     psect	text1
  1610                           	file	"Application.c"
  1611                           	line	14
  1612                           	global	__size_of_setup
  1613                           	__size_of_setup	equ	__end_of_setup-_setup
  1614  0025                     	
  1615                           _setup:	
  1616  0FDB                     ;incstack = 0
  1617                           	opt	stack 3
  1618                           ; Regs used in _setup: [wreg+status,2+status,0+pclath+cstack]
  1619                           	line	16
  1620                           	
  1621                           l3066:	
  1622  0FDB                     ;Application.c: 16:     SerialBegin(9600);
  1623                           	movlw	0
  1624  0FDB  3000               	bcf	status, 5	;RP0=0, select bank0
  1625  0FDC  1283               	bcf	status, 6	;RP1=0, select bank0
  1626  0FDD  1303               	movwf	(SerialBegin@BaudRate+3)
  1627  0FDE  00B6               	movlw	0
  1628  0FDF  3000               	movwf	(SerialBegin@BaudRate+2)
  1629  0FE0  00B5               	movlw	025h
  1630  0FE1  3025               	movwf	(SerialBegin@BaudRate+1)
  1631  0FE2  00B4               	movlw	080h
  1632  0FE3  3080               	movwf	(SerialBegin@BaudRate)
  1633  0FE4  00B3               
  1634                           	fcall	_SerialBegin
  1635  0FE5  120A  118A  2533  120A  158A  	line	18
  1636                           	
  1637                           l3068:	
  1638  0FEA                     ;Application.c: 18:     TRISC1 = 1;
  1639                           	bsf	status, 5	;RP0=1, select bank1
  1640  0FEA  1683               	bcf	status, 6	;RP1=0, select bank1
  1641  0FEB  1303               	bsf	(1081/8)^080h,(1081)&7	;volatile
  1642  0FEC  1487               	line	19
  1643                           	
  1644                           l3070:	
  1645  0FED                     ;Application.c: 19:     TMR1 = 0;
  1646                           	bcf	status, 5	;RP0=0, select bank0
  1647  0FED  1283               	bcf	status, 6	;RP1=0, select bank0
  1648  0FEE  1303               	clrf	(14)	;volatile
  1649  0FEF  018E               	clrf	(14+1)	;volatile
  1650  0FF0  018F               	line	20
  1651                           	
  1652                           l3072:	
  1653  0FF1                     ;Application.c: 20:     TMR1CS = 0;
  1654                           	bcf	(129/8),(129)&7	;volatile
  1655  0FF1  1090               	line	21
  1656                           	
  1657                           l3074:	
  1658  0FF2                     ;Application.c: 21:     T1CKPS0 = 1;
  1659                           	bsf	(132/8),(132)&7	;volatile
  1660  0FF2  1610               	line	22
  1661                           	
  1662                           l3076:	
  1663  0FF3                     ;Application.c: 22:     T1CKPS1 = 1;
  1664                           	bsf	(133/8),(133)&7	;volatile
  1665  0FF3  1690               	line	23
  1666                           	
  1667                           l3078:	
  1668  0FF4                     ;Application.c: 23:     TMR1ON = 1;
  1669                           	bsf	(128/8),(128)&7	;volatile
  1670  0FF4  1410               	line	25
  1671                           	
  1672                           l3080:	
  1673  0FF5                     ;Application.c: 25:     CCP2M3 = 0;
  1674                           	bcf	(235/8),(235)&7	;volatile
  1675  0FF5  119D               	line	26
  1676                           	
  1677                           l3082:	
  1678  0FF6                     ;Application.c: 26:     CCP2M2 = 1;
  1679                           	bsf	(234/8),(234)&7	;volatile
  1680  0FF6  151D               	line	27
  1681                           	
  1682                           l3084:	
  1683  0FF7                     ;Application.c: 27:     CCP2M1 = 0;
  1684                           	bcf	(233/8),(233)&7	;volatile
  1685  0FF7  109D               	line	28
  1686                           	
  1687                           l3086:	
  1688  0FF8                     ;Application.c: 28:     CCP2M0 = 0;
  1689                           	bcf	(232/8),(232)&7	;volatile
  1690  0FF8  101D               	line	30
  1691                           	
  1692                           l3088:	
  1693  0FF9                     ;Application.c: 30:     CCP2IF = 0;
  1694                           	bcf	(104/8),(104)&7	;volatile
  1695  0FF9  100D               	line	31
  1696                           	
  1697                           l3090:	
  1698  0FFA                     ;Application.c: 31:     CCP2IE = 1;
  1699                           	bsf	status, 5	;RP0=1, select bank1
  1700  0FFA  1683               	bcf	status, 6	;RP1=0, select bank1
  1701  0FFB  1303               	bsf	(1128/8)^080h,(1128)&7	;volatile
  1702  0FFC  140D               	line	32
  1703                           	
  1704                           l3092:	
  1705  0FFD                     ;Application.c: 32:     PEIE = 1;
  1706                           	bsf	(94/8),(94)&7	;volatile
  1707  0FFD  170B               	line	33
  1708                           	
  1709                           l3094:	
  1710  0FFE                     ;Application.c: 33:     GIE = 1;
  1711                           	bsf	(95/8),(95)&7	;volatile
  1712  0FFE  178B               	line	34
  1713                           	
  1714                           l623:	
  1715  0FFF                     	return
  1716  0FFF  0008               	opt stack 0
  1717                           GLOBAL	__end_of_setup
  1718                           	__end_of_setup:
  1719  1000                     	signat	_setup,89
  1720                           	global	_SerialBegin
  1721                           
  1722 ;; *************** function _SerialBegin *****************
  1723 ;; Defined at:
  1724 ;;		line 568 in file "source.c"
  1725 ;; Parameters:    Size  Location     Type
  1726 ;;  BaudRate        4   19[BANK0 ] const long 
  1727 ;; Auto vars:     Size  Location     Type
  1728 ;;  x               2   27[BANK0 ] unsigned int 
  1729 ;; Return value:  Size  Location     Type
  1730 ;;                  1    wreg      unsigned char 
  1731 ;; Registers used:
  1732 ;;		wreg, status,2, status,0, pclath, cstack
  1733 ;; Tracked objects:
  1734 ;;		On entry : 0/0
  1735 ;;		On exit  : 0/0
  1736 ;;		Unchanged: 0/0
  1737 ;; Data sizes:     COMMON   BANK0   BANK1   BANK3   BANK2
  1738 ;;      Params:         0       4       0       0       0
  1739 ;;      Locals:         0       2       0       0       0
  1740 ;;      Temps:          0       4       0       0       0
  1741 ;;      Totals:         0      10       0       0       0
  1742 ;;Total ram usage:       10 bytes
  1743 ;; Hardware stack levels used:    1
  1744 ;; Hardware stack levels required when called:    3
  1745 ;; This function calls:
  1746 ;;		___aldiv
  1747 ;; This function is called by:
  1748 ;;		_setup
  1749 ;; This function uses a non-reentrant model
  1750 ;;
  1751                           psect	text2,local,class=CODE,delta=2,merge=1,group=0
  1752                           	file	"source.c"
  1753                           	line	568
  1754                           global __ptext2
  1755                           __ptext2:	;psect for function _SerialBegin
  1756  0533                     psect	text2
  1757                           	file	"source.c"
  1758                           	line	568
  1759                           	global	__size_of_SerialBegin
  1760                           	__size_of_SerialBegin	equ	__end_of_SerialBegin-_SerialBegin
  1761  00A5                     	
  1762                           _SerialBegin:	
  1763  0533                     ;incstack = 0
  1764                           	opt	stack 3
  1765                           ; Regs used in _SerialBegin: [wreg+status,2+status,0+pclath+cstack]
  1766                           	line	574
  1767                           	
  1768                           l2748:	
  1769  0533                     ;source.c: 568: char SerialBegin(const long int BaudRate);source.c: 569: {;source.c: 573
                                 :  unsigned int x;;source.c: 574:  BRGH = 0;
  1770                           	bsf	status, 5	;RP0=1, select bank1
  1771  0533  1683               	bcf	status, 6	;RP1=0, select bank1
  1772  0534  1303               	bcf	(1218/8)^080h,(1218)&7	;volatile
  1773  0535  1118               	line	575
  1774                           	
  1775                           l2750:	
  1776  0536                     ;source.c: 575:  x = (20000000 / (64 * BaudRate)) - 1;
  1777                           	bcf	status, 5	;RP0=0, select bank0
  1778  0536  1283               	bcf	status, 6	;RP1=0, select bank0
  1779  0537  1303               	movf	(SerialBegin@BaudRate),w
  1780  0538  0833               	movwf	(??_SerialBegin+0)+0
  1781  0539  00B7               	movf	(SerialBegin@BaudRate+1),w
  1782  053A  0834               	movwf	((??_SerialBegin+0)+0+1)
  1783  053B  00B8               	movf	(SerialBegin@BaudRate+2),w
  1784  053C  0835               	movwf	((??_SerialBegin+0)+0+2)
  1785  053D  00B9               	movf	(SerialBegin@BaudRate+3),w
  1786  053E  0836               	movwf	((??_SerialBegin+0)+0+3)
  1787  053F  00BA               	movlw	06h
  1788  0540  3006               u1865:
  1789  0541                     	clrc
  1790  0541  1003               	rlf	(??_SerialBegin+0)+0,f
  1791  0542  0DB7               	rlf	(??_SerialBegin+0)+1,f
  1792  0543  0DB8               	rlf	(??_SerialBegin+0)+2,f
  1793  0544  0DB9               	rlf	(??_SerialBegin+0)+3,f
  1794  0545  0DBA               u1860:
  1795  0546                     	addlw	-1
  1796  0546  3EFF               	skipz
  1797  0547  1D03               	goto	u1865
  1798  0548  2D41               	movf	3+(??_SerialBegin+0)+0,w
  1799  0549  083A               	movwf	(___aldiv@divisor+3)
  1800  054A  00A7               	movf	2+(??_SerialBegin+0)+0,w
  1801  054B  0839               	movwf	(___aldiv@divisor+2)
  1802  054C  00A6               	movf	1+(??_SerialBegin+0)+0,w
  1803  054D  0838               	movwf	(___aldiv@divisor+1)
  1804  054E  00A5               	movf	0+(??_SerialBegin+0)+0,w
  1805  054F  0837               	movwf	(___aldiv@divisor)
  1806  0550  00A4               
  1807                           	movlw	01h
  1808  0551  3001               	movwf	(___aldiv@dividend+3)
  1809  0552  00AB               	movlw	031h
  1810  0553  3031               	movwf	(___aldiv@dividend+2)
  1811  0554  00AA               	movlw	02Dh
  1812  0555  302D               	movwf	(___aldiv@dividend+1)
  1813  0556  00A9               	movlw	0
  1814  0557  3000               	movwf	(___aldiv@dividend)
  1815  0558  00A8               
  1816                           	fcall	___aldiv
  1817  0559  120A  118A  248D  120A  118A  	bcf	status, 5	;RP0=0, select bank0
  1818  055E  1283               	bcf	status, 6	;RP1=0, select bank0
  1819  055F  1303               	movf	(0+(?___aldiv)),w
  1820  0560  0824               	addlw	low(0FFFFh)
  1821  0561  3EFF               	movwf	(SerialBegin@x)
  1822  0562  00BB               	movf	(1+(?___aldiv)),w
  1823  0563  0825               	skipnc
  1824  0564  1803               	addlw	1
  1825  0565  3E01               	addlw	high(0FFFFh)
  1826  0566  3EFF               	movwf	1+(SerialBegin@x)
  1827  0567  00BC               	line	576
  1828                           	
  1829                           l2752:	
  1830  0568                     ;source.c: 576:  if(x > 255)
  1831                           	movlw	01h
  1832  0568  3001               	subwf	(SerialBegin@x+1),w
  1833  0569  023C               	movlw	0
  1834  056A  3000               	skipnz
  1835  056B  1903               	subwf	(SerialBegin@x),w
  1836  056C  023B               	skipc
  1837  056D  1C03               	goto	u1871
  1838  056E  2D70               	goto	u1870
  1839  056F  2D71               u1871:
  1840  0570                     	goto	l2780
  1841  0570  2DBF               u1870:
  1842  0571                     	line	578
  1843                           	
  1844                           l2754:	
  1845  0571                     ;source.c: 577:  {;source.c: 578:   BRGH = 1;
  1846                           	bsf	status, 5	;RP0=1, select bank1
  1847  0571  1683               	bcf	status, 6	;RP1=0, select bank1
  1848  0572  1303               	bsf	(1218/8)^080h,(1218)&7	;volatile
  1849  0573  1518               	line	579
  1850                           	
  1851                           l2756:	
  1852  0574                     ;source.c: 579:   x = (20000000 / (16 * BaudRate)) - 1;
  1853                           	bcf	status, 5	;RP0=0, select bank0
  1854  0574  1283               	bcf	status, 6	;RP1=0, select bank0
  1855  0575  1303               	movf	(SerialBegin@BaudRate),w
  1856  0576  0833               	movwf	(??_SerialBegin+0)+0
  1857  0577  00B7               	movf	(SerialBegin@BaudRate+1),w
  1858  0578  0834               	movwf	((??_SerialBegin+0)+0+1)
  1859  0579  00B8               	movf	(SerialBegin@BaudRate+2),w
  1860  057A  0835               	movwf	((??_SerialBegin+0)+0+2)
  1861  057B  00B9               	movf	(SerialBegin@BaudRate+3),w
  1862  057C  0836               	movwf	((??_SerialBegin+0)+0+3)
  1863  057D  00BA               	movlw	04h
  1864  057E  3004               u1885:
  1865  057F                     	clrc
  1866  057F  1003               	rlf	(??_SerialBegin+0)+0,f
  1867  0580  0DB7               	rlf	(??_SerialBegin+0)+1,f
  1868  0581  0DB8               	rlf	(??_SerialBegin+0)+2,f
  1869  0582  0DB9               	rlf	(??_SerialBegin+0)+3,f
  1870  0583  0DBA               u1880:
  1871  0584                     	addlw	-1
  1872  0584  3EFF               	skipz
  1873  0585  1D03               	goto	u1885
  1874  0586  2D7F               	movf	3+(??_SerialBegin+0)+0,w
  1875  0587  083A               	movwf	(___aldiv@divisor+3)
  1876  0588  00A7               	movf	2+(??_SerialBegin+0)+0,w
  1877  0589  0839               	movwf	(___aldiv@divisor+2)
  1878  058A  00A6               	movf	1+(??_SerialBegin+0)+0,w
  1879  058B  0838               	movwf	(___aldiv@divisor+1)
  1880  058C  00A5               	movf	0+(??_SerialBegin+0)+0,w
  1881  058D  0837               	movwf	(___aldiv@divisor)
  1882  058E  00A4               
  1883                           	movlw	01h
  1884  058F  3001               	movwf	(___aldiv@dividend+3)
  1885  0590  00AB               	movlw	031h
  1886  0591  3031               	movwf	(___aldiv@dividend+2)
  1887  0592  00AA               	movlw	02Dh
  1888  0593  302D               	movwf	(___aldiv@dividend+1)
  1889  0594  00A9               	movlw	0
  1890  0595  3000               	movwf	(___aldiv@dividend)
  1891  0596  00A8               
  1892                           	fcall	___aldiv
  1893  0597  120A  118A  248D  120A  118A  	bcf	status, 5	;RP0=0, select bank0
  1894  059C  1283               	bcf	status, 6	;RP1=0, select bank0
  1895  059D  1303               	movf	(0+(?___aldiv)),w
  1896  059E  0824               	addlw	low(0FFFFh)
  1897  059F  3EFF               	movwf	(SerialBegin@x)
  1898  05A0  00BB               	movf	(1+(?___aldiv)),w
  1899  05A1  0825               	skipnc
  1900  05A2  1803               	addlw	1
  1901  05A3  3E01               	addlw	high(0FFFFh)
  1902  05A4  3EFF               	movwf	1+(SerialBegin@x)
  1903  05A5  00BC               	line	580
  1904                           	
  1905                           l2758:	
  1906  05A6                     ;source.c: 580:   SPBRG = x;
  1907                           	movf	(SerialBegin@x),w
  1908  05A6  083B               	bsf	status, 5	;RP0=1, select bank1
  1909  05A7  1683               	bcf	status, 6	;RP1=0, select bank1
  1910  05A8  1303               	movwf	(153)^080h	;volatile
  1911  05A9  0099               	line	581
  1912                           	
  1913                           l2760:	
  1914  05AA                     ;source.c: 581:   SYNC = 0;
  1915                           	bcf	(1220/8)^080h,(1220)&7	;volatile
  1916  05AA  1218               	line	582
  1917                           	
  1918                           l2762:	
  1919  05AB                     ;source.c: 582:   SPEN = 1;
  1920                           	bcf	status, 5	;RP0=0, select bank0
  1921  05AB  1283               	bcf	status, 6	;RP1=0, select bank0
  1922  05AC  1303               	bsf	(199/8),(199)&7	;volatile
  1923  05AD  1798               	line	583
  1924                           	
  1925                           l2764:	
  1926  05AE                     ;source.c: 583:   TRISC7 = 1;
  1927                           	bsf	status, 5	;RP0=1, select bank1
  1928  05AE  1683               	bcf	status, 6	;RP1=0, select bank1
  1929  05AF  1303               	bsf	(1087/8)^080h,(1087)&7	;volatile
  1930  05B0  1787               	line	584
  1931                           	
  1932                           l2766:	
  1933  05B1                     ;source.c: 584:   TRISC6 = 1;
  1934                           	bsf	(1086/8)^080h,(1086)&7	;volatile
  1935  05B1  1707               	line	585
  1936                           	
  1937                           l2768:	
  1938  05B2                     ;source.c: 585:   CREN = 1;
  1939                           	bcf	status, 5	;RP0=0, select bank0
  1940  05B2  1283               	bcf	status, 6	;RP1=0, select bank0
  1941  05B3  1303               	bsf	(196/8),(196)&7	;volatile
  1942  05B4  1618               	line	586
  1943                           	
  1944                           l2770:	
  1945  05B5                     ;source.c: 586:   TXEN = 1;
  1946                           	bsf	status, 5	;RP0=1, select bank1
  1947  05B5  1683               	bcf	status, 6	;RP1=0, select bank1
  1948  05B6  1303               	bsf	(1221/8)^080h,(1221)&7	;volatile
  1949  05B7  1698               	line	587
  1950                           	
  1951                           l2772:	
  1952  05B8                     ;source.c: 587:         TXREG = 0x00;
  1953                           	bcf	status, 5	;RP0=0, select bank0
  1954  05B8  1283               	bcf	status, 6	;RP1=0, select bank0
  1955  05B9  1303               	clrf	(25)	;volatile
  1956  05BA  0199               	line	588
  1957                           	
  1958                           l2774:	
  1959  05BB                     ;source.c: 588:         RCREG = 0x00;
  1960                           	clrf	(26)	;volatile
  1961  05BB  019A               	goto	l432
  1962  05BC  2DD7               	line	589
  1963                           	
  1964                           l2776:	
  1965  05BD                     ;source.c: 589:   return 0;;	Return value of _SerialBegin is never used
  1966                           	goto	l432
  1967  05BD  2DD7               	line	590
  1968                           	
  1969                           l2778:	
  1970  05BE                     ;source.c: 590:  }
  1971                           	goto	l432
  1972  05BE  2DD7               	line	591
  1973                           ;source.c: 591:  else
  1974                           	
  1975                           l431:	
  1976  05BF                     	line	593
  1977                           	
  1978                           l2780:	
  1979  05BF                     ;source.c: 592:  {;source.c: 593:   SPBRG = x;
  1980                           	movf	(SerialBegin@x),w
  1981  05BF  083B               	bsf	status, 5	;RP0=1, select bank1
  1982  05C0  1683               	bcf	status, 6	;RP1=0, select bank1
  1983  05C1  1303               	movwf	(153)^080h	;volatile
  1984  05C2  0099               	line	594
  1985                           	
  1986                           l2782:	
  1987  05C3                     ;source.c: 594:   SYNC = 0;
  1988                           	bcf	(1220/8)^080h,(1220)&7	;volatile
  1989  05C3  1218               	line	595
  1990                           	
  1991                           l2784:	
  1992  05C4                     ;source.c: 595:   SPEN = 1;
  1993                           	bcf	status, 5	;RP0=0, select bank0
  1994  05C4  1283               	bcf	status, 6	;RP1=0, select bank0
  1995  05C5  1303               	bsf	(199/8),(199)&7	;volatile
  1996  05C6  1798               	line	596
  1997                           	
  1998                           l2786:	
  1999  05C7                     ;source.c: 596:   TRISC7 = 1;
  2000                           	bsf	status, 5	;RP0=1, select bank1
  2001  05C7  1683               	bcf	status, 6	;RP1=0, select bank1
  2002  05C8  1303               	bsf	(1087/8)^080h,(1087)&7	;volatile
  2003  05C9  1787               	line	597
  2004                           	
  2005                           l2788:	
  2006  05CA                     ;source.c: 597:   TRISC6 = 1;
  2007                           	bsf	(1086/8)^080h,(1086)&7	;volatile
  2008  05CA  1707               	line	598
  2009                           	
  2010                           l2790:	
  2011  05CB                     ;source.c: 598:   CREN = 1;
  2012                           	bcf	status, 5	;RP0=0, select bank0
  2013  05CB  1283               	bcf	status, 6	;RP1=0, select bank0
  2014  05CC  1303               	bsf	(196/8),(196)&7	;volatile
  2015  05CD  1618               	line	599
  2016                           	
  2017                           l2792:	
  2018  05CE                     ;source.c: 599:   TXEN = 1;
  2019                           	bsf	status, 5	;RP0=1, select bank1
  2020  05CE  1683               	bcf	status, 6	;RP1=0, select bank1
  2021  05CF  1303               	bsf	(1221/8)^080h,(1221)&7	;volatile
  2022  05D0  1698               	line	600
  2023                           	
  2024                           l2794:	
  2025  05D1                     ;source.c: 600:         TXREG = 0x00;
  2026                           	bcf	status, 5	;RP0=0, select bank0
  2027  05D1  1283               	bcf	status, 6	;RP1=0, select bank0
  2028  05D2  1303               	clrf	(25)	;volatile
  2029  05D3  0199               	line	601
  2030                           	
  2031                           l2796:	
  2032  05D4                     ;source.c: 601:         RCREG = 0x00;
  2033                           	clrf	(26)	;volatile
  2034  05D4  019A               	goto	l432
  2035  05D5  2DD7               	line	602
  2036                           	
  2037                           l2798:	
  2038  05D6                     ;source.c: 602:   return 1;;	Return value of _SerialBegin is never used
  2039                           	goto	l432
  2040  05D6  2DD7               	line	603
  2041                           ;source.c: 603:  }
  2042                           	
  2043                           l433:	
  2044  05D7                     	line	604
  2045                           	
  2046                           l432:	
  2047  05D7                     	return
  2048  05D7  0008               	opt stack 0
  2049                           GLOBAL	__end_of_SerialBegin
  2050                           	__end_of_SerialBegin:
  2051  05D8                     	signat	_SerialBegin,4217
  2052                           	global	___aldiv
  2053                           
  2054 ;; *************** function ___aldiv *****************
  2055 ;; Defined at:
  2056 ;;		line 5 in file "C:\Program Files (x86)\Microchip\xc8\v2.00\pic\sources\c90\common\aldiv.c"
  2057 ;; Parameters:    Size  Location     Type
  2058 ;;  divisor         4    4[BANK0 ] long 
  2059 ;;  dividend        4    8[BANK0 ] long 
  2060 ;; Auto vars:     Size  Location     Type
  2061 ;;  quotient        4   15[BANK0 ] long 
  2062 ;;  sign            1   14[BANK0 ] unsigned char 
  2063 ;;  counter         1   13[BANK0 ] unsigned char 
  2064 ;; Return value:  Size  Location     Type
  2065 ;;                  4    4[BANK0 ] long 
  2066 ;; Registers used:
  2067 ;;		wreg, status,2, status,0
  2068 ;; Tracked objects:
  2069 ;;		On entry : 0/0
  2070 ;;		On exit  : 0/0
  2071 ;;		Unchanged: 0/0
  2072 ;; Data sizes:     COMMON   BANK0   BANK1   BANK3   BANK2
  2073 ;;      Params:         0       8       0       0       0
  2074 ;;      Locals:         0       6       0       0       0
  2075 ;;      Temps:          0       1       0       0       0
  2076 ;;      Totals:         0      15       0       0       0
  2077 ;;Total ram usage:       15 bytes
  2078 ;; Hardware stack levels used:    1
  2079 ;; Hardware stack levels required when called:    2
  2080 ;; This function calls:
  2081 ;;		Nothing
  2082 ;; This function is called by:
  2083 ;;		_SerialBegin
  2084 ;; This function uses a non-reentrant model
  2085 ;;
  2086                           psect	text3,local,class=CODE,delta=2,merge=1,group=1
  2087                           	file	"C:\Program Files (x86)\Microchip\xc8\v2.00\pic\sources\c90\common\aldiv.c"
  2088                           	line	5
  2089                           global __ptext3
  2090                           __ptext3:	;psect for function ___aldiv
  2091  048D                     psect	text3
  2092                           	file	"C:\Program Files (x86)\Microchip\xc8\v2.00\pic\sources\c90\common\aldiv.c"
  2093                           	line	5
  2094                           	global	__size_of___aldiv
  2095                           	__size_of___aldiv	equ	__end_of___aldiv-___aldiv
  2096  00A6                     	
  2097                           ___aldiv:	
  2098  048D                     ;incstack = 0
  2099                           	opt	stack 3
  2100                           ; Regs used in ___aldiv: [wreg+status,2+status,0]
  2101                           	line	13
  2102                           	
  2103                           l2640:	
  2104  048D                     	bcf	status, 5	;RP0=0, select bank0
  2105  048D  1283               	bcf	status, 6	;RP1=0, select bank0
  2106  048E  1303               	clrf	(___aldiv@sign)
  2107  048F  01AE               	line	14
  2108                           	
  2109                           l2642:	
  2110  0490                     	btfss	(___aldiv@divisor+3),7
  2111  0490  1FA7               	goto	u1591
  2112  0491  2C93               	goto	u1590
  2113  0492  2C94               u1591:
  2114  0493                     	goto	l808
  2115  0493  2CA1               u1590:
  2116  0494                     	line	15
  2117                           	
  2118                           l2644:	
  2119  0494                     	comf	(___aldiv@divisor),f
  2120  0494  09A4               	comf	(___aldiv@divisor+1),f
  2121  0495  09A5               	comf	(___aldiv@divisor+2),f
  2122  0496  09A6               	comf	(___aldiv@divisor+3),f
  2123  0497  09A7               	incf	(___aldiv@divisor),f
  2124  0498  0AA4               	skipnz
  2125  0499  1903               	incf	(___aldiv@divisor+1),f
  2126  049A  0AA5               	skipnz
  2127  049B  1903               	incf	(___aldiv@divisor+2),f
  2128  049C  0AA6               	skipnz
  2129  049D  1903               	incf	(___aldiv@divisor+3),f
  2130  049E  0AA7               	line	16
  2131                           	clrf	(___aldiv@sign)
  2132  049F  01AE               	incf	(___aldiv@sign),f
  2133  04A0  0AAE               	line	17
  2134                           	
  2135                           l808:	
  2136  04A1                     	line	18
  2137                           	btfss	(___aldiv@dividend+3),7
  2138  04A1  1FAB               	goto	u1601
  2139  04A2  2CA4               	goto	u1600
  2140  04A3  2CA5               u1601:
  2141  04A4                     	goto	l2650
  2142  04A4  2CB5               u1600:
  2143  04A5                     	line	19
  2144                           	
  2145                           l2646:	
  2146  04A5                     	comf	(___aldiv@dividend),f
  2147  04A5  09A8               	comf	(___aldiv@dividend+1),f
  2148  04A6  09A9               	comf	(___aldiv@dividend+2),f
  2149  04A7  09AA               	comf	(___aldiv@dividend+3),f
  2150  04A8  09AB               	incf	(___aldiv@dividend),f
  2151  04A9  0AA8               	skipnz
  2152  04AA  1903               	incf	(___aldiv@dividend+1),f
  2153  04AB  0AA9               	skipnz
  2154  04AC  1903               	incf	(___aldiv@dividend+2),f
  2155  04AD  0AAA               	skipnz
  2156  04AE  1903               	incf	(___aldiv@dividend+3),f
  2157  04AF  0AAB               	line	20
  2158                           	
  2159                           l2648:	
  2160  04B0                     	movlw	low(01h)
  2161  04B0  3001               	movwf	(??___aldiv+0)+0
  2162  04B1  00AC               	movf	(??___aldiv+0)+0,w
  2163  04B2  082C               	xorwf	(___aldiv@sign),f
  2164  04B3  06AE               	goto	l2650
  2165  04B4  2CB5               	line	21
  2166                           	
  2167                           l809:	
  2168  04B5                     	line	22
  2169                           	
  2170                           l2650:	
  2171  04B5                     	movlw	high highword(0)
  2172  04B5  3000               	movwf	(___aldiv@quotient+3)
  2173  04B6  00B2               	movlw	low highword(0)
  2174  04B7  3000               	movwf	(___aldiv@quotient+2)
  2175  04B8  00B1               	movlw	high(0)
  2176  04B9  3000               	movwf	(___aldiv@quotient+1)
  2177  04BA  00B0               	movlw	low(0)
  2178  04BB  3000               	movwf	(___aldiv@quotient)
  2179  04BC  00AF               
  2180                           	line	23
  2181                           	
  2182                           l2652:	
  2183  04BD                     	movf	(___aldiv@divisor+3),w
  2184  04BD  0827               	iorwf	(___aldiv@divisor+2),w
  2185  04BE  0426               	iorwf	(___aldiv@divisor+1),w
  2186  04BF  0425               	iorwf	(___aldiv@divisor),w
  2187  04C0  0424               	skipnz
  2188  04C1  1903               	goto	u1611
  2189  04C2  2CC4               	goto	u1610
  2190  04C3  2CC5               u1611:
  2191  04C4                     	goto	l2672
  2192  04C4  2D18               u1610:
  2193  04C5                     	line	24
  2194                           	
  2195                           l2654:	
  2196  04C5                     	clrf	(___aldiv@counter)
  2197  04C5  01AD               	incf	(___aldiv@counter),f
  2198  04C6  0AAD               	line	25
  2199                           	goto	l2658
  2200  04C7  2CD6               	
  2201                           l812:	
  2202  04C8                     	line	26
  2203                           	
  2204                           l2656:	
  2205  04C8                     	movlw	01h
  2206  04C8  3001               	movwf	(??___aldiv+0)+0
  2207  04C9  00AC               u1625:
  2208  04CA                     	clrc
  2209  04CA  1003               	rlf	(___aldiv@divisor),f
  2210  04CB  0DA4               	rlf	(___aldiv@divisor+1),f
  2211  04CC  0DA5               	rlf	(___aldiv@divisor+2),f
  2212  04CD  0DA6               	rlf	(___aldiv@divisor+3),f
  2213  04CE  0DA7               	decfsz	(??___aldiv+0)+0
  2214  04CF  0BAC               	goto	u1625
  2215  04D0  2CCA               	line	27
  2216                           	movlw	low(01h)
  2217  04D1  3001               	movwf	(??___aldiv+0)+0
  2218  04D2  00AC               	movf	(??___aldiv+0)+0,w
  2219  04D3  082C               	addwf	(___aldiv@counter),f
  2220  04D4  07AD               	goto	l2658
  2221  04D5  2CD6               	line	28
  2222                           	
  2223                           l811:	
  2224  04D6                     	line	25
  2225                           	
  2226                           l2658:	
  2227  04D6                     	btfss	(___aldiv@divisor+3),(31)&7
  2228  04D6  1FA7               	goto	u1631
  2229  04D7  2CD9               	goto	u1630
  2230  04D8  2CDA               u1631:
  2231  04D9                     	goto	l2656
  2232  04D9  2CC8               u1630:
  2233  04DA                     	goto	l2660
  2234  04DA  2CDC               	
  2235                           l813:	
  2236  04DB                     	goto	l2660
  2237  04DB  2CDC               	line	29
  2238                           	
  2239                           l814:	
  2240  04DC                     	line	30
  2241                           	
  2242                           l2660:	
  2243  04DC                     	movlw	01h
  2244  04DC  3001               	movwf	(??___aldiv+0)+0
  2245  04DD  00AC               u1645:
  2246  04DE                     	clrc
  2247  04DE  1003               	rlf	(___aldiv@quotient),f
  2248  04DF  0DAF               	rlf	(___aldiv@quotient+1),f
  2249  04E0  0DB0               	rlf	(___aldiv@quotient+2),f
  2250  04E1  0DB1               	rlf	(___aldiv@quotient+3),f
  2251  04E2  0DB2               	decfsz	(??___aldiv+0)+0
  2252  04E3  0BAC               	goto	u1645
  2253  04E4  2CDE               	line	31
  2254                           	
  2255                           l2662:	
  2256  04E5                     	movf	(___aldiv@divisor+3),w
  2257  04E5  0827               	subwf	(___aldiv@dividend+3),w
  2258  04E6  022B               	skipz
  2259  04E7  1D03               	goto	u1655
  2260  04E8  2CF3               	movf	(___aldiv@divisor+2),w
  2261  04E9  0826               	subwf	(___aldiv@dividend+2),w
  2262  04EA  022A               	skipz
  2263  04EB  1D03               	goto	u1655
  2264  04EC  2CF3               	movf	(___aldiv@divisor+1),w
  2265  04ED  0825               	subwf	(___aldiv@dividend+1),w
  2266  04EE  0229               	skipz
  2267  04EF  1D03               	goto	u1655
  2268  04F0  2CF3               	movf	(___aldiv@divisor),w
  2269  04F1  0824               	subwf	(___aldiv@dividend),w
  2270  04F2  0228               u1655:
  2271  04F3                     	skipc
  2272  04F3  1C03               	goto	u1651
  2273  04F4  2CF6               	goto	u1650
  2274  04F5  2CF7               u1651:
  2275  04F6                     	goto	l2668
  2276  04F6  2D07               u1650:
  2277  04F7                     	line	32
  2278                           	
  2279                           l2664:	
  2280  04F7                     	movf	(___aldiv@divisor),w
  2281  04F7  0824               	subwf	(___aldiv@dividend),f
  2282  04F8  02A8               	movf	(___aldiv@divisor+1),w
  2283  04F9  0825               	skipc
  2284  04FA  1C03               	incfsz	(___aldiv@divisor+1),w
  2285  04FB  0F25               	subwf	(___aldiv@dividend+1),f
  2286  04FC  02A9               	movf	(___aldiv@divisor+2),w
  2287  04FD  0826               	skipc
  2288  04FE  1C03               	incfsz	(___aldiv@divisor+2),w
  2289  04FF  0F26               	subwf	(___aldiv@dividend+2),f
  2290  0500  02AA               	movf	(___aldiv@divisor+3),w
  2291  0501  0827               	skipc
  2292  0502  1C03               	incfsz	(___aldiv@divisor+3),w
  2293  0503  0F27               	subwf	(___aldiv@dividend+3),f
  2294  0504  02AB               	line	33
  2295                           	
  2296                           l2666:	
  2297  0505                     	bsf	(___aldiv@quotient)+(0/8),(0)&7
  2298  0505  142F               	goto	l2668
  2299  0506  2D07               	line	34
  2300                           	
  2301                           l815:	
  2302  0507                     	line	35
  2303                           	
  2304                           l2668:	
  2305  0507                     	movlw	01h
  2306  0507  3001               u1665:
  2307  0508                     	clrc
  2308  0508  1003               	rrf	(___aldiv@divisor+3),f
  2309  0509  0CA7               	rrf	(___aldiv@divisor+2),f
  2310  050A  0CA6               	rrf	(___aldiv@divisor+1),f
  2311  050B  0CA5               	rrf	(___aldiv@divisor),f
  2312  050C  0CA4               	addlw	-1
  2313  050D  3EFF               	skipz
  2314  050E  1D03               	goto	u1665
  2315  050F  2D08               
  2316                           	line	36
  2317                           	
  2318                           l2670:	
  2319  0510                     	movlw	01h
  2320  0510  3001               	subwf	(___aldiv@counter),f
  2321  0511  02AD               	btfss	status,2
  2322  0512  1D03               	goto	u1671
  2323  0513  2D15               	goto	u1670
  2324  0514  2D16               u1671:
  2325  0515                     	goto	l2660
  2326  0515  2CDC               u1670:
  2327  0516                     	goto	l2672
  2328  0516  2D18               	
  2329                           l816:	
  2330  0517                     	goto	l2672
  2331  0517  2D18               	line	37
  2332                           	
  2333                           l810:	
  2334  0518                     	line	38
  2335                           	
  2336                           l2672:	
  2337  0518                     	movf	((___aldiv@sign)),w
  2338  0518  082E               	btfsc	status,2
  2339  0519  1903               	goto	u1681
  2340  051A  2D1C               	goto	u1680
  2341  051B  2D1D               u1681:
  2342  051C                     	goto	l2676
  2343  051C  2D29               u1680:
  2344  051D                     	line	39
  2345                           	
  2346                           l2674:	
  2347  051D                     	comf	(___aldiv@quotient),f
  2348  051D  09AF               	comf	(___aldiv@quotient+1),f
  2349  051E  09B0               	comf	(___aldiv@quotient+2),f
  2350  051F  09B1               	comf	(___aldiv@quotient+3),f
  2351  0520  09B2               	incf	(___aldiv@quotient),f
  2352  0521  0AAF               	skipnz
  2353  0522  1903               	incf	(___aldiv@quotient+1),f
  2354  0523  0AB0               	skipnz
  2355  0524  1903               	incf	(___aldiv@quotient+2),f
  2356  0525  0AB1               	skipnz
  2357  0526  1903               	incf	(___aldiv@quotient+3),f
  2358  0527  0AB2               	goto	l2676
  2359  0528  2D29               	
  2360                           l817:	
  2361  0529                     	line	40
  2362                           	
  2363                           l2676:	
  2364  0529                     	movf	(___aldiv@quotient+3),w
  2365  0529  0832               	movwf	(?___aldiv+3)
  2366  052A  00A7               	movf	(___aldiv@quotient+2),w
  2367  052B  0831               	movwf	(?___aldiv+2)
  2368  052C  00A6               	movf	(___aldiv@quotient+1),w
  2369  052D  0830               	movwf	(?___aldiv+1)
  2370  052E  00A5               	movf	(___aldiv@quotient),w
  2371  052F  082F               	movwf	(?___aldiv)
  2372  0530  00A4               
  2373                           	goto	l818
  2374  0531  2D32               	
  2375                           l2678:	
  2376  0532                     	line	41
  2377                           	
  2378                           l818:	
  2379  0532                     	return
  2380  0532  0008               	opt stack 0
  2381                           GLOBAL	__end_of___aldiv
  2382                           	__end_of___aldiv:
  2383  0533                     	signat	___aldiv,8316
  2384                           	global	_loop
  2385                           
  2386 ;; *************** function _loop *****************
  2387 ;; Defined at:
  2388 ;;		line 36 in file "Application.c"
  2389 ;; Parameters:    Size  Location     Type
  2390 ;;		None
  2391 ;; Auto vars:     Size  Location     Type
  2392 ;;		None
  2393 ;; Return value:  Size  Location     Type
  2394 ;;                  1    wreg      void 
  2395 ;; Registers used:
  2396 ;;		wreg, fsr0l, fsr0h, status,2, status,0, btemp+1, pclath, cstack
  2397 ;; Tracked objects:
  2398 ;;		On entry : 0/0
  2399 ;;		On exit  : 0/0
  2400 ;;		Unchanged: 0/0
  2401 ;; Data sizes:     COMMON   BANK0   BANK1   BANK3   BANK2
  2402 ;;      Params:         0       0       0       0       0
  2403 ;;      Locals:         0       0       0       0       0
  2404 ;;      Temps:          0       0       3       0       0
  2405 ;;      Totals:         0       0       3       0       0
  2406 ;;Total ram usage:        3 bytes
  2407 ;; Hardware stack levels used:    1
  2408 ;; Hardware stack levels required when called:    4
  2409 ;; This function calls:
  2410 ;;		_SerialPrintLn
  2411 ;;		___bmul
  2412 ;;		___fldiv
  2413 ;;		___fltol
  2414 ;;		___lwdiv
  2415 ;;		_delay
  2416 ;;		_sprintf
  2417 ;; This function is called by:
  2418 ;;		_main
  2419 ;; This function uses a non-reentrant model
  2420 ;;
  2421                           psect	text4,local,class=CODE,delta=2,merge=1,group=0
  2422                           	file	"Application.c"
  2423                           	line	36
  2424                           global __ptext4
  2425                           __ptext4:	;psect for function _loop
  2426  03D3                     psect	text4
  2427                           	file	"Application.c"
  2428                           	line	36
  2429                           	global	__size_of_loop
  2430                           	__size_of_loop	equ	__end_of_loop-_loop
  2431  00BA                     	
  2432                           _loop:	
  2433  03D3                     ;incstack = 0
  2434                           	opt	stack 3
  2435                           ; Regs used in _loop: [wreg-fsr0h+status,2+status,0+btemp+1+pclath+cstack]
  2436                           	line	38
  2437                           	
  2438                           l3608:	
  2439  03D3                     ;Application.c: 38:     buffer = (int)(62500000/Period);
  2440                           	movlw	0x4c
  2441  03D3  304C               	bcf	status, 5	;RP0=0, select bank0
  2442  03D4  1283               	bcf	status, 6	;RP1=0, select bank0
  2443  03D5  1303               	movwf	(___fldiv@b+3)
  2444  03D6  00AB               	movlw	0x6e
  2445  03D7  306E               	movwf	(___fldiv@b+2)
  2446  03D8  00AA               	movlw	0x6b
  2447  03D9  306B               	movwf	(___fldiv@b+1)
  2448  03DA  00A9               	movlw	0x28
  2449  03DB  3028               	movwf	(___fldiv@b)
  2450  03DC  00A8               
  2451                           	movf	(_Period+3),w	;volatile
  2452  03DD  0869               	movwf	(___fldiv@a+3)
  2453  03DE  00A7               	movf	(_Period+2),w	;volatile
  2454  03DF  0868               	movwf	(___fldiv@a+2)
  2455  03E0  00A6               	movf	(_Period+1),w	;volatile
  2456  03E1  0867               	movwf	(___fldiv@a+1)
  2457  03E2  00A5               	movf	(_Period),w	;volatile
  2458  03E3  0866               	movwf	(___fldiv@a)
  2459  03E4  00A4               
  2460                           	fcall	___fldiv
  2461  03E5  120A  118A  2026  120A  118A  	bcf	status, 5	;RP0=0, select bank0
  2462  03EA  1283               	bcf	status, 6	;RP1=0, select bank0
  2463  03EB  1303               	movf	(3+(?___fldiv)),w
  2464  03EC  0827               	movwf	(___fltol@f1+3)
  2465  03ED  00C1               	movf	(2+(?___fldiv)),w
  2466  03EE  0826               	movwf	(___fltol@f1+2)
  2467  03EF  00C0               	movf	(1+(?___fldiv)),w
  2468  03F0  0825               	movwf	(___fltol@f1+1)
  2469  03F1  00BF               	movf	(0+(?___fldiv)),w
  2470  03F2  0824               	movwf	(___fltol@f1)
  2471  03F3  00BE               
  2472                           	fcall	___fltol
  2473  03F4  120A  118A  25D8  120A  118A  	bcf	status, 5	;RP0=0, select bank0
  2474  03F9  1283               	bcf	status, 6	;RP1=0, select bank0
  2475  03FA  1303               	movf	(1+(?___fltol)),w
  2476  03FB  083F               	movwf	(_buffer+1)
  2477  03FC  00D0               	movf	(0+(?___fltol)),w
  2478  03FD  083E               	movwf	(_buffer)
  2479  03FE  00CF               	line	39
  2480                           	
  2481                           l3610:	
  2482  03FF                     ;Application.c: 39:     Decenas = (int)(buffer / 100);
  2483                           	movlw	064h
  2484  03FF  3064               	movwf	(___lwdiv@divisor)
  2485  0400  00A4               	movlw	0
  2486  0401  3000               	movwf	((___lwdiv@divisor))+1
  2487  0402  00A5               	movf	(_buffer+1),w
  2488  0403  0850               	movwf	(___lwdiv@dividend+1)
  2489  0404  00A7               	movf	(_buffer),w
  2490  0405  084F               	movwf	(___lwdiv@dividend)
  2491  0406  00A6               	fcall	___lwdiv
  2492  0407  120A  118A  26CA  120A  118A  	bcf	status, 5	;RP0=0, select bank0
  2493  040C  1283               	bcf	status, 6	;RP1=0, select bank0
  2494  040D  1303               	movf	(1+(?___lwdiv)),w
  2495  040E  0825               	movwf	(_Decenas+1)
  2496  040F  00EB               	movf	(0+(?___lwdiv)),w
  2497  0410  0824               	movwf	(_Decenas)
  2498  0411  00EA               	line	40
  2499                           	
  2500                           l3612:	
  2501  0412                     ;Application.c: 40:     Unidades = buffer - (Decenas * 100);
  2502                           	movlw	low(064h)
  2503  0412  3064               	bsf	status, 5	;RP0=1, select bank1
  2504  0413  1683               	bcf	status, 6	;RP1=0, select bank1
  2505  0414  1303               	movwf	(??_loop+0)^080h+0
  2506  0415  00C2               	movf	(??_loop+0)^080h+0,w
  2507  0416  0842               	bcf	status, 5	;RP0=0, select bank0
  2508  0417  1283               	bcf	status, 6	;RP1=0, select bank0
  2509  0418  1303               	movwf	(___bmul@multiplicand)
  2510  0419  00A4               	movf	(_Decenas),w
  2511  041A  086A               	fcall	___bmul
  2512  041B  120A  158A  27A0  120A  118A  	xorlw	0ffh
  2513  0420  3AFF               	addlw	1
  2514  0421  3E01               	bcf	status, 5	;RP0=0, select bank0
  2515  0422  1283               	bcf	status, 6	;RP1=0, select bank0
  2516  0423  1303               	addwf	(_buffer),w
  2517  0424  074F               	bsf	status, 5	;RP0=1, select bank1
  2518  0425  1683               	bcf	status, 6	;RP1=0, select bank1
  2519  0426  1303               	movwf	(??_loop+1)^080h+0
  2520  0427  00C3               	movf	(??_loop+1)^080h+0,w
  2521  0428  0843               	bcf	status, 5	;RP0=0, select bank0
  2522  0429  1283               	bcf	status, 6	;RP1=0, select bank0
  2523  042A  1303               	movwf	(_Unidades)
  2524  042B  00DF               	line	41
  2525                           ;Application.c: 41:     RPMs = (int)((625000 *60)/Period);
  2526                           	movlw	0x4c
  2527  042C  304C               	movwf	(___fldiv@b+3)
  2528  042D  00AB               	movlw	0xf
  2529  042E  300F               	movwf	(___fldiv@b+2)
  2530  042F  00AA               	movlw	0xd
  2531  0430  300D               	movwf	(___fldiv@b+1)
  2532  0431  00A9               	movlw	0x18
  2533  0432  3018               	movwf	(___fldiv@b)
  2534  0433  00A8               
  2535                           	movf	(_Period+3),w	;volatile
  2536  0434  0869               	movwf	(___fldiv@a+3)
  2537  0435  00A7               	movf	(_Period+2),w	;volatile
  2538  0436  0868               	movwf	(___fldiv@a+2)
  2539  0437  00A6               	movf	(_Period+1),w	;volatile
  2540  0438  0867               	movwf	(___fldiv@a+1)
  2541  0439  00A5               	movf	(_Period),w	;volatile
  2542  043A  0866               	movwf	(___fldiv@a)
  2543  043B  00A4               
  2544                           	fcall	___fldiv
  2545  043C  120A  118A  2026  120A  118A  	bcf	status, 5	;RP0=0, select bank0
  2546  0441  1283               	bcf	status, 6	;RP1=0, select bank0
  2547  0442  1303               	movf	(3+(?___fldiv)),w
  2548  0443  0827               	movwf	(___fltol@f1+3)
  2549  0444  00C1               	movf	(2+(?___fldiv)),w
  2550  0445  0826               	movwf	(___fltol@f1+2)
  2551  0446  00C0               	movf	(1+(?___fldiv)),w
  2552  0447  0825               	movwf	(___fltol@f1+1)
  2553  0448  00BF               	movf	(0+(?___fldiv)),w
  2554  0449  0824               	movwf	(___fltol@f1)
  2555  044A  00BE               
  2556                           	fcall	___fltol
  2557  044B  120A  118A  25D8  120A  118A  	bcf	status, 5	;RP0=0, select bank0
  2558  0450  1283               	bcf	status, 6	;RP1=0, select bank0
  2559  0451  1303               	movf	(1+(?___fltol)),w
  2560  0452  083F               	movwf	(_RPMs+1)
  2561  0453  00CA               	movf	(0+(?___fltol)),w
  2562  0454  083E               	movwf	(_RPMs)
  2563  0455  00C9               	line	42
  2564                           	
  2565                           l3614:	
  2566  0456                     ;Application.c: 42:     sprintf(data,"Freq : %u.%u Hz | RPMs : %u",Decenas,Unidades, RPM
                                 s);
  2567                           	movlw	(low((((STR_1)-__stringbase)|8000h)))&0ffh
  2568  0456  300B               	bsf	status, 5	;RP0=1, select bank1
  2569  0457  1683               	bcf	status, 6	;RP1=0, select bank1
  2570  0458  1303               	movwf	(??_loop+0)^080h+0
  2571  0459  00C2               	movf	(??_loop+0)^080h+0,w
  2572  045A  0842               	bcf	status, 5	;RP0=0, select bank0
  2573  045B  1283               	bcf	status, 6	;RP1=0, select bank0
  2574  045C  1303               	movwf	(sprintf@f)
  2575  045D  00B2               	movf	(_Decenas+1),w
  2576  045E  086B               	movwf	1+(?_sprintf)+01h
  2577  045F  00B4               	movf	(_Decenas),w
  2578  0460  086A               	movwf	0+(?_sprintf)+01h
  2579  0461  00B3               	movf	(_Unidades),w
  2580  0462  085F               	bsf	status, 5	;RP0=1, select bank1
  2581  0463  1683               	bcf	status, 6	;RP1=0, select bank1
  2582  0464  1303               	movwf	(??_loop+1)^080h+0
  2583  0465  00C3               	clrf	(??_loop+1)^080h+0+1
  2584  0466  01C4               	movf	0+(??_loop+1)^080h+0,w
  2585  0467  0843               	bcf	status, 5	;RP0=0, select bank0
  2586  0468  1283               	bcf	status, 6	;RP1=0, select bank0
  2587  0469  1303               	movwf	0+(?_sprintf)+03h
  2588  046A  00B5               	bsf	status, 5	;RP0=1, select bank1
  2589  046B  1683               	bcf	status, 6	;RP1=0, select bank1
  2590  046C  1303               	movf	1+(??_loop+1)^080h+0,w
  2591  046D  0844               	bcf	status, 5	;RP0=0, select bank0
  2592  046E  1283               	bcf	status, 6	;RP1=0, select bank0
  2593  046F  1303               	movwf	1+(?_sprintf)+03h
  2594  0470  00B6               	movf	(_RPMs+1),w
  2595  0471  084A               	movwf	1+(?_sprintf)+05h
  2596  0472  00B8               	movf	(_RPMs),w
  2597  0473  0849               	movwf	0+(?_sprintf)+05h
  2598  0474  00B7               	movlw	(low(_data|((0x0)<<8)))&0ffh
  2599  0475  30A4               	fcall	_sprintf
  2600  0476  120A  118A  222F  120A  118A  	line	43
  2601                           	
  2602                           l3616:	
  2603  047B                     ;Application.c: 43:     SerialPrintLn(data);
  2604                           	movlw	(low(_data|((0x0)<<8)))&0ffh
  2605  047B  30A4               	fcall	_SerialPrintLn
  2606  047C  120A  118A  2790  120A  118A  	line	44
  2607                           	
  2608                           l3618:	
  2609  0481                     ;Application.c: 44:     delay(200);
  2610                           	movlw	0C8h
  2611  0481  30C8               	bcf	status, 5	;RP0=0, select bank0
  2612  0482  1283               	bcf	status, 6	;RP1=0, select bank0
  2613  0483  1303               	movwf	(delay@milis)
  2614  0484  00A4               	movlw	0
  2615  0485  3000               	movwf	((delay@milis))+1
  2616  0486  00A5               	fcall	_delay
  2617  0487  120A  118A  2674  120A  118A  	line	45
  2618                           	
  2619                           l626:	
  2620  048C                     	return
  2621  048C  0008               	opt stack 0
  2622                           GLOBAL	__end_of_loop
  2623                           	__end_of_loop:
  2624  048D                     	signat	_loop,89
  2625                           	global	_sprintf
  2626                           
  2627 ;; *************** function _sprintf *****************
  2628 ;; Defined at:
  2629 ;;		line 500 in file "C:\Program Files (x86)\Microchip\xc8\v2.00\pic\sources\c90\common\doprnt.c"
  2630 ;; Parameters:    Size  Location     Type
  2631 ;;  sp              1    wreg     PTR unsigned char 
  2632 ;;		 -> data(30), 
  2633 ;;  f               1   18[BANK0 ] PTR const unsigned char 
  2634 ;;		 -> STR_1(28), 
  2635 ;; Auto vars:     Size  Location     Type
  2636 ;;  sp              1   33[BANK0 ] PTR unsigned char 
  2637 ;;		 -> data(30), 
  2638 ;;  tmpval          4    0        struct .
  2639 ;;  val             2   30[BANK0 ] unsigned int 
  2640 ;;  cp              2    0        PTR const unsigned char 
  2641 ;;  len             2    0        unsigned int 
  2642 ;;  c               1   34[BANK0 ] unsigned char 
  2643 ;;  prec            1   32[BANK0 ] char 
  2644 ;;  ap              1   29[BANK0 ] PTR void [1]
  2645 ;;		 -> ?_sprintf(2), 
  2646 ;;  flag            1   28[BANK0 ] unsigned char 
  2647 ;; Return value:  Size  Location     Type
  2648 ;;                  2   18[BANK0 ] int 
  2649 ;; Registers used:
  2650 ;;		wreg, fsr0l, fsr0h, status,2, status,0, btemp+1, pclath, cstack
  2651 ;; Tracked objects:
  2652 ;;		On entry : 0/0
  2653 ;;		On exit  : 0/0
  2654 ;;		Unchanged: 0/0
  2655 ;; Data sizes:     COMMON   BANK0   BANK1   BANK3   BANK2
  2656 ;;      Params:         0       7       0       0       0
  2657 ;;      Locals:         0       7       0       0       0
  2658 ;;      Temps:          0       3       0       0       0
  2659 ;;      Totals:         0      17       0       0       0
  2660 ;;Total ram usage:       17 bytes
  2661 ;; Hardware stack levels used:    1
  2662 ;; Hardware stack levels required when called:    3
  2663 ;; This function calls:
  2664 ;;		___lwdiv
  2665 ;;		___lwmod
  2666 ;; This function is called by:
  2667 ;;		_loop
  2668 ;; This function uses a non-reentrant model
  2669 ;;
  2670                           psect	text5,local,class=CODE,delta=2,merge=1,group=0
  2671                           	file	"C:\Program Files (x86)\Microchip\xc8\v2.00\pic\sources\c90\common\doprnt.c"
  2672                           	line	500
  2673                           global __ptext5
  2674                           __ptext5:	;psect for function _sprintf
  2675  022F                     psect	text5
  2676                           	file	"C:\Program Files (x86)\Microchip\xc8\v2.00\pic\sources\c90\common\doprnt.c"
  2677                           	line	500
  2678                           	global	__size_of_sprintf
  2679                           	__size_of_sprintf	equ	__end_of_sprintf-_sprintf
  2680  00E2                     	
  2681                           _sprintf:	
  2682  022F                     ;incstack = 0
  2683                           	opt	stack 3
  2684                           ; Regs used in _sprintf: [wreg-fsr0h+status,2+status,0+btemp+1+pclath+cstack]
  2685                           ;sprintf@sp stored from wreg
  2686                           	bcf	status, 5	;RP0=0, select bank0
  2687  022F  1283               	bcf	status, 6	;RP1=0, select bank0
  2688  0230  1303               	movwf	(sprintf@sp)
  2689  0231  00C1               	line	545
  2690                           	
  2691                           l2810:	
  2692  0232                     ;C:\Program Files (x86)\Microchip\xc8\v2.00\pic\sources\c90\common\doprnt.c: 500: sprint
                                 f(char * sp, const char * f, ...);C:\Program Files (x86)\Microchip\xc8\v2.00\pic\sources
                                 \c90\common\doprnt.c: 501: {;C:\Program Files (x86)\Microchip\xc8\v2.00\pic\sources\c90\
                                 common\doprnt.c: 502:  va_list ap;;C:\Program Files (x86)\Microchip\xc8\v2.00\pic\source
                                 s\c90\common\doprnt.c: 507:  char c;;C:\Program Files (x86)\Microchip\xc8\v2.00\pic\sour
                                 ces\c90\common\doprnt.c: 516:  signed char prec;;C:\Program Files (x86)\Microchip\xc8\v2
                                 .00\pic\sources\c90\common\doprnt.c: 520:  unsigned char flag;
  2693                           	movlw	(low(?_sprintf|((0x0)<<8)+01h))&0ffh
  2694  0232  3033               	movwf	(??_sprintf+0)+0
  2695  0233  00B9               	movf	(??_sprintf+0)+0,w
  2696  0234  0839               	movwf	(sprintf@ap)
  2697  0235  00BD               	line	548
  2698                           ;C:\Program Files (x86)\Microchip\xc8\v2.00\pic\sources\c90\common\doprnt.c: 548:  while
                                 ((c = *f++)) {
  2699                           	goto	l2852
  2700  0236  2AF7               	
  2701                           l724:	
  2702  0237                     	line	550
  2703                           	
  2704                           l2812:	
  2705  0237                     ;C:\Program Files (x86)\Microchip\xc8\v2.00\pic\sources\c90\common\doprnt.c: 550:   if(c
                                  != '%')
  2706                           		movlw	37
  2707  0237  3025               	xorwf	((sprintf@c)),w
  2708  0238  0642               	btfsc	status,2
  2709  0239  1903               	goto	u1901
  2710  023A  2A3C               	goto	u1900
  2711  023B  2A3D               u1901:
  2712  023C                     	goto	l2818
  2713  023C  2A49               u1900:
  2714  023D                     	line	553
  2715                           	
  2716                           l2814:	
  2717  023D                     ;C:\Program Files (x86)\Microchip\xc8\v2.00\pic\sources\c90\common\doprnt.c: 552:   {;C:
                                 \Program Files (x86)\Microchip\xc8\v2.00\pic\sources\c90\common\doprnt.c: 553:    ((*sp+
                                 + = (c)));
  2718                           	movf	(sprintf@c),w
  2719  023D  0842               	movwf	(??_sprintf+0)+0
  2720  023E  00B9               	movf	(sprintf@sp),w
  2721  023F  0841               	movwf	fsr0
  2722  0240  0084               	movf	(??_sprintf+0)+0,w
  2723  0241  0839               	bcf	status, 7	;select IRP bank0
  2724  0242  1383               	movwf	indf
  2725  0243  0080               	
  2726                           l2816:	
  2727  0244                     	movlw	low(01h)
  2728  0244  3001               	movwf	(??_sprintf+0)+0
  2729  0245  00B9               	movf	(??_sprintf+0)+0,w
  2730  0246  0839               	addwf	(sprintf@sp),f
  2731  0247  07C1               	line	554
  2732                           ;C:\Program Files (x86)\Microchip\xc8\v2.00\pic\sources\c90\common\doprnt.c: 554:    con
                                 tinue;
  2733                           	goto	l2852
  2734  0248  2AF7               	line	555
  2735                           ;C:\Program Files (x86)\Microchip\xc8\v2.00\pic\sources\c90\common\doprnt.c: 555:   }
  2736                           	
  2737                           l725:	
  2738  0249                     	line	560
  2739                           	
  2740                           l2818:	
  2741  0249                     ;C:\Program Files (x86)\Microchip\xc8\v2.00\pic\sources\c90\common\doprnt.c: 560:   flag
                                  = 0;
  2742                           	clrf	(sprintf@flag)
  2743  0249  01BC               	line	654
  2744                           ;C:\Program Files (x86)\Microchip\xc8\v2.00\pic\sources\c90\common\doprnt.c: 654:   swit
                                 ch(c = *f++) {
  2745                           	goto	l2824
  2746  024A  2A53               	line	656
  2747                           ;C:\Program Files (x86)\Microchip\xc8\v2.00\pic\sources\c90\common\doprnt.c: 656:   case
                                  0:
  2748                           	
  2749                           l727:	
  2750  024B                     	line	657
  2751                           ;C:\Program Files (x86)\Microchip\xc8\v2.00\pic\sources\c90\common\doprnt.c: 657:    got
                                 o alldone;
  2752                           	goto	l2854
  2753  024B  2B0B               	line	821
  2754                           ;C:\Program Files (x86)\Microchip\xc8\v2.00\pic\sources\c90\common\doprnt.c: 821:   defa
                                 ult:
  2755                           	
  2756                           l729:	
  2757  024C                     	line	832
  2758                           ;C:\Program Files (x86)\Microchip\xc8\v2.00\pic\sources\c90\common\doprnt.c: 832:    con
                                 tinue;
  2759                           	goto	l2852
  2760  024C  2AF7               	line	836
  2761                           ;C:\Program Files (x86)\Microchip\xc8\v2.00\pic\sources\c90\common\doprnt.c: 836:   case
                                  'u':
  2762                           	
  2763                           l730:	
  2764  024D                     	line	837
  2765                           	
  2766                           l2820:	
  2767  024D                     ;C:\Program Files (x86)\Microchip\xc8\v2.00\pic\sources\c90\common\doprnt.c: 837:    fla
                                 g |= 0xC0;
  2768                           	movlw	low(0C0h)
  2769  024D  30C0               	movwf	(??_sprintf+0)+0
  2770  024E  00B9               	movf	(??_sprintf+0)+0,w
  2771  024F  0839               	iorwf	(sprintf@flag),f
  2772  0250  04BC               	line	838
  2773                           ;C:\Program Files (x86)\Microchip\xc8\v2.00\pic\sources\c90\common\doprnt.c: 838:    bre
                                 ak;
  2774                           	goto	l2826
  2775  0251  2A6D               	line	841
  2776                           	
  2777                           l2822:	
  2778  0252                     ;C:\Program Files (x86)\Microchip\xc8\v2.00\pic\sources\c90\common\doprnt.c: 841:   }
  2779                           	goto	l2826
  2780  0252  2A6D               	
  2781                           l726:	
  2782  0253                     	
  2783                           l2824:	
  2784  0253                     	movlw	01h
  2785  0253  3001               	addwf	(sprintf@f),f
  2786  0254  07B2               	movlw	-01h
  2787  0255  30FF               	addwf	(sprintf@f),w
  2788  0256  0732               	movwf	fsr0
  2789  0257  0084               	fcall	stringdir
  2790  0258  120A  118A  27BE  120A  118A  	movwf	(sprintf@c)
  2791  025D  00C2               	movwf	(??_sprintf+0)+0
  2792  025E  00B9               	clrf	(??_sprintf+0)+0+1
  2793  025F  01BA               	; Switch on 2 bytes has been partitioned into a top level switch of size 1, and 1 sub-s
                                 witches
  2794                           ; Switch size 1, requested type "space"
  2795                           ; Number of cases is 1, Range of values is 0 to 0
  2796                           ; switch strategies available:
  2797                           ; Name         Instructions Cycles
  2798                           ; simple_byte            4     3 (average)
  2799                           ; direct_byte           11     8 (fixed)
  2800                           ; jumptable            260     6 (fixed)
  2801                           ;	Chosen strategy is simple_byte
  2802                           
  2803                           	movf 1+(??_sprintf+0)+0,w
  2804  0260  083A               	opt asmopt_push
  2805                           	opt asmopt_off
  2806                           	xorlw	0^0	; case 0
  2807  0261  3A00               	skipnz
  2808  0262  1903               	goto	l3644
  2809  0263  2A65               	goto	l2852
  2810  0264  2AF7               	opt asmopt_pop
  2811                           	
  2812                           l3644:	
  2813  0265                     ; Switch size 1, requested type "space"
  2814                           ; Number of cases is 2, Range of values is 0 to 117
  2815                           ; switch strategies available:
  2816                           ; Name         Instructions Cycles
  2817                           ; simple_byte            7     4 (average)
  2818                           ; jumptable            260     6 (fixed)
  2819                           ;	Chosen strategy is simple_byte
  2820                           
  2821                           	movf 0+(??_sprintf+0)+0,w
  2822  0265  0839               	opt asmopt_push
  2823                           	opt asmopt_off
  2824                           	xorlw	0^0	; case 0
  2825  0266  3A00               	skipnz
  2826  0267  1903               	goto	l2854
  2827  0268  2B0B               	xorlw	117^0	; case 117
  2828  0269  3A75               	skipnz
  2829  026A  1903               	goto	l2820
  2830  026B  2A4D               	goto	l2852
  2831  026C  2AF7               	opt asmopt_pop
  2832                           
  2833                           	
  2834                           l731:	
  2835  026D                     	line	1305
  2836                           	
  2837                           l2826:	
  2838  026D                     ;C:\Program Files (x86)\Microchip\xc8\v2.00\pic\sources\c90\common\doprnt.c: 1292:   {;C
                                 :\Program Files (x86)\Microchip\xc8\v2.00\pic\sources\c90\common\doprnt.c: 1305:     val
                                  = (*(unsigned *)__va_arg((*(unsigned **)ap), (unsigned)0));
  2839                           	movf	(sprintf@ap),w
  2840  026D  083D               	movwf	fsr0
  2841  026E  0084               	bcf	status, 7	;select IRP bank0
  2842  026F  1383               	movf	indf,w
  2843  0270  0800               	movwf	(sprintf@val)
  2844  0271  00BE               	incf	fsr0,f
  2845  0272  0A84               	movf	indf,w
  2846  0273  0800               	movwf	(sprintf@val+1)
  2847  0274  00BF               	
  2848                           l2828:	
  2849  0275                     	movlw	low(02h)
  2850  0275  3002               	movwf	(??_sprintf+0)+0
  2851  0276  00B9               	movf	(??_sprintf+0)+0,w
  2852  0277  0839               	addwf	(sprintf@ap),f
  2853  0278  07BD               	line	1324
  2854                           	
  2855                           l2830:	
  2856  0279                     ;C:\Program Files (x86)\Microchip\xc8\v2.00\pic\sources\c90\common\doprnt.c: 1306:   };C
                                 :\Program Files (x86)\Microchip\xc8\v2.00\pic\sources\c90\common\doprnt.c: 1324:    for(
                                 c = 1 ; c != sizeof dpowers/sizeof dpowers[0] ; c++)
  2857                           	clrf	(sprintf@c)
  2858  0279  01C2               	incf	(sprintf@c),f
  2859  027A  0AC2               	
  2860                           l2832:	
  2861  027B                     		movlw	5
  2862  027B  3005               	xorwf	((sprintf@c)),w
  2863  027C  0642               	btfss	status,2
  2864  027D  1D03               	goto	u1911
  2865  027E  2A80               	goto	u1910
  2866  027F  2A81               u1911:
  2867  0280                     	goto	l2836
  2868  0280  2A83               u1910:
  2869  0281                     	goto	l2842
  2870  0281  2AAB               	
  2871                           l2834:	
  2872  0282                     	goto	l2842
  2873  0282  2AAB               	
  2874                           l732:	
  2875  0283                     	line	1325
  2876                           	
  2877                           l2836:	
  2878  0283                     ;C:\Program Files (x86)\Microchip\xc8\v2.00\pic\sources\c90\common\doprnt.c: 1325:     i
                                 f(val < dpowers[c])
  2879                           	movf	(sprintf@c),w
  2880  0283  0842               	movwf	(??_sprintf+0)+0
  2881  0284  00B9               	addwf	(??_sprintf+0)+0,w
  2882  0285  0739               	addlw	low((((_dpowers)-__stringbase)|8000h))
  2883  0286  3E01               	movwf	fsr0
  2884  0287  0084               	fcall	stringdir
  2885  0288  120A  118A  27BE  120A  118A  	movwf	(??_sprintf+1)+0
  2886  028D  00BA               	fcall	stringdir
  2887  028E  120A  118A  27BE  120A  118A  	movwf	(??_sprintf+1)+0+1
  2888  0293  00BB               	movf	1+(??_sprintf+1)+0,w
  2889  0294  083B               	subwf	(sprintf@val+1),w
  2890  0295  023F               	skipz
  2891  0296  1D03               	goto	u1925
  2892  0297  2A9A               	movf	0+(??_sprintf+1)+0,w
  2893  0298  083A               	subwf	(sprintf@val),w
  2894  0299  023E               u1925:
  2895  029A                     	skipnc
  2896  029A  1803               	goto	u1921
  2897  029B  2A9D               	goto	u1920
  2898  029C  2A9E               u1921:
  2899  029D                     	goto	l2840
  2900  029D  2AA0               u1920:
  2901  029E                     	goto	l2842
  2902  029E  2AAB               	line	1326
  2903                           	
  2904                           l2838:	
  2905  029F                     ;C:\Program Files (x86)\Microchip\xc8\v2.00\pic\sources\c90\common\doprnt.c: 1326:      
                                 break;
  2906                           	goto	l2842
  2907  029F  2AAB               	
  2908                           l734:	
  2909  02A0                     	
  2910                           l2840:	
  2911  02A0                     	movlw	low(01h)
  2912  02A0  3001               	movwf	(??_sprintf+0)+0
  2913  02A1  00B9               	movf	(??_sprintf+0)+0,w
  2914  02A2  0839               	addwf	(sprintf@c),f
  2915  02A3  07C2               		movlw	5
  2916  02A4  3005               	xorwf	((sprintf@c)),w
  2917  02A5  0642               	btfss	status,2
  2918  02A6  1D03               	goto	u1931
  2919  02A7  2AA9               	goto	u1930
  2920  02A8  2AAA               u1931:
  2921  02A9                     	goto	l2836
  2922  02A9  2A83               u1930:
  2923  02AA                     	goto	l2842
  2924  02AA  2AAB               	
  2925                           l733:	
  2926  02AB                     	line	1491
  2927                           	
  2928                           l2842:	
  2929  02AB                     ;C:\Program Files (x86)\Microchip\xc8\v2.00\pic\sources\c90\common\doprnt.c: 1441:   {;C
                                 :\Program Files (x86)\Microchip\xc8\v2.00\pic\sources\c90\common\doprnt.c: 1488:   };C:\
                                 Program Files (x86)\Microchip\xc8\v2.00\pic\sources\c90\common\doprnt.c: 1491:   prec = 
                                 c;
  2930                           	movf	(sprintf@c),w
  2931  02AB  0842               	movwf	(??_sprintf+0)+0
  2932  02AC  00B9               	movf	(??_sprintf+0)+0,w
  2933  02AD  0839               	movwf	(sprintf@prec)
  2934  02AE  00C0               	line	1493
  2935                           ;C:\Program Files (x86)\Microchip\xc8\v2.00\pic\sources\c90\common\doprnt.c: 1493:   whi
                                 le(prec--) {
  2936                           	goto	l2850
  2937  02AF  2AEC               	
  2938                           l736:	
  2939  02B0                     	line	1508
  2940                           	
  2941                           l2844:	
  2942  02B0                     ;C:\Program Files (x86)\Microchip\xc8\v2.00\pic\sources\c90\common\doprnt.c: 1497:    {;
                                 C:\Program Files (x86)\Microchip\xc8\v2.00\pic\sources\c90\common\doprnt.c: 1508:     c 
                                 = (val / dpowers[prec]) % 10 + '0';
  2943                           	movlw	0Ah
  2944  02B0  300A               	movwf	(___lwmod@divisor)
  2945  02B1  00AC               	movlw	0
  2946  02B2  3000               	movwf	((___lwmod@divisor))+1
  2947  02B3  00AD               	movf	(sprintf@prec),w
  2948  02B4  0840               	movwf	(??_sprintf+0)+0
  2949  02B5  00B9               	addwf	(??_sprintf+0)+0,w
  2950  02B6  0739               	addlw	low((((_dpowers)-__stringbase)|8000h))
  2951  02B7  3E01               	movwf	fsr0
  2952  02B8  0084               	fcall	stringdir
  2953  02B9  120A  118A  27BE  120A  118A  	movwf	(___lwdiv@divisor)
  2954  02BE  00A4               	fcall	stringdir
  2955  02BF  120A  118A  27BE  120A  118A  	movwf	(___lwdiv@divisor+1)
  2956  02C4  00A5               	movf	(sprintf@val+1),w
  2957  02C5  083F               	movwf	(___lwdiv@dividend+1)
  2958  02C6  00A7               	movf	(sprintf@val),w
  2959  02C7  083E               	movwf	(___lwdiv@dividend)
  2960  02C8  00A6               	fcall	___lwdiv
  2961  02C9  120A  118A  26CA  120A  118A  	bcf	status, 5	;RP0=0, select bank0
  2962  02CE  1283               	bcf	status, 6	;RP1=0, select bank0
  2963  02CF  1303               	movf	(1+(?___lwdiv)),w
  2964  02D0  0825               	movwf	(___lwmod@dividend+1)
  2965  02D1  00AF               	movf	(0+(?___lwdiv)),w
  2966  02D2  0824               	movwf	(___lwmod@dividend)
  2967  02D3  00AE               	fcall	___lwmod
  2968  02D4  120A  118A  2717  120A  118A  	bcf	status, 5	;RP0=0, select bank0
  2969  02D9  1283               	bcf	status, 6	;RP1=0, select bank0
  2970  02DA  1303               	movf	(0+(?___lwmod)),w
  2971  02DB  082C               	addlw	030h
  2972  02DC  3E30               	movwf	(??_sprintf+1)+0
  2973  02DD  00BA               	movf	(??_sprintf+1)+0,w
  2974  02DE  083A               	movwf	(sprintf@c)
  2975  02DF  00C2               	line	1543
  2976                           	
  2977                           l2846:	
  2978  02E0                     ;C:\Program Files (x86)\Microchip\xc8\v2.00\pic\sources\c90\common\doprnt.c: 1542:    };
                                 C:\Program Files (x86)\Microchip\xc8\v2.00\pic\sources\c90\common\doprnt.c: 1543:    ((*
                                 sp++ = (c)));
  2979                           	movf	(sprintf@c),w
  2980  02E0  0842               	movwf	(??_sprintf+0)+0
  2981  02E1  00B9               	movf	(sprintf@sp),w
  2982  02E2  0841               	movwf	fsr0
  2983  02E3  0084               	movf	(??_sprintf+0)+0,w
  2984  02E4  0839               	bcf	status, 7	;select IRP bank0
  2985  02E5  1383               	movwf	indf
  2986  02E6  0080               	
  2987                           l2848:	
  2988  02E7                     	movlw	low(01h)
  2989  02E7  3001               	movwf	(??_sprintf+0)+0
  2990  02E8  00B9               	movf	(??_sprintf+0)+0,w
  2991  02E9  0839               	addwf	(sprintf@sp),f
  2992  02EA  07C1               	goto	l2850
  2993  02EB  2AEC               	line	1544
  2994                           ;C:\Program Files (x86)\Microchip\xc8\v2.00\pic\sources\c90\common\doprnt.c: 1544:   }
  2995                           	
  2996                           l735:	
  2997  02EC                     	line	1493
  2998                           	
  2999                           l2850:	
  3000  02EC                     ;C:\Program Files (x86)\Microchip\xc8\v2.00\pic\sources\c90\common\doprnt.c: 1493:   whi
                                 le(prec--) {
  3001                           	movlw	low(-1)
  3002  02EC  30FF               	movwf	(??_sprintf+0)+0
  3003  02ED  00B9               	movf	(??_sprintf+0)+0,w
  3004  02EE  0839               	addwf	(sprintf@prec),f
  3005  02EF  07C0               		incf	(((sprintf@prec))),w
  3006  02F0  0A40               	btfss	status,2
  3007  02F1  1D03               	goto	u1941
  3008  02F2  2AF4               	goto	u1940
  3009  02F3  2AF5               u1941:
  3010  02F4                     	goto	l2844
  3011  02F4  2AB0               u1940:
  3012  02F5                     	goto	l2852
  3013  02F5  2AF7               	
  3014                           l737:	
  3015  02F6                     	goto	l2852
  3016  02F6  2AF7               	line	1552
  3017                           ;C:\Program Files (x86)\Microchip\xc8\v2.00\pic\sources\c90\common\doprnt.c: 1552:  }
  3018                           	
  3019                           l723:	
  3020  02F7                     	line	548
  3021                           	
  3022                           l2852:	
  3023  02F7                     ;C:\Program Files (x86)\Microchip\xc8\v2.00\pic\sources\c90\common\doprnt.c: 548:  while
                                 ((c = *f++)) {
  3024                           	movlw	01h
  3025  02F7  3001               	addwf	(sprintf@f),f
  3026  02F8  07B2               	movlw	-01h
  3027  02F9  30FF               	addwf	(sprintf@f),w
  3028  02FA  0732               	movwf	fsr0
  3029  02FB  0084               	fcall	stringdir
  3030  02FC  120A  118A  27BE  120A  118A  	movwf	(??_sprintf+0)+0
  3031  0301  00B9               	movf	(??_sprintf+0)+0,w
  3032  0302  0839               	movwf	(sprintf@c)
  3033  0303  00C2               	movf	(((sprintf@c))),w
  3034  0304  0842               	btfss	status,2
  3035  0305  1D03               	goto	u1951
  3036  0306  2B08               	goto	u1950
  3037  0307  2B09               u1951:
  3038  0308                     	goto	l2812
  3039  0308  2A37               u1950:
  3040  0309                     	goto	l2854
  3041  0309  2B0B               	
  3042                           l738:	
  3043  030A                     	goto	l2854
  3044  030A  2B0B               	line	1554
  3045                           ;C:\Program Files (x86)\Microchip\xc8\v2.00\pic\sources\c90\common\doprnt.c: 1554: alldo
                                 ne:
  3046                           	
  3047                           l728:	
  3048  030B                     	line	1557
  3049                           	
  3050                           l2854:	
  3051  030B                     ;C:\Program Files (x86)\Microchip\xc8\v2.00\pic\sources\c90\common\doprnt.c: 1557:  *sp 
                                 = 0;
  3052                           	movf	(sprintf@sp),w
  3053  030B  0841               	movwf	fsr0
  3054  030C  0084               	bcf	status, 7	;select IRP bank0
  3055  030D  1383               	clrf	indf
  3056  030E  0180               	goto	l739
  3057  030F  2B10               	line	1559
  3058                           	
  3059                           l2856:	
  3060  0310                     	line	1560
  3061                           ;C:\Program Files (x86)\Microchip\xc8\v2.00\pic\sources\c90\common\doprnt.c: 1559:  retu
                                 rn 0;;	Return value of _sprintf is never used
  3062                           	
  3063                           l739:	
  3064  0310                     	return
  3065  0310  0008               	opt stack 0
  3066                           GLOBAL	__end_of_sprintf
  3067                           	__end_of_sprintf:
  3068  0311                     	signat	_sprintf,4698
  3069                           	global	___lwmod
  3070                           
  3071 ;; *************** function ___lwmod *****************
  3072 ;; Defined at:
  3073 ;;		line 5 in file "C:\Program Files (x86)\Microchip\xc8\v2.00\pic\sources\c90\common\lwmod.c"
  3074 ;; Parameters:    Size  Location     Type
  3075 ;;  divisor         2   12[BANK0 ] unsigned int 
  3076 ;;  dividend        2   14[BANK0 ] unsigned int 
  3077 ;; Auto vars:     Size  Location     Type
  3078 ;;  counter         1   17[BANK0 ] unsigned char 
  3079 ;; Return value:  Size  Location     Type
  3080 ;;                  2   12[BANK0 ] unsigned int 
  3081 ;; Registers used:
  3082 ;;		wreg, status,2, status,0
  3083 ;; Tracked objects:
  3084 ;;		On entry : 0/0
  3085 ;;		On exit  : 0/0
  3086 ;;		Unchanged: 0/0
  3087 ;; Data sizes:     COMMON   BANK0   BANK1   BANK3   BANK2
  3088 ;;      Params:         0       4       0       0       0
  3089 ;;      Locals:         0       1       0       0       0
  3090 ;;      Temps:          0       1       0       0       0
  3091 ;;      Totals:         0       6       0       0       0
  3092 ;;Total ram usage:        6 bytes
  3093 ;; Hardware stack levels used:    1
  3094 ;; Hardware stack levels required when called:    2
  3095 ;; This function calls:
  3096 ;;		Nothing
  3097 ;; This function is called by:
  3098 ;;		_sprintf
  3099 ;; This function uses a non-reentrant model
  3100 ;;
  3101                           psect	text6,local,class=CODE,delta=2,merge=1,group=1
  3102                           	file	"C:\Program Files (x86)\Microchip\xc8\v2.00\pic\sources\c90\common\lwmod.c"
  3103                           	line	5
  3104                           global __ptext6
  3105                           __ptext6:	;psect for function ___lwmod
  3106  0717                     psect	text6
  3107                           	file	"C:\Program Files (x86)\Microchip\xc8\v2.00\pic\sources\c90\common\lwmod.c"
  3108                           	line	5
  3109                           	global	__size_of___lwmod
  3110                           	__size_of___lwmod	equ	__end_of___lwmod-___lwmod
  3111  0043                     	
  3112                           ___lwmod:	
  3113  0717                     ;incstack = 0
  3114                           	opt	stack 3
  3115                           ; Regs used in ___lwmod: [wreg+status,2+status,0]
  3116                           	line	12
  3117                           	
  3118                           l2706:	
  3119  0717                     	bcf	status, 5	;RP0=0, select bank0
  3120  0717  1283               	bcf	status, 6	;RP1=0, select bank0
  3121  0718  1303               	movf	((___lwmod@divisor)),w
  3122  0719  082C               iorwf	((___lwmod@divisor+1)),w
  3123  071A  042D               	btfsc	status,2
  3124  071B  1903               	goto	u1761
  3125  071C  2F1E               	goto	u1760
  3126  071D  2F1F               u1761:
  3127  071E                     	goto	l2724
  3128  071E  2F54               u1760:
  3129  071F                     	line	13
  3130                           	
  3131                           l2708:	
  3132  071F                     	clrf	(___lwmod@counter)
  3133  071F  01B1               	incf	(___lwmod@counter),f
  3134  0720  0AB1               	line	14
  3135                           	goto	l2714
  3136  0721  2F2E               	
  3137                           l1020:	
  3138  0722                     	line	15
  3139                           	
  3140                           l2710:	
  3141  0722                     	movlw	01h
  3142  0722  3001               	
  3143                           u1775:
  3144  0723                     	clrc
  3145  0723  1003               	rlf	(___lwmod@divisor),f
  3146  0724  0DAC               	rlf	(___lwmod@divisor+1),f
  3147  0725  0DAD               	addlw	-1
  3148  0726  3EFF               	skipz
  3149  0727  1D03               	goto	u1775
  3150  0728  2F23               	line	16
  3151                           	
  3152                           l2712:	
  3153  0729                     	movlw	low(01h)
  3154  0729  3001               	movwf	(??___lwmod+0)+0
  3155  072A  00B0               	movf	(??___lwmod+0)+0,w
  3156  072B  0830               	addwf	(___lwmod@counter),f
  3157  072C  07B1               	goto	l2714
  3158  072D  2F2E               	line	17
  3159                           	
  3160                           l1019:	
  3161  072E                     	line	14
  3162                           	
  3163                           l2714:	
  3164  072E                     	btfss	(___lwmod@divisor+1),(15)&7
  3165  072E  1FAD               	goto	u1781
  3166  072F  2F31               	goto	u1780
  3167  0730  2F32               u1781:
  3168  0731                     	goto	l2710
  3169  0731  2F22               u1780:
  3170  0732                     	goto	l2716
  3171  0732  2F34               	
  3172                           l1021:	
  3173  0733                     	goto	l2716
  3174  0733  2F34               	line	18
  3175                           	
  3176                           l1022:	
  3177  0734                     	line	19
  3178                           	
  3179                           l2716:	
  3180  0734                     	movf	(___lwmod@divisor+1),w
  3181  0734  082D               	subwf	(___lwmod@dividend+1),w
  3182  0735  022F               	skipz
  3183  0736  1D03               	goto	u1795
  3184  0737  2F3A               	movf	(___lwmod@divisor),w
  3185  0738  082C               	subwf	(___lwmod@dividend),w
  3186  0739  022E               u1795:
  3187  073A                     	skipc
  3188  073A  1C03               	goto	u1791
  3189  073B  2F3D               	goto	u1790
  3190  073C  2F3E               u1791:
  3191  073D                     	goto	l2720
  3192  073D  2F45               u1790:
  3193  073E                     	line	20
  3194                           	
  3195                           l2718:	
  3196  073E                     	movf	(___lwmod@divisor),w
  3197  073E  082C               	subwf	(___lwmod@dividend),f
  3198  073F  02AE               	movf	(___lwmod@divisor+1),w
  3199  0740  082D               	skipc
  3200  0741  1C03               	decf	(___lwmod@dividend+1),f
  3201  0742  03AF               	subwf	(___lwmod@dividend+1),f
  3202  0743  02AF               	goto	l2720
  3203  0744  2F45               	
  3204                           l1023:	
  3205  0745                     	line	21
  3206                           	
  3207                           l2720:	
  3208  0745                     	movlw	01h
  3209  0745  3001               	
  3210                           u1805:
  3211  0746                     	clrc
  3212  0746  1003               	rrf	(___lwmod@divisor+1),f
  3213  0747  0CAD               	rrf	(___lwmod@divisor),f
  3214  0748  0CAC               	addlw	-1
  3215  0749  3EFF               	skipz
  3216  074A  1D03               	goto	u1805
  3217  074B  2F46               	line	22
  3218                           	
  3219                           l2722:	
  3220  074C                     	movlw	01h
  3221  074C  3001               	subwf	(___lwmod@counter),f
  3222  074D  02B1               	btfss	status,2
  3223  074E  1D03               	goto	u1811
  3224  074F  2F51               	goto	u1810
  3225  0750  2F52               u1811:
  3226  0751                     	goto	l2716
  3227  0751  2F34               u1810:
  3228  0752                     	goto	l2724
  3229  0752  2F54               	
  3230                           l1024:	
  3231  0753                     	goto	l2724
  3232  0753  2F54               	line	23
  3233                           	
  3234                           l1018:	
  3235  0754                     	line	24
  3236                           	
  3237                           l2724:	
  3238  0754                     	movf	(___lwmod@dividend+1),w
  3239  0754  082F               	movwf	(?___lwmod+1)
  3240  0755  00AD               	movf	(___lwmod@dividend),w
  3241  0756  082E               	movwf	(?___lwmod)
  3242  0757  00AC               	goto	l1025
  3243  0758  2F59               	
  3244                           l2726:	
  3245  0759                     	line	25
  3246                           	
  3247                           l1025:	
  3248  0759                     	return
  3249  0759  0008               	opt stack 0
  3250                           GLOBAL	__end_of___lwmod
  3251                           	__end_of___lwmod:
  3252  075A                     	signat	___lwmod,8314
  3253                           	global	___lwdiv
  3254                           
  3255 ;; *************** function ___lwdiv *****************
  3256 ;; Defined at:
  3257 ;;		line 5 in file "C:\Program Files (x86)\Microchip\xc8\v2.00\pic\sources\c90\common\lwdiv.c"
  3258 ;; Parameters:    Size  Location     Type
  3259 ;;  divisor         2    4[BANK0 ] unsigned int 
  3260 ;;  dividend        2    6[BANK0 ] unsigned int 
  3261 ;; Auto vars:     Size  Location     Type
  3262 ;;  quotient        2    9[BANK0 ] unsigned int 
  3263 ;;  counter         1   11[BANK0 ] unsigned char 
  3264 ;; Return value:  Size  Location     Type
  3265 ;;                  2    4[BANK0 ] unsigned int 
  3266 ;; Registers used:
  3267 ;;		wreg, status,2, status,0
  3268 ;; Tracked objects:
  3269 ;;		On entry : 0/0
  3270 ;;		On exit  : 0/0
  3271 ;;		Unchanged: 0/0
  3272 ;; Data sizes:     COMMON   BANK0   BANK1   BANK3   BANK2
  3273 ;;      Params:         0       4       0       0       0
  3274 ;;      Locals:         0       3       0       0       0
  3275 ;;      Temps:          0       1       0       0       0
  3276 ;;      Totals:         0       8       0       0       0
  3277 ;;Total ram usage:        8 bytes
  3278 ;; Hardware stack levels used:    1
  3279 ;; Hardware stack levels required when called:    2
  3280 ;; This function calls:
  3281 ;;		Nothing
  3282 ;; This function is called by:
  3283 ;;		_loop
  3284 ;;		_sprintf
  3285 ;; This function uses a non-reentrant model
  3286 ;;
  3287                           psect	text7,local,class=CODE,delta=2,merge=1,group=1
  3288                           	file	"C:\Program Files (x86)\Microchip\xc8\v2.00\pic\sources\c90\common\lwdiv.c"
  3289                           	line	5
  3290                           global __ptext7
  3291                           __ptext7:	;psect for function ___lwdiv
  3292  06CA                     psect	text7
  3293                           	file	"C:\Program Files (x86)\Microchip\xc8\v2.00\pic\sources\c90\common\lwdiv.c"
  3294                           	line	5
  3295                           	global	__size_of___lwdiv
  3296                           	__size_of___lwdiv	equ	__end_of___lwdiv-___lwdiv
  3297  004D                     	
  3298                           ___lwdiv:	
  3299  06CA                     ;incstack = 0
  3300                           	opt	stack 3
  3301                           ; Regs used in ___lwdiv: [wreg+status,2+status,0]
  3302                           	line	13
  3303                           	
  3304                           l2680:	
  3305  06CA                     	bcf	status, 5	;RP0=0, select bank0
  3306  06CA  1283               	bcf	status, 6	;RP1=0, select bank0
  3307  06CB  1303               	clrf	(___lwdiv@quotient)
  3308  06CC  01A9               	clrf	(___lwdiv@quotient+1)
  3309  06CD  01AA               	line	14
  3310                           	
  3311                           l2682:	
  3312  06CE                     	movf	((___lwdiv@divisor)),w
  3313  06CE  0824               iorwf	((___lwdiv@divisor+1)),w
  3314  06CF  0425               	btfsc	status,2
  3315  06D0  1903               	goto	u1691
  3316  06D1  2ED3               	goto	u1690
  3317  06D2  2ED4               u1691:
  3318  06D3                     	goto	l2702
  3319  06D3  2F11               u1690:
  3320  06D4                     	line	15
  3321                           	
  3322                           l2684:	
  3323  06D4                     	clrf	(___lwdiv@counter)
  3324  06D4  01AB               	incf	(___lwdiv@counter),f
  3325  06D5  0AAB               	line	16
  3326                           	goto	l2690
  3327  06D6  2EE3               	
  3328                           l1010:	
  3329  06D7                     	line	17
  3330                           	
  3331                           l2686:	
  3332  06D7                     	movlw	01h
  3333  06D7  3001               	
  3334                           u1705:
  3335  06D8                     	clrc
  3336  06D8  1003               	rlf	(___lwdiv@divisor),f
  3337  06D9  0DA4               	rlf	(___lwdiv@divisor+1),f
  3338  06DA  0DA5               	addlw	-1
  3339  06DB  3EFF               	skipz
  3340  06DC  1D03               	goto	u1705
  3341  06DD  2ED8               	line	18
  3342                           	
  3343                           l2688:	
  3344  06DE                     	movlw	low(01h)
  3345  06DE  3001               	movwf	(??___lwdiv+0)+0
  3346  06DF  00A8               	movf	(??___lwdiv+0)+0,w
  3347  06E0  0828               	addwf	(___lwdiv@counter),f
  3348  06E1  07AB               	goto	l2690
  3349  06E2  2EE3               	line	19
  3350                           	
  3351                           l1009:	
  3352  06E3                     	line	16
  3353                           	
  3354                           l2690:	
  3355  06E3                     	btfss	(___lwdiv@divisor+1),(15)&7
  3356  06E3  1FA5               	goto	u1711
  3357  06E4  2EE6               	goto	u1710
  3358  06E5  2EE7               u1711:
  3359  06E6                     	goto	l2686
  3360  06E6  2ED7               u1710:
  3361  06E7                     	goto	l2692
  3362  06E7  2EE9               	
  3363                           l1011:	
  3364  06E8                     	goto	l2692
  3365  06E8  2EE9               	line	20
  3366                           	
  3367                           l1012:	
  3368  06E9                     	line	21
  3369                           	
  3370                           l2692:	
  3371  06E9                     	movlw	01h
  3372  06E9  3001               	
  3373                           u1725:
  3374  06EA                     	clrc
  3375  06EA  1003               	rlf	(___lwdiv@quotient),f
  3376  06EB  0DA9               	rlf	(___lwdiv@quotient+1),f
  3377  06EC  0DAA               	addlw	-1
  3378  06ED  3EFF               	skipz
  3379  06EE  1D03               	goto	u1725
  3380  06EF  2EEA               	line	22
  3381                           	movf	(___lwdiv@divisor+1),w
  3382  06F0  0825               	subwf	(___lwdiv@dividend+1),w
  3383  06F1  0227               	skipz
  3384  06F2  1D03               	goto	u1735
  3385  06F3  2EF6               	movf	(___lwdiv@divisor),w
  3386  06F4  0824               	subwf	(___lwdiv@dividend),w
  3387  06F5  0226               u1735:
  3388  06F6                     	skipc
  3389  06F6  1C03               	goto	u1731
  3390  06F7  2EF9               	goto	u1730
  3391  06F8  2EFA               u1731:
  3392  06F9                     	goto	l2698
  3393  06F9  2F02               u1730:
  3394  06FA                     	line	23
  3395                           	
  3396                           l2694:	
  3397  06FA                     	movf	(___lwdiv@divisor),w
  3398  06FA  0824               	subwf	(___lwdiv@dividend),f
  3399  06FB  02A6               	movf	(___lwdiv@divisor+1),w
  3400  06FC  0825               	skipc
  3401  06FD  1C03               	decf	(___lwdiv@dividend+1),f
  3402  06FE  03A7               	subwf	(___lwdiv@dividend+1),f
  3403  06FF  02A7               	line	24
  3404                           	
  3405                           l2696:	
  3406  0700                     	bsf	(___lwdiv@quotient)+(0/8),(0)&7
  3407  0700  1429               	goto	l2698
  3408  0701  2F02               	line	25
  3409                           	
  3410                           l1013:	
  3411  0702                     	line	26
  3412                           	
  3413                           l2698:	
  3414  0702                     	movlw	01h
  3415  0702  3001               	
  3416                           u1745:
  3417  0703                     	clrc
  3418  0703  1003               	rrf	(___lwdiv@divisor+1),f
  3419  0704  0CA5               	rrf	(___lwdiv@divisor),f
  3420  0705  0CA4               	addlw	-1
  3421  0706  3EFF               	skipz
  3422  0707  1D03               	goto	u1745
  3423  0708  2F03               	line	27
  3424                           	
  3425                           l2700:	
  3426  0709                     	movlw	01h
  3427  0709  3001               	subwf	(___lwdiv@counter),f
  3428  070A  02AB               	btfss	status,2
  3429  070B  1D03               	goto	u1751
  3430  070C  2F0E               	goto	u1750
  3431  070D  2F0F               u1751:
  3432  070E                     	goto	l2692
  3433  070E  2EE9               u1750:
  3434  070F                     	goto	l2702
  3435  070F  2F11               	
  3436                           l1014:	
  3437  0710                     	goto	l2702
  3438  0710  2F11               	line	28
  3439                           	
  3440                           l1008:	
  3441  0711                     	line	29
  3442                           	
  3443                           l2702:	
  3444  0711                     	movf	(___lwdiv@quotient+1),w
  3445  0711  082A               	movwf	(?___lwdiv+1)
  3446  0712  00A5               	movf	(___lwdiv@quotient),w
  3447  0713  0829               	movwf	(?___lwdiv)
  3448  0714  00A4               	goto	l1015
  3449  0715  2F16               	
  3450                           l2704:	
  3451  0716                     	line	30
  3452                           	
  3453                           l1015:	
  3454  0716                     	return
  3455  0716  0008               	opt stack 0
  3456                           GLOBAL	__end_of___lwdiv
  3457                           	__end_of___lwdiv:
  3458  0717                     	signat	___lwdiv,8314
  3459                           	global	_delay
  3460                           
  3461 ;; *************** function _delay *****************
  3462 ;; Defined at:
  3463 ;;		line 755 in file "source.c"
  3464 ;; Parameters:    Size  Location     Type
  3465 ;;  milis           2    4[BANK0 ] const int 
  3466 ;; Auto vars:     Size  Location     Type
  3467 ;;  i               2    9[BANK0 ] int 
  3468 ;;  j               2    7[BANK0 ] int 
  3469 ;; Return value:  Size  Location     Type
  3470 ;;                  1    wreg      void 
  3471 ;; Registers used:
  3472 ;;		wreg, status,2, btemp+1
  3473 ;; Tracked objects:
  3474 ;;		On entry : 0/0
  3475 ;;		On exit  : 0/0
  3476 ;;		Unchanged: 0/0
  3477 ;; Data sizes:     COMMON   BANK0   BANK1   BANK3   BANK2
  3478 ;;      Params:         0       2       0       0       0
  3479 ;;      Locals:         0       4       0       0       0
  3480 ;;      Temps:          0       1       0       0       0
  3481 ;;      Totals:         0       7       0       0       0
  3482 ;;Total ram usage:        7 bytes
  3483 ;; Hardware stack levels used:    1
  3484 ;; Hardware stack levels required when called:    2
  3485 ;; This function calls:
  3486 ;;		Nothing
  3487 ;; This function is called by:
  3488 ;;		_loop
  3489 ;;		_lcdBegin
  3490 ;;		_lcdWrite
  3491 ;;		_WriteInstruction
  3492 ;;		_WriteData
  3493 ;; This function uses a non-reentrant model
  3494 ;;
  3495                           psect	text8,local,class=CODE,delta=2,merge=1,group=0
  3496                           	file	"source.c"
  3497                           	line	755
  3498                           global __ptext8
  3499                           __ptext8:	;psect for function _delay
  3500  0674                     psect	text8
  3501                           	file	"source.c"
  3502                           	line	755
  3503                           	global	__size_of_delay
  3504                           	__size_of_delay	equ	__end_of_delay-_delay
  3505  0056                     	
  3506                           _delay:	
  3507  0674                     ;incstack = 0
  3508                           	opt	stack 4
  3509                           ; Regs used in _delay: [wreg+status,2+btemp+1]
  3510                           	line	757
  3511                           	
  3512                           l2728:	
  3513  0674                     ;source.c: 755: void delay(const int milis);source.c: 756: {;source.c: 757:     for(int 
                                 j=0;j<milis;j++)
  3514                           	bcf	status, 5	;RP0=0, select bank0
  3515  0674  1283               	bcf	status, 6	;RP1=0, select bank0
  3516  0675  1303               	clrf	(delay@j)
  3517  0676  01A7               	clrf	(delay@j+1)
  3518  0677  01A8               	
  3519                           l2730:	
  3520  0678                     	movf	(delay@j+1),w
  3521  0678  0828               	xorlw	80h
  3522  0679  3A80               	movwf	(??_delay+0)+0
  3523  067A  00A6               	movf	(delay@milis+1),w
  3524  067B  0825               	xorlw	80h
  3525  067C  3A80               	subwf	(??_delay+0)+0,w
  3526  067D  0226               	skipz
  3527  067E  1D03               	goto	u1825
  3528  067F  2E82               	movf	(delay@milis),w
  3529  0680  0824               	subwf	(delay@j),w
  3530  0681  0227               u1825:
  3531  0682                     
  3532                           	skipc
  3533  0682  1C03               	goto	u1821
  3534  0683  2E85               	goto	u1820
  3535  0684  2E86               u1821:
  3536  0685                     	goto	l2734
  3537  0685  2E88               u1820:
  3538  0686                     	goto	l530
  3539  0686  2EC9               	
  3540                           l2732:	
  3541  0687                     	goto	l530
  3542  0687  2EC9               	
  3543                           l526:	
  3544  0688                     	line	760
  3545                           	
  3546                           l2734:	
  3547  0688                     ;source.c: 758:     {;source.c: 760:         for(int i=0;i<236;i++)
  3548                           	bcf	status, 5	;RP0=0, select bank0
  3549  0688  1283               	bcf	status, 6	;RP1=0, select bank0
  3550  0689  1303               	clrf	(delay@i)
  3551  068A  01A9               	clrf	(delay@i+1)
  3552  068B  01AA               	
  3553                           l2736:	
  3554  068C                     	movf	(delay@i+1),w
  3555  068C  082A               	xorlw	80h
  3556  068D  3A80               	movwf	btemp+1
  3557  068E  00FF               	movlw	(0)^80h
  3558  068F  3080               	subwf	btemp+1,w
  3559  0690  027F               	skipz
  3560  0691  1D03               	goto	u1835
  3561  0692  2E95               	movlw	0ECh
  3562  0693  30EC               	subwf	(delay@i),w
  3563  0694  0229               u1835:
  3564  0695                     
  3565                           	skipc
  3566  0695  1C03               	goto	u1831
  3567  0696  2E98               	goto	u1830
  3568  0697  2E99               u1831:
  3569  0698                     	goto	l528
  3570  0698  2E9B               u1830:
  3571  0699                     	goto	l2744
  3572  0699  2EB2               	
  3573                           l2738:	
  3574  069A                     	goto	l2744
  3575  069A  2EB2               	
  3576                           l528:	
  3577  069B                     	line	762
  3578                           # 762 "source.c"
  3579                           NOP ;# 
  3580  069B  0000               psect	text8
  3581                           	line	763
  3582                           	
  3583                           l2740:	
  3584  069C                     ;source.c: 763:         }
  3585                           	movlw	01h
  3586  069C  3001               	bcf	status, 5	;RP0=0, select bank0
  3587  069D  1283               	bcf	status, 6	;RP1=0, select bank0
  3588  069E  1303               	addwf	(delay@i),f
  3589  069F  07A9               	skipnc
  3590  06A0  1803               	incf	(delay@i+1),f
  3591  06A1  0AAA               	movlw	0
  3592  06A2  3000               	addwf	(delay@i+1),f
  3593  06A3  07AA               	
  3594                           l2742:	
  3595  06A4                     	movf	(delay@i+1),w
  3596  06A4  082A               	xorlw	80h
  3597  06A5  3A80               	movwf	btemp+1
  3598  06A6  00FF               	movlw	(0)^80h
  3599  06A7  3080               	subwf	btemp+1,w
  3600  06A8  027F               	skipz
  3601  06A9  1D03               	goto	u1845
  3602  06AA  2EAD               	movlw	0ECh
  3603  06AB  30EC               	subwf	(delay@i),w
  3604  06AC  0229               u1845:
  3605  06AD                     
  3606                           	skipc
  3607  06AD  1C03               	goto	u1841
  3608  06AE  2EB0               	goto	u1840
  3609  06AF  2EB1               u1841:
  3610  06B0                     	goto	l528
  3611  06B0  2E9B               u1840:
  3612  06B1                     	goto	l2744
  3613  06B1  2EB2               	
  3614                           l529:	
  3615  06B2                     	line	764
  3616                           	
  3617                           l2744:	
  3618  06B2                     ;source.c: 764:     }
  3619                           	movlw	01h
  3620  06B2  3001               	bcf	status, 5	;RP0=0, select bank0
  3621  06B3  1283               	bcf	status, 6	;RP1=0, select bank0
  3622  06B4  1303               	addwf	(delay@j),f
  3623  06B5  07A7               	skipnc
  3624  06B6  1803               	incf	(delay@j+1),f
  3625  06B7  0AA8               	movlw	0
  3626  06B8  3000               	addwf	(delay@j+1),f
  3627  06B9  07A8               	movf	(delay@j+1),w
  3628  06BA  0828               	xorlw	80h
  3629  06BB  3A80               	movwf	(??_delay+0)+0
  3630  06BC  00A6               	movf	(delay@milis+1),w
  3631  06BD  0825               	xorlw	80h
  3632  06BE  3A80               	subwf	(??_delay+0)+0,w
  3633  06BF  0226               	skipz
  3634  06C0  1D03               	goto	u1855
  3635  06C1  2EC4               	movf	(delay@milis),w
  3636  06C2  0824               	subwf	(delay@j),w
  3637  06C3  0227               u1855:
  3638  06C4                     
  3639                           	skipc
  3640  06C4  1C03               	goto	u1851
  3641  06C5  2EC7               	goto	u1850
  3642  06C6  2EC8               u1851:
  3643  06C7                     	goto	l2734
  3644  06C7  2E88               u1850:
  3645  06C8                     	goto	l530
  3646  06C8  2EC9               	
  3647                           l527:	
  3648  06C9                     	line	765
  3649                           	
  3650                           l530:	
  3651  06C9                     	return
  3652  06C9  0008               	opt stack 0
  3653                           GLOBAL	__end_of_delay
  3654                           	__end_of_delay:
  3655  06CA                     	signat	_delay,4217
  3656                           	global	___fltol
  3657                           
  3658 ;; *************** function ___fltol *****************
  3659 ;; Defined at:
  3660 ;;		line 43 in file "C:\Program Files (x86)\Microchip\xc8\v2.00\pic\sources\c90\common\fltol.c"
  3661 ;; Parameters:    Size  Location     Type
  3662 ;;  f1              4   30[BANK0 ] void 
  3663 ;; Auto vars:     Size  Location     Type
  3664 ;;  exp1            1   40[BANK0 ] unsigned char 
  3665 ;;  sign1           1   39[BANK0 ] unsigned char 
  3666 ;; Return value:  Size  Location     Type
  3667 ;;                  4   30[BANK0 ] long 
  3668 ;; Registers used:
  3669 ;;		wreg, status,2, status,0
  3670 ;; Tracked objects:
  3671 ;;		On entry : 0/0
  3672 ;;		On exit  : 0/0
  3673 ;;		Unchanged: 0/0
  3674 ;; Data sizes:     COMMON   BANK0   BANK1   BANK3   BANK2
  3675 ;;      Params:         0       4       0       0       0
  3676 ;;      Locals:         0       2       0       0       0
  3677 ;;      Temps:          0       5       0       0       0
  3678 ;;      Totals:         0      11       0       0       0
  3679 ;;Total ram usage:       11 bytes
  3680 ;; Hardware stack levels used:    1
  3681 ;; Hardware stack levels required when called:    2
  3682 ;; This function calls:
  3683 ;;		Nothing
  3684 ;; This function is called by:
  3685 ;;		_loop
  3686 ;; This function uses a non-reentrant model
  3687 ;;
  3688                           psect	text9,local,class=CODE,delta=2,merge=1,group=1
  3689                           	file	"C:\Program Files (x86)\Microchip\xc8\v2.00\pic\sources\c90\common\fltol.c"
  3690                           	line	43
  3691                           global __ptext9
  3692                           __ptext9:	;psect for function ___fltol
  3693  05D8                     psect	text9
  3694                           	file	"C:\Program Files (x86)\Microchip\xc8\v2.00\pic\sources\c90\common\fltol.c"
  3695                           	line	43
  3696                           	global	__size_of___fltol
  3697                           	__size_of___fltol	equ	__end_of___fltol-___fltol
  3698  009C                     	
  3699                           ___fltol:	
  3700  05D8                     ;incstack = 0
  3701                           	opt	stack 4
  3702                           ; Regs used in ___fltol: [wreg+status,2+status,0]
  3703                           	line	47
  3704                           	
  3705                           l2876:	
  3706  05D8                     	bcf	status, 5	;RP0=0, select bank0
  3707  05D8  1283               	bcf	status, 6	;RP1=0, select bank0
  3708  05D9  1303               	movf	(___fltol@f1),w
  3709  05DA  083E               	movwf	(??___fltol+0)+0
  3710  05DB  00C2               	movf	(___fltol@f1+1),w
  3711  05DC  083F               	movwf	((??___fltol+0)+0+1)
  3712  05DD  00C3               	movf	(___fltol@f1+2),w
  3713  05DE  0840               	movwf	((??___fltol+0)+0+2)
  3714  05DF  00C4               	movf	(___fltol@f1+3),w
  3715  05E0  0841               	movwf	((??___fltol+0)+0+3)
  3716  05E1  00C5               	clrc
  3717  05E2  1003               	rlf	(??___fltol+0)+2,w
  3718  05E3  0D44               	rlf	(??___fltol+0)+3,w
  3719  05E4  0D45               	movwf	(??___fltol+4)+0
  3720  05E5  00C6               	movf	(??___fltol+4)+0,w
  3721  05E6  0846               	movwf	(___fltol@exp1)
  3722  05E7  00C8               	movf	(((___fltol@exp1))),w
  3723  05E8  0848               	btfss	status,2
  3724  05E9  1D03               	goto	u1981
  3725  05EA  2DEC               	goto	u1980
  3726  05EB  2DED               u1981:
  3727  05EC                     	goto	l2882
  3728  05EC  2DF7               u1980:
  3729  05ED                     	line	48
  3730                           	
  3731                           l2878:	
  3732  05ED                     	movlw	high highword(0)
  3733  05ED  3000               	movwf	(?___fltol+3)
  3734  05EE  00C1               	movlw	low highword(0)
  3735  05EF  3000               	movwf	(?___fltol+2)
  3736  05F0  00C0               	movlw	high(0)
  3737  05F1  3000               	movwf	(?___fltol+1)
  3738  05F2  00BF               	movlw	low(0)
  3739  05F3  3000               	movwf	(?___fltol)
  3740  05F4  00BE               
  3741                           	goto	l929
  3742  05F5  2E73               	
  3743                           l2880:	
  3744  05F6                     	goto	l929
  3745  05F6  2E73               	
  3746                           l928:	
  3747  05F7                     	line	49
  3748                           	
  3749                           l2882:	
  3750  05F7                     	movf	(___fltol@f1),w
  3751  05F7  083E               	movwf	(??___fltol+0)+0
  3752  05F8  00C2               	movf	(___fltol@f1+1),w
  3753  05F9  083F               	movwf	((??___fltol+0)+0+1)
  3754  05FA  00C3               	movf	(___fltol@f1+2),w
  3755  05FB  0840               	movwf	((??___fltol+0)+0+2)
  3756  05FC  00C4               	movf	(___fltol@f1+3),w
  3757  05FD  0841               	movwf	((??___fltol+0)+0+3)
  3758  05FE  00C5               	movlw	01Fh
  3759  05FF  301F               u1995:
  3760  0600                     	clrc
  3761  0600  1003               	rrf	(??___fltol+0)+3,f
  3762  0601  0CC5               	rrf	(??___fltol+0)+2,f
  3763  0602  0CC4               	rrf	(??___fltol+0)+1,f
  3764  0603  0CC3               	rrf	(??___fltol+0)+0,f
  3765  0604  0CC2               u1990:
  3766  0605                     	addlw	-1
  3767  0605  3EFF               	skipz
  3768  0606  1D03               	goto	u1995
  3769  0607  2E00               	movf	0+(??___fltol+0)+0,w
  3770  0608  0842               	movwf	(??___fltol+4)+0
  3771  0609  00C6               	movf	(??___fltol+4)+0,w
  3772  060A  0846               	movwf	(___fltol@sign1)
  3773  060B  00C7               	line	50
  3774                           	
  3775                           l2884:	
  3776  060C                     	bsf	(___fltol@f1)+(23/8),(23)&7
  3777  060C  17C0               	line	51
  3778                           	
  3779                           l2886:	
  3780  060D                     	movlw	0FFh
  3781  060D  30FF               	andwf	(___fltol@f1),f
  3782  060E  05BE               	movlw	0FFh
  3783  060F  30FF               	andwf	(___fltol@f1+1),f
  3784  0610  05BF               	movlw	0FFh
  3785  0611  30FF               	andwf	(___fltol@f1+2),f
  3786  0612  05C0               	movlw	0
  3787  0613  3000               	andwf	(___fltol@f1+3),f
  3788  0614  05C1               	line	52
  3789                           	
  3790                           l2888:	
  3791  0615                     	movlw	096h
  3792  0615  3096               	subwf	(___fltol@exp1),f
  3793  0616  02C8               	line	53
  3794                           	
  3795                           l2890:	
  3796  0617                     	btfss	(___fltol@exp1),7
  3797  0617  1FC8               	goto	u2001
  3798  0618  2E1A               	goto	u2000
  3799  0619  2E1B               u2001:
  3800  061A                     	goto	l2900
  3801  061A  2E40               u2000:
  3802  061B                     	line	54
  3803                           	
  3804                           l2892:	
  3805  061B                     	movf	(___fltol@exp1),w
  3806  061B  0848               	xorlw	80h
  3807  061C  3A80               	addlw	-((-23)^80h)
  3808  061D  3E97               	skipnc
  3809  061E  1803               	goto	u2011
  3810  061F  2E21               	goto	u2010
  3811  0620  2E22               u2011:
  3812  0621                     	goto	l2898
  3813  0621  2E2D               u2010:
  3814  0622                     	line	55
  3815                           	
  3816                           l2894:	
  3817  0622                     	movlw	high highword(0)
  3818  0622  3000               	movwf	(?___fltol+3)
  3819  0623  00C1               	movlw	low highword(0)
  3820  0624  3000               	movwf	(?___fltol+2)
  3821  0625  00C0               	movlw	high(0)
  3822  0626  3000               	movwf	(?___fltol+1)
  3823  0627  00BF               	movlw	low(0)
  3824  0628  3000               	movwf	(?___fltol)
  3825  0629  00BE               
  3826                           	goto	l929
  3827  062A  2E73               	
  3828                           l2896:	
  3829  062B                     	goto	l929
  3830  062B  2E73               	
  3831                           l931:	
  3832  062C                     	goto	l2898
  3833  062C  2E2D               	line	56
  3834                           	
  3835                           l932:	
  3836  062D                     	line	57
  3837                           	
  3838                           l2898:	
  3839  062D                     	movlw	01h
  3840  062D  3001               u2025:
  3841  062E                     	clrc
  3842  062E  1003               	rrf	(___fltol@f1+3),f
  3843  062F  0CC1               	rrf	(___fltol@f1+2),f
  3844  0630  0CC0               	rrf	(___fltol@f1+1),f
  3845  0631  0CBF               	rrf	(___fltol@f1),f
  3846  0632  0CBE               	addlw	-1
  3847  0633  3EFF               	skipz
  3848  0634  1D03               	goto	u2025
  3849  0635  2E2E               
  3850                           	line	58
  3851                           	movlw	low(01h)
  3852  0636  3001               	movwf	(??___fltol+0)+0
  3853  0637  00C2               	movf	(??___fltol+0)+0,w
  3854  0638  0842               	addwf	(___fltol@exp1),f
  3855  0639  07C8               	btfss	status,2
  3856  063A  1D03               	goto	u2031
  3857  063B  2E3D               	goto	u2030
  3858  063C  2E3E               u2031:
  3859  063D                     	goto	l2898
  3860  063D  2E2D               u2030:
  3861  063E                     	goto	l2908
  3862  063E  2E63               	
  3863                           l933:	
  3864  063F                     	line	59
  3865                           	goto	l2908
  3866  063F  2E63               	
  3867                           l930:	
  3868  0640                     	line	60
  3869                           	
  3870                           l2900:	
  3871  0640                     	movlw	low(020h)
  3872  0640  3020               	subwf	(___fltol@exp1),w
  3873  0641  0248               	skipc
  3874  0642  1C03               	goto	u2041
  3875  0643  2E45               	goto	u2040
  3876  0644  2E46               u2041:
  3877  0645                     	goto	l936
  3878  0645  2E5C               u2040:
  3879  0646                     	line	61
  3880                           	
  3881                           l2902:	
  3882  0646                     	movlw	high highword(0)
  3883  0646  3000               	movwf	(?___fltol+3)
  3884  0647  00C1               	movlw	low highword(0)
  3885  0648  3000               	movwf	(?___fltol+2)
  3886  0649  00C0               	movlw	high(0)
  3887  064A  3000               	movwf	(?___fltol+1)
  3888  064B  00BF               	movlw	low(0)
  3889  064C  3000               	movwf	(?___fltol)
  3890  064D  00BE               
  3891                           	goto	l929
  3892  064E  2E73               	
  3893                           l2904:	
  3894  064F                     	goto	l929
  3895  064F  2E73               	
  3896                           l935:	
  3897  0650                     	line	62
  3898                           	goto	l936
  3899  0650  2E5C               	
  3900                           l937:	
  3901  0651                     	line	63
  3902                           	
  3903                           l2906:	
  3904  0651                     	movlw	01h
  3905  0651  3001               	movwf	(??___fltol+0)+0
  3906  0652  00C2               u2055:
  3907  0653                     	clrc
  3908  0653  1003               	rlf	(___fltol@f1),f
  3909  0654  0DBE               	rlf	(___fltol@f1+1),f
  3910  0655  0DBF               	rlf	(___fltol@f1+2),f
  3911  0656  0DC0               	rlf	(___fltol@f1+3),f
  3912  0657  0DC1               	decfsz	(??___fltol+0)+0
  3913  0658  0BC2               	goto	u2055
  3914  0659  2E53               	line	64
  3915                           	movlw	01h
  3916  065A  3001               	subwf	(___fltol@exp1),f
  3917  065B  02C8               	line	65
  3918                           	
  3919                           l936:	
  3920  065C                     	line	62
  3921                           	movf	((___fltol@exp1)),w
  3922  065C  0848               	btfss	status,2
  3923  065D  1D03               	goto	u2061
  3924  065E  2E60               	goto	u2060
  3925  065F  2E61               u2061:
  3926  0660                     	goto	l2906
  3927  0660  2E51               u2060:
  3928  0661                     	goto	l2908
  3929  0661  2E63               	
  3930                           l938:	
  3931  0662                     	goto	l2908
  3932  0662  2E63               	line	66
  3933                           	
  3934                           l934:	
  3935  0663                     	line	67
  3936                           	
  3937                           l2908:	
  3938  0663                     	movf	((___fltol@sign1)),w
  3939  0663  0847               	btfsc	status,2
  3940  0664  1903               	goto	u2071
  3941  0665  2E67               	goto	u2070
  3942  0666  2E68               u2071:
  3943  0667                     	goto	l939
  3944  0667  2E73               u2070:
  3945  0668                     	line	68
  3946                           	
  3947                           l2910:	
  3948  0668                     	comf	(___fltol@f1),f
  3949  0668  09BE               	comf	(___fltol@f1+1),f
  3950  0669  09BF               	comf	(___fltol@f1+2),f
  3951  066A  09C0               	comf	(___fltol@f1+3),f
  3952  066B  09C1               	incf	(___fltol@f1),f
  3953  066C  0ABE               	skipnz
  3954  066D  1903               	incf	(___fltol@f1+1),f
  3955  066E  0ABF               	skipnz
  3956  066F  1903               	incf	(___fltol@f1+2),f
  3957  0670  0AC0               	skipnz
  3958  0671  1903               	incf	(___fltol@f1+3),f
  3959  0672  0AC1               	
  3960                           l939:	
  3961  0673                     	line	69
  3962                           	line	70
  3963                           	
  3964                           l929:	
  3965  0673                     	return
  3966  0673  0008               	opt stack 0
  3967                           GLOBAL	__end_of___fltol
  3968                           	__end_of___fltol:
  3969  0674                     	signat	___fltol,4220
  3970                           	global	___fldiv
  3971                           
  3972 ;; *************** function ___fldiv *****************
  3973 ;; Defined at:
  3974 ;;		line 8 in file "C:\Program Files (x86)\Microchip\xc8\v2.00\pic\sources\c90\common\sprcdiv.c"
  3975 ;; Parameters:    Size  Location     Type
  3976 ;;  a               4    4[BANK0 ] long 
  3977 ;;  b               4    8[BANK0 ] long 
  3978 ;; Auto vars:     Size  Location     Type
  3979 ;;  grs             4   24[BANK0 ] unsigned long 
  3980 ;;  rem             4   17[BANK0 ] unsigned long 
  3981 ;;  new_exp         2   22[BANK0 ] int 
  3982 ;;  aexp            1   29[BANK0 ] unsigned char 
  3983 ;;  bexp            1   28[BANK0 ] unsigned char 
  3984 ;;  sign            1   21[BANK0 ] unsigned char 
  3985 ;; Return value:  Size  Location     Type
  3986 ;;                  4    4[BANK0 ] unsigned char 
  3987 ;; Registers used:
  3988 ;;		wreg, status,2, status,0, btemp+1
  3989 ;; Tracked objects:
  3990 ;;		On entry : 0/0
  3991 ;;		On exit  : 0/0
  3992 ;;		Unchanged: 0/0
  3993 ;; Data sizes:     COMMON   BANK0   BANK1   BANK3   BANK2
  3994 ;;      Params:         0       8       0       0       0
  3995 ;;      Locals:         0      13       0       0       0
  3996 ;;      Temps:          0       5       0       0       0
  3997 ;;      Totals:         0      26       0       0       0
  3998 ;;Total ram usage:       26 bytes
  3999 ;; Hardware stack levels used:    1
  4000 ;; Hardware stack levels required when called:    2
  4001 ;; This function calls:
  4002 ;;		Nothing
  4003 ;; This function is called by:
  4004 ;;		_loop
  4005 ;;		_rescale
  4006 ;; This function uses a non-reentrant model
  4007 ;;
  4008                           psect	text10,local,class=CODE,delta=2,merge=1,group=1
  4009                           	file	"C:\Program Files (x86)\Microchip\xc8\v2.00\pic\sources\c90\common\sprcdiv.c"
  4010                           	line	8
  4011                           global __ptext10
  4012                           __ptext10:	;psect for function ___fldiv
  4013  0026                     psect	text10
  4014                           	file	"C:\Program Files (x86)\Microchip\xc8\v2.00\pic\sources\c90\common\sprcdiv.c"
  4015                           	line	8
  4016                           	global	__size_of___fldiv
  4017                           	__size_of___fldiv	equ	__end_of___fldiv-___fldiv
  4018  0209                     	
  4019                           ___fldiv:	
  4020  0026                     ;incstack = 0
  4021                           	opt	stack 4
  4022                           ; Regs used in ___fldiv: [wreg+status,2+status,0+btemp+1]
  4023                           	line	26
  4024                           	
  4025                           l2912:	
  4026  0026                     	bcf	status, 5	;RP0=0, select bank0
  4027  0026  1283               	bcf	status, 6	;RP1=0, select bank0
  4028  0027  1303               	movf	0+(___fldiv@b)+03h,w
  4029  0028  082B               	andlw	080h
  4030  0029  3980               	movwf	(??___fldiv+0)+0
  4031  002A  00AC               	movf	(??___fldiv+0)+0,w
  4032  002B  082C               	movwf	(___fldiv@sign)
  4033  002C  00B5               	line	27
  4034                           	
  4035                           l2914:	
  4036  002D                     	movf	0+(___fldiv@b)+03h,w
  4037  002D  082B               	movwf	(??___fldiv+0)+0
  4038  002E  00AC               	addwf	(??___fldiv+0)+0,w
  4039  002F  072C               	movwf	(??___fldiv+1)+0
  4040  0030  00AD               	movf	(??___fldiv+1)+0,w
  4041  0031  082D               	movwf	(___fldiv@bexp)
  4042  0032  00BC               	line	28
  4043                           	
  4044                           l2916:	
  4045  0033                     	btfss	0+(___fldiv@b)+02h,(7)&7
  4046  0033  1FAA               	goto	u2081
  4047  0034  2836               	goto	u2080
  4048  0035  2837               u2081:
  4049  0036                     	goto	l2920
  4050  0036  2839               u2080:
  4051  0037                     	line	29
  4052                           	
  4053                           l2918:	
  4054  0037                     	bsf	(___fldiv@bexp)+(0/8),(0)&7
  4055  0037  143C               	goto	l2920
  4056  0038  2839               	line	30
  4057                           	
  4058                           l1085:	
  4059  0039                     	line	33
  4060                           	
  4061                           l2920:	
  4062  0039                     	movf	((___fldiv@bexp)),w
  4063  0039  083C               	btfsc	status,2
  4064  003A  1903               	goto	u2091
  4065  003B  283D               	goto	u2090
  4066  003C  283E               u2091:
  4067  003D                     	goto	l2930
  4068  003D  284F               u2090:
  4069  003E                     	line	35
  4070                           	
  4071                           l2922:	
  4072  003E                     		incf	((___fldiv@bexp)),w
  4073  003E  0A3C               	btfss	status,2
  4074  003F  1D03               	goto	u2101
  4075  0040  2842               	goto	u2100
  4076  0041  2843               u2101:
  4077  0042                     	goto	l2926
  4078  0042  284C               u2100:
  4079  0043                     	line	37
  4080                           	
  4081                           l2924:	
  4082  0043                     	movlw	0x0
  4083  0043  3000               	movwf	(___fldiv@b+3)
  4084  0044  00AB               	movlw	0x0
  4085  0045  3000               	movwf	(___fldiv@b+2)
  4086  0046  00AA               	movlw	0x0
  4087  0047  3000               	movwf	(___fldiv@b+1)
  4088  0048  00A9               	movlw	0x0
  4089  0049  3000               	movwf	(___fldiv@b)
  4090  004A  00A8               
  4091                           	goto	l2926
  4092  004B  284C               	line	38
  4093                           	
  4094                           l1087:	
  4095  004C                     	line	40
  4096                           	
  4097                           l2926:	
  4098  004C                     	bsf	(___fldiv@b)+(23/8),(23)&7
  4099  004C  17AA               	line	42
  4100                           	
  4101                           l2928:	
  4102  004D                     	clrf	0+(___fldiv@b)+03h
  4103  004D  01AB               	line	43
  4104                           	goto	l2932
  4105  004E  2858               	line	44
  4106                           	
  4107                           l1086:	
  4108  004F                     	line	46
  4109                           	
  4110                           l2930:	
  4111  004F                     	movlw	0x0
  4112  004F  3000               	movwf	(___fldiv@b+3)
  4113  0050  00AB               	movlw	0x0
  4114  0051  3000               	movwf	(___fldiv@b+2)
  4115  0052  00AA               	movlw	0x0
  4116  0053  3000               	movwf	(___fldiv@b+1)
  4117  0054  00A9               	movlw	0x0
  4118  0055  3000               	movwf	(___fldiv@b)
  4119  0056  00A8               
  4120                           	goto	l2932
  4121  0057  2858               	line	47
  4122                           	
  4123                           l1088:	
  4124  0058                     	line	49
  4125                           	
  4126                           l2932:	
  4127  0058                     	movf	0+(___fldiv@a)+03h,w
  4128  0058  0827               	andlw	080h
  4129  0059  3980               	movwf	(??___fldiv+0)+0
  4130  005A  00AC               	movf	(??___fldiv+0)+0,w
  4131  005B  082C               	xorwf	(___fldiv@sign),f
  4132  005C  06B5               	line	50
  4133                           	
  4134                           l2934:	
  4135  005D                     	movf	0+(___fldiv@a)+03h,w
  4136  005D  0827               	movwf	(??___fldiv+0)+0
  4137  005E  00AC               	addwf	(??___fldiv+0)+0,w
  4138  005F  072C               	movwf	(??___fldiv+1)+0
  4139  0060  00AD               	movf	(??___fldiv+1)+0,w
  4140  0061  082D               	movwf	(___fldiv@aexp)
  4141  0062  00BD               	line	51
  4142                           	
  4143                           l2936:	
  4144  0063                     	btfss	0+(___fldiv@a)+02h,(7)&7
  4145  0063  1FA6               	goto	u2111
  4146  0064  2866               	goto	u2110
  4147  0065  2867               u2111:
  4148  0066                     	goto	l2940
  4149  0066  2869               u2110:
  4150  0067                     	line	52
  4151                           	
  4152                           l2938:	
  4153  0067                     	bsf	(___fldiv@aexp)+(0/8),(0)&7
  4154  0067  143D               	goto	l2940
  4155  0068  2869               	line	53
  4156                           	
  4157                           l1089:	
  4158  0069                     	line	56
  4159                           	
  4160                           l2940:	
  4161  0069                     	movf	((___fldiv@aexp)),w
  4162  0069  083D               	btfsc	status,2
  4163  006A  1903               	goto	u2121
  4164  006B  286D               	goto	u2120
  4165  006C  286E               u2121:
  4166  006D                     	goto	l2950
  4167  006D  287F               u2120:
  4168  006E                     	line	58
  4169                           	
  4170                           l2942:	
  4171  006E                     		incf	((___fldiv@aexp)),w
  4172  006E  0A3D               	btfss	status,2
  4173  006F  1D03               	goto	u2131
  4174  0070  2872               	goto	u2130
  4175  0071  2873               u2131:
  4176  0072                     	goto	l2946
  4177  0072  287C               u2130:
  4178  0073                     	line	60
  4179                           	
  4180                           l2944:	
  4181  0073                     	movlw	0x0
  4182  0073  3000               	movwf	(___fldiv@a+3)
  4183  0074  00A7               	movlw	0x0
  4184  0075  3000               	movwf	(___fldiv@a+2)
  4185  0076  00A6               	movlw	0x0
  4186  0077  3000               	movwf	(___fldiv@a+1)
  4187  0078  00A5               	movlw	0x0
  4188  0079  3000               	movwf	(___fldiv@a)
  4189  007A  00A4               
  4190                           	goto	l2946
  4191  007B  287C               	line	61
  4192                           	
  4193                           l1091:	
  4194  007C                     	line	63
  4195                           	
  4196                           l2946:	
  4197  007C                     	bsf	(___fldiv@a)+(23/8),(23)&7
  4198  007C  17A6               	line	65
  4199                           	
  4200                           l2948:	
  4201  007D                     	clrf	0+(___fldiv@a)+03h
  4202  007D  01A7               	line	66
  4203                           	goto	l1092
  4204  007E  2887               	line	67
  4205                           	
  4206                           l1090:	
  4207  007F                     	line	69
  4208                           	
  4209                           l2950:	
  4210  007F                     	movlw	0x0
  4211  007F  3000               	movwf	(___fldiv@a+3)
  4212  0080  00A7               	movlw	0x0
  4213  0081  3000               	movwf	(___fldiv@a+2)
  4214  0082  00A6               	movlw	0x0
  4215  0083  3000               	movwf	(___fldiv@a+1)
  4216  0084  00A5               	movlw	0x0
  4217  0085  3000               	movwf	(___fldiv@a)
  4218  0086  00A4               
  4219                           	line	70
  4220                           	
  4221                           l1092:	
  4222  0087                     	line	75
  4223                           	movf	(___fldiv@a+3),w
  4224  0087  0827               	iorwf	(___fldiv@a+2),w
  4225  0088  0426               	iorwf	(___fldiv@a+1),w
  4226  0089  0425               	iorwf	(___fldiv@a),w
  4227  008A  0424               	skipz
  4228  008B  1D03               	goto	u2141
  4229  008C  288E               	goto	u2140
  4230  008D  288F               u2141:
  4231  008E                     	goto	l2960
  4232  008E  28A9               u2140:
  4233  008F                     	line	76
  4234                           	
  4235                           l2952:	
  4236  008F                     	movlw	high highword(0)
  4237  008F  3000               	movwf	(___fldiv@b+3)
  4238  0090  00AB               	movlw	low highword(0)
  4239  0091  3000               	movwf	(___fldiv@b+2)
  4240  0092  00AA               	movlw	high(0)
  4241  0093  3000               	movwf	(___fldiv@b+1)
  4242  0094  00A9               	movlw	low(0)
  4243  0095  3000               	movwf	(___fldiv@b)
  4244  0096  00A8               
  4245                           	line	77
  4246                           	movlw	080h
  4247  0097  3080               	iorwf	0+(___fldiv@b)+02h,f
  4248  0098  04AA               	movlw	07Fh
  4249  0099  307F               	iorwf	1+(___fldiv@b)+02h,f
  4250  009A  04AB               	line	78
  4251                           	
  4252                           l2954:	
  4253  009B                     	movf	(___fldiv@sign),w
  4254  009B  0835               	movwf	(??___fldiv+0)+0
  4255  009C  00AC               	movf	(??___fldiv+0)+0,w
  4256  009D  082C               	iorwf	0+(___fldiv@b)+03h,f
  4257  009E  04AB               	line	79
  4258                           	
  4259                           l2956:	
  4260  009F                     	movf	(___fldiv@b+3),w
  4261  009F  082B               	movwf	(?___fldiv+3)
  4262  00A0  00A7               	movf	(___fldiv@b+2),w
  4263  00A1  082A               	movwf	(?___fldiv+2)
  4264  00A2  00A6               	movf	(___fldiv@b+1),w
  4265  00A3  0829               	movwf	(?___fldiv+1)
  4266  00A4  00A5               	movf	(___fldiv@b),w
  4267  00A5  0828               	movwf	(?___fldiv)
  4268  00A6  00A4               
  4269                           	goto	l1094
  4270  00A7  2A2E               	
  4271                           l2958:	
  4272  00A8                     	goto	l1094
  4273  00A8  2A2E               	line	80
  4274                           	
  4275                           l1093:	
  4276  00A9                     	line	83
  4277                           	
  4278                           l2960:	
  4279  00A9                     	movf	((___fldiv@bexp)),w
  4280  00A9  083C               	btfss	status,2
  4281  00AA  1D03               	goto	u2151
  4282  00AB  28AD               	goto	u2150
  4283  00AC  28AE               u2151:
  4284  00AD                     	goto	l2966
  4285  00AD  28C0               u2150:
  4286  00AE                     	line	84
  4287                           	
  4288                           l2962:	
  4289  00AE                     	movlw	high highword(0)
  4290  00AE  3000               	movwf	(___fldiv@b+3)
  4291  00AF  00AB               	movlw	low highword(0)
  4292  00B0  3000               	movwf	(___fldiv@b+2)
  4293  00B1  00AA               	movlw	high(0)
  4294  00B2  3000               	movwf	(___fldiv@b+1)
  4295  00B3  00A9               	movlw	low(0)
  4296  00B4  3000               	movwf	(___fldiv@b)
  4297  00B5  00A8               
  4298                           	line	85
  4299                           	movf	(___fldiv@b+3),w
  4300  00B6  082B               	movwf	(?___fldiv+3)
  4301  00B7  00A7               	movf	(___fldiv@b+2),w
  4302  00B8  082A               	movwf	(?___fldiv+2)
  4303  00B9  00A6               	movf	(___fldiv@b+1),w
  4304  00BA  0829               	movwf	(?___fldiv+1)
  4305  00BB  00A5               	movf	(___fldiv@b),w
  4306  00BC  0828               	movwf	(?___fldiv)
  4307  00BD  00A4               
  4308                           	goto	l1094
  4309  00BE  2A2E               	
  4310                           l2964:	
  4311  00BF                     	goto	l1094
  4312  00BF  2A2E               	line	86
  4313                           	
  4314                           l1095:	
  4315  00C0                     	line	89
  4316                           	
  4317                           l2966:	
  4318  00C0                     	movf	(___fldiv@aexp),w
  4319  00C0  083D               	movwf	(??___fldiv+0)+0
  4320  00C1  00AC               	clrf	(??___fldiv+0)+0+1
  4321  00C2  01AD               	comf	(??___fldiv+0)+0,f
  4322  00C3  09AC               	comf	(??___fldiv+0)+1,f
  4323  00C4  09AD               	incf	(??___fldiv+0)+0,f
  4324  00C5  0AAC               	skipnz
  4325  00C6  1903               	incf	(??___fldiv+0)+1,f
  4326  00C7  0AAD               	movf	(___fldiv@bexp),w
  4327  00C8  083C               	addwf	0+(??___fldiv+0)+0,w
  4328  00C9  072C               	movwf	(??___fldiv+2)+0
  4329  00CA  00AE               	movf	1+(??___fldiv+0)+0,w
  4330  00CB  082D               	skipnc
  4331  00CC  1803               	incf	1+(??___fldiv+0)+0,w
  4332  00CD  0A2D               	movwf	((??___fldiv+2)+0)+1
  4333  00CE  00AF               	movf	0+(??___fldiv+2)+0,w
  4334  00CF  082E               	addlw	low(07Fh)
  4335  00D0  3E7F               	movwf	(___fldiv@new_exp)
  4336  00D1  00B6               	movf	1+(??___fldiv+2)+0,w
  4337  00D2  082F               	skipnc
  4338  00D3  1803               	addlw	1
  4339  00D4  3E01               	addlw	high(07Fh)
  4340  00D5  3E00               	movwf	1+(___fldiv@new_exp)
  4341  00D6  00B7               	line	92
  4342                           	
  4343                           l2968:	
  4344  00D7                     	movf	(___fldiv@b+3),w
  4345  00D7  082B               	movwf	(___fldiv@rem+3)
  4346  00D8  00B4               	movf	(___fldiv@b+2),w
  4347  00D9  082A               	movwf	(___fldiv@rem+2)
  4348  00DA  00B3               	movf	(___fldiv@b+1),w
  4349  00DB  0829               	movwf	(___fldiv@rem+1)
  4350  00DC  00B2               	movf	(___fldiv@b),w
  4351  00DD  0828               	movwf	(___fldiv@rem)
  4352  00DE  00B1               
  4353                           	line	93
  4354                           	
  4355                           l2970:	
  4356  00DF                     	movlw	high highword(0)
  4357  00DF  3000               	movwf	(___fldiv@b+3)
  4358  00E0  00AB               	movlw	low highword(0)
  4359  00E1  3000               	movwf	(___fldiv@b+2)
  4360  00E2  00AA               	movlw	high(0)
  4361  00E3  3000               	movwf	(___fldiv@b+1)
  4362  00E4  00A9               	movlw	low(0)
  4363  00E5  3000               	movwf	(___fldiv@b)
  4364  00E6  00A8               
  4365                           	line	94
  4366                           	
  4367                           l2972:	
  4368  00E7                     	movlw	high highword(0)
  4369  00E7  3000               	movwf	(___fldiv@grs+3)
  4370  00E8  00BB               	movlw	low highword(0)
  4371  00E9  3000               	movwf	(___fldiv@grs+2)
  4372  00EA  00BA               	movlw	high(0)
  4373  00EB  3000               	movwf	(___fldiv@grs+1)
  4374  00EC  00B9               	movlw	low(0)
  4375  00ED  3000               	movwf	(___fldiv@grs)
  4376  00EE  00B8               
  4377                           	line	96
  4378                           	
  4379                           l2974:	
  4380  00EF                     	clrf	(___fldiv@aexp)
  4381  00EF  01BD               	line	97
  4382                           	goto	l2994
  4383  00F0  293F               	
  4384                           l1097:	
  4385  00F1                     	line	100
  4386                           	
  4387                           l2976:	
  4388  00F1                     	movf	((___fldiv@aexp)),w
  4389  00F1  083D               	btfsc	status,2
  4390  00F2  1903               	goto	u2161
  4391  00F3  28F5               	goto	u2160
  4392  00F4  28F6               u2161:
  4393  00F5                     	goto	l2986
  4394  00F5  2918               u2160:
  4395  00F6                     	line	101
  4396                           	
  4397                           l2978:	
  4398  00F6                     	movlw	01h
  4399  00F6  3001               	movwf	(??___fldiv+0)+0
  4400  00F7  00AC               u2175:
  4401  00F8                     	clrc
  4402  00F8  1003               	rlf	(___fldiv@rem),f
  4403  00F9  0DB1               	rlf	(___fldiv@rem+1),f
  4404  00FA  0DB2               	rlf	(___fldiv@rem+2),f
  4405  00FB  0DB3               	rlf	(___fldiv@rem+3),f
  4406  00FC  0DB4               	decfsz	(??___fldiv+0)+0
  4407  00FD  0BAC               	goto	u2175
  4408  00FE  28F8               	line	102
  4409                           	movlw	01h
  4410  00FF  3001               	movwf	(??___fldiv+0)+0
  4411  0100  00AC               u2185:
  4412  0101                     	clrc
  4413  0101  1003               	rlf	(___fldiv@b),f
  4414  0102  0DA8               	rlf	(___fldiv@b+1),f
  4415  0103  0DA9               	rlf	(___fldiv@b+2),f
  4416  0104  0DAA               	rlf	(___fldiv@b+3),f
  4417  0105  0DAB               	decfsz	(??___fldiv+0)+0
  4418  0106  0BAC               	goto	u2185
  4419  0107  2901               	line	103
  4420                           	
  4421                           l2980:	
  4422  0108                     	btfss	(___fldiv@grs+3),(31)&7
  4423  0108  1FBB               	goto	u2191
  4424  0109  290B               	goto	u2190
  4425  010A  290C               u2191:
  4426  010B                     	goto	l2984
  4427  010B  290E               u2190:
  4428  010C                     	line	104
  4429                           	
  4430                           l2982:	
  4431  010C                     	bsf	(___fldiv@b)+(0/8),(0)&7
  4432  010C  1428               	goto	l2984
  4433  010D  290E               	line	105
  4434                           	
  4435                           l1099:	
  4436  010E                     	line	106
  4437                           	
  4438                           l2984:	
  4439  010E                     	movlw	01h
  4440  010E  3001               	movwf	(??___fldiv+0)+0
  4441  010F  00AC               u2205:
  4442  0110                     	clrc
  4443  0110  1003               	rlf	(___fldiv@grs),f
  4444  0111  0DB8               	rlf	(___fldiv@grs+1),f
  4445  0112  0DB9               	rlf	(___fldiv@grs+2),f
  4446  0113  0DBA               	rlf	(___fldiv@grs+3),f
  4447  0114  0DBB               	decfsz	(??___fldiv+0)+0
  4448  0115  0BAC               	goto	u2205
  4449  0116  2910               	goto	l2986
  4450  0117  2918               	line	107
  4451                           	
  4452                           l1098:	
  4453  0118                     	line	112
  4454                           	
  4455                           l2986:	
  4456  0118                     	movf	(___fldiv@a+3),w
  4457  0118  0827               	subwf	(___fldiv@rem+3),w
  4458  0119  0234               	skipz
  4459  011A  1D03               	goto	u2215
  4460  011B  2926               	movf	(___fldiv@a+2),w
  4461  011C  0826               	subwf	(___fldiv@rem+2),w
  4462  011D  0233               	skipz
  4463  011E  1D03               	goto	u2215
  4464  011F  2926               	movf	(___fldiv@a+1),w
  4465  0120  0825               	subwf	(___fldiv@rem+1),w
  4466  0121  0232               	skipz
  4467  0122  1D03               	goto	u2215
  4468  0123  2926               	movf	(___fldiv@a),w
  4469  0124  0824               	subwf	(___fldiv@rem),w
  4470  0125  0231               u2215:
  4471  0126                     	skipc
  4472  0126  1C03               	goto	u2211
  4473  0127  2929               	goto	u2210
  4474  0128  292A               u2211:
  4475  0129                     	goto	l2992
  4476  0129  293A               u2210:
  4477  012A                     	line	115
  4478                           	
  4479                           l2988:	
  4480  012A                     	bsf	(___fldiv@grs)+(30/8),(30)&7
  4481  012A  173B               	line	116
  4482                           	
  4483                           l2990:	
  4484  012B                     	movf	(___fldiv@a),w
  4485  012B  0824               	subwf	(___fldiv@rem),f
  4486  012C  02B1               	movf	(___fldiv@a+1),w
  4487  012D  0825               	skipc
  4488  012E  1C03               	incfsz	(___fldiv@a+1),w
  4489  012F  0F25               	subwf	(___fldiv@rem+1),f
  4490  0130  02B2               	movf	(___fldiv@a+2),w
  4491  0131  0826               	skipc
  4492  0132  1C03               	incfsz	(___fldiv@a+2),w
  4493  0133  0F26               	subwf	(___fldiv@rem+2),f
  4494  0134  02B3               	movf	(___fldiv@a+3),w
  4495  0135  0827               	skipc
  4496  0136  1C03               	incfsz	(___fldiv@a+3),w
  4497  0137  0F27               	subwf	(___fldiv@rem+3),f
  4498  0138  02B4               	goto	l2992
  4499  0139  293A               	line	117
  4500                           	
  4501                           l1100:	
  4502  013A                     	line	118
  4503                           	
  4504                           l2992:	
  4505  013A                     	movlw	low(01h)
  4506  013A  3001               	movwf	(??___fldiv+0)+0
  4507  013B  00AC               	movf	(??___fldiv+0)+0,w
  4508  013C  082C               	addwf	(___fldiv@aexp),f
  4509  013D  07BD               	goto	l2994
  4510  013E  293F               	line	119
  4511                           	
  4512                           l1096:	
  4513  013F                     	line	97
  4514                           	
  4515                           l2994:	
  4516  013F                     	movlw	low(01Ah)
  4517  013F  301A               	subwf	(___fldiv@aexp),w
  4518  0140  023D               	skipc
  4519  0141  1C03               	goto	u2221
  4520  0142  2944               	goto	u2220
  4521  0143  2945               u2221:
  4522  0144                     	goto	l2976
  4523  0144  28F1               u2220:
  4524  0145                     	goto	l2996
  4525  0145  2946               	
  4526                           l1101:	
  4527  0146                     	line	122
  4528                           	
  4529                           l2996:	
  4530  0146                     	movf	(___fldiv@rem+3),w
  4531  0146  0834               	iorwf	(___fldiv@rem+2),w
  4532  0147  0433               	iorwf	(___fldiv@rem+1),w
  4533  0148  0432               	iorwf	(___fldiv@rem),w
  4534  0149  0431               	skipnz
  4535  014A  1903               	goto	u2231
  4536  014B  294D               	goto	u2230
  4537  014C  294E               u2231:
  4538  014D                     	goto	l3010
  4539  014D  2970               u2230:
  4540  014E                     	line	123
  4541                           	
  4542                           l2998:	
  4543  014E                     	bsf	(___fldiv@grs)+(0/8),(0)&7
  4544  014E  1438               	goto	l3010
  4545  014F  2970               	line	124
  4546                           	
  4547                           l1102:	
  4548  0150                     	line	127
  4549                           	goto	l3010
  4550  0150  2970               	
  4551                           l1104:	
  4552  0151                     	line	128
  4553                           	
  4554                           l3000:	
  4555  0151                     	movlw	01h
  4556  0151  3001               	movwf	(??___fldiv+0)+0
  4557  0152  00AC               u2245:
  4558  0153                     	clrc
  4559  0153  1003               	rlf	(___fldiv@b),f
  4560  0154  0DA8               	rlf	(___fldiv@b+1),f
  4561  0155  0DA9               	rlf	(___fldiv@b+2),f
  4562  0156  0DAA               	rlf	(___fldiv@b+3),f
  4563  0157  0DAB               	decfsz	(??___fldiv+0)+0
  4564  0158  0BAC               	goto	u2245
  4565  0159  2953               	line	129
  4566                           	
  4567                           l3002:	
  4568  015A                     	btfss	(___fldiv@grs+3),(31)&7
  4569  015A  1FBB               	goto	u2251
  4570  015B  295D               	goto	u2250
  4571  015C  295E               u2251:
  4572  015D                     	goto	l3006
  4573  015D  2960               u2250:
  4574  015E                     	line	130
  4575                           	
  4576                           l3004:	
  4577  015E                     	bsf	(___fldiv@b)+(0/8),(0)&7
  4578  015E  1428               	goto	l3006
  4579  015F  2960               	line	131
  4580                           	
  4581                           l1105:	
  4582  0160                     	line	132
  4583                           	
  4584                           l3006:	
  4585  0160                     	movlw	01h
  4586  0160  3001               	movwf	(??___fldiv+0)+0
  4587  0161  00AC               u2265:
  4588  0162                     	clrc
  4589  0162  1003               	rlf	(___fldiv@grs),f
  4590  0163  0DB8               	rlf	(___fldiv@grs+1),f
  4591  0164  0DB9               	rlf	(___fldiv@grs+2),f
  4592  0165  0DBA               	rlf	(___fldiv@grs+3),f
  4593  0166  0DBB               	decfsz	(??___fldiv+0)+0
  4594  0167  0BAC               	goto	u2265
  4595  0168  2962               	line	133
  4596                           	
  4597                           l3008:	
  4598  0169                     	movlw	0FFh
  4599  0169  30FF               	addwf	(___fldiv@new_exp),f
  4600  016A  07B6               	skipnc
  4601  016B  1803               	incf	(___fldiv@new_exp+1),f
  4602  016C  0AB7               	movlw	0FFh
  4603  016D  30FF               	addwf	(___fldiv@new_exp+1),f
  4604  016E  07B7               	goto	l3010
  4605  016F  2970               	line	134
  4606                           	
  4607                           l1103:	
  4608  0170                     	line	127
  4609                           	
  4610                           l3010:	
  4611  0170                     	btfss	(___fldiv@b+2),(23)&7
  4612  0170  1FAA               	goto	u2271
  4613  0171  2973               	goto	u2270
  4614  0172  2974               u2271:
  4615  0173                     	goto	l3000
  4616  0173  2951               u2270:
  4617  0174                     	goto	l3012
  4618  0174  2975               	
  4619                           l1106:	
  4620  0175                     	line	139
  4621                           	
  4622                           l3012:	
  4623  0175                     	clrf	(___fldiv@aexp)
  4624  0175  01BD               	line	140
  4625                           	
  4626                           l3014:	
  4627  0176                     	btfss	(___fldiv@grs+3),(31)&7
  4628  0176  1FBB               	goto	u2281
  4629  0177  2979               	goto	u2280
  4630  0178  297A               u2281:
  4631  0179                     	goto	l3022
  4632  0179  299A               u2280:
  4633  017A                     	line	141
  4634                           	
  4635                           l3016:	
  4636  017A                     	movlw	0FFh
  4637  017A  30FF               	andwf	(___fldiv@grs),w
  4638  017B  0538               	movwf	(??___fldiv+0)+0
  4639  017C  00AC               	movlw	0FFh
  4640  017D  30FF               	andwf	(___fldiv@grs+1),w
  4641  017E  0539               	movwf	((??___fldiv+0)+0+1)
  4642  017F  00AD               	movlw	0FFh
  4643  0180  30FF               	andwf	(___fldiv@grs+2),w
  4644  0181  053A               	movwf	((??___fldiv+0)+0+2)
  4645  0182  00AE               	movlw	07Fh
  4646  0183  307F               	andwf	(___fldiv@grs+3),w
  4647  0184  053B               	movwf	((??___fldiv+0)+0+3)
  4648  0185  00AF               	movf	3+(??___fldiv+0)+0,w
  4649  0186  082F               	iorwf	2+(??___fldiv+0)+0,w
  4650  0187  042E               	iorwf	1+(??___fldiv+0)+0,w
  4651  0188  042D               	iorwf	0+(??___fldiv+0)+0,w
  4652  0189  042C               	skipnz
  4653  018A  1903               	goto	u2291
  4654  018B  298D               	goto	u2290
  4655  018C  298E               u2291:
  4656  018D                     	goto	l1108
  4657  018D  2991               u2290:
  4658  018E                     	line	142
  4659                           	
  4660                           l3018:	
  4661  018E                     	clrf	(___fldiv@aexp)
  4662  018E  01BD               	incf	(___fldiv@aexp),f
  4663  018F  0ABD               	line	143
  4664                           	goto	l3022
  4665  0190  299A               	line	144
  4666                           	
  4667                           l1108:	
  4668  0191                     	line	145
  4669                           	btfss	(___fldiv@b),(0)&7
  4670  0191  1C28               	goto	u2301
  4671  0192  2994               	goto	u2300
  4672  0193  2995               u2301:
  4673  0194                     	goto	l3022
  4674  0194  299A               u2300:
  4675  0195                     	line	146
  4676                           	
  4677                           l3020:	
  4678  0195                     	clrf	(___fldiv@aexp)
  4679  0195  01BD               	incf	(___fldiv@aexp),f
  4680  0196  0ABD               	goto	l3022
  4681  0197  299A               	line	147
  4682                           	
  4683                           l1110:	
  4684  0198                     	goto	l3022
  4685  0198  299A               	line	148
  4686                           	
  4687                           l1109:	
  4688  0199                     	goto	l3022
  4689  0199  299A               	line	149
  4690                           	
  4691                           l1107:	
  4692  019A                     	line	150
  4693                           	
  4694                           l3022:	
  4695  019A                     	movf	((___fldiv@aexp)),w
  4696  019A  083D               	btfsc	status,2
  4697  019B  1903               	goto	u2311
  4698  019C  299E               	goto	u2310
  4699  019D  299F               u2311:
  4700  019E                     	goto	l3032
  4701  019E  29D2               u2310:
  4702  019F                     	line	151
  4703                           	
  4704                           l3024:	
  4705  019F                     	movlw	01h
  4706  019F  3001               	addwf	(___fldiv@b),f
  4707  01A0  07A8               	movlw	0
  4708  01A1  3000               	skipnc
  4709  01A2  1803               movlw 1
  4710  01A3  3001               	addwf	(___fldiv@b+1),f
  4711  01A4  07A9               	movlw	0
  4712  01A5  3000               	skipnc
  4713  01A6  1803               movlw 1
  4714  01A7  3001               	addwf	(___fldiv@b+2),f
  4715  01A8  07AA               	movlw	0
  4716  01A9  3000               	skipnc
  4717  01AA  1803               movlw 1
  4718  01AB  3001               	addwf	(___fldiv@b+3),f
  4719  01AC  07AB               	line	152
  4720                           	
  4721                           l3026:	
  4722  01AD                     	btfss	(___fldiv@b+3),(24)&7
  4723  01AD  1C2B               	goto	u2321
  4724  01AE  29B0               	goto	u2320
  4725  01AF  29B1               u2321:
  4726  01B0                     	goto	l3032
  4727  01B0  29D2               u2320:
  4728  01B1                     	line	153
  4729                           	
  4730                           l3028:	
  4731  01B1                     	movf	(___fldiv@b),w
  4732  01B1  0828               	movwf	(??___fldiv+0)+0
  4733  01B2  00AC               	movf	(___fldiv@b+1),w
  4734  01B3  0829               	movwf	((??___fldiv+0)+0+1)
  4735  01B4  00AD               	movf	(___fldiv@b+2),w
  4736  01B5  082A               	movwf	((??___fldiv+0)+0+2)
  4737  01B6  00AE               	movf	(___fldiv@b+3),w
  4738  01B7  082B               	movwf	((??___fldiv+0)+0+3)
  4739  01B8  00AF               	movlw	01h
  4740  01B9  3001               	movwf	(??___fldiv+4)+0
  4741  01BA  00B0               u2335:
  4742  01BB                     	rlf	(??___fldiv+0)+3,w
  4743  01BB  0D2F               	rrf	(??___fldiv+0)+3,f
  4744  01BC  0CAF               	rrf	(??___fldiv+0)+2,f
  4745  01BD  0CAE               	rrf	(??___fldiv+0)+1,f
  4746  01BE  0CAD               	rrf	(??___fldiv+0)+0,f
  4747  01BF  0CAC               u2330:
  4748  01C0                     	decfsz	(??___fldiv+4)+0,f
  4749  01C0  0BB0               	goto	u2335
  4750  01C1  29BB               	movf	3+(??___fldiv+0)+0,w
  4751  01C2  082F               	movwf	(___fldiv@b+3)
  4752  01C3  00AB               	movf	2+(??___fldiv+0)+0,w
  4753  01C4  082E               	movwf	(___fldiv@b+2)
  4754  01C5  00AA               	movf	1+(??___fldiv+0)+0,w
  4755  01C6  082D               	movwf	(___fldiv@b+1)
  4756  01C7  00A9               	movf	0+(??___fldiv+0)+0,w
  4757  01C8  082C               	movwf	(___fldiv@b)
  4758  01C9  00A8               
  4759                           	line	154
  4760                           	
  4761                           l3030:	
  4762  01CA                     	movlw	01h
  4763  01CA  3001               	addwf	(___fldiv@new_exp),f
  4764  01CB  07B6               	skipnc
  4765  01CC  1803               	incf	(___fldiv@new_exp+1),f
  4766  01CD  0AB7               	movlw	0
  4767  01CE  3000               	addwf	(___fldiv@new_exp+1),f
  4768  01CF  07B7               	goto	l3032
  4769  01D0  29D2               	line	155
  4770                           	
  4771                           l1112:	
  4772  01D1                     	goto	l3032
  4773  01D1  29D2               	line	156
  4774                           	
  4775                           l1111:	
  4776  01D2                     	line	159
  4777                           	
  4778                           l3032:	
  4779  01D2                     	movf	(___fldiv@new_exp+1),w
  4780  01D2  0837               	xorlw	80h
  4781  01D3  3A80               	movwf	btemp+1
  4782  01D4  00FF               	movlw	(0)^80h
  4783  01D5  3080               	subwf	btemp+1,w
  4784  01D6  027F               	skipz
  4785  01D7  1D03               	goto	u2345
  4786  01D8  29DB               	movlw	0FFh
  4787  01D9  30FF               	subwf	(___fldiv@new_exp),w
  4788  01DA  0236               u2345:
  4789  01DB                     
  4790                           	skipc
  4791  01DB  1C03               	goto	u2341
  4792  01DC  29DE               	goto	u2340
  4793  01DD  29DF               u2341:
  4794  01DE                     	goto	l3036
  4795  01DE  29EE               u2340:
  4796  01DF                     	line	160
  4797                           	
  4798                           l3034:	
  4799  01DF                     	movlw	0FFh
  4800  01DF  30FF               	bcf	status, 5	;RP0=0, select bank0
  4801  01E0  1283               	bcf	status, 6	;RP1=0, select bank0
  4802  01E1  1303               	movwf	(___fldiv@new_exp)
  4803  01E2  00B6               	movlw	0
  4804  01E3  3000               	movwf	((___fldiv@new_exp))+1
  4805  01E4  00B7               	line	161
  4806                           	movlw	high highword(0)
  4807  01E5  3000               	movwf	(___fldiv@b+3)
  4808  01E6  00AB               	movlw	low highword(0)
  4809  01E7  3000               	movwf	(___fldiv@b+2)
  4810  01E8  00AA               	movlw	high(0)
  4811  01E9  3000               	movwf	(___fldiv@b+1)
  4812  01EA  00A9               	movlw	low(0)
  4813  01EB  3000               	movwf	(___fldiv@b)
  4814  01EC  00A8               
  4815                           	goto	l3036
  4816  01ED  29EE               	line	162
  4817                           	
  4818                           l1113:	
  4819  01EE                     	line	165
  4820                           	
  4821                           l3036:	
  4822  01EE                     	bcf	status, 5	;RP0=0, select bank0
  4823  01EE  1283               	bcf	status, 6	;RP1=0, select bank0
  4824  01EF  1303               	movf	(___fldiv@new_exp+1),w
  4825  01F0  0837               	xorlw	80h
  4826  01F1  3A80               	movwf	btemp+1
  4827  01F2  00FF               	movlw	(0)^80h
  4828  01F3  3080               	subwf	btemp+1,w
  4829  01F4  027F               	skipz
  4830  01F5  1D03               	goto	u2355
  4831  01F6  29F9               	movlw	01h
  4832  01F7  3001               	subwf	(___fldiv@new_exp),w
  4833  01F8  0236               u2355:
  4834  01F9                     
  4835                           	skipnc
  4836  01F9  1803               	goto	u2351
  4837  01FA  29FC               	goto	u2350
  4838  01FB  29FD               u2351:
  4839  01FC                     	goto	l1114
  4840  01FC  2A0A               u2350:
  4841  01FD                     	line	166
  4842                           	
  4843                           l3038:	
  4844  01FD                     	bcf	status, 5	;RP0=0, select bank0
  4845  01FD  1283               	bcf	status, 6	;RP1=0, select bank0
  4846  01FE  1303               	clrf	(___fldiv@new_exp)
  4847  01FF  01B6               	clrf	(___fldiv@new_exp+1)
  4848  0200  01B7               	line	167
  4849                           	
  4850                           l3040:	
  4851  0201                     	movlw	high highword(0)
  4852  0201  3000               	movwf	(___fldiv@b+3)
  4853  0202  00AB               	movlw	low highword(0)
  4854  0203  3000               	movwf	(___fldiv@b+2)
  4855  0204  00AA               	movlw	high(0)
  4856  0205  3000               	movwf	(___fldiv@b+1)
  4857  0206  00A9               	movlw	low(0)
  4858  0207  3000               	movwf	(___fldiv@b)
  4859  0208  00A8               
  4860                           	line	169
  4861                           	
  4862                           l3042:	
  4863  0209                     	clrf	(___fldiv@sign)
  4864  0209  01B5               	line	170
  4865                           	
  4866                           l1114:	
  4867  020A                     	line	173
  4868                           	bcf	status, 5	;RP0=0, select bank0
  4869  020A  1283               	bcf	status, 6	;RP1=0, select bank0
  4870  020B  1303               	movf	(___fldiv@new_exp),w
  4871  020C  0836               	movwf	(??___fldiv+0)+0
  4872  020D  00AC               	movf	(??___fldiv+0)+0,w
  4873  020E  082C               	movwf	(___fldiv@bexp)
  4874  020F  00BC               	line	175
  4875                           	
  4876                           l3044:	
  4877  0210                     	btfss	(___fldiv@bexp),(0)&7
  4878  0210  1C3C               	goto	u2361
  4879  0211  2A13               	goto	u2360
  4880  0212  2A14               u2361:
  4881  0213                     	goto	l3048
  4882  0213  2A16               u2360:
  4883  0214                     	line	176
  4884                           	
  4885                           l3046:	
  4886  0214                     	bsf	0+(___fldiv@b)+02h+(7/8),(7)&7
  4887  0214  17AA               	line	177
  4888                           	goto	l1116
  4889  0215  2A1A               	line	179
  4890                           	
  4891                           l1115:	
  4892  0216                     	line	180
  4893                           	
  4894                           l3048:	
  4895  0216                     	movlw	low(07Fh)
  4896  0216  307F               	movwf	(??___fldiv+0)+0
  4897  0217  00AC               	movf	(??___fldiv+0)+0,w
  4898  0218  082C               	andwf	0+(___fldiv@b)+02h,f
  4899  0219  05AA               	line	181
  4900                           	
  4901                           l1116:	
  4902  021A                     	line	182
  4903                           	movf	(___fldiv@bexp),w
  4904  021A  083C               	movwf	(??___fldiv+0)+0
  4905  021B  00AC               	clrc
  4906  021C  1003               	rrf	(??___fldiv+0)+0,w
  4907  021D  0C2C               	movwf	(??___fldiv+1)+0
  4908  021E  00AD               	movf	(??___fldiv+1)+0,w
  4909  021F  082D               	movwf	0+(___fldiv@b)+03h
  4910  0220  00AB               	line	183
  4911                           	movf	(___fldiv@sign),w
  4912  0221  0835               	movwf	(??___fldiv+0)+0
  4913  0222  00AC               	movf	(??___fldiv+0)+0,w
  4914  0223  082C               	iorwf	0+(___fldiv@b)+03h,f
  4915  0224  04AB               	line	184
  4916                           	
  4917                           l3050:	
  4918  0225                     	movf	(___fldiv@b+3),w
  4919  0225  082B               	movwf	(?___fldiv+3)
  4920  0226  00A7               	movf	(___fldiv@b+2),w
  4921  0227  082A               	movwf	(?___fldiv+2)
  4922  0228  00A6               	movf	(___fldiv@b+1),w
  4923  0229  0829               	movwf	(?___fldiv+1)
  4924  022A  00A5               	movf	(___fldiv@b),w
  4925  022B  0828               	movwf	(?___fldiv)
  4926  022C  00A4               
  4927                           	goto	l1094
  4928  022D  2A2E               	
  4929                           l3052:	
  4930  022E                     	line	185
  4931                           	
  4932                           l1094:	
  4933  022E                     	return
  4934  022E  0008               	opt stack 0
  4935                           GLOBAL	__end_of___fldiv
  4936                           	__end_of___fldiv:
  4937  022F                     	signat	___fldiv,8316
  4938                           	global	___bmul
  4939                           
  4940 ;; *************** function ___bmul *****************
  4941 ;; Defined at:
  4942 ;;		line 4 in file "C:\Program Files (x86)\Microchip\xc8\v2.00\pic\sources\c90\common\Umul8.c"
  4943 ;; Parameters:    Size  Location     Type
  4944 ;;  multiplier      1    wreg     unsigned char 
  4945 ;;  multiplicand    1    4[BANK0 ] unsigned char 
  4946 ;; Auto vars:     Size  Location     Type
  4947 ;;  multiplier      1    7[BANK0 ] unsigned char 
  4948 ;;  product         1    6[BANK0 ] unsigned char 
  4949 ;; Return value:  Size  Location     Type
  4950 ;;                  1    wreg      unsigned char 
  4951 ;; Registers used:
  4952 ;;		wreg, status,2, status,0
  4953 ;; Tracked objects:
  4954 ;;		On entry : 0/0
  4955 ;;		On exit  : 0/0
  4956 ;;		Unchanged: 0/0
  4957 ;; Data sizes:     COMMON   BANK0   BANK1   BANK3   BANK2
  4958 ;;      Params:         0       1       0       0       0
  4959 ;;      Locals:         0       2       0       0       0
  4960 ;;      Temps:          0       1       0       0       0
  4961 ;;      Totals:         0       4       0       0       0
  4962 ;;Total ram usage:        4 bytes
  4963 ;; Hardware stack levels used:    1
  4964 ;; Hardware stack levels required when called:    2
  4965 ;; This function calls:
  4966 ;;		Nothing
  4967 ;; This function is called by:
  4968 ;;		_loop
  4969 ;; This function uses a non-reentrant model
  4970 ;;
  4971                           psect	text11,local,class=CODE,delta=2,merge=1,group=1
  4972                           	file	"C:\Program Files (x86)\Microchip\xc8\v2.00\pic\sources\c90\common\Umul8.c"
  4973                           	line	4
  4974                           global __ptext11
  4975                           __ptext11:	;psect for function ___bmul
  4976  0FA0                     psect	text11
  4977                           	file	"C:\Program Files (x86)\Microchip\xc8\v2.00\pic\sources\c90\common\Umul8.c"
  4978                           	line	4
  4979                           	global	__size_of___bmul
  4980                           	__size_of___bmul	equ	__end_of___bmul-___bmul
  4981  001B                     	
  4982                           ___bmul:	
  4983  0FA0                     ;incstack = 0
  4984                           	opt	stack 4
  4985                           ; Regs used in ___bmul: [wreg+status,2+status,0]
  4986                           ;___bmul@multiplier stored from wreg
  4987                           	bcf	status, 5	;RP0=0, select bank0
  4988  0FA0  1283               	bcf	status, 6	;RP1=0, select bank0
  4989  0FA1  1303               	movwf	(___bmul@multiplier)
  4990  0FA2  00A7               	line	6
  4991                           	
  4992                           l2862:	
  4993  0FA3                     	clrf	(___bmul@product)
  4994  0FA3  01A6               	goto	l2864
  4995  0FA4  2FA5               	line	42
  4996                           	
  4997                           l766:	
  4998  0FA5                     	line	43
  4999                           	
  5000                           l2864:	
  5001  0FA5                     	btfss	(___bmul@multiplier),(0)&7
  5002  0FA5  1C27               	goto	u1961
  5003  0FA6  2FA8               	goto	u1960
  5004  0FA7  2FA9               u1961:
  5005  0FA8                     	goto	l2868
  5006  0FA8  2FAE               u1960:
  5007  0FA9                     	line	44
  5008                           	
  5009                           l2866:	
  5010  0FA9                     	movf	(___bmul@multiplicand),w
  5011  0FA9  0824               	movwf	(??___bmul+0)+0
  5012  0FAA  00A5               	movf	(??___bmul+0)+0,w
  5013  0FAB  0825               	addwf	(___bmul@product),f
  5014  0FAC  07A6               	goto	l2868
  5015  0FAD  2FAE               	
  5016                           l767:	
  5017  0FAE                     	line	45
  5018                           	
  5019                           l2868:	
  5020  0FAE                     	clrc
  5021  0FAE  1003               	rlf	(___bmul@multiplicand),f
  5022  0FAF  0DA4               
  5023                           	line	46
  5024                           	
  5025                           l2870:	
  5026  0FB0                     	clrc
  5027  0FB0  1003               	rrf	(___bmul@multiplier),f
  5028  0FB1  0CA7               
  5029                           	line	47
  5030                           	movf	((___bmul@multiplier)),w
  5031  0FB2  0827               	btfss	status,2
  5032  0FB3  1D03               	goto	u1971
  5033  0FB4  2FB6               	goto	u1970
  5034  0FB5  2FB7               u1971:
  5035  0FB6                     	goto	l2864
  5036  0FB6  2FA5               u1970:
  5037  0FB7                     	goto	l2872
  5038  0FB7  2FB8               	
  5039                           l768:	
  5040  0FB8                     	line	50
  5041                           	
  5042                           l2872:	
  5043  0FB8                     	movf	(___bmul@product),w
  5044  0FB8  0826               	goto	l769
  5045  0FB9  2FBA               	
  5046                           l2874:	
  5047  0FBA                     	line	51
  5048                           	
  5049                           l769:	
  5050  0FBA                     	return
  5051  0FBA  0008               	opt stack 0
  5052                           GLOBAL	__end_of___bmul
  5053                           	__end_of___bmul:
  5054  0FBB                     	signat	___bmul,8313
  5055                           	global	_SerialPrintLn
  5056                           
  5057 ;; *************** function _SerialPrintLn *****************
  5058 ;; Defined at:
  5059 ;;		line 661 in file "source.c"
  5060 ;; Parameters:    Size  Location     Type
  5061 ;;  dataText        1    wreg     PTR unsigned char 
  5062 ;;		 -> data(30), 
  5063 ;; Auto vars:     Size  Location     Type
  5064 ;;  dataText        1    8[BANK0 ] PTR unsigned char 
  5065 ;;		 -> data(30), 
  5066 ;;  i               2    6[BANK0 ] unsigned int 
  5067 ;; Return value:  Size  Location     Type
  5068 ;;                  1    wreg      void 
  5069 ;; Registers used:
  5070 ;;		wreg, fsr0l, fsr0h, status,2, status,0, pclath, cstack
  5071 ;; Tracked objects:
  5072 ;;		On entry : 0/0
  5073 ;;		On exit  : 0/0
  5074 ;;		Unchanged: 0/0
  5075 ;; Data sizes:     COMMON   BANK0   BANK1   BANK3   BANK2
  5076 ;;      Params:         0       0       0       0       0
  5077 ;;      Locals:         0       3       0       0       0
  5078 ;;      Temps:          0       1       0       0       0
  5079 ;;      Totals:         0       4       0       0       0
  5080 ;;Total ram usage:        4 bytes
  5081 ;; Hardware stack levels used:    1
  5082 ;; Hardware stack levels required when called:    3
  5083 ;; This function calls:
  5084 ;;		_SerialWrite
  5085 ;; This function is called by:
  5086 ;;		_loop
  5087 ;; This function uses a non-reentrant model
  5088 ;;
  5089                           psect	text12,local,class=CODE,delta=2,merge=1,group=0
  5090                           	file	"source.c"
  5091                           	line	661
  5092                           global __ptext12
  5093                           __ptext12:	;psect for function _SerialPrintLn
  5094  0790                     psect	text12
  5095                           	file	"source.c"
  5096                           	line	661
  5097                           	global	__size_of_SerialPrintLn
  5098                           	__size_of_SerialPrintLn	equ	__end_of_SerialPrintLn-_SerialPrintLn
  5099  002E                     	
  5100                           _SerialPrintLn:	
  5101  0790                     ;incstack = 0
  5102                           	opt	stack 3
  5103                           ; Regs used in _SerialPrintLn: [wreg-fsr0h+status,2+status,0+pclath+cstack]
  5104                           ;SerialPrintLn@dataText stored from wreg
  5105                           	bcf	status, 5	;RP0=0, select bank0
  5106  0790  1283               	bcf	status, 6	;RP1=0, select bank0
  5107  0791  1303               	movwf	(SerialPrintLn@dataText)
  5108  0792  00A8               	line	664
  5109                           	
  5110                           l2800:	
  5111  0793                     ;source.c: 661: void SerialPrintLn(char *dataText);source.c: 662: {;source.c: 663:     u
                                 nsigned int i;;source.c: 664:         for(i=0;dataText[i]!='\0';i++)
  5112                           	clrf	(SerialPrintLn@i)
  5113  0793  01A6               	clrf	(SerialPrintLn@i+1)
  5114  0794  01A7               	goto	l2806
  5115  0795  2FAB               	
  5116                           l476:	
  5117  0796                     	line	666
  5118                           	
  5119                           l2802:	
  5120  0796                     ;source.c: 665:         {;source.c: 666:             SerialWrite(dataText[i]);
  5121                           	movf	(SerialPrintLn@i),w
  5122  0796  0826               	addwf	(SerialPrintLn@dataText),w
  5123  0797  0728               	movwf	(??_SerialPrintLn+0)+0
  5124  0798  00A5               	movf	0+(??_SerialPrintLn+0)+0,w
  5125  0799  0825               	movwf	fsr0
  5126  079A  0084               	bcf	status, 7	;select IRP bank0
  5127  079B  1383               	movf	indf,w
  5128  079C  0800               	fcall	_SerialWrite
  5129  079D  120A  158A  2787  120A  118A  	line	667
  5130                           	
  5131                           l2804:	
  5132  07A2                     ;source.c: 667:         }
  5133                           	movlw	01h
  5134  07A2  3001               	bcf	status, 5	;RP0=0, select bank0
  5135  07A3  1283               	bcf	status, 6	;RP1=0, select bank0
  5136  07A4  1303               	addwf	(SerialPrintLn@i),f
  5137  07A5  07A6               	skipnc
  5138  07A6  1803               	incf	(SerialPrintLn@i+1),f
  5139  07A7  0AA7               	movlw	0
  5140  07A8  3000               	addwf	(SerialPrintLn@i+1),f
  5141  07A9  07A7               	goto	l2806
  5142  07AA  2FAB               	
  5143                           l475:	
  5144  07AB                     	
  5145                           l2806:	
  5146  07AB                     	movf	(SerialPrintLn@i),w
  5147  07AB  0826               	addwf	(SerialPrintLn@dataText),w
  5148  07AC  0728               	movwf	(??_SerialPrintLn+0)+0
  5149  07AD  00A5               	movf	0+(??_SerialPrintLn+0)+0,w
  5150  07AE  0825               	movwf	fsr0
  5151  07AF  0084               	bcf	status, 7	;select IRP bank0
  5152  07B0  1383               	movf	(indf),w
  5153  07B1  0800               	btfss	status,2
  5154  07B2  1D03               	goto	u1891
  5155  07B3  2FB5               	goto	u1890
  5156  07B4  2FB6               u1891:
  5157  07B5                     	goto	l2802
  5158  07B5  2F96               u1890:
  5159  07B6                     	goto	l2808
  5160  07B6  2FB7               	
  5161                           l477:	
  5162  07B7                     	line	668
  5163                           	
  5164                           l2808:	
  5165  07B7                     ;source.c: 668:         SerialWrite(0x0A);
  5166                           	movlw	low(0Ah)
  5167  07B7  300A               	fcall	_SerialWrite
  5168  07B8  120A  158A  2787  120A  118A  	line	669
  5169                           	
  5170                           l478:	
  5171  07BD                     	return
  5172  07BD  0008               	opt stack 0
  5173                           GLOBAL	__end_of_SerialPrintLn
  5174                           	__end_of_SerialPrintLn:
  5175  07BE                     	signat	_SerialPrintLn,4217
  5176                           	global	_SerialWrite
  5177                           
  5178 ;; *************** function _SerialWrite *****************
  5179 ;; Defined at:
  5180 ;;		line 640 in file "source.c"
  5181 ;; Parameters:    Size  Location     Type
  5182 ;;  dataWrite       1    wreg     unsigned char 
  5183 ;; Auto vars:     Size  Location     Type
  5184 ;;  dataWrite       1    4[BANK0 ] unsigned char 
  5185 ;; Return value:  Size  Location     Type
  5186 ;;                  1    wreg      void 
  5187 ;; Registers used:
  5188 ;;		wreg
  5189 ;; Tracked objects:
  5190 ;;		On entry : 0/0
  5191 ;;		On exit  : 0/0
  5192 ;;		Unchanged: 0/0
  5193 ;; Data sizes:     COMMON   BANK0   BANK1   BANK3   BANK2
  5194 ;;      Params:         0       0       0       0       0
  5195 ;;      Locals:         0       1       0       0       0
  5196 ;;      Temps:          0       0       0       0       0
  5197 ;;      Totals:         0       1       0       0       0
  5198 ;;Total ram usage:        1 bytes
  5199 ;; Hardware stack levels used:    1
  5200 ;; Hardware stack levels required when called:    2
  5201 ;; This function calls:
  5202 ;;		Nothing
  5203 ;; This function is called by:
  5204 ;;		_SerialPrintLn
  5205 ;;		_SerialWriteText
  5206 ;;		_SerialPrint
  5207 ;; This function uses a non-reentrant model
  5208 ;;
  5209                           psect	text13,local,class=CODE,delta=2,merge=1,group=0
  5210                           	line	640
  5211                           global __ptext13
  5212                           __ptext13:	;psect for function _SerialWrite
  5213  0F87                     psect	text13
  5214                           	file	"source.c"
  5215                           	line	640
  5216                           	global	__size_of_SerialWrite
  5217                           	__size_of_SerialWrite	equ	__end_of_SerialWrite-_SerialWrite
  5218  000C                     	
  5219                           _SerialWrite:	
  5220  0F87                     ;incstack = 0
  5221                           	opt	stack 3
  5222                           ; Regs used in _SerialWrite: [wreg]
  5223                           ;SerialWrite@dataWrite stored from wreg
  5224                           	bcf	status, 5	;RP0=0, select bank0
  5225  0F87  1283               	bcf	status, 6	;RP1=0, select bank0
  5226  0F88  1303               	movwf	(SerialWrite@dataWrite)
  5227  0F89  00A4               	line	642
  5228                           	
  5229                           l2636:	
  5230  0F8A                     ;source.c: 640: void SerialWrite(char dataWrite);source.c: 641: {;source.c: 642:     whi
                                 le(!TXIF);
  5231                           	goto	l457
  5232  0F8A  2F8B               	
  5233                           l458:	
  5234  0F8B                     	
  5235                           l457:	
  5236  0F8B                     	btfss	(100/8),(100)&7	;volatile
  5237  0F8B  1E0C               	goto	u1581
  5238  0F8C  2F8E               	goto	u1580
  5239  0F8D  2F8F               u1581:
  5240  0F8E                     	goto	l457
  5241  0F8E  2F8B               u1580:
  5242  0F8F                     	goto	l2638
  5243  0F8F  2F90               	
  5244                           l459:	
  5245  0F90                     	line	643
  5246                           	
  5247                           l2638:	
  5248  0F90                     ;source.c: 643:     TXREG = dataWrite;
  5249                           	movf	(SerialWrite@dataWrite),w
  5250  0F90  0824               	movwf	(25)	;volatile
  5251  0F91  0099               	line	644
  5252                           	
  5253                           l460:	
  5254  0F92                     	return
  5255  0F92  0008               	opt stack 0
  5256                           GLOBAL	__end_of_SerialWrite
  5257                           	__end_of_SerialWrite:
  5258  0F93                     	signat	_SerialWrite,4217
  5259                           	global	_Initialization
  5260                           
  5261 ;; *************** function _Initialization *****************
  5262 ;; Defined at:
  5263 ;;		line 18 in file "source.c"
  5264 ;; Parameters:    Size  Location     Type
  5265 ;;		None
  5266 ;; Auto vars:     Size  Location     Type
  5267 ;;		None
  5268 ;; Return value:  Size  Location     Type
  5269 ;;                  1    wreg      void 
  5270 ;; Registers used:
  5271 ;;		wreg, status,2, status,0, pclath, cstack
  5272 ;; Tracked objects:
  5273 ;;		On entry : 0/0
  5274 ;;		On exit  : 0/0
  5275 ;;		Unchanged: 0/0
  5276 ;; Data sizes:     COMMON   BANK0   BANK1   BANK3   BANK2
  5277 ;;      Params:         0       0       0       0       0
  5278 ;;      Locals:         0       0       0       0       0
  5279 ;;      Temps:          0       0       0       0       0
  5280 ;;      Totals:         0       0       0       0       0
  5281 ;;Total ram usage:        0 bytes
  5282 ;; Hardware stack levels used:    1
  5283 ;; Hardware stack levels required when called:    3
  5284 ;; This function calls:
  5285 ;;		_PWMConfiguration
  5286 ;; This function is called by:
  5287 ;;		_main
  5288 ;; This function uses a non-reentrant model
  5289 ;;
  5290                           psect	text14,local,class=CODE,delta=2,merge=1,group=0
  5291                           	line	18
  5292                           global __ptext14
  5293                           __ptext14:	;psect for function _Initialization
  5294  0FBB                     psect	text14
  5295                           	file	"source.c"
  5296                           	line	18
  5297                           	global	__size_of_Initialization
  5298                           	__size_of_Initialization	equ	__end_of_Initialization-_Initialization
  5299  0020                     	
  5300                           _Initialization:	
  5301  0FBB                     ;incstack = 0
  5302                           	opt	stack 4
  5303                           ; Regs used in _Initialization: [wreg+status,2+status,0+pclath+cstack]
  5304                           	line	21
  5305                           	
  5306                           l3058:	
  5307  0FBB                     ;source.c: 21:     ADCON0 = 0x81;
  5308                           	movlw	low(081h)
  5309  0FBB  3081               	bcf	status, 5	;RP0=0, select bank0
  5310  0FBC  1283               	bcf	status, 6	;RP1=0, select bank0
  5311  0FBD  1303               	movwf	(31)	;volatile
  5312  0FBE  009F               	line	22
  5313                           ;source.c: 22:     ADCON1 = 0xC2;
  5314                           	movlw	low(0C2h)
  5315  0FBF  30C2               	bsf	status, 5	;RP0=1, select bank1
  5316  0FC0  1683               	bcf	status, 6	;RP1=0, select bank1
  5317  0FC1  1303               	movwf	(159)^080h	;volatile
  5318  0FC2  009F               	line	24
  5319                           # 24 "source.c"
  5320                           CLRF PORTA ;# 
  5321  0FC3  0185               	line	25
  5322                           # 25 "source.c"
  5323                           MOVLW 0x3F ;# 
  5324  0FC4  303F               	line	26
  5325                           # 26 "source.c"
  5326                           MOVWF TRISA ;# 
  5327  0FC5  0085               	line	28
  5328                           # 28 "source.c"
  5329                           CLRF PORTB ;# 
  5330  0FC6  0186               	line	29
  5331                           # 29 "source.c"
  5332                           MOVLW 0x00 ;# 
  5333  0FC7  3000               	line	30
  5334                           # 30 "source.c"
  5335                           MOVWF TRISB ;# 
  5336  0FC8  0086               	line	32
  5337                           # 32 "source.c"
  5338                           CLRF PORTC ;# 
  5339  0FC9  0187               	line	33
  5340                           # 33 "source.c"
  5341                           MOVLW 0x00 ;# 
  5342  0FCA  3000               	line	34
  5343                           # 34 "source.c"
  5344                           MOVWF TRISC ;# 
  5345  0FCB  0087               psect	text14
  5346                           	line	35
  5347                           	
  5348                           l3060:	
  5349  0FCC                     ;source.c: 35:     PWMConfiguration();
  5350                           	fcall	_PWMConfiguration
  5351  0FCC  120A  158A  2793  120A  158A  	line	37
  5352                           # 37 "source.c"
  5353                           CLRF PORTD ;# 
  5354  0FD1  0188               	line	38
  5355                           # 38 "source.c"
  5356                           MOVLW 0x00 ;# 
  5357  0FD2  3000               	line	39
  5358                           # 39 "source.c"
  5359                           MOVF TRISD ;# 
  5360  0FD3  0888               psect	text14
  5361                           	line	40
  5362                           	
  5363                           l3062:	
  5364  0FD4                     ;source.c: 40:     PORTE = 0x00;
  5365                           	bcf	status, 5	;RP0=0, select bank0
  5366  0FD4  1283               	bcf	status, 6	;RP1=0, select bank0
  5367  0FD5  1303               	clrf	(9)	;volatile
  5368  0FD6  0189               	line	41
  5369                           	
  5370                           l3064:	
  5371  0FD7                     ;source.c: 41:     TRISE = 0x00;
  5372                           	bsf	status, 5	;RP0=1, select bank1
  5373  0FD7  1683               	bcf	status, 6	;RP1=0, select bank1
  5374  0FD8  1303               	clrf	(137)^080h	;volatile
  5375  0FD9  0189               	line	42
  5376                           	
  5377                           l241:	
  5378  0FDA                     	return
  5379  0FDA  0008               	opt stack 0
  5380                           GLOBAL	__end_of_Initialization
  5381                           	__end_of_Initialization:
  5382  0FDB                     	signat	_Initialization,89
  5383                           	global	_PWMConfiguration
  5384                           
  5385 ;; *************** function _PWMConfiguration *****************
  5386 ;; Defined at:
  5387 ;;		line 43 in file "source.c"
  5388 ;; Parameters:    Size  Location     Type
  5389 ;;		None
  5390 ;; Auto vars:     Size  Location     Type
  5391 ;;		None
  5392 ;; Return value:  Size  Location     Type
  5393 ;;                  1    wreg      void 
  5394 ;; Registers used:
  5395 ;;		wreg
  5396 ;; Tracked objects:
  5397 ;;		On entry : 0/0
  5398 ;;		On exit  : 0/0
  5399 ;;		Unchanged: 0/0
  5400 ;; Data sizes:     COMMON   BANK0   BANK1   BANK3   BANK2
  5401 ;;      Params:         0       0       0       0       0
  5402 ;;      Locals:         0       0       0       0       0
  5403 ;;      Temps:          0       0       0       0       0
  5404 ;;      Totals:         0       0       0       0       0
  5405 ;;Total ram usage:        0 bytes
  5406 ;; Hardware stack levels used:    1
  5407 ;; Hardware stack levels required when called:    2
  5408 ;; This function calls:
  5409 ;;		Nothing
  5410 ;; This function is called by:
  5411 ;;		_Initialization
  5412 ;; This function uses a non-reentrant model
  5413 ;;
  5414                           psect	text15,local,class=CODE,delta=2,merge=1,group=0
  5415                           	line	43
  5416                           global __ptext15
  5417                           __ptext15:	;psect for function _PWMConfiguration
  5418  0F93                     psect	text15
  5419                           	file	"source.c"
  5420                           	line	43
  5421                           	global	__size_of_PWMConfiguration
  5422                           	__size_of_PWMConfiguration	equ	__end_of_PWMConfiguration-_PWMConfiguration
  5423  000D                     	
  5424                           _PWMConfiguration:	
  5425  0F93                     ;incstack = 0
  5426                           	opt	stack 4
  5427                           ; Regs used in _PWMConfiguration: [wreg]
  5428                           	line	45
  5429                           	
  5430                           l2746:	
  5431  0F93                     ;source.c: 45:     PR2 = 0xFF;
  5432                           	movlw	low(0FFh)
  5433  0F93  30FF               	bsf	status, 5	;RP0=1, select bank1
  5434  0F94  1683               	bcf	status, 6	;RP1=0, select bank1
  5435  0F95  1303               	movwf	(146)^080h	;volatile
  5436  0F96  0092               	line	46
  5437                           ;source.c: 46:     T2CON = 0x05;
  5438                           	movlw	low(05h)
  5439  0F97  3005               	bcf	status, 5	;RP0=0, select bank0
  5440  0F98  1283               	bcf	status, 6	;RP1=0, select bank0
  5441  0F99  1303               	movwf	(18)	;volatile
  5442  0F9A  0092               	line	47
  5443                           ;source.c: 47:     CCP1CON = 0x0C;
  5444                           	movlw	low(0Ch)
  5445  0F9B  300C               	movwf	(23)	;volatile
  5446  0F9C  0097               	line	48
  5447                           ;source.c: 48:     CCP2CON = 0x0C;
  5448                           	movlw	low(0Ch)
  5449  0F9D  300C               	movwf	(29)	;volatile
  5450  0F9E  009D               	line	49
  5451                           	
  5452                           l244:	
  5453  0F9F                     	return
  5454  0F9F  0008               	opt stack 0
  5455                           GLOBAL	__end_of_PWMConfiguration
  5456                           	__end_of_PWMConfiguration:
  5457  0FA0                     	signat	_PWMConfiguration,89
  5458                           	global	_ISR
  5459                           
  5460 ;; *************** function _ISR *****************
  5461 ;; Defined at:
  5462 ;;		line 47 in file "Application.c"
  5463 ;; Parameters:    Size  Location     Type
  5464 ;;		None
  5465 ;; Auto vars:     Size  Location     Type
  5466 ;;		None
  5467 ;; Return value:  Size  Location     Type
  5468 ;;                  1    wreg      void 
  5469 ;; Registers used:
  5470 ;;		wreg, status,2, status,0, pclath, cstack
  5471 ;; Tracked objects:
  5472 ;;		On entry : 0/0
  5473 ;;		On exit  : 0/0
  5474 ;;		Unchanged: 0/0
  5475 ;; Data sizes:     COMMON   BANK0   BANK1   BANK3   BANK2
  5476 ;;      Params:         0       0       0       0       0
  5477 ;;      Locals:         0       0       0       0       0
  5478 ;;      Temps:          0       4       0       0       0
  5479 ;;      Totals:         0       4       0       0       0
  5480 ;;Total ram usage:        4 bytes
  5481 ;; Hardware stack levels used:    1
  5482 ;; Hardware stack levels required when called:    1
  5483 ;; This function calls:
  5484 ;;		___xxtofl
  5485 ;; This function is called by:
  5486 ;;		Interrupt level 1
  5487 ;; This function uses a non-reentrant model
  5488 ;;
  5489                           psect	text16,local,class=CODE,delta=2,merge=1,group=0
  5490                           	file	"Application.c"
  5491                           	line	47
  5492                           global __ptext16
  5493                           __ptext16:	;psect for function _ISR
  5494  075A                     psect	text16
  5495                           	file	"Application.c"
  5496                           	line	47
  5497                           	global	__size_of_ISR
  5498                           	__size_of_ISR	equ	__end_of_ISR-_ISR
  5499  0036                     	
  5500                           _ISR:	
  5501  075A                     ;incstack = 0
  5502                           	opt	stack 3
  5503                           ; Regs used in _ISR: [wreg+status,2+status,0+pclath+cstack]
  5504                           psect	intentry,class=CODE,delta=2
  5505                           global __pintentry
  5506                           __pintentry:
  5507  0004                     global interrupt_function
  5508                           interrupt_function:
  5509  0004                     	global saved_w
  5510                           	saved_w	set	btemp+0
  5511  007E                     	movwf	saved_w
  5512  0004  00FE               	swapf	status,w
  5513  0005  0E03               	bcf	status, 5	;RP0=0, select bank0
  5514  0006  1283               	bcf	status, 6	;RP1=0, select bank0
  5515  0007  1303               	movwf	(??_ISR+2)
  5516  0008  00A2               	movf	pclath,w
  5517  0009  080A               	movwf	(??_ISR+3)
  5518  000A  00A3               	ljmp	_ISR
  5519  000B  120A  118A  2F5A   psect	text16
  5520                           	line	50
  5521                           	
  5522                           i1l3578:	
  5523  075A                     ;Application.c: 50:     if(CCP2IF)
  5524                           	btfss	(104/8),(104)&7	;volatile
  5525  075A  1C0D               	goto	u286_21
  5526  075B  2F5D               	goto	u286_20
  5527  075C  2F5E               u286_21:
  5528  075D                     	goto	i1l632
  5529  075D  2F89               u286_20:
  5530  075E                     	line	52
  5531                           	
  5532                           i1l3580:	
  5533  075E                     ;Application.c: 51:     {;Application.c: 52:         New = (CCPR2H << 8) + CCPR2L;
  5534                           	movf	(28),w	;volatile
  5535  075E  081C               	movwf	(_New+1)	;volatile
  5536  075F  00CE               	movf	(27),w	;volatile
  5537  0760  081B               	movwf	(_New)	;volatile
  5538  0761  00CD               	line	53
  5539                           	
  5540                           i1l3582:	
  5541  0762                     ;Application.c: 53:         Period = New - Last;
  5542                           	comf	(_Last),w	;volatile
  5543  0762  094B               	movwf	(??_ISR+0)+0
  5544  0763  00A0               	comf	(_Last+1),w	;volatile
  5545  0764  094C               	movwf	((??_ISR+0)+0+1)
  5546  0765  00A1               	incf	(??_ISR+0)+0,f
  5547  0766  0AA0               	skipnz
  5548  0767  1903               	incf	((??_ISR+0)+0+1),f
  5549  0768  0AA1               	movf	(_New),w	;volatile
  5550  0769  084D               	addwf	0+(??_ISR+0)+0,w
  5551  076A  0720               	movwf	(___xxtofl@val)
  5552  076B  00F0               	movf	(_New+1),w	;volatile
  5553  076C  084E               	skipnc
  5554  076D  1803               	incf	(_New+1),w	;volatile
  5555  076E  0A4E               	addwf	1+(??_ISR+0)+0,w
  5556  076F  0721               	movwf	1+(___xxtofl@val)
  5557  0770  00F1               	clrf	2+(___xxtofl@val)
  5558  0771  01F2               	clrf	3+(___xxtofl@val)
  5559  0772  01F3               	movlw	low(0)
  5560  0773  3000               	fcall	___xxtofl
  5561  0774  120A  118A  2311  120A  118A  	movf	(3+(?___xxtofl)),w
  5562  0779  0873               	bcf	status, 5	;RP0=0, select bank0
  5563  077A  1283               	bcf	status, 6	;RP1=0, select bank0
  5564  077B  1303               	movwf	(_Period+3)	;volatile
  5565  077C  00E9               	movf	(2+(?___xxtofl)),w
  5566  077D  0872               	movwf	(_Period+2)	;volatile
  5567  077E  00E8               	movf	(1+(?___xxtofl)),w
  5568  077F  0871               	movwf	(_Period+1)	;volatile
  5569  0780  00E7               	movf	(0+(?___xxtofl)),w
  5570  0781  0870               	movwf	(_Period)	;volatile
  5571  0782  00E6               
  5572                           	line	54
  5573                           	
  5574                           i1l3584:	
  5575  0783                     ;Application.c: 54:         Last = New;
  5576                           	movf	(_New+1),w	;volatile
  5577  0783  084E               	movwf	(_Last+1)	;volatile
  5578  0784  00CC               	movf	(_New),w	;volatile
  5579  0785  084D               	movwf	(_Last)	;volatile
  5580  0786  00CB               	line	55
  5581                           	
  5582                           i1l3586:	
  5583  0787                     ;Application.c: 55:         CCP2IF = 0;
  5584                           	bcf	(104/8),(104)&7	;volatile
  5585  0787  100D               	goto	i1l632
  5586  0788  2F89               	line	56
  5587                           ;Application.c: 56:     }
  5588                           	
  5589                           i1l631:	
  5590  0789                     	line	57
  5591                           	
  5592                           i1l632:	
  5593  0789                     	movf	(??_ISR+3),w
  5594  0789  0823               	movwf	pclath
  5595  078A  008A               	swapf	(??_ISR+2)^00h,w
  5596  078B  0E22               	movwf	status
  5597  078C  0083               	swapf	saved_w,f
  5598  078D  0EFE               	swapf	saved_w,w
  5599  078E  0E7E               	retfie
  5600  078F  0009               	opt stack 0
  5601                           GLOBAL	__end_of_ISR
  5602                           	__end_of_ISR:
  5603  0790                     	signat	_ISR,89
  5604                           	global	___xxtofl
  5605                           
  5606 ;; *************** function ___xxtofl *****************
  5607 ;; Defined at:
  5608 ;;		line 10 in file "C:\Program Files (x86)\Microchip\xc8\v2.00\pic\sources\c90\common\xxtofl.c"
  5609 ;; Parameters:    Size  Location     Type
  5610 ;;  sign            1    wreg     unsigned char 
  5611 ;;  val             4    0[COMMON] long 
  5612 ;; Auto vars:     Size  Location     Type
  5613 ;;  sign            1    8[COMMON] unsigned char 
  5614 ;;  arg             4   10[COMMON] unsigned long 
  5615 ;;  exp             1    9[COMMON] unsigned char 
  5616 ;; Return value:  Size  Location     Type
  5617 ;;                  4    0[COMMON] unsigned char 
  5618 ;; Registers used:
  5619 ;;		wreg, status,2, status,0
  5620 ;; Tracked objects:
  5621 ;;		On entry : 0/0
  5622 ;;		On exit  : 0/0
  5623 ;;		Unchanged: 0/0
  5624 ;; Data sizes:     COMMON   BANK0   BANK1   BANK3   BANK2
  5625 ;;      Params:         4       0       0       0       0
  5626 ;;      Locals:         6       0       0       0       0
  5627 ;;      Temps:          4       0       0       0       0
  5628 ;;      Totals:        14       0       0       0       0
  5629 ;;Total ram usage:       14 bytes
  5630 ;; Hardware stack levels used:    1
  5631 ;; This function calls:
  5632 ;;		Nothing
  5633 ;; This function is called by:
  5634 ;;		_ISR
  5635 ;; This function uses a non-reentrant model
  5636 ;;
  5637                           psect	text17,local,class=CODE,delta=2,merge=1,group=1
  5638                           	file	"C:\Program Files (x86)\Microchip\xc8\v2.00\pic\sources\c90\common\xxtofl.c"
  5639                           	line	10
  5640                           global __ptext17
  5641                           __ptext17:	;psect for function ___xxtofl
  5642  0311                     psect	text17
  5643                           	file	"C:\Program Files (x86)\Microchip\xc8\v2.00\pic\sources\c90\common\xxtofl.c"
  5644                           	line	10
  5645                           	global	__size_of___xxtofl
  5646                           	__size_of___xxtofl	equ	__end_of___xxtofl-___xxtofl
  5647  00C2                     	
  5648                           ___xxtofl:	
  5649  0311                     ;incstack = 0
  5650                           	opt	stack 3
  5651                           ; Regs used in ___xxtofl: [wreg+status,2+status,0]
  5652                           ;___xxtofl@sign stored from wreg
  5653                           	movwf	(___xxtofl@sign)
  5654  0311  00F8               	line	15
  5655                           	
  5656                           i1l3108:	
  5657  0312                     	movf	((___xxtofl@sign)),w
  5658  0312  0878               	btfsc	status,2
  5659  0313  1903               	goto	u237_21
  5660  0314  2B16               	goto	u237_20
  5661  0315  2B17               u237_21:
  5662  0316                     	goto	i1l3114
  5663  0316  2B2B               u237_20:
  5664  0317                     	
  5665                           i1l3110:	
  5666  0317                     	btfss	(___xxtofl@val+3),7
  5667  0317  1FF3               	goto	u238_21
  5668  0318  2B1A               	goto	u238_20
  5669  0319  2B1B               u238_21:
  5670  031A                     	goto	i1l3114
  5671  031A  2B2B               u238_20:
  5672  031B                     	line	16
  5673                           	
  5674                           i1l3112:	
  5675  031B                     	comf	(___xxtofl@val)+0,w
  5676  031B  0970               	movwf	(___xxtofl@arg)
  5677  031C  00FA               	comf	(___xxtofl@val)+1,w
  5678  031D  0971               	movwf	(___xxtofl@arg+1)
  5679  031E  00FB               	comf	(___xxtofl@val)+2,w
  5680  031F  0972               	movwf	(___xxtofl@arg+2)
  5681  0320  00FC               	comf	(___xxtofl@val)+3,w
  5682  0321  0973               	movwf	(___xxtofl@arg+3)
  5683  0322  00FD               	incf	(___xxtofl@arg),f
  5684  0323  0AFA               	skipnz
  5685  0324  1903               	incf	(___xxtofl@arg+1),f
  5686  0325  0AFB               	skipnz
  5687  0326  1903               	incf	(___xxtofl@arg+2),f
  5688  0327  0AFC               	skipnz
  5689  0328  1903               	incf	(___xxtofl@arg+3),f
  5690  0329  0AFD               	line	17
  5691                           	goto	i1l1151
  5692  032A  2B33               	line	18
  5693                           	
  5694                           i1l1150:	
  5695  032B                     	line	19
  5696                           	
  5697                           i1l3114:	
  5698  032B                     	movf	(___xxtofl@val+3),w
  5699  032B  0873               	movwf	(___xxtofl@arg+3)
  5700  032C  00FD               	movf	(___xxtofl@val+2),w
  5701  032D  0872               	movwf	(___xxtofl@arg+2)
  5702  032E  00FC               	movf	(___xxtofl@val+1),w
  5703  032F  0871               	movwf	(___xxtofl@arg+1)
  5704  0330  00FB               	movf	(___xxtofl@val),w
  5705  0331  0870               	movwf	(___xxtofl@arg)
  5706  0332  00FA               
  5707                           	line	20
  5708                           	
  5709                           i1l1151:	
  5710  0333                     	line	21
  5711                           	movf	(___xxtofl@val+3),w
  5712  0333  0873               	iorwf	(___xxtofl@val+2),w
  5713  0334  0472               	iorwf	(___xxtofl@val+1),w
  5714  0335  0471               	iorwf	(___xxtofl@val),w
  5715  0336  0470               	skipz
  5716  0337  1D03               	goto	u239_21
  5717  0338  2B3A               	goto	u239_20
  5718  0339  2B3B               u239_21:
  5719  033A                     	goto	i1l3120
  5720  033A  2B45               u239_20:
  5721  033B                     	line	22
  5722                           	
  5723                           i1l3116:	
  5724  033B                     	movlw	0x0
  5725  033B  3000               	movwf	(?___xxtofl+3)
  5726  033C  00F3               	movlw	0x0
  5727  033D  3000               	movwf	(?___xxtofl+2)
  5728  033E  00F2               	movlw	0x0
  5729  033F  3000               	movwf	(?___xxtofl+1)
  5730  0340  00F1               	movlw	0x0
  5731  0341  3000               	movwf	(?___xxtofl)
  5732  0342  00F0               
  5733                           	goto	i1l1153
  5734  0343  2BD2               	
  5735                           i1l3118:	
  5736  0344                     	goto	i1l1153
  5737  0344  2BD2               	
  5738                           i1l1152:	
  5739  0345                     	line	23
  5740                           	
  5741                           i1l3120:	
  5742  0345                     	movlw	low(096h)
  5743  0345  3096               	movwf	(??___xxtofl+0)+0
  5744  0346  00F4               	movf	(??___xxtofl+0)+0,w
  5745  0347  0874               	movwf	(___xxtofl@exp)
  5746  0348  00F9               	line	24
  5747                           	goto	i1l3124
  5748  0349  2B58               	
  5749                           i1l1155:	
  5750  034A                     	line	25
  5751                           	
  5752                           i1l3122:	
  5753  034A                     	movlw	low(01h)
  5754  034A  3001               	movwf	(??___xxtofl+0)+0
  5755  034B  00F4               	movf	(??___xxtofl+0)+0,w
  5756  034C  0874               	addwf	(___xxtofl@exp),f
  5757  034D  07F9               	line	26
  5758                           	movlw	01h
  5759  034E  3001               u240_25:
  5760  034F                     	clrc
  5761  034F  1003               	rrf	(___xxtofl@arg+3),f
  5762  0350  0CFD               	rrf	(___xxtofl@arg+2),f
  5763  0351  0CFC               	rrf	(___xxtofl@arg+1),f
  5764  0352  0CFB               	rrf	(___xxtofl@arg),f
  5765  0353  0CFA               	addlw	-1
  5766  0354  3EFF               	skipz
  5767  0355  1D03               	goto	u240_25
  5768  0356  2B4F               
  5769                           	goto	i1l3124
  5770  0357  2B58               	line	27
  5771                           	
  5772                           i1l1154:	
  5773  0358                     	line	24
  5774                           	
  5775                           i1l3124:	
  5776  0358                     	movlw	high highword(0FE000000h)
  5777  0358  30FE               	andwf	(___xxtofl@arg+3),w
  5778  0359  057D               	btfss	status,2
  5779  035A  1D03               	goto	u241_21
  5780  035B  2B5D               	goto	u241_20
  5781  035C  2B5E               u241_21:
  5782  035D                     	goto	i1l3122
  5783  035D  2B4A               u241_20:
  5784  035E                     	goto	i1l1157
  5785  035E  2B7B               	
  5786                           i1l1156:	
  5787  035F                     	line	28
  5788                           	goto	i1l1157
  5789  035F  2B7B               	
  5790                           i1l1158:	
  5791  0360                     	line	29
  5792                           	
  5793                           i1l3126:	
  5794  0360                     	movlw	low(01h)
  5795  0360  3001               	movwf	(??___xxtofl+0)+0
  5796  0361  00F4               	movf	(??___xxtofl+0)+0,w
  5797  0362  0874               	addwf	(___xxtofl@exp),f
  5798  0363  07F9               	line	30
  5799                           	
  5800                           i1l3128:	
  5801  0364                     	movlw	01h
  5802  0364  3001               	addwf	(___xxtofl@arg),f
  5803  0365  07FA               	movlw	0
  5804  0366  3000               	skipnc
  5805  0367  1803               movlw 1
  5806  0368  3001               	addwf	(___xxtofl@arg+1),f
  5807  0369  07FB               	movlw	0
  5808  036A  3000               	skipnc
  5809  036B  1803               movlw 1
  5810  036C  3001               	addwf	(___xxtofl@arg+2),f
  5811  036D  07FC               	movlw	0
  5812  036E  3000               	skipnc
  5813  036F  1803               movlw 1
  5814  0370  3001               	addwf	(___xxtofl@arg+3),f
  5815  0371  07FD               	line	31
  5816                           	
  5817                           i1l3130:	
  5818  0372                     	movlw	01h
  5819  0372  3001               u242_25:
  5820  0373                     	clrc
  5821  0373  1003               	rrf	(___xxtofl@arg+3),f
  5822  0374  0CFD               	rrf	(___xxtofl@arg+2),f
  5823  0375  0CFC               	rrf	(___xxtofl@arg+1),f
  5824  0376  0CFB               	rrf	(___xxtofl@arg),f
  5825  0377  0CFA               	addlw	-1
  5826  0378  3EFF               	skipz
  5827  0379  1D03               	goto	u242_25
  5828  037A  2B73               
  5829                           	line	32
  5830                           	
  5831                           i1l1157:	
  5832  037B                     	line	28
  5833                           	movlw	high highword(0FF000000h)
  5834  037B  30FF               	andwf	(___xxtofl@arg+3),w
  5835  037C  057D               	btfss	status,2
  5836  037D  1D03               	goto	u243_21
  5837  037E  2B80               	goto	u243_20
  5838  037F  2B81               u243_21:
  5839  0380                     	goto	i1l3126
  5840  0380  2B60               u243_20:
  5841  0381                     	goto	i1l3134
  5842  0381  2B8F               	
  5843                           i1l1159:	
  5844  0382                     	line	33
  5845                           	goto	i1l3134
  5846  0382  2B8F               	
  5847                           i1l1161:	
  5848  0383                     	line	34
  5849                           	
  5850                           i1l3132:	
  5851  0383                     	movlw	01h
  5852  0383  3001               	subwf	(___xxtofl@exp),f
  5853  0384  02F9               	line	35
  5854                           	movlw	01h
  5855  0385  3001               	movwf	(??___xxtofl+0)+0
  5856  0386  00F4               u244_25:
  5857  0387                     	clrc
  5858  0387  1003               	rlf	(___xxtofl@arg),f
  5859  0388  0DFA               	rlf	(___xxtofl@arg+1),f
  5860  0389  0DFB               	rlf	(___xxtofl@arg+2),f
  5861  038A  0DFC               	rlf	(___xxtofl@arg+3),f
  5862  038B  0DFD               	decfsz	(??___xxtofl+0)+0
  5863  038C  0BF4               	goto	u244_25
  5864  038D  2B87               	goto	i1l3134
  5865  038E  2B8F               	line	36
  5866                           	
  5867                           i1l1160:	
  5868  038F                     	line	33
  5869                           	
  5870                           i1l3134:	
  5871  038F                     	btfsc	(___xxtofl@arg+2),(23)&7
  5872  038F  1BFC               	goto	u245_21
  5873  0390  2B92               	goto	u245_20
  5874  0391  2B93               u245_21:
  5875  0392                     	goto	i1l1164
  5876  0392  2B9A               u245_20:
  5877  0393                     	
  5878                           i1l3136:	
  5879  0393                     	movlw	low(02h)
  5880  0393  3002               	subwf	(___xxtofl@exp),w
  5881  0394  0279               	skipnc
  5882  0395  1803               	goto	u246_21
  5883  0396  2B98               	goto	u246_20
  5884  0397  2B99               u246_21:
  5885  0398                     	goto	i1l3132
  5886  0398  2B83               u246_20:
  5887  0399                     	goto	i1l1164
  5888  0399  2B9A               	
  5889                           i1l1163:	
  5890  039A                     	
  5891                           i1l1164:	
  5892  039A                     	line	37
  5893                           	btfsc	(___xxtofl@exp),(0)&7
  5894  039A  1879               	goto	u247_21
  5895  039B  2B9D               	goto	u247_20
  5896  039C  2B9E               u247_21:
  5897  039D                     	goto	i1l1165
  5898  039D  2BA6               u247_20:
  5899  039E                     	line	38
  5900                           	
  5901                           i1l3138:	
  5902  039E                     	movlw	0FFh
  5903  039E  30FF               	andwf	(___xxtofl@arg),f
  5904  039F  05FA               	movlw	0FFh
  5905  03A0  30FF               	andwf	(___xxtofl@arg+1),f
  5906  03A1  05FB               	movlw	07Fh
  5907  03A2  307F               	andwf	(___xxtofl@arg+2),f
  5908  03A3  05FC               	movlw	0FFh
  5909  03A4  30FF               	andwf	(___xxtofl@arg+3),f
  5910  03A5  05FD               	
  5911                           i1l1165:	
  5912  03A6                     	line	39
  5913                           	clrc
  5914  03A6  1003               	rrf	(___xxtofl@exp),f
  5915  03A7  0CF9               
  5916                           	line	40
  5917                           	
  5918                           i1l3140:	
  5919  03A8                     	movf	(___xxtofl@exp),w
  5920  03A8  0879               	movwf	(??___xxtofl+0)+0
  5921  03A9  00F4               	clrf	(??___xxtofl+0)+0+1
  5922  03AA  01F5               	clrf	(??___xxtofl+0)+0+2
  5923  03AB  01F6               	clrf	(??___xxtofl+0)+0+3
  5924  03AC  01F7               	movlw	018h
  5925  03AD  3018               u248_25:
  5926  03AE                     	clrc
  5927  03AE  1003               	rlf	(??___xxtofl+0)+0,f
  5928  03AF  0DF4               	rlf	(??___xxtofl+0)+1,f
  5929  03B0  0DF5               	rlf	(??___xxtofl+0)+2,f
  5930  03B1  0DF6               	rlf	(??___xxtofl+0)+3,f
  5931  03B2  0DF7               u248_20:
  5932  03B3                     	addlw	-1
  5933  03B3  3EFF               	skipz
  5934  03B4  1D03               	goto	u248_25
  5935  03B5  2BAE               	movf	0+(??___xxtofl+0)+0,w
  5936  03B6  0874               	iorwf	(___xxtofl@arg),f
  5937  03B7  04FA               	movf	1+(??___xxtofl+0)+0,w
  5938  03B8  0875               	iorwf	(___xxtofl@arg+1),f
  5939  03B9  04FB               	movf	2+(??___xxtofl+0)+0,w
  5940  03BA  0876               	iorwf	(___xxtofl@arg+2),f
  5941  03BB  04FC               	movf	3+(??___xxtofl+0)+0,w
  5942  03BC  0877               	iorwf	(___xxtofl@arg+3),f
  5943  03BD  04FD               	line	41
  5944                           	
  5945                           i1l3142:	
  5946  03BE                     	movf	((___xxtofl@sign)),w
  5947  03BE  0878               	btfsc	status,2
  5948  03BF  1903               	goto	u249_21
  5949  03C0  2BC2               	goto	u249_20
  5950  03C1  2BC3               u249_21:
  5951  03C2                     	goto	i1l3148
  5952  03C2  2BC9               u249_20:
  5953  03C3                     	
  5954                           i1l3144:	
  5955  03C3                     	btfss	(___xxtofl@val+3),7
  5956  03C3  1FF3               	goto	u250_21
  5957  03C4  2BC6               	goto	u250_20
  5958  03C5  2BC7               u250_21:
  5959  03C6                     	goto	i1l3148
  5960  03C6  2BC9               u250_20:
  5961  03C7                     	line	42
  5962                           	
  5963                           i1l3146:	
  5964  03C7                     	bsf	(___xxtofl@arg)+(31/8),(31)&7
  5965  03C7  17FD               	goto	i1l3148
  5966  03C8  2BC9               	
  5967                           i1l1166:	
  5968  03C9                     	line	43
  5969                           	
  5970                           i1l3148:	
  5971  03C9                     	movf	(___xxtofl@arg+3),w
  5972  03C9  087D               	movwf	(?___xxtofl+3)
  5973  03CA  00F3               	movf	(___xxtofl@arg+2),w
  5974  03CB  087C               	movwf	(?___xxtofl+2)
  5975  03CC  00F2               	movf	(___xxtofl@arg+1),w
  5976  03CD  087B               	movwf	(?___xxtofl+1)
  5977  03CE  00F1               	movf	(___xxtofl@arg),w
  5978  03CF  087A               	movwf	(?___xxtofl)
  5979  03D0  00F0               
  5980                           	goto	i1l1153
  5981  03D1  2BD2               	
  5982                           i1l3150:	
  5983  03D2                     	line	44
  5984                           	
  5985                           i1l1153:	
  5986  03D2                     	return
  5987  03D2  0008               	opt stack 0
  5988                           GLOBAL	__end_of___xxtofl
  5989                           	__end_of___xxtofl:
  5990  03D3                     	signat	___xxtofl,8316
  5991                           global	___latbits
  5992                           ___latbits	equ	2
  5993  0002                     	global	btemp
  5994                           	btemp set 07Eh
  5995  007E                     
  5996                           	DABS	1,126,2	;btemp
  5997                           	global	wtemp0
  5998                           	wtemp0 set btemp+0
  5999  007E                     	end


Data Sizes:
    Strings     28
    Constant    10
    Data        0
    BSS         69
    Persistent  0
    Stack       0

Auto Spaces:
    Space          Size  Autos    Used
    COMMON           14     14      14
    BANK0            80     41      76
    BANK1            80      3      37
    BANK3            96      0       0
    BANK2            96      0       0

Pointer List with Targets:

    sprintf@f	PTR const unsigned char  size(1) Largest target is 28
		 -> STR_1(CODE[28]), 

    sprintf@sp	PTR unsigned char  size(1) Largest target is 30
		 -> data(BANK1[30]), 

    sprintf@ap	PTR void [1] size(1) Largest target is 2
		 -> ?_sprintf(BANK0[2]), 

    SerialPrintLn@dataText	PTR unsigned char  size(1) Largest target is 30
		 -> data(BANK1[30]), 


Critical Paths under _main in COMMON

    None.

Critical Paths under _ISR in COMMON

    _ISR->___xxtofl

Critical Paths under _main in BANK0

    _setup->_SerialBegin
    _SerialBegin->___aldiv
    _loop->___fltol
    _sprintf->___lwmod
    ___lwmod->___lwdiv
    ___fltol->___fldiv
    _SerialPrintLn->_SerialWrite

Critical Paths under _ISR in BANK0

    None.

Critical Paths under _main in BANK1

    _main->_loop

Critical Paths under _ISR in BANK1

    None.

Critical Paths under _main in BANK3

    None.

Critical Paths under _ISR in BANK3

    None.

Critical Paths under _main in BANK2

    None.

Critical Paths under _ISR in BANK2

    None.

Call Graph Tables:

 ---------------------------------------------------------------------------------
 (Depth) Function   	        Calls       Base Space   Used Autos Params    Refs
 ---------------------------------------------------------------------------------
 (0) _main                                                 0     0      0    5774
                     _Initialization
                               _loop
                              _setup
 ---------------------------------------------------------------------------------
 (1) _setup                                                0     0      0     792
                        _SerialBegin
 ---------------------------------------------------------------------------------
 (2) _SerialBegin                                         10     6      4     792
                                             19 BANK0     10     6      4
                            ___aldiv
 ---------------------------------------------------------------------------------
 (3) ___aldiv                                             15     7      8     604
                                              4 BANK0     15     7      8
 ---------------------------------------------------------------------------------
 (1) _loop                                                 3     3      0    4982
                                              0 BANK1      3     3      0
                      _SerialPrintLn
                             ___bmul
                            ___fldiv
                            ___fltol
                            ___lwdiv
                              _delay
                            _sprintf
 ---------------------------------------------------------------------------------
 (2) _sprintf                                             25    18      7    1273
                                             18 BANK0     17    10      7
                            ___lwdiv
                            ___lwmod
 ---------------------------------------------------------------------------------
 (3) ___lwmod                                              6     2      4     311
                                             12 BANK0      6     2      4
                            ___lwdiv (ARG)
 ---------------------------------------------------------------------------------
 (3) ___lwdiv                                              8     4      4     466
                                              4 BANK0      8     4      4
 ---------------------------------------------------------------------------------
 (2) _delay                                                7     5      2     972
                                              4 BANK0      7     5      2
 ---------------------------------------------------------------------------------
 (2) ___fltol                                             11     7      4     381
                                             30 BANK0     11     7      4
                            ___fldiv (ARG)
 ---------------------------------------------------------------------------------
 (2) ___fldiv                                             26    18      8    1577
                                              4 BANK0     26    18      8
 ---------------------------------------------------------------------------------
 (2) ___bmul                                               4     3      1     168
                                              4 BANK0      4     3      1
 ---------------------------------------------------------------------------------
 (2) _SerialPrintLn                                        4     4      0     145
                                              5 BANK0      4     4      0
                        _SerialWrite
 ---------------------------------------------------------------------------------
 (3) _SerialWrite                                          1     1      0      22
                                              4 BANK0      1     1      0
 ---------------------------------------------------------------------------------
 (1) _Initialization                                       0     0      0       0
                   _PWMConfiguration
 ---------------------------------------------------------------------------------
 (2) _PWMConfiguration                                     0     0      0       0
 ---------------------------------------------------------------------------------
 Estimated maximum stack depth 3
 ---------------------------------------------------------------------------------
 (Depth) Function   	        Calls       Base Space   Used Autos Params    Refs
 ---------------------------------------------------------------------------------
 (4) _ISR                                                  4     4      0     398
                                              0 BANK0      4     4      0
                           ___xxtofl
 ---------------------------------------------------------------------------------
 (5) ___xxtofl                                            14    10      4     398
                                              0 COMMON    14    10      4
 ---------------------------------------------------------------------------------
 Estimated maximum stack depth 5
 ---------------------------------------------------------------------------------

 Call Graph Graphs:

 _main (ROOT)
   _Initialization
     _PWMConfiguration
   _loop
     _SerialPrintLn
       _SerialWrite
     ___bmul
     ___fldiv
     ___fltol
       ___fldiv (ARG)
     ___lwdiv
     _delay
     _sprintf
       ___lwdiv
       ___lwmod
         ___lwdiv (ARG)
   _setup
     _SerialBegin
       ___aldiv

 _ISR (ROOT)
   ___xxtofl

 Address spaces:
Name               Size   Autos  Total    Cost      Usage
BITCOMMON            E      0       0       0        0.0%
EEDATA             100      0       0       0        0.0%
NULL                 0      0       0       0        0.0%
CODE                 0      0       0       0        0.0%
COMMON               E      E       E       1      100.0%
BITSFR0              0      0       0       1        0.0%
SFR0                 0      0       0       1        0.0%
BITSFR1              0      0       0       2        0.0%
SFR1                 0      0       0       2        0.0%
STACK                0      0       0       2        0.0%
ABS                  0      0      7F       3        0.0%
BITBANK0            50      0       0       4        0.0%
BITSFR3              0      0       0       4        0.0%
SFR3                 0      0       0       4        0.0%
BANK0               50     29      4C       5       95.0%
BITSFR2              0      0       0       5        0.0%
SFR2                 0      0       0       5        0.0%
BITBANK1            50      0       0       6        0.0%
BANK1               50      3      25       7       46.3%
BITBANK3            60      0       0       8        0.0%
BANK3               60      0       0       9        0.0%
BITBANK2            60      0       0      10        0.0%
BANK2               60      0       0      11        0.0%
DATA                 0      0      7F      12        0.0%


Microchip Technology PIC Macro Assembler V2.00 build -1524193055 
Symbol Table                                                                                   Sat Mar 26 19:32:27 2022

             ___fldiv@aexp 003D               ___fldiv@bexp 003C                          pc 0002  
             ___fldiv@sign 0035             ___bmul@product 0026                __CFG_CP$OFF 0000  
                       fsr 0004                        l241 0FDA                        l235 07F5  
                      l244 0F9F                        l236 07FB                        l237 07FC  
                      l238 07FC                        l431 05BF                        l432 05D7  
                      l433 05D7                        l530 06C9                        l460 0F92  
                      l526 0688                        l527 06C9                        l623 0FFF  
                      l528 069B                        l457 0F8B                        l529 06B2  
                      l458 0F8B                        l730 024D                        l626 048C  
                      l810 0518                        l459 0F90                        l475 07AB  
                      l723 02F7                        l731 026D                        l811 04D6  
                      l476 0796                        l732 0283                        l724 0237  
                      l812 04C8                        l477 07B7                        l733 02AB  
                      l725 0249                        l813 04DB                        l478 07BD  
                      l734 02A0                        l726 0253                        l814 04DC  
                      l735 02EC                        l727 024B                        l815 0507  
                      l728 030B                        l736 02B0                        l816 0517  
                      l808 04A1                        l737 02F6                        l729 024C  
                      l817 0529                        l809 04B5                        l930 0640  
                      l738 030A                        l818 0532                        l931 062C  
                      l739 0310                        l932 062D                        l933 063F  
                      l766 0FA5                        l934 0663                        l767 0FAE  
                      l935 0650                        l768 0FB8                        l936 065C  
                      l928 05F7                        l769 0FBA                        l937 0651  
                      l929 0673                        l938 0662                        l939 0673  
                      _GIE 005F                        _PR2 0092                        _PEN 048A  
             __CFG_CPD$OFF 0000                        _ISR 075A                        _SEN 0488  
                      _New 004D                        fsr0 0004                        indf 0000  
             __CFG_FOSC$HS 0000              pinMode@DataPB 0064              pinMode@DataPC 0065  
            pinMode@DataPD 0063               __CFG_LVP$OFF 0000                       ?_ISR 0070  
             ___fltol@exp1 0048                       l1010 06D7                       l1011 06E8  
                     l1100 013A                       l1012 06E9                       l1020 0722  
                     l1101 0146                       l1013 0702                       l1021 0733  
                     l1110 0198                       l1102 0150                       l1014 0710  
                     l1022 0734                       l1111 01D2                       l1103 0170  
                     l1015 0716                       l1023 0745                       l1112 01D1  
                     l1104 0151                       l1008 0711                       l1024 0753  
                     l1113 01EE                       l1105 0160                       l1009 06E3  
                     l1025 0759                       l1114 020A                       l1106 0175  
                     l1018 0754                       l1115 0216                       l1107 019A  
                     l1019 072E                       l1116 021A                       l1108 0191  
                     l1109 0199                       l3000 0151                       PORTA 0005  
                     l3002 015A                       l3010 0170                       l1090 007F  
                     PORTB 0006                       l1091 007C                       PORTC 0007  
                     l3020 0195                       l3012 0175                       l3004 015E  
                     l1092 0087                       PORTD 0008                       l1093 00A9  
                     l1085 0039                       l3030 01CA                       l3022 019A  
                     l3014 0176                       l3006 0160                       l1094 022E  
                     l1086 004F                       l1095 00C0                       l1087 004C  
                     l3040 0201                       l3024 019F                       l3032 01D2  
                     l3016 017A                       l3008 0169                       l1096 013F  
                     l1088 0058                       l1097 00F1                       l1089 0069  
                     l3050 0225                       l3042 0209                       l3034 01DF  
                     l3026 01AD                       l3018 018E                       l1098 0118  
                     l1099 010E                       l3060 0FCC                       l3052 022E  
                     l3044 0210                       l3036 01EE                       l3028 01B1  
                     l3062 0FD4                       l3046 0214                       l3038 01FD  
                     l3070 0FED                       l3064 0FD7                       l3048 0216  
                     l3080 0FF5                       l3072 0FF1                       l3058 0FBB  
                     l3090 0FFA                       l3082 0FF6                       l3074 0FF2  
                     l3066 0FDB                       l2700 0709                       l3092 0FFD  
                     l3084 0FF7                       l3076 0FF3                       l3068 0FEA  
                     l2702 0711                       l2710 0722                       l3094 0FFE  
                     l3086 0FF8                       l3078 0FF4                       l2800 0793  
                     l2704 0716                       l2720 0745                       l2712 0729  
                     l2640 048D                       l3088 0FF9                       l2802 0796  
                     l2730 0678                       l2722 074C                       l2714 072E  
                     l2706 0717                       l2810 0232                       l3610 03FF  
                     l2650 04B5                       l2642 0490                       l2636 0F8A  
                     l2804 07A2                       l2900 0640                       l2740 069C  
                     l2732 0687                       l2716 0734                       l2708 071F  
                     l2724 0754                       l2820 024D                       l2812 0237  
                     l3612 0412                       l2660 04DC                       l2652 04BD  
                     l2644 0494                       l3620 07EA                       l2638 0F90  
                     l2806 07AB                       l2910 0668                       l2902 0646  
                     l2742 06A4                       l2734 0688                       l2726 0759  
                     l2718 073E                       l2830 0279                       l2822 0252  
                     l2814 023D                       l3614 0456                       l2670 0510  
                     l2662 04E5                       l2654 04C5                       l2646 04A5  
                     l2750 0536                       l3622 07F5                       l2808 07B7  
                     l2920 0039                       l2912 0026                       l2904 064F  
                     l2744 06B2                       l2736 068C                       l2728 0674  
                     l2680 06CA                       l2840 02A0                       l2832 027B  
                     l2824 0253                       l2816 0244                       l3616 047B  
                     l3608 03D3                       l2664 04F7                       l2656 04C8  
                     l2672 0518                       l2648 04B0                       l2760 05AA  
                     l2752 0568                       l2746 0F93                       l2922 003E  
                     l2930 004F                       l2914 002D                       l2906 0651  
                     l2738 069A                       l2690 06E3                       l2682 06CE  
                     l2850 02EC                       l2834 0282                       l2842 02AB  
                     l2826 026D                       l2818 0249                       l3618 0481  
                     l2674 051D                       l2666 0505                       l2658 04D6  
                     l2770 05B5                       l2762 05AB                       l2754 0571  
                     l2940 0069                       l2932 0058                       l2924 0043  
                     l2916 0033                       l2908 0663                       l2692 06E9  
                     l2684 06D4                       l2844 02B0                       l2836 0283  
                     l2828 0275                       l3644 0265                       l2852 02F7  
                     l2676 0529                       l2668 0507                       l2772 05B8  
                     l2764 05AE                       l2756 0574                       l2780 05BF  
                     l2748 0533                       l2870 0FB0                       l2862 0FA3  
                     l2942 006E                       l2950 007F                       l2934 005D  
                     l2926 004C                       l2918 0037                       l2694 06FA  
                     l2686 06D7                       l2846 02E0                       l2838 029F  
                     l2854 030B                       l2678 0532                       l2790 05CB  
                     l2782 05C3                       l2774 05BB                       l2766 05B1  
                     l2758 05A6                       l2872 0FB8                       l2864 0FA5  
                     l2952 008F                       l2960 00A9                       l2944 0073  
                     l2936 0063                       l2928 004D                       l2880 05F6  
                     l2696 0700                       l2688 06DE                       l2856 0310  
                     l2848 02E7                       l2792 05CE                       l2784 05C4  
                     l2776 05BD                       l2768 05B2                       l2874 0FBA  
                     l2866 0FA9                       l2970 00DF                       l2962 00AE  
                     l2954 009B                       l2946 007C                       l2938 0067  
                     l2890 0617                       l2882 05F7                       l2698 0702  
                     l2794 05D1                       l2786 05C7                       l2778 05BE  
                     l2868 0FAE                       l2980 0108                       l2972 00E7  
                     l2964 00BF                       l2956 009F                       l2948 007D  
                     l2892 061B                       l2884 060C                       l2876 05D8  
                     l2796 05D4                       l2788 05CA                       l2990 012B  
                     l2982 010C                       l2974 00EF                       l2966 00C0  
                     l2958 00A8                       l2894 0622                       l2886 060D  
                     l2878 05ED                       l2798 05D6                       l2992 013A  
                     l2984 010E                       l2976 00F1                       l2968 00D7  
                     l2896 062B                       l2888 0615                       l2978 00F6  
                     l2986 0118                       l2994 013F                       l2898 062D  
                     TRISA 0085                       l2996 0146                       l2988 012A  
                     TRISB 0086                       TRISC 0087                       l2998 014E  
                     TRISD 0088                       STR_1 07CE                       _BRGH 04C2  
                     _CREN 00C4                       _FERR 00C2                       u2000 061B  
                     u2001 061A                       u2010 0622                       u2011 0621  
                     u2100 0043                       u2101 0042                       u2110 0067  
                     u2030 063E                       u2111 0066                       u2031 063D  
                     u2120 006E                       u2040 0646                       u2121 006D  
                     u2041 0645                       u2025 062E                       u2210 012A  
                     u2130 0073                       u2211 0129                       u2131 0072  
                     u2300 0195                       u2220 0145                       u2140 008F  
                     u2060 0661                       u2301 0194                       u2221 0144  
                     u2205 0110                       u2141 008E                       u2061 0660  
                     u2310 019F                       u2230 014E                       u2150 00AE  
                     u2070 0668                       u2311 019E                       u2231 014D  
                     u2215 0126                       u2151 00AD                       u2071 0667  
                     u2055 0653                       u2320 01B1                       u2160 00F6  
                     u2080 0037                       u1600 04A5                       u2321 01B0  
                     u2161 00F5                       u2081 0036                       u1601 04A4  
                     u2330 01C0                       u2250 015E                       u2090 003E  
                     u1610 04C5                       u2251 015D                       u2091 003D  
                     u1611 04C4                       u2340 01DF                       u2341 01DE  
                     u2245 0153                       u2350 01FD                       u2270 0174  
                     u2190 010C                       u1710 06E7                       u1630 04DA  
                     u2351 01FC                       u2335 01BB                       u2271 0173  
                     u2191 010B                       u2175 00F8                       u1711 06E6  
                     u1631 04D9                       u2360 0214                       u2280 017A  
                     u2361 0213                       u2345 01DB                       u2281 0179  
                     u2265 0162                       u2185 0101                       u1705 06D8  
                     u1625 04CA                       u2290 018E                       u1730 06FA  
                     u1810 0752                       u1650 04F7                       u2355 01F9  
                     u2291 018D                       u1731 06F9                       u1811 0751  
                     u1651 04F6                       u1580 0F8F                       u1820 0686  
                     u1900 023D                       u1581 0F8E                       u1821 0685  
                     u1725 06EA                       u1805 0746                       u1901 023C  
                     u1645 04DE                       u1830 0699                       u1750 070F  
                     u1910 0281                       u1670 0516                       u1590 0494  
                     u1831 0698                       u1751 070E                       u1735 06F6  
                     u1911 0280                       u1671 0515                       u1655 04F3  
                     u1591 0493                       u1840 06B1                       u1760 071F  
                     u1920 029E                       u1680 051D                       u1841 06B0  
                     u1825 0682                       u1745 0703                       u1761 071E  
                     u1921 029D                       u1681 051C                       u1665 0508  
                     u1850 06C8                       u1690 06D4                       u1930 02AA  
                     u1851 06C7                       u1835 0695                       u1691 06D3  
                     u1931 02A9                       u1780 0732                       u1940 02F5  
                     u1860 0546                       u1845 06AD                       u1781 0731  
                     u1941 02F4                       u1925 029A                       u1790 073E  
                     u1950 0309                       u1870 0571                       u1855 06C4  
                     u1791 073D                       u1775 0723                       u1951 0308  
                     u1871 0570                       u1960 0FA9                       u1880 0584  
                     u1961 0FA8                       u1865 0541                       u1890 07B6  
                     u1970 0FB7                       u1891 07B5                       u1971 0FB6  
                     u1795 073A                       _PEIE 005E                       u1980 05ED  
                     u1981 05EC                       u1885 057F                       u1990 0605  
                     u1995 0600                       _RCEN 048B                       _RCIF 0065  
                     _OERR 00C1                       _TMR1 000E                       _SPEN 00C7  
                     _RSEN 0489                       _TRMT 04C1                       _TXEN 04C5  
                     _TXIF 0064                       _SYNC 04C4                       _RPMs 0049  
                     _Last 004B               __CFG_WRT$OFF 0000                       _data 00A4  
                     _main 07EA                       _loop 03D3                       btemp 007E  
                     start 000E            ___fldiv@new_exp 0036          ___bmul@multiplier 0027  
                    ??_ISR 0020      SerialPrintLn@dataText 0028              ___fltol@sign1 0047  
          __end_of___aldiv 0533                      ?_main 0070                      _ACKEN 048C  
                    _ACKDT 048D                      _CCP1X 00BD            __end_of___fldiv 022F  
                    _CCP1Y 00BC                      _CCP2X 00ED                      _CCP2Y 00EC  
                    ?_loop 0070              __CFG_WDTE$OFF 0000            __end_of___fltol 0674  
                    _T2CON 0012            __end_of___lwdiv 0717            __end_of___lwmod 075A  
                    i1l631 0789                      i1l632 0789                      _ENPin 005B  
                    _RCREG 001A      __end_of_SerialPrintLn 07BE                      _SPBRG 0099  
                    _PORTB 0006                      _PORTC 0007                      _PORTD 0008  
                    _PORTE 0009                      _TRISB 0086                      _TRISC 0087  
                    _TRISD 0088                      _SSPIE 0463                      _TRISE 0089  
                    _SSPIF 0063                      _TXREG 0019                      _RSPin 005D  
                    _RWPin 0059                      _d4Pin 0057                      _d5Pin 0055  
                    _d6Pin 0053                      _d7Pin 0051                      _delay 0674  
          __end_of_dpowers 07CE                      _setup 0FDB             __CFG_BOREN$OFF 0000  
                    pclath 000A                      status 0003                      wtemp0 007E  
          __end_of_sprintf 0311            __initialization 0011               __end_of_main 07FF  
             __end_of_loop 048D    __size_of_Initialization 0020                     ??_main 0049  
                   ??_loop 00C2           _PWMConfiguration 0F93                     ?_delay 0024  
                   _ADCON0 001F                     _ADCON1 009F                     _CCP2M0 00E8  
                   _CCP2M1 00E9                     _CCP2M2 00EA                     _CCP2M3 00EB  
                   _CCP2IE 0468                     _CCP2IF 0068                     _ADRESH 001E  
                   _ADRESL 009E                     _CCPR2H 001C                     _CCPR1L 0015  
                   _CCPR2L 001B                     ?_setup 0070                     i1l1150 032B  
                   i1l1151 0333                     i1l1160 038F                     i1l1152 0345  
                   i1l1161 0383                     i1l1153 03D2                     i1l1154 0358  
                   i1l1163 039A                     i1l1155 034A                     i1l1164 039A  
                   i1l1156 035F                     i1l1165 03A6                     i1l1157 037B  
                   i1l1166 03C9                     i1l1158 0360                     i1l3110 0317  
                   i1l1159 0382                     i1l3120 0345                     i1l3112 031B  
                   i1l3130 0372                     i1l3122 034A                     i1l3114 032B  
                   i1l3140 03A8                     i1l3132 0383                     i1l3124 0358  
                   i1l3116 033B                     i1l3108 0312                     i1l3150 03D2  
                   i1l3142 03BE                     i1l3134 038F                     i1l3126 0360  
                   i1l3118 0344                     i1l3144 03C3                     i1l3136 0393  
                   i1l3128 0364                     i1l3146 03C7                     i1l3138 039E  
                   i1l3148 03C9                     i1l3580 075E                     i1l3582 0762  
                   i1l3584 0783                     i1l3586 0787                     i1l3578 075A  
                   u240_25 034F                     u241_20 035E                     u241_21 035D  
                   u250_20 03C7                     u250_21 03C6                     u242_25 0373  
                   u243_20 0381                     u243_21 0380                     u244_25 0387  
                   u245_20 0393                     u237_20 0317                     u245_21 0392  
                   u237_21 0316                     u246_20 0399                     u238_20 031B  
                   u246_21 0398                     u238_21 031A                     u247_20 039E  
                   u239_20 033B                     u247_21 039D                     u239_21 033A  
                   u248_20 03B3                     u248_25 03AE                     u249_20 03C3  
                   u249_21 03C2              ??_SerialBegin 0037                     u286_20 075E  
                   u286_21 075D                     _TMR1CS 0081                     _TMR1ON 0080  
                   _SSPADD 0093        SerialBegin@BaudRate 0033                     _TRISC1 0439  
                   _TRISC3 043B                     _TRISC4 043C                     _TRISC6 043E  
                   _TRISC7 043F                     _SSPCON 0014                     _SSPBUF 0013  
         __end_of___xxtofl 03D3              ??_SerialWrite 0024             __CFG_PWRTE$OFF 0000  
                   _Period 0066                     ___bmul 0FA0                  ??___aldiv 002C  
                ??___fldiv 002C                  ??___fltol 0042                  ??___lwdiv 0028  
                ??___lwmod 0030                     _buffer 004F                     delay@i 0029  
                   delay@j 0027                     saved_w 007E                  ??_sprintf 0039  
             ___xxtofl@arg 007A               ___xxtofl@exp 0079               ___xxtofl@val 0070  
  __end_of__initialization 0022                 ___fltol@f1 003E        ___bmul@multiplicand 0024  
      __end_of_SerialBegin 05D8             __pcstackCOMMON 0070              __end_of_delay 06CA  
      __end_of_SerialWrite 0F93              __end_of_setup 1000                    ??_delay 0026  
                  ??_setup 003D                 __pbssBANK0 0049                 __pbssBANK1 00A0  
     SerialWrite@dataWrite 0024                 __pmaintext 07EA                    ?___bmul 0024  
           _Initialization 0FBB                 __pintentry 0004                    _CCP1CON 0017  
                  _CCP2CON 001D                    _T1CKPS0 0084                    _T1CKPS1 0085  
                ?___xxtofl 0070                    _SSPCON2 0091                    _SSPSTAT 0094  
               __stringtab 07BE                    _Decenas 006A                _SerialBegin 0533  
              _SerialWrite 0F87     __end_of_Initialization 0FDB   __end_of_PWMConfiguration 0FA0  
                  ___aldiv 048D            __size_of___bmul 001B                    ___fldiv 0026  
                  ___fltol 05D8                    ___lwdiv 06CA                    ___lwmod 0717  
                  __ptext1 0FDB                    __ptext2 0533                    __ptext3 048D  
                  __ptext4 03D3                    __ptext5 022F                    __ptext6 0717  
                  __ptext7 06CA                    __ptext8 0674                    __ptext9 05D8  
             __size_of_ISR 0036                    _dpowers 07C4                 ??___xxtofl 0074  
               delay@milis 0024           ___aldiv@dividend 0028                    _sprintf 022F  
                  clrloop0 0F80       end_of_initialization 0022     __size_of_SerialPrintLn 002E  
          ?_Initialization 0070           ___aldiv@quotient 002F                  _PORTAbits 0005  
                _PORTBbits 0006                  _PORTCbits 0007                  _PORTDbits 0008  
                _PORTEbits 0009              ___xxtofl@sign 0078                  _TRISAbits 0085  
                _TRISBbits 0086                  _TRISCbits 0087                  _TRISDbits 0088  
              ___fldiv@grs 0038                ___fldiv@rem 0031             __end_of___bmul 0FBB  
            _SerialPrintLn 0790        start_initialization 0011                __end_of_ISR 0790  
            _RevsPerMinute 00A0                   ??___bmul 0025                  ___fldiv@a 0024  
           ?_SerialPrintLn 0070                  ___fldiv@b 0028                  ___latbits 0002  
            __pcstackBANK0 0020              __pcstackBANK1 00C2          __size_of___xxtofl 00C2  
             ?_SerialBegin 0033                sprintf@flag 003C                sprintf@prec 0040  
             ?_SerialWrite 0070           ___lwdiv@dividend 0026          ?_PWMConfiguration 0070  
                 ?___aldiv 0024                   ?___fldiv 0024               SerialBegin@x 003B  
                 ?___fltol 003E                   ?___lwdiv 0024                   ?___lwmod 002C  
       ??_PWMConfiguration 0024                  __pstrings 07BE           ___lwdiv@quotient 0029  
           __size_of_delay 0056                   ?_sprintf 0032             __size_of_setup 0025  
          ___aldiv@divisor 0024          interrupt_function 0004           ??_Initialization 0024  
          ___aldiv@counter 002D                  clear_ram0 0F7F            ??_SerialPrintLn 0025  
               _ADCON0bits 001F                __stringbase 07C3             SerialPrintLn@i 0026  
                 _Unidades 005F         digitalWrite@DataPB 0061         digitalWrite@DataPC 0062  
       digitalWrite@DataPD 0060           __size_of___aldiv 00A6           __size_of___fldiv 0209  
         __size_of___fltol 009C           __size_of___lwdiv 004D           __size_of___lwmod 0043  
       __end_of__stringtab 07C4                 sprintf@val 003E                   ___xxtofl 0311  
          ___lwdiv@divisor 0024            ___lwdiv@counter 002B                   __ptext10 0026  
                 __ptext11 0FA0                   __ptext12 0790                   __ptext13 0F87  
                 __ptext14 0FBB                   __ptext15 0F93                   __ptext16 075A  
                 __ptext17 0311           __size_of_sprintf 00E2              __size_of_main 0015  
            __size_of_loop 00BA       __size_of_SerialBegin 00A5       __size_of_SerialWrite 000C  
                 intlevel1 0000                  sprintf@ap 003D                  sprintf@sp 0041  
         ___lwmod@dividend 002E                  stringcode 07BE                   sprintf@c 0042  
                 sprintf@f 0032            ___lwmod@divisor 002C            ___lwmod@counter 0031  
                 stringdir 07BE                   stringtab 07BE               ___aldiv@sign 002E  
__size_of_PWMConfiguration 000D  
