

Microchip Technology PIC LITE Macro Assembler V2.00 build -1524193055 
                                                                                               Tue Feb 07 08:32:48 2023

Microchip Technology Omniscient Code Generator v2.00 (Free mode) build 20180527130849
     1  0000                     
      + 0000                     
     2                           ; Version 2.00
     3                           ; Generated 27/05/2018 GMT
     4                           
     5                           ; 
     6                           ; Copyright © 2018, Microchip Technology Inc. and its subsidiaries ("Microchip")
     7                           ; All rights reserved.
     8                           ; 
     9                           ; This software is developed by Microchip Technology Inc. and its subsidiaries ("Microch
                                 ip").
    10                           ; 
    11                           ; Redistribution and use in source and binary forms, with or without modification, are
    12                           ; permitted provided that the following conditions are met:
    13                           ; 
    14                           ;     1. Redistributions of source code must retain the above copyright notice, this lis
                                 t of
    15                           ;        conditions and the following disclaimer.
    16                           ; 
    17                           ;     2. Redistributions in binary form must reproduce the above copyright notice, this 
                                 list
    18                           ;        of conditions and the following disclaimer in the documentation and/or other
    19                           ;        materials provided with the distribution.
    20                           ; 
    21                           ;     3. Microchip's name may not be used to endorse or promote products derived from th
                                 is
    22                           ;        software without specific prior written permission.
    23                           ; 
    24                           ; THIS SOFTWARE IS PROVIDED BY MICROCHIP "AS IS" AND ANY EXPRESS OR IMPLIED WARRANTIES,

    25                           ; INCLUDING, BUT NOT LIMITED TO, THE IMPLIED WARRANTIES OF MERCHANTABILITY AND FITNESS F
                                 OR
    26                           ; PURPOSE ARE DISCLAIMED.  IN NO EVENT SHALL MICROCHIP BE LIABLE FOR ANY DIRECT, INDIREC
                                 T,
    27                           ; INCIDENTAL, SPECIAL, EXEMPLARY, OR CONSEQUENTIAL DAMAGES (INCLUDING BUT NOT LIMITED TO
                                 
    28                           ; PROCUREMENT OF SUBSTITUTE GOODS OR SERVICES; LOSS OF USE, DATA OR PROFITS; OR BUSINESS
                                 
    29                           ; INTERRUPTION) HOWSOEVER CAUSED AND ON ANY THEORY OF LIABILITY, WHETHER IN CONTRACT, ST
                                 RICT
    30                           ; LIABILITY, OR TORT (INCLUDING NEGLIGENCE OR OTHERWISE) ARISING IN ANY WAY OUT OF THE U
                                 SE OF
    31                           ; THIS SOFTWARE, EVEN IF ADVISED OF THE POSSIBILITY OF SUCH DAMAGE.
    32                           ; 
    33                           
    34                           
    35                           ; 
    36                           ; Code-generator required, PIC16F877A Definitions
    37                           ; 
    38  0004                     fsr0 equ 04h
    39  0004                     indf equ 00h
    40  0000                     indf0 equ 00h
    41  0000                     pc equ 02h
    42  0002                     pcl equ 02h
    43  0002                     pclath equ 0Ah
    44  000A                     status equ 03h
    45  0003                     
     2                           opt pagewidth 120
     3  0000                     byte0	macro	val
     4                           	(getbyte(val,0))
     5                           endm
     6  0000                     byte1	macro	val
     7                           	(getbyte(val,1))
     8                           endm
     9  0000                     byte2	macro	val
    10                           	(getbyte(val,2))
    11                           endm
    12  0000                     byte3	macro	val
    13                           	(getbyte(val,3))
    14                           endm
    15  0000                     byte4	macro	val
    16                           	(getbyte(val,4))
    17                           endm
    18  0000                     byte5	macro	val
    19                           	(getbyte(val,5))
    20                           endm
    21  0000                     byte6	macro	val
    22                           	(getbyte(val,6))
    23                           endm
    24  0000                     byte7	macro	val
    25                           	(getbyte(val,7))
    26                           endm
    27  0000                     getword	macro	val,pos
    28                           	(((val) >> (8 * pos)) and 0xffff)
    29                           endm
    30  0000                     word0	macro	val
    31                           	(getword(val,0))
    32                           endm
    33  0000                     word1	macro	val
    34                           	(getword(val,2))
    35                           endm
    36  0000                     word2	macro	val
    37                           	(getword(val,4))
    38                           endm
    39  0000                     word3	macro	val
    40                           	(getword(val,6))
    41                           endm
    42  0000                     gettword	macro	val,pos
    43                           	(((val) >> (8 * pos)) and 0xffffff)
    44                           endm
    45  0000                     tword0	macro	val
    46                           	(gettword(val,0))
    47                           endm
    48  0000                     tword1	macro	val
    49                           	(gettword(val,3))
    50                           endm
    51  0000                     tword2	macro	val
    52                           	(gettword(val,6))
    53                           endm
    54  0000                     getdword	macro	val,pos
    55                           	(((val) >> (8 * pos)) and 0xffffffff)
    56                           endm
    57  0000                     dword0	macro	val
    58                           	(getdword(val,0))
    59                           endm
    60  0000                     dword1	macro	val
    61                           	(getdword(val,4))
    62                           endm
    63  0000                     clrc	macro
    64                           	bcf	3,0
    65                           	endm
    66  0000                     clrz	macro
    67                           	bcf	3,2
    68                           	endm
    69  0000                     setc	macro
    70                           	bsf	3,0
    71                           	endm
    72  0000                     setz	macro
    73                           	bsf	3,2
    74                           	endm
    75  0000                     skipc	macro
    76                           	btfss	3,0
    77                           	endm
    78  0000                     skipz	macro
    79                           	btfss	3,2
    80                           	endm
    81  0000                     skipnc	macro
    82                           	btfsc	3,0
    83                           	endm
    84  0000                     skipnz	macro
    85                           	btfsc	3,2
    86                           	endm
    87  0000                     # 54 "C:\Program Files (x86)\Microchip\xc8\v2.00\pic\include\pic16f877a.h"
    88                           INDF equ 00h ;# 
    89  0000                     # 61 "C:\Program Files (x86)\Microchip\xc8\v2.00\pic\include\pic16f877a.h"
    90                           TMR0 equ 01h ;# 
    91  0001                     # 68 "C:\Program Files (x86)\Microchip\xc8\v2.00\pic\include\pic16f877a.h"
    92                           PCL equ 02h ;# 
    93  0002                     # 75 "C:\Program Files (x86)\Microchip\xc8\v2.00\pic\include\pic16f877a.h"
    94                           STATUS equ 03h ;# 
    95  0003                     # 161 "C:\Program Files (x86)\Microchip\xc8\v2.00\pic\include\pic16f877a.h"
    96                           FSR equ 04h ;# 
    97  0004                     # 168 "C:\Program Files (x86)\Microchip\xc8\v2.00\pic\include\pic16f877a.h"
    98                           PORTA equ 05h ;# 
    99  0005                     # 218 "C:\Program Files (x86)\Microchip\xc8\v2.00\pic\include\pic16f877a.h"
   100                           PORTB equ 06h ;# 
   101  0006                     # 280 "C:\Program Files (x86)\Microchip\xc8\v2.00\pic\include\pic16f877a.h"
   102                           PORTC equ 07h ;# 
   103  0007                     # 342 "C:\Program Files (x86)\Microchip\xc8\v2.00\pic\include\pic16f877a.h"
   104                           PORTD equ 08h ;# 
   105  0008                     # 404 "C:\Program Files (x86)\Microchip\xc8\v2.00\pic\include\pic16f877a.h"
   106                           PORTE equ 09h ;# 
   107  0009                     # 436 "C:\Program Files (x86)\Microchip\xc8\v2.00\pic\include\pic16f877a.h"
   108                           PCLATH equ 0Ah ;# 
   109  000A                     # 456 "C:\Program Files (x86)\Microchip\xc8\v2.00\pic\include\pic16f877a.h"
   110                           INTCON equ 0Bh ;# 
   111  000B                     # 534 "C:\Program Files (x86)\Microchip\xc8\v2.00\pic\include\pic16f877a.h"
   112                           PIR1 equ 0Ch ;# 
   113  000C                     # 596 "C:\Program Files (x86)\Microchip\xc8\v2.00\pic\include\pic16f877a.h"
   114                           PIR2 equ 0Dh ;# 
   115  000D                     # 636 "C:\Program Files (x86)\Microchip\xc8\v2.00\pic\include\pic16f877a.h"
   116                           TMR1 equ 0Eh ;# 
   117  000E                     # 643 "C:\Program Files (x86)\Microchip\xc8\v2.00\pic\include\pic16f877a.h"
   118                           TMR1L equ 0Eh ;# 
   119  000E                     # 650 "C:\Program Files (x86)\Microchip\xc8\v2.00\pic\include\pic16f877a.h"
   120                           TMR1H equ 0Fh ;# 
   121  000F                     # 657 "C:\Program Files (x86)\Microchip\xc8\v2.00\pic\include\pic16f877a.h"
   122                           T1CON equ 010h ;# 
   123  0010                     # 732 "C:\Program Files (x86)\Microchip\xc8\v2.00\pic\include\pic16f877a.h"
   124                           TMR2 equ 011h ;# 
   125  0011                     # 739 "C:\Program Files (x86)\Microchip\xc8\v2.00\pic\include\pic16f877a.h"
   126                           T2CON equ 012h ;# 
   127  0012                     # 810 "C:\Program Files (x86)\Microchip\xc8\v2.00\pic\include\pic16f877a.h"
   128                           SSPBUF equ 013h ;# 
   129  0013                     # 817 "C:\Program Files (x86)\Microchip\xc8\v2.00\pic\include\pic16f877a.h"
   130                           SSPCON equ 014h ;# 
   131  0014                     # 887 "C:\Program Files (x86)\Microchip\xc8\v2.00\pic\include\pic16f877a.h"
   132                           CCPR1 equ 015h ;# 
   133  0015                     # 894 "C:\Program Files (x86)\Microchip\xc8\v2.00\pic\include\pic16f877a.h"
   134                           CCPR1L equ 015h ;# 
   135  0015                     # 901 "C:\Program Files (x86)\Microchip\xc8\v2.00\pic\include\pic16f877a.h"
   136                           CCPR1H equ 016h ;# 
   137  0016                     # 908 "C:\Program Files (x86)\Microchip\xc8\v2.00\pic\include\pic16f877a.h"
   138                           CCP1CON equ 017h ;# 
   139  0017                     # 966 "C:\Program Files (x86)\Microchip\xc8\v2.00\pic\include\pic16f877a.h"
   140                           RCSTA equ 018h ;# 
   141  0018                     # 1061 "C:\Program Files (x86)\Microchip\xc8\v2.00\pic\include\pic16f877a.h"
   142                           TXREG equ 019h ;# 
   143  0019                     # 1068 "C:\Program Files (x86)\Microchip\xc8\v2.00\pic\include\pic16f877a.h"
   144                           RCREG equ 01Ah ;# 
   145  001A                     # 1075 "C:\Program Files (x86)\Microchip\xc8\v2.00\pic\include\pic16f877a.h"
   146                           CCPR2 equ 01Bh ;# 
   147  001B                     # 1082 "C:\Program Files (x86)\Microchip\xc8\v2.00\pic\include\pic16f877a.h"
   148                           CCPR2L equ 01Bh ;# 
   149  001B                     # 1089 "C:\Program Files (x86)\Microchip\xc8\v2.00\pic\include\pic16f877a.h"
   150                           CCPR2H equ 01Ch ;# 
   151  001C                     # 1096 "C:\Program Files (x86)\Microchip\xc8\v2.00\pic\include\pic16f877a.h"
   152                           CCP2CON equ 01Dh ;# 
   153  001D                     # 1154 "C:\Program Files (x86)\Microchip\xc8\v2.00\pic\include\pic16f877a.h"
   154                           ADRESH equ 01Eh ;# 
   155  001E                     # 1161 "C:\Program Files (x86)\Microchip\xc8\v2.00\pic\include\pic16f877a.h"
   156                           ADCON0 equ 01Fh ;# 
   157  001F                     # 1257 "C:\Program Files (x86)\Microchip\xc8\v2.00\pic\include\pic16f877a.h"
   158                           OPTION_REG equ 081h ;# 
   159  0081                     # 1327 "C:\Program Files (x86)\Microchip\xc8\v2.00\pic\include\pic16f877a.h"
   160                           TRISA equ 085h ;# 
   161  0085                     # 1377 "C:\Program Files (x86)\Microchip\xc8\v2.00\pic\include\pic16f877a.h"
   162                           TRISB equ 086h ;# 
   163  0086                     # 1439 "C:\Program Files (x86)\Microchip\xc8\v2.00\pic\include\pic16f877a.h"
   164                           TRISC equ 087h ;# 
   165  0087                     # 1501 "C:\Program Files (x86)\Microchip\xc8\v2.00\pic\include\pic16f877a.h"
   166                           TRISD equ 088h ;# 
   167  0088                     # 1563 "C:\Program Files (x86)\Microchip\xc8\v2.00\pic\include\pic16f877a.h"
   168                           TRISE equ 089h ;# 
   169  0089                     # 1620 "C:\Program Files (x86)\Microchip\xc8\v2.00\pic\include\pic16f877a.h"
   170                           PIE1 equ 08Ch ;# 
   171  008C                     # 1682 "C:\Program Files (x86)\Microchip\xc8\v2.00\pic\include\pic16f877a.h"
   172                           PIE2 equ 08Dh ;# 
   173  008D                     # 1722 "C:\Program Files (x86)\Microchip\xc8\v2.00\pic\include\pic16f877a.h"
   174                           PCON equ 08Eh ;# 
   175  008E                     # 1756 "C:\Program Files (x86)\Microchip\xc8\v2.00\pic\include\pic16f877a.h"
   176                           SSPCON2 equ 091h ;# 
   177  0091                     # 1818 "C:\Program Files (x86)\Microchip\xc8\v2.00\pic\include\pic16f877a.h"
   178                           PR2 equ 092h ;# 
   179  0092                     # 1825 "C:\Program Files (x86)\Microchip\xc8\v2.00\pic\include\pic16f877a.h"
   180                           SSPADD equ 093h ;# 
   181  0093                     # 1832 "C:\Program Files (x86)\Microchip\xc8\v2.00\pic\include\pic16f877a.h"
   182                           SSPSTAT equ 094h ;# 
   183  0094                     # 2001 "C:\Program Files (x86)\Microchip\xc8\v2.00\pic\include\pic16f877a.h"
   184                           TXSTA equ 098h ;# 
   185  0098                     # 2082 "C:\Program Files (x86)\Microchip\xc8\v2.00\pic\include\pic16f877a.h"
   186                           SPBRG equ 099h ;# 
   187  0099                     # 2089 "C:\Program Files (x86)\Microchip\xc8\v2.00\pic\include\pic16f877a.h"
   188                           CMCON equ 09Ch ;# 
   189  009C                     # 2159 "C:\Program Files (x86)\Microchip\xc8\v2.00\pic\include\pic16f877a.h"
   190                           CVRCON equ 09Dh ;# 
   191  009D                     # 2224 "C:\Program Files (x86)\Microchip\xc8\v2.00\pic\include\pic16f877a.h"
   192                           ADRESL equ 09Eh ;# 
   193  009E                     # 2231 "C:\Program Files (x86)\Microchip\xc8\v2.00\pic\include\pic16f877a.h"
   194                           ADCON1 equ 09Fh ;# 
   195  009F                     # 2290 "C:\Program Files (x86)\Microchip\xc8\v2.00\pic\include\pic16f877a.h"
   196                           EEDATA equ 010Ch ;# 
   197  010C                     # 2297 "C:\Program Files (x86)\Microchip\xc8\v2.00\pic\include\pic16f877a.h"
   198                           EEADR equ 010Dh ;# 
   199  010D                     # 2304 "C:\Program Files (x86)\Microchip\xc8\v2.00\pic\include\pic16f877a.h"
   200                           EEDATH equ 010Eh ;# 
   201  010E                     # 2311 "C:\Program Files (x86)\Microchip\xc8\v2.00\pic\include\pic16f877a.h"
   202                           EEADRH equ 010Fh ;# 
   203  010F                     # 2318 "C:\Program Files (x86)\Microchip\xc8\v2.00\pic\include\pic16f877a.h"
   204                           EECON1 equ 018Ch ;# 
   205  018C                     # 2363 "C:\Program Files (x86)\Microchip\xc8\v2.00\pic\include\pic16f877a.h"
   206                           EECON2 equ 018Dh ;# 
   207  018D                     # 54 "C:\Program Files (x86)\Microchip\xc8\v2.00\pic\include\pic16f877a.h"
   208                           INDF equ 00h ;# 
   209  0000                     # 61 "C:\Program Files (x86)\Microchip\xc8\v2.00\pic\include\pic16f877a.h"
   210                           TMR0 equ 01h ;# 
   211  0001                     # 68 "C:\Program Files (x86)\Microchip\xc8\v2.00\pic\include\pic16f877a.h"
   212                           PCL equ 02h ;# 
   213  0002                     # 75 "C:\Program Files (x86)\Microchip\xc8\v2.00\pic\include\pic16f877a.h"
   214                           STATUS equ 03h ;# 
   215  0003                     # 161 "C:\Program Files (x86)\Microchip\xc8\v2.00\pic\include\pic16f877a.h"
   216                           FSR equ 04h ;# 
   217  0004                     # 168 "C:\Program Files (x86)\Microchip\xc8\v2.00\pic\include\pic16f877a.h"
   218                           PORTA equ 05h ;# 
   219  0005                     # 218 "C:\Program Files (x86)\Microchip\xc8\v2.00\pic\include\pic16f877a.h"
   220                           PORTB equ 06h ;# 
   221  0006                     # 280 "C:\Program Files (x86)\Microchip\xc8\v2.00\pic\include\pic16f877a.h"
   222                           PORTC equ 07h ;# 
   223  0007                     # 342 "C:\Program Files (x86)\Microchip\xc8\v2.00\pic\include\pic16f877a.h"
   224                           PORTD equ 08h ;# 
   225  0008                     # 404 "C:\Program Files (x86)\Microchip\xc8\v2.00\pic\include\pic16f877a.h"
   226                           PORTE equ 09h ;# 
   227  0009                     # 436 "C:\Program Files (x86)\Microchip\xc8\v2.00\pic\include\pic16f877a.h"
   228                           PCLATH equ 0Ah ;# 
   229  000A                     # 456 "C:\Program Files (x86)\Microchip\xc8\v2.00\pic\include\pic16f877a.h"
   230                           INTCON equ 0Bh ;# 
   231  000B                     # 534 "C:\Program Files (x86)\Microchip\xc8\v2.00\pic\include\pic16f877a.h"
   232                           PIR1 equ 0Ch ;# 
   233  000C                     # 596 "C:\Program Files (x86)\Microchip\xc8\v2.00\pic\include\pic16f877a.h"
   234                           PIR2 equ 0Dh ;# 
   235  000D                     # 636 "C:\Program Files (x86)\Microchip\xc8\v2.00\pic\include\pic16f877a.h"
   236                           TMR1 equ 0Eh ;# 
   237  000E                     # 643 "C:\Program Files (x86)\Microchip\xc8\v2.00\pic\include\pic16f877a.h"
   238                           TMR1L equ 0Eh ;# 
   239  000E                     # 650 "C:\Program Files (x86)\Microchip\xc8\v2.00\pic\include\pic16f877a.h"
   240                           TMR1H equ 0Fh ;# 
   241  000F                     # 657 "C:\Program Files (x86)\Microchip\xc8\v2.00\pic\include\pic16f877a.h"
   242                           T1CON equ 010h ;# 
   243  0010                     # 732 "C:\Program Files (x86)\Microchip\xc8\v2.00\pic\include\pic16f877a.h"
   244                           TMR2 equ 011h ;# 
   245  0011                     # 739 "C:\Program Files (x86)\Microchip\xc8\v2.00\pic\include\pic16f877a.h"
   246                           T2CON equ 012h ;# 
   247  0012                     # 810 "C:\Program Files (x86)\Microchip\xc8\v2.00\pic\include\pic16f877a.h"
   248                           SSPBUF equ 013h ;# 
   249  0013                     # 817 "C:\Program Files (x86)\Microchip\xc8\v2.00\pic\include\pic16f877a.h"
   250                           SSPCON equ 014h ;# 
   251  0014                     # 887 "C:\Program Files (x86)\Microchip\xc8\v2.00\pic\include\pic16f877a.h"
   252                           CCPR1 equ 015h ;# 
   253  0015                     # 894 "C:\Program Files (x86)\Microchip\xc8\v2.00\pic\include\pic16f877a.h"
   254                           CCPR1L equ 015h ;# 
   255  0015                     # 901 "C:\Program Files (x86)\Microchip\xc8\v2.00\pic\include\pic16f877a.h"
   256                           CCPR1H equ 016h ;# 
   257  0016                     # 908 "C:\Program Files (x86)\Microchip\xc8\v2.00\pic\include\pic16f877a.h"
   258                           CCP1CON equ 017h ;# 
   259  0017                     # 966 "C:\Program Files (x86)\Microchip\xc8\v2.00\pic\include\pic16f877a.h"
   260                           RCSTA equ 018h ;# 
   261  0018                     # 1061 "C:\Program Files (x86)\Microchip\xc8\v2.00\pic\include\pic16f877a.h"
   262                           TXREG equ 019h ;# 
   263  0019                     # 1068 "C:\Program Files (x86)\Microchip\xc8\v2.00\pic\include\pic16f877a.h"
   264                           RCREG equ 01Ah ;# 
   265  001A                     # 1075 "C:\Program Files (x86)\Microchip\xc8\v2.00\pic\include\pic16f877a.h"
   266                           CCPR2 equ 01Bh ;# 
   267  001B                     # 1082 "C:\Program Files (x86)\Microchip\xc8\v2.00\pic\include\pic16f877a.h"
   268                           CCPR2L equ 01Bh ;# 
   269  001B                     # 1089 "C:\Program Files (x86)\Microchip\xc8\v2.00\pic\include\pic16f877a.h"
   270                           CCPR2H equ 01Ch ;# 
   271  001C                     # 1096 "C:\Program Files (x86)\Microchip\xc8\v2.00\pic\include\pic16f877a.h"
   272                           CCP2CON equ 01Dh ;# 
   273  001D                     # 1154 "C:\Program Files (x86)\Microchip\xc8\v2.00\pic\include\pic16f877a.h"
   274                           ADRESH equ 01Eh ;# 
   275  001E                     # 1161 "C:\Program Files (x86)\Microchip\xc8\v2.00\pic\include\pic16f877a.h"
   276                           ADCON0 equ 01Fh ;# 
   277  001F                     # 1257 "C:\Program Files (x86)\Microchip\xc8\v2.00\pic\include\pic16f877a.h"
   278                           OPTION_REG equ 081h ;# 
   279  0081                     # 1327 "C:\Program Files (x86)\Microchip\xc8\v2.00\pic\include\pic16f877a.h"
   280                           TRISA equ 085h ;# 
   281  0085                     # 1377 "C:\Program Files (x86)\Microchip\xc8\v2.00\pic\include\pic16f877a.h"
   282                           TRISB equ 086h ;# 
   283  0086                     # 1439 "C:\Program Files (x86)\Microchip\xc8\v2.00\pic\include\pic16f877a.h"
   284                           TRISC equ 087h ;# 
   285  0087                     # 1501 "C:\Program Files (x86)\Microchip\xc8\v2.00\pic\include\pic16f877a.h"
   286                           TRISD equ 088h ;# 
   287  0088                     # 1563 "C:\Program Files (x86)\Microchip\xc8\v2.00\pic\include\pic16f877a.h"
   288                           TRISE equ 089h ;# 
   289  0089                     # 1620 "C:\Program Files (x86)\Microchip\xc8\v2.00\pic\include\pic16f877a.h"
   290                           PIE1 equ 08Ch ;# 
   291  008C                     # 1682 "C:\Program Files (x86)\Microchip\xc8\v2.00\pic\include\pic16f877a.h"
   292                           PIE2 equ 08Dh ;# 
   293  008D                     # 1722 "C:\Program Files (x86)\Microchip\xc8\v2.00\pic\include\pic16f877a.h"
   294                           PCON equ 08Eh ;# 
   295  008E                     # 1756 "C:\Program Files (x86)\Microchip\xc8\v2.00\pic\include\pic16f877a.h"
   296                           SSPCON2 equ 091h ;# 
   297  0091                     # 1818 "C:\Program Files (x86)\Microchip\xc8\v2.00\pic\include\pic16f877a.h"
   298                           PR2 equ 092h ;# 
   299  0092                     # 1825 "C:\Program Files (x86)\Microchip\xc8\v2.00\pic\include\pic16f877a.h"
   300                           SSPADD equ 093h ;# 
   301  0093                     # 1832 "C:\Program Files (x86)\Microchip\xc8\v2.00\pic\include\pic16f877a.h"
   302                           SSPSTAT equ 094h ;# 
   303  0094                     # 2001 "C:\Program Files (x86)\Microchip\xc8\v2.00\pic\include\pic16f877a.h"
   304                           TXSTA equ 098h ;# 
   305  0098                     # 2082 "C:\Program Files (x86)\Microchip\xc8\v2.00\pic\include\pic16f877a.h"
   306                           SPBRG equ 099h ;# 
   307  0099                     # 2089 "C:\Program Files (x86)\Microchip\xc8\v2.00\pic\include\pic16f877a.h"
   308                           CMCON equ 09Ch ;# 
   309  009C                     # 2159 "C:\Program Files (x86)\Microchip\xc8\v2.00\pic\include\pic16f877a.h"
   310                           CVRCON equ 09Dh ;# 
   311  009D                     # 2224 "C:\Program Files (x86)\Microchip\xc8\v2.00\pic\include\pic16f877a.h"
   312                           ADRESL equ 09Eh ;# 
   313  009E                     # 2231 "C:\Program Files (x86)\Microchip\xc8\v2.00\pic\include\pic16f877a.h"
   314                           ADCON1 equ 09Fh ;# 
   315  009F                     # 2290 "C:\Program Files (x86)\Microchip\xc8\v2.00\pic\include\pic16f877a.h"
   316                           EEDATA equ 010Ch ;# 
   317  010C                     # 2297 "C:\Program Files (x86)\Microchip\xc8\v2.00\pic\include\pic16f877a.h"
   318                           EEADR equ 010Dh ;# 
   319  010D                     # 2304 "C:\Program Files (x86)\Microchip\xc8\v2.00\pic\include\pic16f877a.h"
   320                           EEDATH equ 010Eh ;# 
   321  010E                     # 2311 "C:\Program Files (x86)\Microchip\xc8\v2.00\pic\include\pic16f877a.h"
   322                           EEADRH equ 010Fh ;# 
   323  010F                     # 2318 "C:\Program Files (x86)\Microchip\xc8\v2.00\pic\include\pic16f877a.h"
   324                           EECON1 equ 018Ch ;# 
   325  018C                     # 2363 "C:\Program Files (x86)\Microchip\xc8\v2.00\pic\include\pic16f877a.h"
   326                           EECON2 equ 018Dh ;# 
   327  018D                     # 54 "C:\Program Files (x86)\Microchip\xc8\v2.00\pic\include\pic16f877a.h"
   328                           INDF equ 00h ;# 
   329  0000                     # 61 "C:\Program Files (x86)\Microchip\xc8\v2.00\pic\include\pic16f877a.h"
   330                           TMR0 equ 01h ;# 
   331  0001                     # 68 "C:\Program Files (x86)\Microchip\xc8\v2.00\pic\include\pic16f877a.h"
   332                           PCL equ 02h ;# 
   333  0002                     # 75 "C:\Program Files (x86)\Microchip\xc8\v2.00\pic\include\pic16f877a.h"
   334                           STATUS equ 03h ;# 
   335  0003                     # 161 "C:\Program Files (x86)\Microchip\xc8\v2.00\pic\include\pic16f877a.h"
   336                           FSR equ 04h ;# 
   337  0004                     # 168 "C:\Program Files (x86)\Microchip\xc8\v2.00\pic\include\pic16f877a.h"
   338                           PORTA equ 05h ;# 
   339  0005                     # 218 "C:\Program Files (x86)\Microchip\xc8\v2.00\pic\include\pic16f877a.h"
   340                           PORTB equ 06h ;# 
   341  0006                     # 280 "C:\Program Files (x86)\Microchip\xc8\v2.00\pic\include\pic16f877a.h"
   342                           PORTC equ 07h ;# 
   343  0007                     # 342 "C:\Program Files (x86)\Microchip\xc8\v2.00\pic\include\pic16f877a.h"
   344                           PORTD equ 08h ;# 
   345  0008                     # 404 "C:\Program Files (x86)\Microchip\xc8\v2.00\pic\include\pic16f877a.h"
   346                           PORTE equ 09h ;# 
   347  0009                     # 436 "C:\Program Files (x86)\Microchip\xc8\v2.00\pic\include\pic16f877a.h"
   348                           PCLATH equ 0Ah ;# 
   349  000A                     # 456 "C:\Program Files (x86)\Microchip\xc8\v2.00\pic\include\pic16f877a.h"
   350                           INTCON equ 0Bh ;# 
   351  000B                     # 534 "C:\Program Files (x86)\Microchip\xc8\v2.00\pic\include\pic16f877a.h"
   352                           PIR1 equ 0Ch ;# 
   353  000C                     # 596 "C:\Program Files (x86)\Microchip\xc8\v2.00\pic\include\pic16f877a.h"
   354                           PIR2 equ 0Dh ;# 
   355  000D                     # 636 "C:\Program Files (x86)\Microchip\xc8\v2.00\pic\include\pic16f877a.h"
   356                           TMR1 equ 0Eh ;# 
   357  000E                     # 643 "C:\Program Files (x86)\Microchip\xc8\v2.00\pic\include\pic16f877a.h"
   358                           TMR1L equ 0Eh ;# 
   359  000E                     # 650 "C:\Program Files (x86)\Microchip\xc8\v2.00\pic\include\pic16f877a.h"
   360                           TMR1H equ 0Fh ;# 
   361  000F                     # 657 "C:\Program Files (x86)\Microchip\xc8\v2.00\pic\include\pic16f877a.h"
   362                           T1CON equ 010h ;# 
   363  0010                     # 732 "C:\Program Files (x86)\Microchip\xc8\v2.00\pic\include\pic16f877a.h"
   364                           TMR2 equ 011h ;# 
   365  0011                     # 739 "C:\Program Files (x86)\Microchip\xc8\v2.00\pic\include\pic16f877a.h"
   366                           T2CON equ 012h ;# 
   367  0012                     # 810 "C:\Program Files (x86)\Microchip\xc8\v2.00\pic\include\pic16f877a.h"
   368                           SSPBUF equ 013h ;# 
   369  0013                     # 817 "C:\Program Files (x86)\Microchip\xc8\v2.00\pic\include\pic16f877a.h"
   370                           SSPCON equ 014h ;# 
   371  0014                     # 887 "C:\Program Files (x86)\Microchip\xc8\v2.00\pic\include\pic16f877a.h"
   372                           CCPR1 equ 015h ;# 
   373  0015                     # 894 "C:\Program Files (x86)\Microchip\xc8\v2.00\pic\include\pic16f877a.h"
   374                           CCPR1L equ 015h ;# 
   375  0015                     # 901 "C:\Program Files (x86)\Microchip\xc8\v2.00\pic\include\pic16f877a.h"
   376                           CCPR1H equ 016h ;# 
   377  0016                     # 908 "C:\Program Files (x86)\Microchip\xc8\v2.00\pic\include\pic16f877a.h"
   378                           CCP1CON equ 017h ;# 
   379  0017                     # 966 "C:\Program Files (x86)\Microchip\xc8\v2.00\pic\include\pic16f877a.h"
   380                           RCSTA equ 018h ;# 
   381  0018                     # 1061 "C:\Program Files (x86)\Microchip\xc8\v2.00\pic\include\pic16f877a.h"
   382                           TXREG equ 019h ;# 
   383  0019                     # 1068 "C:\Program Files (x86)\Microchip\xc8\v2.00\pic\include\pic16f877a.h"
   384                           RCREG equ 01Ah ;# 
   385  001A                     # 1075 "C:\Program Files (x86)\Microchip\xc8\v2.00\pic\include\pic16f877a.h"
   386                           CCPR2 equ 01Bh ;# 
   387  001B                     # 1082 "C:\Program Files (x86)\Microchip\xc8\v2.00\pic\include\pic16f877a.h"
   388                           CCPR2L equ 01Bh ;# 
   389  001B                     # 1089 "C:\Program Files (x86)\Microchip\xc8\v2.00\pic\include\pic16f877a.h"
   390                           CCPR2H equ 01Ch ;# 
   391  001C                     # 1096 "C:\Program Files (x86)\Microchip\xc8\v2.00\pic\include\pic16f877a.h"
   392                           CCP2CON equ 01Dh ;# 
   393  001D                     # 1154 "C:\Program Files (x86)\Microchip\xc8\v2.00\pic\include\pic16f877a.h"
   394                           ADRESH equ 01Eh ;# 
   395  001E                     # 1161 "C:\Program Files (x86)\Microchip\xc8\v2.00\pic\include\pic16f877a.h"
   396                           ADCON0 equ 01Fh ;# 
   397  001F                     # 1257 "C:\Program Files (x86)\Microchip\xc8\v2.00\pic\include\pic16f877a.h"
   398                           OPTION_REG equ 081h ;# 
   399  0081                     # 1327 "C:\Program Files (x86)\Microchip\xc8\v2.00\pic\include\pic16f877a.h"
   400                           TRISA equ 085h ;# 
   401  0085                     # 1377 "C:\Program Files (x86)\Microchip\xc8\v2.00\pic\include\pic16f877a.h"
   402                           TRISB equ 086h ;# 
   403  0086                     # 1439 "C:\Program Files (x86)\Microchip\xc8\v2.00\pic\include\pic16f877a.h"
   404                           TRISC equ 087h ;# 
   405  0087                     # 1501 "C:\Program Files (x86)\Microchip\xc8\v2.00\pic\include\pic16f877a.h"
   406                           TRISD equ 088h ;# 
   407  0088                     # 1563 "C:\Program Files (x86)\Microchip\xc8\v2.00\pic\include\pic16f877a.h"
   408                           TRISE equ 089h ;# 
   409  0089                     # 1620 "C:\Program Files (x86)\Microchip\xc8\v2.00\pic\include\pic16f877a.h"
   410                           PIE1 equ 08Ch ;# 
   411  008C                     # 1682 "C:\Program Files (x86)\Microchip\xc8\v2.00\pic\include\pic16f877a.h"
   412                           PIE2 equ 08Dh ;# 
   413  008D                     # 1722 "C:\Program Files (x86)\Microchip\xc8\v2.00\pic\include\pic16f877a.h"
   414                           PCON equ 08Eh ;# 
   415  008E                     # 1756 "C:\Program Files (x86)\Microchip\xc8\v2.00\pic\include\pic16f877a.h"
   416                           SSPCON2 equ 091h ;# 
   417  0091                     # 1818 "C:\Program Files (x86)\Microchip\xc8\v2.00\pic\include\pic16f877a.h"
   418                           PR2 equ 092h ;# 
   419  0092                     # 1825 "C:\Program Files (x86)\Microchip\xc8\v2.00\pic\include\pic16f877a.h"
   420                           SSPADD equ 093h ;# 
   421  0093                     # 1832 "C:\Program Files (x86)\Microchip\xc8\v2.00\pic\include\pic16f877a.h"
   422                           SSPSTAT equ 094h ;# 
   423  0094                     # 2001 "C:\Program Files (x86)\Microchip\xc8\v2.00\pic\include\pic16f877a.h"
   424                           TXSTA equ 098h ;# 
   425  0098                     # 2082 "C:\Program Files (x86)\Microchip\xc8\v2.00\pic\include\pic16f877a.h"
   426                           SPBRG equ 099h ;# 
   427  0099                     # 2089 "C:\Program Files (x86)\Microchip\xc8\v2.00\pic\include\pic16f877a.h"
   428                           CMCON equ 09Ch ;# 
   429  009C                     # 2159 "C:\Program Files (x86)\Microchip\xc8\v2.00\pic\include\pic16f877a.h"
   430                           CVRCON equ 09Dh ;# 
   431  009D                     # 2224 "C:\Program Files (x86)\Microchip\xc8\v2.00\pic\include\pic16f877a.h"
   432                           ADRESL equ 09Eh ;# 
   433  009E                     # 2231 "C:\Program Files (x86)\Microchip\xc8\v2.00\pic\include\pic16f877a.h"
   434                           ADCON1 equ 09Fh ;# 
   435  009F                     # 2290 "C:\Program Files (x86)\Microchip\xc8\v2.00\pic\include\pic16f877a.h"
   436                           EEDATA equ 010Ch ;# 
   437  010C                     # 2297 "C:\Program Files (x86)\Microchip\xc8\v2.00\pic\include\pic16f877a.h"
   438                           EEADR equ 010Dh ;# 
   439  010D                     # 2304 "C:\Program Files (x86)\Microchip\xc8\v2.00\pic\include\pic16f877a.h"
   440                           EEDATH equ 010Eh ;# 
   441  010E                     # 2311 "C:\Program Files (x86)\Microchip\xc8\v2.00\pic\include\pic16f877a.h"
   442                           EEADRH equ 010Fh ;# 
   443  010F                     # 2318 "C:\Program Files (x86)\Microchip\xc8\v2.00\pic\include\pic16f877a.h"
   444                           EECON1 equ 018Ch ;# 
   445  018C                     # 2363 "C:\Program Files (x86)\Microchip\xc8\v2.00\pic\include\pic16f877a.h"
   446                           EECON2 equ 018Dh ;# 
   447  018D                     # 54 "C:\Program Files (x86)\Microchip\xc8\v2.00\pic\include\pic16f877a.h"
   448                           INDF equ 00h ;# 
   449  0000                     # 61 "C:\Program Files (x86)\Microchip\xc8\v2.00\pic\include\pic16f877a.h"
   450                           TMR0 equ 01h ;# 
   451  0001                     # 68 "C:\Program Files (x86)\Microchip\xc8\v2.00\pic\include\pic16f877a.h"
   452                           PCL equ 02h ;# 
   453  0002                     # 75 "C:\Program Files (x86)\Microchip\xc8\v2.00\pic\include\pic16f877a.h"
   454                           STATUS equ 03h ;# 
   455  0003                     # 161 "C:\Program Files (x86)\Microchip\xc8\v2.00\pic\include\pic16f877a.h"
   456                           FSR equ 04h ;# 
   457  0004                     # 168 "C:\Program Files (x86)\Microchip\xc8\v2.00\pic\include\pic16f877a.h"
   458                           PORTA equ 05h ;# 
   459  0005                     # 218 "C:\Program Files (x86)\Microchip\xc8\v2.00\pic\include\pic16f877a.h"
   460                           PORTB equ 06h ;# 
   461  0006                     # 280 "C:\Program Files (x86)\Microchip\xc8\v2.00\pic\include\pic16f877a.h"
   462                           PORTC equ 07h ;# 
   463  0007                     # 342 "C:\Program Files (x86)\Microchip\xc8\v2.00\pic\include\pic16f877a.h"
   464                           PORTD equ 08h ;# 
   465  0008                     # 404 "C:\Program Files (x86)\Microchip\xc8\v2.00\pic\include\pic16f877a.h"
   466                           PORTE equ 09h ;# 
   467  0009                     # 436 "C:\Program Files (x86)\Microchip\xc8\v2.00\pic\include\pic16f877a.h"
   468                           PCLATH equ 0Ah ;# 
   469  000A                     # 456 "C:\Program Files (x86)\Microchip\xc8\v2.00\pic\include\pic16f877a.h"
   470                           INTCON equ 0Bh ;# 
   471  000B                     # 534 "C:\Program Files (x86)\Microchip\xc8\v2.00\pic\include\pic16f877a.h"
   472                           PIR1 equ 0Ch ;# 
   473  000C                     # 596 "C:\Program Files (x86)\Microchip\xc8\v2.00\pic\include\pic16f877a.h"
   474                           PIR2 equ 0Dh ;# 
   475  000D                     # 636 "C:\Program Files (x86)\Microchip\xc8\v2.00\pic\include\pic16f877a.h"
   476                           TMR1 equ 0Eh ;# 
   477  000E                     # 643 "C:\Program Files (x86)\Microchip\xc8\v2.00\pic\include\pic16f877a.h"
   478                           TMR1L equ 0Eh ;# 
   479  000E                     # 650 "C:\Program Files (x86)\Microchip\xc8\v2.00\pic\include\pic16f877a.h"
   480                           TMR1H equ 0Fh ;# 
   481  000F                     # 657 "C:\Program Files (x86)\Microchip\xc8\v2.00\pic\include\pic16f877a.h"
   482                           T1CON equ 010h ;# 
   483  0010                     # 732 "C:\Program Files (x86)\Microchip\xc8\v2.00\pic\include\pic16f877a.h"
   484                           TMR2 equ 011h ;# 
   485  0011                     # 739 "C:\Program Files (x86)\Microchip\xc8\v2.00\pic\include\pic16f877a.h"
   486                           T2CON equ 012h ;# 
   487  0012                     # 810 "C:\Program Files (x86)\Microchip\xc8\v2.00\pic\include\pic16f877a.h"
   488                           SSPBUF equ 013h ;# 
   489  0013                     # 817 "C:\Program Files (x86)\Microchip\xc8\v2.00\pic\include\pic16f877a.h"
   490                           SSPCON equ 014h ;# 
   491  0014                     # 887 "C:\Program Files (x86)\Microchip\xc8\v2.00\pic\include\pic16f877a.h"
   492                           CCPR1 equ 015h ;# 
   493  0015                     # 894 "C:\Program Files (x86)\Microchip\xc8\v2.00\pic\include\pic16f877a.h"
   494                           CCPR1L equ 015h ;# 
   495  0015                     # 901 "C:\Program Files (x86)\Microchip\xc8\v2.00\pic\include\pic16f877a.h"
   496                           CCPR1H equ 016h ;# 
   497  0016                     # 908 "C:\Program Files (x86)\Microchip\xc8\v2.00\pic\include\pic16f877a.h"
   498                           CCP1CON equ 017h ;# 
   499  0017                     # 966 "C:\Program Files (x86)\Microchip\xc8\v2.00\pic\include\pic16f877a.h"
   500                           RCSTA equ 018h ;# 
   501  0018                     # 1061 "C:\Program Files (x86)\Microchip\xc8\v2.00\pic\include\pic16f877a.h"
   502                           TXREG equ 019h ;# 
   503  0019                     # 1068 "C:\Program Files (x86)\Microchip\xc8\v2.00\pic\include\pic16f877a.h"
   504                           RCREG equ 01Ah ;# 
   505  001A                     # 1075 "C:\Program Files (x86)\Microchip\xc8\v2.00\pic\include\pic16f877a.h"
   506                           CCPR2 equ 01Bh ;# 
   507  001B                     # 1082 "C:\Program Files (x86)\Microchip\xc8\v2.00\pic\include\pic16f877a.h"
   508                           CCPR2L equ 01Bh ;# 
   509  001B                     # 1089 "C:\Program Files (x86)\Microchip\xc8\v2.00\pic\include\pic16f877a.h"
   510                           CCPR2H equ 01Ch ;# 
   511  001C                     # 1096 "C:\Program Files (x86)\Microchip\xc8\v2.00\pic\include\pic16f877a.h"
   512                           CCP2CON equ 01Dh ;# 
   513  001D                     # 1154 "C:\Program Files (x86)\Microchip\xc8\v2.00\pic\include\pic16f877a.h"
   514                           ADRESH equ 01Eh ;# 
   515  001E                     # 1161 "C:\Program Files (x86)\Microchip\xc8\v2.00\pic\include\pic16f877a.h"
   516                           ADCON0 equ 01Fh ;# 
   517  001F                     # 1257 "C:\Program Files (x86)\Microchip\xc8\v2.00\pic\include\pic16f877a.h"
   518                           OPTION_REG equ 081h ;# 
   519  0081                     # 1327 "C:\Program Files (x86)\Microchip\xc8\v2.00\pic\include\pic16f877a.h"
   520                           TRISA equ 085h ;# 
   521  0085                     # 1377 "C:\Program Files (x86)\Microchip\xc8\v2.00\pic\include\pic16f877a.h"
   522                           TRISB equ 086h ;# 
   523  0086                     # 1439 "C:\Program Files (x86)\Microchip\xc8\v2.00\pic\include\pic16f877a.h"
   524                           TRISC equ 087h ;# 
   525  0087                     # 1501 "C:\Program Files (x86)\Microchip\xc8\v2.00\pic\include\pic16f877a.h"
   526                           TRISD equ 088h ;# 
   527  0088                     # 1563 "C:\Program Files (x86)\Microchip\xc8\v2.00\pic\include\pic16f877a.h"
   528                           TRISE equ 089h ;# 
   529  0089                     # 1620 "C:\Program Files (x86)\Microchip\xc8\v2.00\pic\include\pic16f877a.h"
   530                           PIE1 equ 08Ch ;# 
   531  008C                     # 1682 "C:\Program Files (x86)\Microchip\xc8\v2.00\pic\include\pic16f877a.h"
   532                           PIE2 equ 08Dh ;# 
   533  008D                     # 1722 "C:\Program Files (x86)\Microchip\xc8\v2.00\pic\include\pic16f877a.h"
   534                           PCON equ 08Eh ;# 
   535  008E                     # 1756 "C:\Program Files (x86)\Microchip\xc8\v2.00\pic\include\pic16f877a.h"
   536                           SSPCON2 equ 091h ;# 
   537  0091                     # 1818 "C:\Program Files (x86)\Microchip\xc8\v2.00\pic\include\pic16f877a.h"
   538                           PR2 equ 092h ;# 
   539  0092                     # 1825 "C:\Program Files (x86)\Microchip\xc8\v2.00\pic\include\pic16f877a.h"
   540                           SSPADD equ 093h ;# 
   541  0093                     # 1832 "C:\Program Files (x86)\Microchip\xc8\v2.00\pic\include\pic16f877a.h"
   542                           SSPSTAT equ 094h ;# 
   543  0094                     # 2001 "C:\Program Files (x86)\Microchip\xc8\v2.00\pic\include\pic16f877a.h"
   544                           TXSTA equ 098h ;# 
   545  0098                     # 2082 "C:\Program Files (x86)\Microchip\xc8\v2.00\pic\include\pic16f877a.h"
   546                           SPBRG equ 099h ;# 
   547  0099                     # 2089 "C:\Program Files (x86)\Microchip\xc8\v2.00\pic\include\pic16f877a.h"
   548                           CMCON equ 09Ch ;# 
   549  009C                     # 2159 "C:\Program Files (x86)\Microchip\xc8\v2.00\pic\include\pic16f877a.h"
   550                           CVRCON equ 09Dh ;# 
   551  009D                     # 2224 "C:\Program Files (x86)\Microchip\xc8\v2.00\pic\include\pic16f877a.h"
   552                           ADRESL equ 09Eh ;# 
   553  009E                     # 2231 "C:\Program Files (x86)\Microchip\xc8\v2.00\pic\include\pic16f877a.h"
   554                           ADCON1 equ 09Fh ;# 
   555  009F                     # 2290 "C:\Program Files (x86)\Microchip\xc8\v2.00\pic\include\pic16f877a.h"
   556                           EEDATA equ 010Ch ;# 
   557  010C                     # 2297 "C:\Program Files (x86)\Microchip\xc8\v2.00\pic\include\pic16f877a.h"
   558                           EEADR equ 010Dh ;# 
   559  010D                     # 2304 "C:\Program Files (x86)\Microchip\xc8\v2.00\pic\include\pic16f877a.h"
   560                           EEDATH equ 010Eh ;# 
   561  010E                     # 2311 "C:\Program Files (x86)\Microchip\xc8\v2.00\pic\include\pic16f877a.h"
   562                           EEADRH equ 010Fh ;# 
   563  010F                     # 2318 "C:\Program Files (x86)\Microchip\xc8\v2.00\pic\include\pic16f877a.h"
   564                           EECON1 equ 018Ch ;# 
   565  018C                     # 2363 "C:\Program Files (x86)\Microchip\xc8\v2.00\pic\include\pic16f877a.h"
   566                           EECON2 equ 018Dh ;# 
   567  018D                     # 54 "C:\Program Files (x86)\Microchip\xc8\v2.00\pic\include\pic16f877a.h"
   568                           INDF equ 00h ;# 
   569  0000                     # 61 "C:\Program Files (x86)\Microchip\xc8\v2.00\pic\include\pic16f877a.h"
   570                           TMR0 equ 01h ;# 
   571  0001                     # 68 "C:\Program Files (x86)\Microchip\xc8\v2.00\pic\include\pic16f877a.h"
   572                           PCL equ 02h ;# 
   573  0002                     # 75 "C:\Program Files (x86)\Microchip\xc8\v2.00\pic\include\pic16f877a.h"
   574                           STATUS equ 03h ;# 
   575  0003                     # 161 "C:\Program Files (x86)\Microchip\xc8\v2.00\pic\include\pic16f877a.h"
   576                           FSR equ 04h ;# 
   577  0004                     # 168 "C:\Program Files (x86)\Microchip\xc8\v2.00\pic\include\pic16f877a.h"
   578                           PORTA equ 05h ;# 
   579  0005                     # 218 "C:\Program Files (x86)\Microchip\xc8\v2.00\pic\include\pic16f877a.h"
   580                           PORTB equ 06h ;# 
   581  0006                     # 280 "C:\Program Files (x86)\Microchip\xc8\v2.00\pic\include\pic16f877a.h"
   582                           PORTC equ 07h ;# 
   583  0007                     # 342 "C:\Program Files (x86)\Microchip\xc8\v2.00\pic\include\pic16f877a.h"
   584                           PORTD equ 08h ;# 
   585  0008                     # 404 "C:\Program Files (x86)\Microchip\xc8\v2.00\pic\include\pic16f877a.h"
   586                           PORTE equ 09h ;# 
   587  0009                     # 436 "C:\Program Files (x86)\Microchip\xc8\v2.00\pic\include\pic16f877a.h"
   588                           PCLATH equ 0Ah ;# 
   589  000A                     # 456 "C:\Program Files (x86)\Microchip\xc8\v2.00\pic\include\pic16f877a.h"
   590                           INTCON equ 0Bh ;# 
   591  000B                     # 534 "C:\Program Files (x86)\Microchip\xc8\v2.00\pic\include\pic16f877a.h"
   592                           PIR1 equ 0Ch ;# 
   593  000C                     # 596 "C:\Program Files (x86)\Microchip\xc8\v2.00\pic\include\pic16f877a.h"
   594                           PIR2 equ 0Dh ;# 
   595  000D                     # 636 "C:\Program Files (x86)\Microchip\xc8\v2.00\pic\include\pic16f877a.h"
   596                           TMR1 equ 0Eh ;# 
   597  000E                     # 643 "C:\Program Files (x86)\Microchip\xc8\v2.00\pic\include\pic16f877a.h"
   598                           TMR1L equ 0Eh ;# 
   599  000E                     # 650 "C:\Program Files (x86)\Microchip\xc8\v2.00\pic\include\pic16f877a.h"
   600                           TMR1H equ 0Fh ;# 
   601  000F                     # 657 "C:\Program Files (x86)\Microchip\xc8\v2.00\pic\include\pic16f877a.h"
   602                           T1CON equ 010h ;# 
   603  0010                     # 732 "C:\Program Files (x86)\Microchip\xc8\v2.00\pic\include\pic16f877a.h"
   604                           TMR2 equ 011h ;# 
   605  0011                     # 739 "C:\Program Files (x86)\Microchip\xc8\v2.00\pic\include\pic16f877a.h"
   606                           T2CON equ 012h ;# 
   607  0012                     # 810 "C:\Program Files (x86)\Microchip\xc8\v2.00\pic\include\pic16f877a.h"
   608                           SSPBUF equ 013h ;# 
   609  0013                     # 817 "C:\Program Files (x86)\Microchip\xc8\v2.00\pic\include\pic16f877a.h"
   610                           SSPCON equ 014h ;# 
   611  0014                     # 887 "C:\Program Files (x86)\Microchip\xc8\v2.00\pic\include\pic16f877a.h"
   612                           CCPR1 equ 015h ;# 
   613  0015                     # 894 "C:\Program Files (x86)\Microchip\xc8\v2.00\pic\include\pic16f877a.h"
   614                           CCPR1L equ 015h ;# 
   615  0015                     # 901 "C:\Program Files (x86)\Microchip\xc8\v2.00\pic\include\pic16f877a.h"
   616                           CCPR1H equ 016h ;# 
   617  0016                     # 908 "C:\Program Files (x86)\Microchip\xc8\v2.00\pic\include\pic16f877a.h"
   618                           CCP1CON equ 017h ;# 
   619  0017                     # 966 "C:\Program Files (x86)\Microchip\xc8\v2.00\pic\include\pic16f877a.h"
   620                           RCSTA equ 018h ;# 
   621  0018                     # 1061 "C:\Program Files (x86)\Microchip\xc8\v2.00\pic\include\pic16f877a.h"
   622                           TXREG equ 019h ;# 
   623  0019                     # 1068 "C:\Program Files (x86)\Microchip\xc8\v2.00\pic\include\pic16f877a.h"
   624                           RCREG equ 01Ah ;# 
   625  001A                     # 1075 "C:\Program Files (x86)\Microchip\xc8\v2.00\pic\include\pic16f877a.h"
   626                           CCPR2 equ 01Bh ;# 
   627  001B                     # 1082 "C:\Program Files (x86)\Microchip\xc8\v2.00\pic\include\pic16f877a.h"
   628                           CCPR2L equ 01Bh ;# 
   629  001B                     # 1089 "C:\Program Files (x86)\Microchip\xc8\v2.00\pic\include\pic16f877a.h"
   630                           CCPR2H equ 01Ch ;# 
   631  001C                     # 1096 "C:\Program Files (x86)\Microchip\xc8\v2.00\pic\include\pic16f877a.h"
   632                           CCP2CON equ 01Dh ;# 
   633  001D                     # 1154 "C:\Program Files (x86)\Microchip\xc8\v2.00\pic\include\pic16f877a.h"
   634                           ADRESH equ 01Eh ;# 
   635  001E                     # 1161 "C:\Program Files (x86)\Microchip\xc8\v2.00\pic\include\pic16f877a.h"
   636                           ADCON0 equ 01Fh ;# 
   637  001F                     # 1257 "C:\Program Files (x86)\Microchip\xc8\v2.00\pic\include\pic16f877a.h"
   638                           OPTION_REG equ 081h ;# 
   639  0081                     # 1327 "C:\Program Files (x86)\Microchip\xc8\v2.00\pic\include\pic16f877a.h"
   640                           TRISA equ 085h ;# 
   641  0085                     # 1377 "C:\Program Files (x86)\Microchip\xc8\v2.00\pic\include\pic16f877a.h"
   642                           TRISB equ 086h ;# 
   643  0086                     # 1439 "C:\Program Files (x86)\Microchip\xc8\v2.00\pic\include\pic16f877a.h"
   644                           TRISC equ 087h ;# 
   645  0087                     # 1501 "C:\Program Files (x86)\Microchip\xc8\v2.00\pic\include\pic16f877a.h"
   646                           TRISD equ 088h ;# 
   647  0088                     # 1563 "C:\Program Files (x86)\Microchip\xc8\v2.00\pic\include\pic16f877a.h"
   648                           TRISE equ 089h ;# 
   649  0089                     # 1620 "C:\Program Files (x86)\Microchip\xc8\v2.00\pic\include\pic16f877a.h"
   650                           PIE1 equ 08Ch ;# 
   651  008C                     # 1682 "C:\Program Files (x86)\Microchip\xc8\v2.00\pic\include\pic16f877a.h"
   652                           PIE2 equ 08Dh ;# 
   653  008D                     # 1722 "C:\Program Files (x86)\Microchip\xc8\v2.00\pic\include\pic16f877a.h"
   654                           PCON equ 08Eh ;# 
   655  008E                     # 1756 "C:\Program Files (x86)\Microchip\xc8\v2.00\pic\include\pic16f877a.h"
   656                           SSPCON2 equ 091h ;# 
   657  0091                     # 1818 "C:\Program Files (x86)\Microchip\xc8\v2.00\pic\include\pic16f877a.h"
   658                           PR2 equ 092h ;# 
   659  0092                     # 1825 "C:\Program Files (x86)\Microchip\xc8\v2.00\pic\include\pic16f877a.h"
   660                           SSPADD equ 093h ;# 
   661  0093                     # 1832 "C:\Program Files (x86)\Microchip\xc8\v2.00\pic\include\pic16f877a.h"
   662                           SSPSTAT equ 094h ;# 
   663  0094                     # 2001 "C:\Program Files (x86)\Microchip\xc8\v2.00\pic\include\pic16f877a.h"
   664                           TXSTA equ 098h ;# 
   665  0098                     # 2082 "C:\Program Files (x86)\Microchip\xc8\v2.00\pic\include\pic16f877a.h"
   666                           SPBRG equ 099h ;# 
   667  0099                     # 2089 "C:\Program Files (x86)\Microchip\xc8\v2.00\pic\include\pic16f877a.h"
   668                           CMCON equ 09Ch ;# 
   669  009C                     # 2159 "C:\Program Files (x86)\Microchip\xc8\v2.00\pic\include\pic16f877a.h"
   670                           CVRCON equ 09Dh ;# 
   671  009D                     # 2224 "C:\Program Files (x86)\Microchip\xc8\v2.00\pic\include\pic16f877a.h"
   672                           ADRESL equ 09Eh ;# 
   673  009E                     # 2231 "C:\Program Files (x86)\Microchip\xc8\v2.00\pic\include\pic16f877a.h"
   674                           ADCON1 equ 09Fh ;# 
   675  009F                     # 2290 "C:\Program Files (x86)\Microchip\xc8\v2.00\pic\include\pic16f877a.h"
   676                           EEDATA equ 010Ch ;# 
   677  010C                     # 2297 "C:\Program Files (x86)\Microchip\xc8\v2.00\pic\include\pic16f877a.h"
   678                           EEADR equ 010Dh ;# 
   679  010D                     # 2304 "C:\Program Files (x86)\Microchip\xc8\v2.00\pic\include\pic16f877a.h"
   680                           EEDATH equ 010Eh ;# 
   681  010E                     # 2311 "C:\Program Files (x86)\Microchip\xc8\v2.00\pic\include\pic16f877a.h"
   682                           EEADRH equ 010Fh ;# 
   683  010F                     # 2318 "C:\Program Files (x86)\Microchip\xc8\v2.00\pic\include\pic16f877a.h"
   684                           EECON1 equ 018Ch ;# 
   685  018C                     # 2363 "C:\Program Files (x86)\Microchip\xc8\v2.00\pic\include\pic16f877a.h"
   686                           EECON2 equ 018Dh ;# 
   687  018D                     	FNCALL	_main,_Initialization
   688                           	FNCALL	_main,_loop
   689                           	FNCALL	_main,_setup
   690                           	FNCALL	_setup,_PIDSetSampleTime
   691                           	FNCALL	_setup,_lcdBegin
   692                           	FNCALL	_setup,_lcdPrint
   693                           	FNCALL	_setup,_lcdSetCursor
   694                           	FNCALL	_setup,_pinMode
   695                           	FNCALL	_lcdBegin,_WriteInstruction
   696                           	FNCALL	_lcdBegin,_delay
   697                           	FNCALL	_lcdBegin,_pinMode
   698                           	FNCALL	_loop,_AccionControl
   699                           	FNCALL	_loop,_EventCounters
   700                           	FNCALL	_loop,___xxtofl
   701                           	FNCALL	_loop,_digitalWrite
   702                           	FNCALL	_loop,_lcdPrint
   703                           	FNCALL	_loop,_lcdSetCursor
   704                           	FNCALL	_loop,_sprintf
   705                           	FNCALL	_sprintf,___lwdiv
   706                           	FNCALL	_sprintf,___lwmod
   707                           	FNCALL	_lcdSetCursor,_WriteInstruction
   708                           	FNCALL	_WriteInstruction,_ByteByNibble
   709                           	FNCALL	_WriteInstruction,_delay
   710                           	FNCALL	_WriteInstruction,_digitalWrite
   711                           	FNCALL	_lcdPrint,_lcdWrite
   712                           	FNCALL	_lcdWrite,_WriteData
   713                           	FNCALL	_lcdWrite,_delay
   714                           	FNCALL	_WriteData,_ByteByNibble
   715                           	FNCALL	_WriteData,_delay
   716                           	FNCALL	_WriteData,_digitalWrite
   717                           	FNCALL	_ByteByNibble,_digitalWrite
   718                           	FNCALL	_AccionControl,___fladd
   719                           	FNCALL	_AccionControl,___fldiv
   720                           	FNCALL	_AccionControl,___flmul
   721                           	FNCALL	_AccionControl,___flneg
   722                           	FNCALL	_AccionControl,___fltol
   723                           	FNCALL	___flmul,__Umul8_16
   724                           	FNCALL	_Initialization,_PWMConfiguration
   725                           	FNROOT	_main
   726                           	global	_dpowers
   727                           psect	strings,class=STRING,delta=2,noexec
   728                           global __pstrings
   729                           __pstrings:
   730  0800                     stringtab:
   731  0800                     	global    __stringtab
   732                           __stringtab:
   733  0800                     ;	String table - string pointers are 1 byte each
   734                           	btfsc	(btemp+1),7
   735  0800  1BFF               	ljmp	stringcode
   736  0801  280A               	bcf	status,7
   737  0802  1383               	btfsc	(btemp+1),0
   738  0803  187F               	bsf	status,7
   739  0804  1783               	movf	indf,w
   740  0805  0800               	incf fsr
   741  0806  0A84               skipnz
   742  0807  1903               incf btemp+1
   743  0808  0AFF               	return
   744  0809  0008               stringcode:stringdir:
   745  080A                     movlw high(stringdir)
      + 080A                     stringdir:	
   746  080A  3008               movwf pclath
   747  080B  008A               movf fsr,w
   748  080C  0804               incf fsr
   749  080D  0A84               	addwf pc
   750  080E  0782               	global __stringbase
   751                           __stringbase:
   752  080F                     	retlw	0
   753  080F  3400               psect	strings
   754                           	global    __end_of__stringtab
   755                           __end_of__stringtab:
   756  0810                     	file	"C:\Program Files (x86)\Microchip\xc8\v2.00\pic\sources\c90\common\doprnt.c"
   757                           	line	358
   758                           _dpowers:
   759  0810                     	retlw	01h
   760  0810  3401               	retlw	0
   761  0811  3400               
   762                           	retlw	0Ah
   763  0812  340A               	retlw	0
   764  0813  3400               
   765                           	retlw	064h
   766  0814  3464               	retlw	0
   767  0815  3400               
   768                           	retlw	0E8h
   769  0816  34E8               	retlw	03h
   770  0817  3403               
   771                           	retlw	010h
   772  0818  3410               	retlw	027h
   773  0819  3427               
   774                           	global __end_of_dpowers
   775                           __end_of_dpowers:
   776  081A                     	global	_led
   777                           psect	strings
   778                           	file	"application.c"
   779                           	line	14
   780                           _led:
   781  081A                     	retlw	0Ch
   782  081A  340C               	global __end_of_led
   783                           __end_of_led:
   784  081B                     	global	_D7
   785                           psect	strings
   786                           	file	"application.c"
   787                           	line	12
   788                           _D7:
   789  081B                     	retlw	013h
   790  081B  3413               	global __end_of_D7
   791                           __end_of_D7:
   792  081C                     	global	_D6
   793                           psect	strings
   794                           	file	"application.c"
   795                           	line	11
   796                           _D6:
   797  081C                     	retlw	012h
   798  081C  3412               	global __end_of_D6
   799                           __end_of_D6:
   800  081D                     	global	_D5
   801                           psect	strings
   802                           	file	"application.c"
   803                           	line	10
   804                           _D5:
   805  081D                     	retlw	011h
   806  081D  3411               	global __end_of_D5
   807                           __end_of_D5:
   808  081E                     	global	_D4
   809                           psect	strings
   810                           	file	"application.c"
   811                           	line	9
   812                           _D4:
   813  081E                     	retlw	010h
   814  081E  3410               	global __end_of_D4
   815                           __end_of_D4:
   816  081F                     	global	_RnW
   817                           psect	strings
   818                           	file	"application.c"
   819                           	line	8
   820                           _RnW:
   821  081F                     	retlw	019h
   822  081F  3419               	global __end_of_RnW
   823                           __end_of_RnW:
   824  0820                     	global	_EN
   825                           psect	strings
   826                           	file	"application.c"
   827                           	line	7
   828                           _EN:
   829  0820                     	retlw	015h
   830  0820  3415               	global __end_of_EN
   831                           __end_of_EN:
   832  0821                     	global	_RS
   833                           psect	strings
   834                           	file	"application.c"
   835                           	line	6
   836                           _RS:
   837  0821                     	retlw	014h
   838  0821  3414               	global __end_of_RS
   839                           __end_of_RS:
   840  0822                     	global	_dpowers
   841                           	global	_led
   842                           	global	_D7
   843                           	global	_D6
   844                           	global	_D5
   845                           	global	_D4
   846                           	global	_RnW
   847                           	global	_EN
   848                           	global	_RS
   849                           	global	_Control
   850                           	global	_dt
   851                           	global	_Last
   852                           	global	_Now
   853                           	global	_dTime
   854                           	global	_d7Pin
   855                           	global	_d6Pin
   856                           	global	_d5Pin
   857                           	global	_d4Pin
   858                           	global	_RWPin
   859                           	global	_ENPin
   860                           	global	_RSPin
   861                           	global	_ScreenROW
   862                           	global	_PID
   863                           	global	_TMR0
   864                           _TMR0	set	0x1
   865  0001                     	global	_RCREG
   866                           _RCREG	set	0x1A
   867  001A                     	global	_TXREG
   868                           _TXREG	set	0x19
   869  0019                     	global	_PORTEbits
   870                           _PORTEbits	set	0x9
   871  0009                     	global	_ADRESH
   872                           _ADRESH	set	0x1E
   873  001E                     	global	_ADCON0bits
   874                           _ADCON0bits	set	0x1F
   875  001F                     	global	_PORTAbits
   876                           _PORTAbits	set	0x5
   877  0005                     	global	_PORTDbits
   878                           _PORTDbits	set	0x8
   879  0008                     	global	_PORTBbits
   880                           _PORTBbits	set	0x6
   881  0006                     	global	_PORTCbits
   882                           _PORTCbits	set	0x7
   883  0007                     	global	_CCP2CON
   884                           _CCP2CON	set	0x1D
   885  001D                     	global	_CCP1CON
   886                           _CCP1CON	set	0x17
   887  0017                     	global	_CCPR1L
   888                           _CCPR1L	set	0x15
   889  0015                     	global	_CCPR2L
   890                           _CCPR2L	set	0x1B
   891  001B                     	global	_T2CON
   892                           _T2CON	set	0x12
   893  0012                     	global	_PORTE
   894                           _PORTE	set	0x9
   895  0009                     	global	_PORTC
   896                           _PORTC	set	0x7
   897  0007                     	global	_PORTB
   898                           _PORTB	set	0x6
   899  0006                     	global	_ADCON0
   900                           _ADCON0	set	0x1F
   901  001F                     	global	_TMR0IF
   902                           _TMR0IF	set	0x5A
   903  005A                     	global	_RCIF
   904                           _RCIF	set	0x65
   905  0065                     	global	_TXIF
   906                           _TXIF	set	0x64
   907  0064                     	global	_OERR
   908                           _OERR	set	0xC1
   909  00C1                     	global	_FERR
   910                           _FERR	set	0xC2
   911  00C2                     	global	_CREN
   912                           _CREN	set	0xC4
   913  00C4                     	global	_SPEN
   914                           _SPEN	set	0xC7
   915  00C7                     	global	_CCP1Y
   916                           _CCP1Y	set	0xBC
   917  00BC                     	global	_CCP1X
   918                           _CCP1X	set	0xBD
   919  00BD                     	global	_CCP2Y
   920                           _CCP2Y	set	0xEC
   921  00EC                     	global	_CCP2X
   922                           _CCP2X	set	0xED
   923  00ED                     	global	_OPTION_REG
   924                           _OPTION_REG	set	0x81
   925  0081                     	global	_SPBRG
   926                           _SPBRG	set	0x99
   927  0099                     	global	_ADRESL
   928                           _ADRESL	set	0x9E
   929  009E                     	global	_TRISAbits
   930                           _TRISAbits	set	0x85
   931  0085                     	global	_TRISDbits
   932                           _TRISDbits	set	0x88
   933  0088                     	global	_TRISBbits
   934                           _TRISBbits	set	0x86
   935  0086                     	global	_TRISCbits
   936                           _TRISCbits	set	0x87
   937  0087                     	global	_PR2
   938                           _PR2	set	0x92
   939  0092                     	global	_TRISE
   940                           _TRISE	set	0x89
   941  0089                     	global	_TRISC
   942                           _TRISC	set	0x87
   943  0087                     	global	_TRISB
   944                           _TRISB	set	0x86
   945  0086                     	global	_ADCON1
   946                           _ADCON1	set	0x9F
   947  009F                     	global	_TRMT
   948                           _TRMT	set	0x4C1
   949  04C1                     	global	_TXEN
   950                           _TXEN	set	0x4C5
   951  04C5                     	global	_TRISC6
   952                           _TRISC6	set	0x43E
   953  043E                     	global	_TRISC7
   954                           _TRISC7	set	0x43F
   955  043F                     	global	_SYNC
   956                           _SYNC	set	0x4C4
   957  04C4                     	global	_BRGH
   958                           _BRGH	set	0x4C2
   959  04C2                     	
   960                           STR_3:	
   961  0822                     	retlw	32	;' '
   962  0822  3420               	retlw	32	;' '
   963  0823  3420               	retlw	32	;' '
   964  0824  3420               	retlw	32	;' '
   965  0825  3420               	retlw	32	;' '
   966  0826  3420               	retlw	32	;' '
   967  0827  3420               	retlw	32	;' '
   968  0828  3420               	retlw	32	;' '
   969  0829  3420               	retlw	32	;' '
   970  082A  3420               	retlw	32	;' '
   971  082B  3420               	retlw	32	;' '
   972  082C  3420               	retlw	32	;' '
   973  082D  3420               	retlw	32	;' '
   974  082E  3420               	retlw	32	;' '
   975  082F  3420               	retlw	32	;' '
   976  0830  3420               	retlw	32	;' '
   977  0831  3420               	retlw	0
   978  0832  3400               psect	strings
   979                           	
   980                           STR_1:	
   981  0833                     	retlw	80	;'P'
   982  0833  3450               	retlw	73	;'I'
   983  0834  3449               	retlw	68	;'D'
   984  0835  3444               	retlw	32	;' '
   985  0836  3420               	retlw	67	;'C'
   986  0837  3443               	retlw	111	;'o'
   987  0838  346F               	retlw	110	;'n'
   988  0839  346E               	retlw	116	;'t'
   989  083A  3474               	retlw	114	;'r'
   990  083B  3472               	retlw	111	;'o'
   991  083C  346F               	retlw	108	;'l'
   992  083D  346C               	retlw	32	;' '
   993  083E  3420               	retlw	84	;'T'
   994  083F  3454               	retlw	101	;'e'
   995  0840  3465               	retlw	115	;'s'
   996  0841  3473               	retlw	116	;'t'
   997  0842  3474               	retlw	0
   998  0843  3400               psect	strings
   999                           	
  1000                           STR_4:	
  1001  0844                     	retlw	84	;'T'
  1002  0844  3454               	retlw	105	;'i'
  1003  0845  3469               	retlw	109	;'m'
  1004  0846  346D               	retlw	101	;'e'
  1005  0847  3465               	retlw	61	;'='
  1006  0848  343D               	retlw	37	;'%'
  1007  0849  3425               	retlw	117	;'u'
  1008  084A  3475               	retlw	32	;' '
  1009  084B  3420               	retlw	0
  1010  084C  3400               psect	strings
  1011                           	
  1012                           STR_2:	
  1013  084D                     	retlw	78	;'N'
  1014  084D  344E               	retlw	79	;'O'
  1015  084E  344F               	retlw	87	;'W'
  1016  084F  3457               	retlw	61	;'='
  1017  0850  343D               	retlw	37	;'%'
  1018  0851  3425               	retlw	117	;'u'
  1019  0852  3475               	retlw	0
  1020  0853  3400               psect	strings
  1021                           ; #config settings
  1022                           global __CFG_FOSC$HS
  1023                           __CFG_FOSC$HS equ 0x0
  1024  0000                     global __CFG_WDTE$OFF
  1025                           __CFG_WDTE$OFF equ 0x0
  1026  0000                     global __CFG_PWRTE$OFF
  1027                           __CFG_PWRTE$OFF equ 0x0
  1028  0000                     global __CFG_BOREN$OFF
  1029                           __CFG_BOREN$OFF equ 0x0
  1030  0000                     global __CFG_LVP$ON
  1031                           __CFG_LVP$ON equ 0x0
  1032  0000                     global __CFG_CPD$OFF
  1033                           __CFG_CPD$OFF equ 0x0
  1034  0000                     global __CFG_WRT$OFF
  1035                           __CFG_WRT$OFF equ 0x0
  1036  0000                     global __CFG_CP$OFF
  1037                           __CFG_CP$OFF equ 0x0
  1038  0000                     	file	"C:\Users\DSIRe\AppData\Local\Temp\s750."
  1039                           	line	#
  1040                           psect cinit,class=CODE,delta=2
  1041                           global start_initialization
  1042                           start_initialization:
  1043  07EA                     
  1044                           global __initialization
  1045                           __initialization:
  1046  07EA                     psect	bssBANK1,class=BANK1,space=1,noexec
  1047                           global __pbssBANK1
  1048                           __pbssBANK1:
  1049  00A0                     _Control:
  1050  00A0                            ds      4
  1051  00A0                     
  1052                           _dt:
  1053  00A4                            ds      2
  1054  00A4                     
  1055                           _Last:
  1056  00A6                            ds      2
  1057  00A6                     
  1058                           _Now:
  1059  00A8                            ds      2
  1060  00A8                     
  1061                           _dTime:
  1062  00AA                            ds      2
  1063  00AA                     
  1064                           _d7Pin:
  1065  00AC                            ds      1
  1066  00AC                     
  1067                           _d6Pin:
  1068  00AD                            ds      1
  1069  00AD                     
  1070                           _d5Pin:
  1071  00AE                            ds      1
  1072  00AE                     
  1073                           _d4Pin:
  1074  00AF                            ds      1
  1075  00AF                     
  1076                           _RWPin:
  1077  00B0                            ds      1
  1078  00B0                     
  1079                           _ENPin:
  1080  00B1                            ds      1
  1081  00B1                     
  1082                           _RSPin:
  1083  00B2                            ds      1
  1084  00B2                     
  1085                           _ScreenROW:
  1086  00B3                            ds      16
  1087  00B3                     
  1088                           psect	bssBANK3,class=BANK3,space=1,noexec
  1089                           global __pbssBANK3
  1090                           __pbssBANK3:
  1091  0190                     _PID:
  1092  0190                            ds      47
  1093  0190                     
  1094                           	file	"C:\Users\DSIRe\AppData\Local\Temp\s750."
  1095                           	line	#
  1096                           psect clrtext,class=CODE,delta=2
  1097                           global clear_ram0
  1098                           ;	Called with FSR containing the base address, and
  1099                           ;	W with the last address+1
  1100                           clear_ram0:
  1101  114C                     	clrwdt			;clear the watchdog before getting into this loop
  1102  114C  0064               clrloop0:
  1103  114D                     	clrf	indf		;clear RAM location pointed to by FSR
  1104  114D  0180               	incf	fsr,f		;increment pointer
  1105  114E  0A84               	xorwf	fsr,w		;XOR with final address
  1106  114F  0604               	btfsc	status,2	;have we reached the end yet?
  1107  1150  1903               	retlw	0		;all done for this memory range, return
  1108  1151  3400               	xorwf	fsr,w		;XOR again to restore value
  1109  1152  0604               	goto	clrloop0		;do the next byte
  1110  1153  294D               
  1111                           ; Clear objects allocated to BANK1
  1112                           psect cinit,class=CODE,delta=2,merge=1
  1113                           	bcf	status, 7	;select IRP bank0
  1114  07EA  1383               	movlw	low(__pbssBANK1)
  1115  07EB  30A0               	movwf	fsr
  1116  07EC  0084               	movlw	low((__pbssBANK1)+023h)
  1117  07ED  30C3               	fcall	clear_ram0
  1118  07EE  160A  118A  214C  120A  118A  ; Clear objects allocated to BANK3
  1119                           psect cinit,class=CODE,delta=2,merge=1
  1120                           	bsf	status, 7	;select IRP bank2
  1121  07F3  1783               	movlw	low(__pbssBANK3)
  1122  07F4  3090               	movwf	fsr
  1123  07F5  0084               	movlw	low((__pbssBANK3)+02Fh)
  1124  07F6  30BF               	fcall	clear_ram0
  1125  07F7  160A  118A  214C  120A  118A  psect cinit,class=CODE,delta=2,merge=1
  1126                           global end_of_initialization,__end_of__initialization
  1127                           
  1128                           ;End of C runtime variable initialization code
  1129                           
  1130                           end_of_initialization:
  1131  07FC                     __end_of__initialization:
  1132  07FC                     clrf status
  1133  07FC  0183               ljmp _main	;jump to C main() function
  1134  07FD  160A  118A  2972   psect	cstackBANK1,class=BANK1,space=1,noexec
  1135                           global __pcstackBANK1
  1136                           __pcstackBANK1:
  1137  00C3                     	global	_AccionControl$1274
  1138                           _AccionControl$1274:	; 4 bytes @ 0x0
  1139  00C3                     	ds	4
  1140  00C3                     	global	?___xxtofl
  1141                           ?___xxtofl:	; 4 bytes @ 0x4
  1142  00C7                     	global	___xxtofl@val
  1143                           ___xxtofl@val:	; 4 bytes @ 0x4
  1144  00C7                     	ds	4
  1145  00C7                     ??___xxtofl:	; 1 bytes @ 0x8
  1146  00CB                     	ds	4
  1147  00CB                     	global	___xxtofl@sign
  1148                           ___xxtofl@sign:	; 1 bytes @ 0xC
  1149  00CF                     	ds	1
  1150  00CF                     	global	___xxtofl@exp
  1151                           ___xxtofl@exp:	; 1 bytes @ 0xD
  1152  00D0                     	ds	1
  1153  00D0                     	global	___xxtofl@arg
  1154                           ___xxtofl@arg:	; 4 bytes @ 0xE
  1155  00D1                     	ds	4
  1156  00D1                     ??_loop:	; 1 bytes @ 0x12
  1157  00D5                     	ds	4
  1158  00D5                     psect	cstackCOMMON,class=COMMON,space=1,noexec
  1159                           global __pcstackCOMMON
  1160                           __pcstackCOMMON:
  1161  0070                     ?_pinMode:	; 1 bytes @ 0x0
  1162  0070                     ?_PIDSetSampleTime:	; 1 bytes @ 0x0
  1163  0070                     ??_PIDSetSampleTime:	; 1 bytes @ 0x0
  1164  0070                     ?_digitalWrite:	; 1 bytes @ 0x0
  1165  0070                     ?_Initialization:	; 1 bytes @ 0x0
  1166  0070                     ??_Initialization:	; 1 bytes @ 0x0
  1167  0070                     ?_PWMConfiguration:	; 1 bytes @ 0x0
  1168  0070                     ??_PWMConfiguration:	; 1 bytes @ 0x0
  1169  0070                     ?_delay:	; 1 bytes @ 0x0
  1170  0070                     ?_WriteInstruction:	; 1 bytes @ 0x0
  1171  0070                     ?_WriteData:	; 1 bytes @ 0x0
  1172  0070                     ?_ByteByNibble:	; 1 bytes @ 0x0
  1173  0070                     ?_setup:	; 1 bytes @ 0x0
  1174  0070                     ?_loop:	; 1 bytes @ 0x0
  1175  0070                     ?_lcdWrite:	; 1 bytes @ 0x0
  1176  0070                     	global	?_EventCounters
  1177                           ?_EventCounters:	; 2 bytes @ 0x0
  1178  0070                     	global	?__Umul8_16
  1179                           ?__Umul8_16:	; 2 bytes @ 0x0
  1180  0070                     ?_main:	; 2 bytes @ 0x0
  1181  0070                     	global	?___lwdiv
  1182                           ?___lwdiv:	; 2 bytes @ 0x0
  1183  0070                     	global	?___flneg
  1184                           ?___flneg:	; 4 bytes @ 0x0
  1185  0070                     	global	?___fltol
  1186                           ?___fltol:	; 4 bytes @ 0x0
  1187  0070                     	global	pinMode@mode
  1188                           pinMode@mode:	; 1 bytes @ 0x0
  1189  0070                     	global	digitalWrite@value
  1190                           digitalWrite@value:	; 1 bytes @ 0x0
  1191  0070                     	global	__Umul8_16@multiplicand
  1192                           __Umul8_16@multiplicand:	; 1 bytes @ 0x0
  1193  0070                     	global	delay@milis
  1194                           delay@milis:	; 2 bytes @ 0x0
  1195  0070                     	global	___lwdiv@divisor
  1196                           ___lwdiv@divisor:	; 2 bytes @ 0x0
  1197  0070                     	global	___flneg@f1
  1198                           ___flneg@f1:	; 4 bytes @ 0x0
  1199  0070                     	global	___fltol@f1
  1200                           ___fltol@f1:	; 4 bytes @ 0x0
  1201  0070                     	ds	1
  1202  0070                     ??_pinMode:	; 1 bytes @ 0x1
  1203  0071                     ??_digitalWrite:	; 1 bytes @ 0x1
  1204  0071                     	global	PIDSetSampleTime@dt
  1205                           PIDSetSampleTime@dt:	; 1 bytes @ 0x1
  1206  0071                     	ds	1
  1207  0071                     ??_EventCounters:	; 1 bytes @ 0x2
  1208  0072                     ??_delay:	; 1 bytes @ 0x2
  1209  0072                     ??__Umul8_16:	; 1 bytes @ 0x2
  1210  0072                     	global	___lwdiv@dividend
  1211                           ___lwdiv@dividend:	; 2 bytes @ 0x2
  1212  0072                     	ds	1
  1213  0072                     	global	pinMode@pin
  1214                           pinMode@pin:	; 1 bytes @ 0x3
  1215  0073                     	global	digitalWrite@pin
  1216                           digitalWrite@pin:	; 1 bytes @ 0x3
  1217  0073                     	global	delay@j
  1218                           delay@j:	; 2 bytes @ 0x3
  1219  0073                     	ds	1
  1220  0073                     ??_ByteByNibble:	; 1 bytes @ 0x4
  1221  0074                     ??___flneg:	; 1 bytes @ 0x4
  1222  0074                     ??___fltol:	; 1 bytes @ 0x4
  1223  0074                     ??___lwdiv:	; 1 bytes @ 0x4
  1224  0074                     	global	?___fladd
  1225                           ?___fladd:	; 4 bytes @ 0x4
  1226  0074                     	global	__Umul8_16@product
  1227                           __Umul8_16@product:	; 2 bytes @ 0x4
  1228  0074                     	global	___fladd@b
  1229                           ___fladd@b:	; 4 bytes @ 0x4
  1230  0074                     	ds	1
  1231  0074                     	global	delay@i
  1232                           delay@i:	; 2 bytes @ 0x5
  1233  0075                     	global	___lwdiv@quotient
  1234                           ___lwdiv@quotient:	; 2 bytes @ 0x5
  1235  0075                     	ds	1
  1236  0075                     	global	ByteByNibble@NibbleValue
  1237                           ByteByNibble@NibbleValue:	; 1 bytes @ 0x6
  1238  0076                     	global	__Umul8_16@word_mpld
  1239                           __Umul8_16@word_mpld:	; 2 bytes @ 0x6
  1240  0076                     	ds	1
  1241  0076                     ??_WriteInstruction:	; 1 bytes @ 0x7
  1242  0077                     ??_WriteData:	; 1 bytes @ 0x7
  1243  0077                     	global	___lwdiv@counter
  1244                           ___lwdiv@counter:	; 1 bytes @ 0x7
  1245  0077                     	ds	1
  1246  0077                     	global	?___lwmod
  1247                           ?___lwmod:	; 2 bytes @ 0x8
  1248  0078                     	global	__Umul8_16@multiplier
  1249                           __Umul8_16@multiplier:	; 1 bytes @ 0x8
  1250  0078                     	global	___lwmod@divisor
  1251                           ___lwmod@divisor:	; 2 bytes @ 0x8
  1252  0078                     	global	___fladd@a
  1253                           ___fladd@a:	; 4 bytes @ 0x8
  1254  0078                     	ds	1
  1255  0078                     	global	WriteInstruction@LSNibble
  1256                           WriteInstruction@LSNibble:	; 1 bytes @ 0x9
  1257  0079                     	global	WriteData@LSNibble
  1258                           WriteData@LSNibble:	; 1 bytes @ 0x9
  1259  0079                     	global	___fltol@sign1
  1260                           ___fltol@sign1:	; 1 bytes @ 0x9
  1261  0079                     	ds	1
  1262  0079                     	global	WriteInstruction@instruction
  1263                           WriteInstruction@instruction:	; 1 bytes @ 0xA
  1264  007A                     	global	WriteData@data
  1265                           WriteData@data:	; 1 bytes @ 0xA
  1266  007A                     	global	___fltol@exp1
  1267                           ___fltol@exp1:	; 1 bytes @ 0xA
  1268  007A                     	global	___lwmod@dividend
  1269                           ___lwmod@dividend:	; 2 bytes @ 0xA
  1270  007A                     	ds	1
  1271  007A                     	global	WriteInstruction@MSNibble
  1272                           WriteInstruction@MSNibble:	; 1 bytes @ 0xB
  1273  007B                     	global	WriteData@MSNibble
  1274                           WriteData@MSNibble:	; 1 bytes @ 0xB
  1275  007B                     	ds	1
  1276  007B                     ??_lcdBegin:	; 1 bytes @ 0xC
  1277  007C                     ?_lcdSetCursor:	; 1 bytes @ 0xC
  1278  007C                     ??_AccionControl:	; 1 bytes @ 0xC
  1279  007C                     ??_lcdWrite:	; 1 bytes @ 0xC
  1280  007C                     ??___lwmod:	; 1 bytes @ 0xC
  1281  007C                     	global	lcdSetCursor@column
  1282                           lcdSetCursor@column:	; 1 bytes @ 0xC
  1283  007C                     	global	lcdWrite@data
  1284                           lcdWrite@data:	; 1 bytes @ 0xC
  1285  007C                     	ds	1
  1286  007C                     ??_lcdSetCursor:	; 1 bytes @ 0xD
  1287  007D                     	global	lcdBegin@RS
  1288                           lcdBegin@RS:	; 1 bytes @ 0xD
  1289  007D                     	global	___lwmod@counter
  1290                           ___lwmod@counter:	; 1 bytes @ 0xD
  1291  007D                     	ds	1
  1292  007D                     ??_main:	; 1 bytes @ 0xE
  1293  007E                     psect	cstackBANK0,class=BANK0,space=1,noexec
  1294                           global __pcstackBANK0
  1295                           __pcstackBANK0:
  1296  0020                     ?_lcdBegin:	; 1 bytes @ 0x0
  1297  0020                     ?_lcdPrint:	; 1 bytes @ 0x0
  1298  0020                     ??___fladd:	; 1 bytes @ 0x0
  1299  0020                     	global	?_sprintf
  1300                           ?_sprintf:	; 2 bytes @ 0x0
  1301  0020                     	global	lcdBegin@EN
  1302                           lcdBegin@EN:	; 1 bytes @ 0x0
  1303  0020                     	global	lcdSetCursor@row
  1304                           lcdSetCursor@row:	; 1 bytes @ 0x0
  1305  0020                     	global	sprintf@f
  1306                           sprintf@f:	; 1 bytes @ 0x0
  1307  0020                     	global	lcdPrint@string
  1308                           lcdPrint@string:	; 2 bytes @ 0x0
  1309  0020                     	ds	1
  1310  0020                     	global	lcdBegin@R_W
  1311                           lcdBegin@R_W:	; 1 bytes @ 0x1
  1312  0021                     	global	lcdSetCursor@location
  1313                           lcdSetCursor@location:	; 1 bytes @ 0x1
  1314  0021                     	ds	1
  1315  0021                     ??_lcdPrint:	; 1 bytes @ 0x2
  1316  0022                     	global	lcdBegin@d4
  1317                           lcdBegin@d4:	; 1 bytes @ 0x2
  1318  0022                     	ds	1
  1319  0022                     ??_sprintf:	; 1 bytes @ 0x3
  1320  0023                     	global	lcdBegin@d5
  1321                           lcdBegin@d5:	; 1 bytes @ 0x3
  1322  0023                     	ds	1
  1323  0023                     	global	lcdBegin@d6
  1324                           lcdBegin@d6:	; 1 bytes @ 0x4
  1325  0024                     	ds	1
  1326  0024                     	global	lcdBegin@d7
  1327                           lcdBegin@d7:	; 1 bytes @ 0x5
  1328  0025                     	global	lcdPrint@i
  1329                           lcdPrint@i:	; 2 bytes @ 0x5
  1330  0025                     	ds	1
  1331  0025                     	global	sprintf@flag
  1332                           sprintf@flag:	; 1 bytes @ 0x6
  1333  0026                     	ds	1
  1334  0026                     ??_setup:	; 1 bytes @ 0x7
  1335  0027                     	global	sprintf@ap
  1336                           sprintf@ap:	; 1 bytes @ 0x7
  1337  0027                     	ds	1
  1338  0027                     	global	sprintf@val
  1339                           sprintf@val:	; 2 bytes @ 0x8
  1340  0028                     	ds	2
  1341  0028                     	global	sprintf@prec
  1342                           sprintf@prec:	; 1 bytes @ 0xA
  1343  002A                     	ds	1
  1344  002A                     	global	sprintf@sp
  1345                           sprintf@sp:	; 1 bytes @ 0xB
  1346  002B                     	ds	1
  1347  002B                     	global	sprintf@c
  1348                           sprintf@c:	; 1 bytes @ 0xC
  1349  002C                     	global	___fladd@signs
  1350                           ___fladd@signs:	; 1 bytes @ 0xC
  1351  002C                     	ds	1
  1352  002C                     	global	___fladd@aexp
  1353                           ___fladd@aexp:	; 1 bytes @ 0xD
  1354  002D                     	ds	1
  1355  002D                     	global	___fladd@bexp
  1356                           ___fladd@bexp:	; 1 bytes @ 0xE
  1357  002E                     	ds	1
  1358  002E                     	global	___fladd@grs
  1359                           ___fladd@grs:	; 1 bytes @ 0xF
  1360  002F                     	ds	1
  1361  002F                     	global	?___fldiv
  1362                           ?___fldiv:	; 4 bytes @ 0x10
  1363  0030                     	global	___fldiv@a
  1364                           ___fldiv@a:	; 4 bytes @ 0x10
  1365  0030                     	ds	4
  1366  0030                     	global	___fldiv@b
  1367                           ___fldiv@b:	; 4 bytes @ 0x14
  1368  0034                     	ds	4
  1369  0034                     ??___fldiv:	; 1 bytes @ 0x18
  1370  0038                     	ds	5
  1371  0038                     	global	___fldiv@rem
  1372                           ___fldiv@rem:	; 4 bytes @ 0x1D
  1373  003D                     	ds	4
  1374  003D                     	global	___fldiv@sign
  1375                           ___fldiv@sign:	; 1 bytes @ 0x21
  1376  0041                     	ds	1
  1377  0041                     	global	___fldiv@new_exp
  1378                           ___fldiv@new_exp:	; 2 bytes @ 0x22
  1379  0042                     	ds	2
  1380  0042                     	global	___fldiv@grs
  1381                           ___fldiv@grs:	; 4 bytes @ 0x24
  1382  0044                     	ds	4
  1383  0044                     	global	___fldiv@bexp
  1384                           ___fldiv@bexp:	; 1 bytes @ 0x28
  1385  0048                     	ds	1
  1386  0048                     	global	___fldiv@aexp
  1387                           ___fldiv@aexp:	; 1 bytes @ 0x29
  1388  0049                     	ds	1
  1389  0049                     	global	?___flmul
  1390                           ?___flmul:	; 4 bytes @ 0x2A
  1391  004A                     	global	___flmul@b
  1392                           ___flmul@b:	; 4 bytes @ 0x2A
  1393  004A                     	ds	4
  1394  004A                     	global	___flmul@a
  1395                           ___flmul@a:	; 4 bytes @ 0x2E
  1396  004E                     	ds	4
  1397  004E                     ??___flmul:	; 1 bytes @ 0x32
  1398  0052                     	ds	5
  1399  0052                     	global	___flmul@sign
  1400                           ___flmul@sign:	; 1 bytes @ 0x37
  1401  0057                     	ds	1
  1402  0057                     	global	___flmul@grs
  1403                           ___flmul@grs:	; 4 bytes @ 0x38
  1404  0058                     	ds	4
  1405  0058                     	global	___flmul@aexp
  1406                           ___flmul@aexp:	; 1 bytes @ 0x3C
  1407  005C                     	ds	1
  1408  005C                     	global	___flmul@bexp
  1409                           ___flmul@bexp:	; 1 bytes @ 0x3D
  1410  005D                     	ds	1
  1411  005D                     	global	___flmul@prod
  1412                           ___flmul@prod:	; 4 bytes @ 0x3E
  1413  005E                     	ds	4
  1414  005E                     	global	___flmul@temp
  1415                           ___flmul@temp:	; 2 bytes @ 0x42
  1416  0062                     	ds	2
  1417  0062                     ?_AccionControl:	; 1 bytes @ 0x44
  1418  0064                     	global	AccionControl@SetPoint
  1419                           AccionControl@SetPoint:	; 4 bytes @ 0x44
  1420  0064                     	ds	4
  1421  0064                     	global	AccionControl@Feedback
  1422                           AccionControl@Feedback:	; 4 bytes @ 0x48
  1423  0068                     	ds	4
  1424  0068                     	global	AccionControl@dt
  1425                           AccionControl@dt:	; 4 bytes @ 0x4C
  1426  006C                     	ds	4
  1427  006C                     ;!
  1428                           ;!Data Sizes:
  1429                           ;!    Strings     50
  1430                           ;!    Constant    18
  1431                           ;!    Data        0
  1432                           ;!    BSS         82
  1433                           ;!    Persistent  0
  1434                           ;!    Stack       0
  1435                           ;!
  1436                           ;!Auto Spaces:
  1437                           ;!    Space          Size  Autos    Used
  1438                           ;!    COMMON           14     14      14
  1439                           ;!    BANK0            80     80      80
  1440                           ;!    BANK1            80     22      57
  1441                           ;!    BANK3            96      0      47
  1442                           ;!    BANK2            96      0       0
  1443                           
  1444                           ;!
  1445                           ;!Pointer List with Targets:
  1446                           ;!
  1447                           ;!    sprintf@f	PTR const unsigned char  size(1) Largest target is 9
  1448                           ;!		 -> STR_4(CODE[9]), STR_2(CODE[7]), 
  1449                           ;!
  1450                           ;!    sprintf@sp	PTR unsigned char  size(1) Largest target is 16
  1451                           ;!		 -> ScreenROW(BANK1[16]), 
  1452                           ;!
  1453                           ;!    sprintf@ap	PTR void [1] size(1) Largest target is 2
  1454                           ;!		 -> ?_sprintf(BANK0[2]), 
  1455                           ;!
  1456                           ;!    lcdPrint@string	PTR unsigned char  size(2) Largest target is 17
  1457                           ;!		 -> STR_3(CODE[17]), ScreenROW(BANK1[16]), STR_1(CODE[17]), 
  1458                           ;!
  1459                           
  1460                           
  1461                           ;!
  1462                           ;!Critical Paths under _main in COMMON
  1463                           ;!
  1464                           ;!    _setup->_lcdBegin
  1465                           ;!    _setup->_lcdSetCursor
  1466                           ;!    _lcdBegin->_WriteInstruction
  1467                           ;!    _loop->_lcdSetCursor
  1468                           ;!    _sprintf->___lwmod
  1469                           ;!    ___lwmod->___lwdiv
  1470                           ;!    _lcdSetCursor->_WriteInstruction
  1471                           ;!    _WriteInstruction->_ByteByNibble
  1472                           ;!    _WriteInstruction->_delay
  1473                           ;!    _lcdPrint->_lcdWrite
  1474                           ;!    _lcdWrite->_WriteData
  1475                           ;!    _WriteData->_ByteByNibble
  1476                           ;!    _WriteData->_delay
  1477                           ;!    _ByteByNibble->_digitalWrite
  1478                           ;!    _AccionControl->___fladd
  1479                           ;!    ___flmul->___fladd
  1480                           ;!    ___fldiv->___fladd
  1481                           ;!    ___fladd->___flneg
  1482                           ;!
  1483                           ;!Critical Paths under _main in BANK0
  1484                           ;!
  1485                           ;!    _setup->_lcdPrint
  1486                           ;!    _loop->_AccionControl
  1487                           ;!    ___xxtofl->_AccionControl
  1488                           ;!    _AccionControl->___flmul
  1489                           ;!    ___flmul->___fldiv
  1490                           ;!    ___fldiv->___fladd
  1491                           ;!
  1492                           ;!Critical Paths under _main in BANK1
  1493                           ;!
  1494                           ;!    _main->_loop
  1495                           ;!    _loop->___xxtofl
  1496                           ;!    ___xxtofl->_AccionControl
  1497                           ;!
  1498                           ;!Critical Paths under _main in BANK3
  1499                           ;!
  1500                           ;!    None.
  1501                           ;!
  1502                           ;!Critical Paths under _main in BANK2
  1503                           ;!
  1504                           ;!    None.
  1505                           
  1506 ;;
  1507 ;;Main: autosize = 0, tempsize = 0, incstack = 0, save=0
  1508 ;;
  1509                           
  1510                           ;!
  1511                           ;!Call Graph Tables:
  1512                           ;!
  1513                           ;! ---------------------------------------------------------------------------------
  1514                           ;! (Depth) Function   	        Calls       Base Space   Used Autos Params    Refs
  1515                           ;! ---------------------------------------------------------------------------------
  1516                           ;! (0) _main                                                 0     0      0   94530
  1517                           ;!                     _Initialization
  1518                           ;!                               _loop
  1519                           ;!                              _setup
  1520                           ;! ---------------------------------------------------------------------------------
  1521                           ;! (1) _setup                                                6     6      0   48598
  1522                           ;!                                              7 BANK0      6     6      0
  1523                           ;!                   _PIDSetSampleTime
  1524                           ;!                           _lcdBegin
  1525                           ;!                           _lcdPrint
  1526                           ;!                       _lcdSetCursor
  1527                           ;!                            _pinMode
  1528                           ;! ---------------------------------------------------------------------------------
  1529                           ;! (2) _lcdBegin                                             8     2      6   17177
  1530                           ;!                                             12 COMMON     2     2      0
  1531                           ;!                                              0 BANK0      6     0      6
  1532                           ;!                   _WriteInstruction
  1533                           ;!                              _delay
  1534                           ;!                            _pinMode
  1535                           ;! ---------------------------------------------------------------------------------
  1536                           ;! (2) _pinMode                                              4     3      1    1180
  1537                           ;!                                              0 COMMON     4     3      1
  1538                           ;! ---------------------------------------------------------------------------------
  1539                           ;! (2) _PIDSetSampleTime                                     2     2      0      44
  1540                           ;!                                              0 COMMON     2     2      0
  1541                           ;! ---------------------------------------------------------------------------------
  1542                           ;! (1) _loop                                                 4     4      0   45932
  1543                           ;!                                             18 BANK1      4     4      0
  1544                           ;!                      _AccionControl
  1545                           ;!                      _EventCounters
  1546                           ;!                           ___xxtofl
  1547                           ;!                       _digitalWrite
  1548                           ;!                           _lcdPrint
  1549                           ;!                       _lcdSetCursor
  1550                           ;!                            _sprintf
  1551                           ;! ---------------------------------------------------------------------------------
  1552                           ;! (2) _sprintf                                             21    18      3    1230
  1553                           ;!                                              0 BANK0     13    10      3
  1554                           ;!                            ___lwdiv
  1555                           ;!                            ___lwmod
  1556                           ;! ---------------------------------------------------------------------------------
  1557                           ;! (3) ___lwmod                                              6     2      4     311
  1558                           ;!                                              8 COMMON     6     2      4
  1559                           ;!                            ___lwdiv (ARG)
  1560                           ;! ---------------------------------------------------------------------------------
  1561                           ;! (3) ___lwdiv                                              8     4      4     314
  1562                           ;!                                              0 COMMON     8     4      4
  1563                           ;! ---------------------------------------------------------------------------------
  1564                           ;! (2) _lcdSetCursor                                         4     3      1   14548
  1565                           ;!                                             12 COMMON     2     1      1
  1566                           ;!                                              0 BANK0      2     2      0
  1567                           ;!                   _WriteInstruction
  1568                           ;! ---------------------------------------------------------------------------------
  1569                           ;! (3) _WriteInstruction                                     5     5      0   14109
  1570                           ;!                                              7 COMMON     5     5      0
  1571                           ;!                       _ByteByNibble
  1572                           ;!                              _delay
  1573                           ;!                       _digitalWrite
  1574                           ;! ---------------------------------------------------------------------------------
  1575                           ;! (2) _lcdPrint                                             7     5      2   15649
  1576                           ;!                                              0 BANK0      7     5      2
  1577                           ;!                           _lcdWrite
  1578                           ;! ---------------------------------------------------------------------------------
  1579                           ;! (3) _lcdWrite                                             1     1      0   15255
  1580                           ;!                                             12 COMMON     1     1      0
  1581                           ;!                          _WriteData
  1582                           ;!                              _delay
  1583                           ;! ---------------------------------------------------------------------------------
  1584                           ;! (4) _WriteData                                            5     5      0   14109
  1585                           ;!                                              7 COMMON     5     5      0
  1586                           ;!                       _ByteByNibble
  1587                           ;!                              _delay
  1588                           ;!                       _digitalWrite
  1589                           ;! ---------------------------------------------------------------------------------
  1590                           ;! (4) _delay                                                7     5      2    1124
  1591                           ;!                                              0 COMMON     7     5      2
  1592                           ;! ---------------------------------------------------------------------------------
  1593                           ;! (4) _ByteByNibble                                         3     3      0    6446
  1594                           ;!                                              4 COMMON     3     3      0
  1595                           ;!                       _digitalWrite
  1596                           ;! ---------------------------------------------------------------------------------
  1597                           ;! (4) _digitalWrite                                         4     3      1    6424
  1598                           ;!                                              0 COMMON     4     3      1
  1599                           ;! ---------------------------------------------------------------------------------
  1600                           ;! (2) ___xxtofl                                            14    10      4     398
  1601                           ;!                                              4 BANK1     14    10      4
  1602                           ;!                      _AccionControl (ARG)
  1603                           ;! ---------------------------------------------------------------------------------
  1604                           ;! (2) _EventCounters                                        2     0      2       0
  1605                           ;!                                              0 COMMON     2     0      2
  1606                           ;! ---------------------------------------------------------------------------------
  1607                           ;! (2) _AccionControl                                       16     4     12    7683
  1608                           ;!                                             68 BANK0     12     0     12
  1609                           ;!                                              0 BANK1      4     4      0
  1610                           ;!                            ___fladd
  1611                           ;!                            ___fldiv
  1612                           ;!                            ___flmul
  1613                           ;!                            ___flneg
  1614                           ;!                            ___fltol
  1615                           ;! ---------------------------------------------------------------------------------
  1616                           ;! (3) ___fltol                                             11     7      4     305
  1617                           ;!                                              0 COMMON    11     7      4
  1618                           ;! ---------------------------------------------------------------------------------
  1619                           ;! (3) ___flneg                                              4     0      4     197
  1620                           ;!                                              0 COMMON     4     0      4
  1621                           ;! ---------------------------------------------------------------------------------
  1622                           ;! (3) ___flmul                                             26    18      8    2721
  1623                           ;!                                             42 BANK0     26    18      8
  1624                           ;!                          __Umul8_16
  1625                           ;!                            ___fladd (ARG)
  1626                           ;!                            ___fldiv (ARG)
  1627                           ;!                            ___flneg (ARG)
  1628                           ;! ---------------------------------------------------------------------------------
  1629                           ;! (4) __Umul8_16                                            9     7      2     799
  1630                           ;!                                              0 COMMON     9     7      2
  1631                           ;! ---------------------------------------------------------------------------------
  1632                           ;! (3) ___fldiv                                             26    18      8    1273
  1633                           ;!                                             16 BANK0     26    18      8
  1634                           ;!                            ___fladd (ARG)
  1635                           ;!                            ___flneg (ARG)
  1636                           ;! ---------------------------------------------------------------------------------
  1637                           ;! (3) ___fladd                                             24    16      8    2870
  1638                           ;!                                              4 COMMON     8     0      8
  1639                           ;!                                              0 BANK0     16    16      0
  1640                           ;!                            ___flneg (ARG)
  1641                           ;! ---------------------------------------------------------------------------------
  1642                           ;! (1) _Initialization                                       0     0      0       0
  1643                           ;!                   _PWMConfiguration
  1644                           ;! ---------------------------------------------------------------------------------
  1645                           ;! (2) _PWMConfiguration                                     0     0      0       0
  1646                           ;! ---------------------------------------------------------------------------------
  1647                           ;! Estimated maximum stack depth 4
  1648                           ;! ---------------------------------------------------------------------------------
  1649                           ;!
  1650                           ;! Call Graph Graphs:
  1651                           ;!
  1652                           ;! _main (ROOT)
  1653                           ;!   _Initialization
  1654                           ;!     _PWMConfiguration
  1655                           ;!   _loop
  1656                           ;!     _AccionControl
  1657                           ;!       ___fladd
  1658                           ;!         ___flneg (ARG)
  1659                           ;!       ___fldiv
  1660                           ;!         ___fladd (ARG)
  1661                           ;!           ___flneg (ARG)
  1662                           ;!         ___flneg (ARG)
  1663                           ;!       ___flmul
  1664                           ;!         __Umul8_16
  1665                           ;!         ___fladd (ARG)
  1666                           ;!           ___flneg (ARG)
  1667                           ;!         ___fldiv (ARG)
  1668                           ;!           ___fladd (ARG)
  1669                           ;!             ___flneg (ARG)
  1670                           ;!           ___flneg (ARG)
  1671                           ;!         ___flneg (ARG)
  1672                           ;!       ___flneg
  1673                           ;!       ___fltol
  1674                           ;!     _EventCounters
  1675                           ;!     ___xxtofl
  1676                           ;!       _AccionControl (ARG)
  1677                           ;!         ___fladd
  1678                           ;!           ___flneg (ARG)
  1679                           ;!         ___fldiv
  1680                           ;!           ___fladd (ARG)
  1681                           ;!             ___flneg (ARG)
  1682                           ;!           ___flneg (ARG)
  1683                           ;!         ___flmul
  1684                           ;!           __Umul8_16
  1685                           ;!           ___fladd (ARG)
  1686                           ;!             ___flneg (ARG)
  1687                           ;!           ___fldiv (ARG)
  1688                           ;!             ___fladd (ARG)
  1689                           ;!               ___flneg (ARG)
  1690                           ;!             ___flneg (ARG)
  1691                           ;!           ___flneg (ARG)
  1692                           ;!         ___flneg
  1693                           ;!         ___fltol
  1694                           ;!     _digitalWrite
  1695                           ;!     _lcdPrint
  1696                           ;!       _lcdWrite
  1697                           ;!         _WriteData
  1698                           ;!           _ByteByNibble
  1699                           ;!             _digitalWrite
  1700                           ;!           _delay
  1701                           ;!           _digitalWrite
  1702                           ;!         _delay
  1703                           ;!     _lcdSetCursor
  1704                           ;!       _WriteInstruction
  1705                           ;!         _ByteByNibble
  1706                           ;!           _digitalWrite
  1707                           ;!         _delay
  1708                           ;!         _digitalWrite
  1709                           ;!     _sprintf
  1710                           ;!       ___lwdiv
  1711                           ;!       ___lwmod
  1712                           ;!         ___lwdiv (ARG)
  1713                           ;!   _setup
  1714                           ;!     _PIDSetSampleTime
  1715                           ;!     _lcdBegin
  1716                           ;!       _WriteInstruction
  1717                           ;!         _ByteByNibble
  1718                           ;!           _digitalWrite
  1719                           ;!         _delay
  1720                           ;!         _digitalWrite
  1721                           ;!       _delay
  1722                           ;!       _pinMode
  1723                           ;!     _lcdPrint
  1724                           ;!       _lcdWrite
  1725                           ;!         _WriteData
  1726                           ;!           _ByteByNibble
  1727                           ;!             _digitalWrite
  1728                           ;!           _delay
  1729                           ;!           _digitalWrite
  1730                           ;!         _delay
  1731                           ;!     _lcdSetCursor
  1732                           ;!       _WriteInstruction
  1733                           ;!         _ByteByNibble
  1734                           ;!           _digitalWrite
  1735                           ;!         _delay
  1736                           ;!         _digitalWrite
  1737                           ;!     _pinMode
  1738                           ;!
  1739                           
  1740                           ;! Address spaces:
  1741                           
  1742                           ;!Name               Size   Autos  Total    Cost      Usage
  1743                           ;!BITCOMMON            E      0       0       0        0.0%
  1744                           ;!EEDATA             100      0       0       0        0.0%
  1745                           ;!NULL                 0      0       0       0        0.0%
  1746                           ;!CODE                 0      0       0       0        0.0%
  1747                           ;!COMMON               E      E       E       1      100.0%
  1748                           ;!BITSFR0              0      0       0       1        0.0%
  1749                           ;!SFR0                 0      0       0       1        0.0%
  1750                           ;!BITSFR1              0      0       0       2        0.0%
  1751                           ;!SFR1                 0      0       0       2        0.0%
  1752                           ;!STACK                0      0       0       2        0.0%
  1753                           ;!ABS                  0      0      C6       3        0.0%
  1754                           ;!BITBANK0            50      0       0       4        0.0%
  1755                           ;!BITSFR3              0      0       0       4        0.0%
  1756                           ;!SFR3                 0      0       0       4        0.0%
  1757                           ;!BANK0               50     50      50       5      100.0%
  1758                           ;!BITSFR2              0      0       0       5        0.0%
  1759                           ;!SFR2                 0      0       0       5        0.0%
  1760                           ;!BITBANK1            50      0       0       6        0.0%
  1761                           ;!BANK1               50     16      39       7       71.3%
  1762                           ;!BITBANK3            60      0       0       8        0.0%
  1763                           ;!BANK3               60      0      2F       9       49.0%
  1764                           ;!BITBANK2            60      0       0      10        0.0%
  1765                           ;!BANK2               60      0       0      11        0.0%
  1766                           ;!DATA                 0      0      C6      12        0.0%
  1767                           
  1768                           	global	_main
  1769                           
  1770 ;; *************** function _main *****************
  1771 ;; Defined at:
  1772 ;;		line 3 in file "Hormiga877.c"
  1773 ;; Parameters:    Size  Location     Type
  1774 ;;		None
  1775 ;; Auto vars:     Size  Location     Type
  1776 ;;		None
  1777 ;; Return value:  Size  Location     Type
  1778 ;;                  2  157[None  ] int 
  1779 ;; Registers used:
  1780 ;;		wreg, fsr0l, fsr0h, status,2, status,0, btemp+1, pclath, cstack
  1781 ;; Tracked objects:
  1782 ;;		On entry : B00/0
  1783 ;;		On exit  : 0/0
  1784 ;;		Unchanged: 0/0
  1785 ;; Data sizes:     COMMON   BANK0   BANK1   BANK3   BANK2
  1786 ;;      Params:         0       0       0       0       0
  1787 ;;      Locals:         0       0       0       0       0
  1788 ;;      Temps:          0       0       0       0       0
  1789 ;;      Totals:         0       0       0       0       0
  1790 ;;Total ram usage:        0 bytes
  1791 ;; Hardware stack levels required when called:    6
  1792 ;; This function calls:
  1793 ;;		_Initialization
  1794 ;;		_loop
  1795 ;;		_setup
  1796 ;; This function is called by:
  1797 ;;		Startup code after reset
  1798 ;; This function uses a non-reentrant model
  1799 ;;
  1800                           psect	maintext,global,class=CODE,delta=2,split=1,group=0
  1801                           	file	"Hormiga877.c"
  1802                           	line	3
  1803                           global __pmaintext
  1804                           __pmaintext:	;psect for function _main
  1805  1172                     psect	maintext
  1806                           	file	"Hormiga877.c"
  1807                           	line	3
  1808                           	global	__size_of_main
  1809                           	__size_of_main	equ	__end_of_main-_main
  1810  0014                     	
  1811                           _main:	
  1812  1172                     ;incstack = 0
  1813                           	opt	stack 2
  1814                           ; Regs used in _main: [wreg-fsr0h+status,2+status,0+btemp+1+pclath+cstack]
  1815                           	line	5
  1816                           	
  1817                           l3729:	
  1818  1172                     ;Hormiga877.c: 5:     Initialization();
  1819                           	fcall	_Initialization
  1820  1172  160A  118A  21CC  160A  118A  	line	6
  1821                           	
  1822                           l3731:	
  1823  1177                     ;Hormiga877.c: 6:     setup();
  1824                           	fcall	_setup
  1825  1177  160A  118A  2346  160A  118A  	goto	l3733
  1826  117C  297D               	line	7
  1827                           ;Hormiga877.c: 7:     for(;;)
  1828                           	
  1829                           l158:	
  1830  117D                     	line	9
  1831                           	
  1832                           l3733:	
  1833  117D                     ;Hormiga877.c: 8:     {;Hormiga877.c: 9:         loop();
  1834                           	fcall	_loop
  1835  117D  160A  118A  2713  160A  118A  	line	10
  1836                           ;Hormiga877.c: 10:     }
  1837                           	goto	l3733
  1838  1182  297D               	
  1839                           l159:	
  1840  1183                     	line	12
  1841                           ;Hormiga877.c: 11:     return 0;;	Return value of _main is never used
  1842                           	
  1843                           l160:	
  1844  1183                     	global	start
  1845                           	ljmp	start
  1846  1183  120A  118A  2800   	opt stack 0
  1847                           GLOBAL	__end_of_main
  1848                           	__end_of_main:
  1849  1186                     	signat	_main,90
  1850                           	global	_setup
  1851                           
  1852 ;; *************** function _setup *****************
  1853 ;; Defined at:
  1854 ;;		line 22 in file "application.c"
  1855 ;; Parameters:    Size  Location     Type
  1856 ;;		None
  1857 ;; Auto vars:     Size  Location     Type
  1858 ;;		None
  1859 ;; Return value:  Size  Location     Type
  1860 ;;                  1    wreg      void 
  1861 ;; Registers used:
  1862 ;;		wreg, fsr0l, fsr0h, status,2, status,0, btemp+1, pclath, cstack
  1863 ;; Tracked objects:
  1864 ;;		On entry : 0/0
  1865 ;;		On exit  : 0/0
  1866 ;;		Unchanged: 0/0
  1867 ;; Data sizes:     COMMON   BANK0   BANK1   BANK3   BANK2
  1868 ;;      Params:         0       0       0       0       0
  1869 ;;      Locals:         0       0       0       0       0
  1870 ;;      Temps:          0       6       0       0       0
  1871 ;;      Totals:         0       6       0       0       0
  1872 ;;Total ram usage:        6 bytes
  1873 ;; Hardware stack levels used:    1
  1874 ;; Hardware stack levels required when called:    5
  1875 ;; This function calls:
  1876 ;;		_PIDSetSampleTime
  1877 ;;		_lcdBegin
  1878 ;;		_lcdPrint
  1879 ;;		_lcdSetCursor
  1880 ;;		_pinMode
  1881 ;; This function is called by:
  1882 ;;		_main
  1883 ;; This function uses a non-reentrant model
  1884 ;;
  1885                           psect	text1,local,class=CODE,delta=2,merge=1,group=0
  1886                           	file	"application.c"
  1887                           	line	22
  1888                           global __ptext1
  1889                           __ptext1:	;psect for function _setup
  1890  1346                     psect	text1
  1891                           	file	"application.c"
  1892                           	line	22
  1893                           	global	__size_of_setup
  1894                           	__size_of_setup	equ	__end_of_setup-_setup
  1895  0071                     	
  1896                           _setup:	
  1897  1346                     ;incstack = 0
  1898                           	opt	stack 2
  1899                           ; Regs used in _setup: [wreg-fsr0h+status,2+status,0+btemp+1+pclath+cstack]
  1900                           	line	24
  1901                           	
  1902                           l3687:	
  1903  1346                     ;application.c: 24:     pinMode(led,0);
  1904                           	clrf	(pinMode@mode)
  1905  1346  01F0               	movlw	low((_led-__stringbase))
  1906  1347  300B               	movwf	fsr0
  1907  1348  0084               	fcall	stringdir
  1908  1349  120A  158A  200A  160A  118A  	fcall	_pinMode
  1909  134E  120A  158A  206A  160A  118A  	line	25
  1910                           	
  1911                           l3689:	
  1912  1353                     ;application.c: 25:     lcdBegin(RS,EN,RnW,D4,D5,D6,D7);
  1913                           	movlw	low((_EN-__stringbase))
  1914  1353  3011               	movwf	fsr0
  1915  1354  0084               	fcall	stringdir
  1916  1355  120A  158A  200A  160A  118A  	bcf	status, 5	;RP0=0, select bank0
  1917  135A  1283               	bcf	status, 6	;RP1=0, select bank0
  1918  135B  1303               	movwf	(??_setup+0)+0
  1919  135C  00A7               	movf	(??_setup+0)+0,w
  1920  135D  0827               	movwf	(lcdBegin@EN)
  1921  135E  00A0               	movlw	low((_RnW-__stringbase))
  1922  135F  3010               	movwf	fsr0
  1923  1360  0084               	fcall	stringdir
  1924  1361  120A  158A  200A  160A  118A  	movwf	(??_setup+1)+0
  1925  1366  00A8               	movf	(??_setup+1)+0,w
  1926  1367  0828               	movwf	(lcdBegin@R_W)
  1927  1368  00A1               	movlw	low((_D4-__stringbase))
  1928  1369  300F               	movwf	fsr0
  1929  136A  0084               	fcall	stringdir
  1930  136B  120A  158A  200A  160A  118A  	movwf	(??_setup+2)+0
  1931  1370  00A9               	movf	(??_setup+2)+0,w
  1932  1371  0829               	movwf	(lcdBegin@d4)
  1933  1372  00A2               	movlw	low((_D5-__stringbase))
  1934  1373  300E               	movwf	fsr0
  1935  1374  0084               	fcall	stringdir
  1936  1375  120A  158A  200A  160A  118A  	movwf	(??_setup+3)+0
  1937  137A  00AA               	movf	(??_setup+3)+0,w
  1938  137B  082A               	movwf	(lcdBegin@d5)
  1939  137C  00A3               	movlw	low((_D6-__stringbase))
  1940  137D  300D               	movwf	fsr0
  1941  137E  0084               	fcall	stringdir
  1942  137F  120A  158A  200A  160A  118A  	movwf	(??_setup+4)+0
  1943  1384  00AB               	movf	(??_setup+4)+0,w
  1944  1385  082B               	movwf	(lcdBegin@d6)
  1945  1386  00A4               	movlw	low((_D7-__stringbase))
  1946  1387  300C               	movwf	fsr0
  1947  1388  0084               	fcall	stringdir
  1948  1389  120A  158A  200A  160A  118A  	movwf	(??_setup+5)+0
  1949  138E  00AC               	movf	(??_setup+5)+0,w
  1950  138F  082C               	movwf	(lcdBegin@d7)
  1951  1390  00A5               	movlw	low((_RS-__stringbase))
  1952  1391  3012               	movwf	fsr0
  1953  1392  0084               	fcall	stringdir
  1954  1393  120A  158A  200A  160A  118A  	fcall	_lcdBegin
  1955  1398  160A  118A  24D3  160A  118A  	line	26
  1956                           	
  1957                           l3691:	
  1958  139D                     ;application.c: 26:     lcdSetCursor(1,1);
  1959                           	clrf	(lcdSetCursor@column)
  1960  139D  01FC               	incf	(lcdSetCursor@column),f
  1961  139E  0AFC               	movlw	low(01h)
  1962  139F  3001               	fcall	_lcdSetCursor
  1963  13A0  160A  118A  21F8  160A  118A  	line	27
  1964                           	
  1965                           l3693:	
  1966  13A5                     ;application.c: 27:     lcdPrint("PID Control Test");
  1967                           	movlw	(low((((STR_1)-__stringbase)|8000h)))&0ffh
  1968  13A5  3024               	bcf	status, 5	;RP0=0, select bank0
  1969  13A6  1283               	bcf	status, 6	;RP1=0, select bank0
  1970  13A7  1303               	movwf	(lcdPrint@string)
  1971  13A8  00A0               	movlw	80h
  1972  13A9  3080               	movwf	(lcdPrint@string+1)
  1973  13AA  00A1               	fcall	_lcdPrint
  1974  13AB  160A  118A  2265  160A  118A  	line	28
  1975                           	
  1976                           l3695:	
  1977  13B0                     ;application.c: 28:     PIDSetSampleTime(255);
  1978                           	movlw	low(0FFh)
  1979  13B0  30FF               	fcall	_PIDSetSampleTime
  1980  13B1  120A  158A  2055  160A  118A  	line	29
  1981                           	
  1982                           l49:	
  1983  13B6                     	return
  1984  13B6  0008               	opt stack 0
  1985                           GLOBAL	__end_of_setup
  1986                           	__end_of_setup:
  1987  13B7                     	signat	_setup,89
  1988                           	global	_lcdBegin
  1989                           
  1990 ;; *************** function _lcdBegin *****************
  1991 ;; Defined at:
  1992 ;;		line 18 in file "LCD16x2.c"
  1993 ;; Parameters:    Size  Location     Type
  1994 ;;  RS              1    wreg     unsigned char 
  1995 ;;  EN              1    0[BANK0 ] unsigned char 
  1996 ;;  R_W             1    1[BANK0 ] unsigned char 
  1997 ;;  d4              1    2[BANK0 ] unsigned char 
  1998 ;;  d5              1    3[BANK0 ] unsigned char 
  1999 ;;  d6              1    4[BANK0 ] unsigned char 
  2000 ;;  d7              1    5[BANK0 ] unsigned char 
  2001 ;; Auto vars:     Size  Location     Type
  2002 ;;  RS              1   13[COMMON] unsigned char 
  2003 ;; Return value:  Size  Location     Type
  2004 ;;                  1    wreg      void 
  2005 ;; Registers used:
  2006 ;;		wreg, fsr0l, fsr0h, status,2, status,0, btemp+1, pclath, cstack
  2007 ;; Tracked objects:
  2008 ;;		On entry : 0/0
  2009 ;;		On exit  : 0/0
  2010 ;;		Unchanged: 0/0
  2011 ;; Data sizes:     COMMON   BANK0   BANK1   BANK3   BANK2
  2012 ;;      Params:         0       6       0       0       0
  2013 ;;      Locals:         1       0       0       0       0
  2014 ;;      Temps:          1       0       0       0       0
  2015 ;;      Totals:         2       6       0       0       0
  2016 ;;Total ram usage:        8 bytes
  2017 ;; Hardware stack levels used:    1
  2018 ;; Hardware stack levels required when called:    3
  2019 ;; This function calls:
  2020 ;;		_WriteInstruction
  2021 ;;		_delay
  2022 ;;		_pinMode
  2023 ;; This function is called by:
  2024 ;;		_setup
  2025 ;; This function uses a non-reentrant model
  2026 ;;
  2027                           psect	text2,local,class=CODE,delta=2,merge=1,group=0
  2028                           	file	"LCD16x2.c"
  2029                           	line	18
  2030                           global __ptext2
  2031                           __ptext2:	;psect for function _lcdBegin
  2032  14D3                     psect	text2
  2033                           	file	"LCD16x2.c"
  2034                           	line	18
  2035                           	global	__size_of_lcdBegin
  2036                           	__size_of_lcdBegin	equ	__end_of_lcdBegin-_lcdBegin
  2037  009C                     	
  2038                           _lcdBegin:	
  2039  14D3                     ;incstack = 0
  2040                           	opt	stack 3
  2041                           ; Regs used in _lcdBegin: [wreg-fsr0h+status,2+status,0+btemp+1+pclath+cstack]
  2042                           ;lcdBegin@RS stored from wreg
  2043                           	movwf	(lcdBegin@RS)
  2044  14D3  00FD               	line	20
  2045                           	
  2046                           l3507:	
  2047  14D4                     ;LCD16x2.c: 18: void lcdBegin(char RS, char EN, char R_W, char d4, char d5, char d6,char
                                  d7);LCD16x2.c: 19: {;LCD16x2.c: 20:     RSPin = RS;
  2048                           	movf	(lcdBegin@RS),w
  2049  14D4  087D               	movwf	(??_lcdBegin+0)+0
  2050  14D5  00FC               	movf	(??_lcdBegin+0)+0,w
  2051  14D6  087C               	bsf	status, 5	;RP0=1, select bank1
  2052  14D7  1683               	bcf	status, 6	;RP1=0, select bank1
  2053  14D8  1303               	movwf	(_RSPin)^080h
  2054  14D9  00B2               	line	21
  2055                           ;LCD16x2.c: 21:     ENPin = EN;
  2056                           	bcf	status, 5	;RP0=0, select bank0
  2057  14DA  1283               	bcf	status, 6	;RP1=0, select bank0
  2058  14DB  1303               	movf	(lcdBegin@EN),w
  2059  14DC  0820               	movwf	(??_lcdBegin+0)+0
  2060  14DD  00FC               	movf	(??_lcdBegin+0)+0,w
  2061  14DE  087C               	bsf	status, 5	;RP0=1, select bank1
  2062  14DF  1683               	bcf	status, 6	;RP1=0, select bank1
  2063  14E0  1303               	movwf	(_ENPin)^080h
  2064  14E1  00B1               	line	22
  2065                           ;LCD16x2.c: 22:     RWPin = R_W;
  2066                           	bcf	status, 5	;RP0=0, select bank0
  2067  14E2  1283               	bcf	status, 6	;RP1=0, select bank0
  2068  14E3  1303               	movf	(lcdBegin@R_W),w
  2069  14E4  0821               	movwf	(??_lcdBegin+0)+0
  2070  14E5  00FC               	movf	(??_lcdBegin+0)+0,w
  2071  14E6  087C               	bsf	status, 5	;RP0=1, select bank1
  2072  14E7  1683               	bcf	status, 6	;RP1=0, select bank1
  2073  14E8  1303               	movwf	(_RWPin)^080h
  2074  14E9  00B0               	line	23
  2075                           ;LCD16x2.c: 23:     d4Pin = d4;
  2076                           	bcf	status, 5	;RP0=0, select bank0
  2077  14EA  1283               	bcf	status, 6	;RP1=0, select bank0
  2078  14EB  1303               	movf	(lcdBegin@d4),w
  2079  14EC  0822               	movwf	(??_lcdBegin+0)+0
  2080  14ED  00FC               	movf	(??_lcdBegin+0)+0,w
  2081  14EE  087C               	bsf	status, 5	;RP0=1, select bank1
  2082  14EF  1683               	bcf	status, 6	;RP1=0, select bank1
  2083  14F0  1303               	movwf	(_d4Pin)^080h
  2084  14F1  00AF               	line	24
  2085                           ;LCD16x2.c: 24:     d5Pin = d5;
  2086                           	bcf	status, 5	;RP0=0, select bank0
  2087  14F2  1283               	bcf	status, 6	;RP1=0, select bank0
  2088  14F3  1303               	movf	(lcdBegin@d5),w
  2089  14F4  0823               	movwf	(??_lcdBegin+0)+0
  2090  14F5  00FC               	movf	(??_lcdBegin+0)+0,w
  2091  14F6  087C               	bsf	status, 5	;RP0=1, select bank1
  2092  14F7  1683               	bcf	status, 6	;RP1=0, select bank1
  2093  14F8  1303               	movwf	(_d5Pin)^080h
  2094  14F9  00AE               	line	25
  2095                           ;LCD16x2.c: 25:     d6Pin = d6;
  2096                           	bcf	status, 5	;RP0=0, select bank0
  2097  14FA  1283               	bcf	status, 6	;RP1=0, select bank0
  2098  14FB  1303               	movf	(lcdBegin@d6),w
  2099  14FC  0824               	movwf	(??_lcdBegin+0)+0
  2100  14FD  00FC               	movf	(??_lcdBegin+0)+0,w
  2101  14FE  087C               	bsf	status, 5	;RP0=1, select bank1
  2102  14FF  1683               	bcf	status, 6	;RP1=0, select bank1
  2103  1500  1303               	movwf	(_d6Pin)^080h
  2104  1501  00AD               	line	26
  2105                           ;LCD16x2.c: 26:     d7Pin = d7;
  2106                           	bcf	status, 5	;RP0=0, select bank0
  2107  1502  1283               	bcf	status, 6	;RP1=0, select bank0
  2108  1503  1303               	movf	(lcdBegin@d7),w
  2109  1504  0825               	movwf	(??_lcdBegin+0)+0
  2110  1505  00FC               	movf	(??_lcdBegin+0)+0,w
  2111  1506  087C               	bsf	status, 5	;RP0=1, select bank1
  2112  1507  1683               	bcf	status, 6	;RP1=0, select bank1
  2113  1508  1303               	movwf	(_d7Pin)^080h
  2114  1509  00AC               	line	27
  2115                           	
  2116                           l3509:	
  2117  150A                     ;LCD16x2.c: 27:     pinMode(RS,0);
  2118                           	clrf	(pinMode@mode)
  2119  150A  01F0               	movf	(lcdBegin@RS),w
  2120  150B  087D               	fcall	_pinMode
  2121  150C  120A  158A  206A  160A  118A  	line	28
  2122                           	
  2123                           l3511:	
  2124  1511                     ;LCD16x2.c: 28:     pinMode(EN,0);
  2125                           	clrf	(pinMode@mode)
  2126  1511  01F0               	bcf	status, 5	;RP0=0, select bank0
  2127  1512  1283               	bcf	status, 6	;RP1=0, select bank0
  2128  1513  1303               	movf	(lcdBegin@EN),w
  2129  1514  0820               	fcall	_pinMode
  2130  1515  120A  158A  206A  160A  118A  	line	29
  2131                           	
  2132                           l3513:	
  2133  151A                     ;LCD16x2.c: 29:     pinMode(R_W,0);
  2134                           	clrf	(pinMode@mode)
  2135  151A  01F0               	bcf	status, 5	;RP0=0, select bank0
  2136  151B  1283               	bcf	status, 6	;RP1=0, select bank0
  2137  151C  1303               	movf	(lcdBegin@R_W),w
  2138  151D  0821               	fcall	_pinMode
  2139  151E  120A  158A  206A  160A  118A  	line	30
  2140                           	
  2141                           l3515:	
  2142  1523                     ;LCD16x2.c: 30:     pinMode(d4,0);
  2143                           	clrf	(pinMode@mode)
  2144  1523  01F0               	bcf	status, 5	;RP0=0, select bank0
  2145  1524  1283               	bcf	status, 6	;RP1=0, select bank0
  2146  1525  1303               	movf	(lcdBegin@d4),w
  2147  1526  0822               	fcall	_pinMode
  2148  1527  120A  158A  206A  160A  118A  	line	31
  2149                           	
  2150                           l3517:	
  2151  152C                     ;LCD16x2.c: 31:     pinMode(d5,0);
  2152                           	clrf	(pinMode@mode)
  2153  152C  01F0               	bcf	status, 5	;RP0=0, select bank0
  2154  152D  1283               	bcf	status, 6	;RP1=0, select bank0
  2155  152E  1303               	movf	(lcdBegin@d5),w
  2156  152F  0823               	fcall	_pinMode
  2157  1530  120A  158A  206A  160A  118A  	line	32
  2158                           	
  2159                           l3519:	
  2160  1535                     ;LCD16x2.c: 32:     pinMode(d6,0);
  2161                           	clrf	(pinMode@mode)
  2162  1535  01F0               	bcf	status, 5	;RP0=0, select bank0
  2163  1536  1283               	bcf	status, 6	;RP1=0, select bank0
  2164  1537  1303               	movf	(lcdBegin@d6),w
  2165  1538  0824               	fcall	_pinMode
  2166  1539  120A  158A  206A  160A  118A  	line	33
  2167                           	
  2168                           l3521:	
  2169  153E                     ;LCD16x2.c: 33:     pinMode(d7,0);
  2170                           	clrf	(pinMode@mode)
  2171  153E  01F0               	bcf	status, 5	;RP0=0, select bank0
  2172  153F  1283               	bcf	status, 6	;RP1=0, select bank0
  2173  1540  1303               	movf	(lcdBegin@d7),w
  2174  1541  0825               	fcall	_pinMode
  2175  1542  120A  158A  206A  160A  118A  	line	34
  2176                           	
  2177                           l3523:	
  2178  1547                     ;LCD16x2.c: 34:     delay(15);
  2179                           	movlw	0Fh
  2180  1547  300F               	movwf	(delay@milis)
  2181  1548  00F0               	movlw	0
  2182  1549  3000               	movwf	((delay@milis))+1
  2183  154A  00F1               	fcall	_delay
  2184  154B  160A  118A  22F8  160A  118A  	line	35
  2185                           	
  2186                           l3525:	
  2187  1550                     ;LCD16x2.c: 35:     WriteInstruction(0x02);
  2188                           	movlw	low(02h)
  2189  1550  3002               	fcall	_WriteInstruction
  2190  1551  160A  118A  23B7  160A  118A  	line	36
  2191                           	
  2192                           l3527:	
  2193  1556                     ;LCD16x2.c: 36:     WriteInstruction(0x28);
  2194                           	movlw	low(028h)
  2195  1556  3028               	fcall	_WriteInstruction
  2196  1557  160A  118A  23B7  160A  118A  	line	37
  2197                           	
  2198                           l3529:	
  2199  155C                     ;LCD16x2.c: 37:     WriteInstruction(0x01);
  2200                           	movlw	low(01h)
  2201  155C  3001               	fcall	_WriteInstruction
  2202  155D  160A  118A  23B7  160A  118A  	line	38
  2203                           	
  2204                           l3531:	
  2205  1562                     ;LCD16x2.c: 38:     WriteInstruction(0x0C);
  2206                           	movlw	low(0Ch)
  2207  1562  300C               	fcall	_WriteInstruction
  2208  1563  160A  118A  23B7  160A  118A  	line	39
  2209                           	
  2210                           l3533:	
  2211  1568                     ;LCD16x2.c: 39:     WriteInstruction(0x06);
  2212                           	movlw	low(06h)
  2213  1568  3006               	fcall	_WriteInstruction
  2214  1569  160A  118A  23B7  160A  118A  	line	40
  2215                           	
  2216                           l408:	
  2217  156E                     	return
  2218  156E  0008               	opt stack 0
  2219                           GLOBAL	__end_of_lcdBegin
  2220                           	__end_of_lcdBegin:
  2221  156F                     	signat	_lcdBegin,28793
  2222                           	global	_pinMode
  2223                           
  2224 ;; *************** function _pinMode *****************
  2225 ;; Defined at:
  2226 ;;		line 60 in file "Hormiga877.c"
  2227 ;; Parameters:    Size  Location     Type
  2228 ;;  pin             1    wreg     unsigned char 
  2229 ;;  mode            1    0[COMMON] unsigned char 
  2230 ;; Auto vars:     Size  Location     Type
  2231 ;;  pin             1    3[COMMON] unsigned char 
  2232 ;; Return value:  Size  Location     Type
  2233 ;;                  1    wreg      void 
  2234 ;; Registers used:
  2235 ;;		wreg, fsr0l, fsr0h, status,2, status,0
  2236 ;; Tracked objects:
  2237 ;;		On entry : 0/0
  2238 ;;		On exit  : 0/0
  2239 ;;		Unchanged: 0/0
  2240 ;; Data sizes:     COMMON   BANK0   BANK1   BANK3   BANK2
  2241 ;;      Params:         1       0       0       0       0
  2242 ;;      Locals:         1       0       0       0       0
  2243 ;;      Temps:          2       0       0       0       0
  2244 ;;      Totals:         4       0       0       0       0
  2245 ;;Total ram usage:        4 bytes
  2246 ;; Hardware stack levels used:    1
  2247 ;; This function calls:
  2248 ;;		Nothing
  2249 ;; This function is called by:
  2250 ;;		_setup
  2251 ;;		_lcdBegin
  2252 ;; This function uses a non-reentrant model
  2253 ;;
  2254                           psect	text3,local,class=CODE,delta=2,merge=1,group=0
  2255                           	file	"Hormiga877.c"
  2256                           	line	60
  2257                           global __ptext3
  2258                           __ptext3:	;psect for function _pinMode
  2259  086A                     psect	text3
  2260                           	file	"Hormiga877.c"
  2261                           	line	60
  2262                           	global	__size_of_pinMode
  2263                           	__size_of_pinMode	equ	__end_of_pinMode-_pinMode
  2264  0121                     	
  2265                           _pinMode:	
  2266  086A                     ;incstack = 0
  2267                           	opt	stack 6
  2268                           ; Regs used in _pinMode: [wreg-fsr0h+status,2+status,0]
  2269                           ;pinMode@pin stored from wreg
  2270                           	movwf	(pinMode@pin)
  2271  086A  00F3               	line	62
  2272                           	
  2273                           l2843:	
  2274  086B                     ;Hormiga877.c: 60: void pinMode(char pin, char mode);Hormiga877.c: 61: {;Hormiga877.c: 6
                                 2:     switch(pin)
  2275                           	goto	l2897
  2276  086B  2935               	line	64
  2277                           ;Hormiga877.c: 63:     {;Hormiga877.c: 64:         case 0:
  2278                           	
  2279                           l173:	
  2280  086C                     	line	65
  2281                           	
  2282                           l2845:	
  2283  086C                     ;Hormiga877.c: 65:             TRISCbits.TRISC7 = mode;
  2284                           	rrf	(pinMode@mode),w
  2285  086C  0C70               	bsf	status, 5	;RP0=1, select bank1
  2286  086D  1683               	bcf	status, 6	;RP1=0, select bank1
  2287  086E  1303               	skipc
  2288  086F  1C03               	bcf	(135)^080h,7	;volatile
  2289  0870  1387               	skipnc
  2290  0871  1803               	bsf	(135)^080h,7	;volatile
  2291  0872  1787               	line	66
  2292                           ;Hormiga877.c: 66:             break;
  2293                           	goto	l199
  2294  0873  298A               	line	67
  2295                           ;Hormiga877.c: 67:         case 1:
  2296                           	
  2297                           l175:	
  2298  0874                     	line	68
  2299                           	
  2300                           l2847:	
  2301  0874                     ;Hormiga877.c: 68:             TRISCbits.TRISC6 = mode;
  2302                           	rrf	(pinMode@mode),w
  2303  0874  0C70               	bsf	status, 5	;RP0=1, select bank1
  2304  0875  1683               	bcf	status, 6	;RP1=0, select bank1
  2305  0876  1303               	skipc
  2306  0877  1C03               	bcf	(135)^080h,6	;volatile
  2307  0878  1307               	skipnc
  2308  0879  1803               	bsf	(135)^080h,6	;volatile
  2309  087A  1707               	line	69
  2310                           ;Hormiga877.c: 69:             break;
  2311                           	goto	l199
  2312  087B  298A               	line	70
  2313                           ;Hormiga877.c: 70:         case 2:
  2314                           	
  2315                           l176:	
  2316  087C                     	line	71
  2317                           	
  2318                           l2849:	
  2319  087C                     ;Hormiga877.c: 71:             TRISCbits.TRISC5 = mode;
  2320                           	rrf	(pinMode@mode),w
  2321  087C  0C70               	bsf	status, 5	;RP0=1, select bank1
  2322  087D  1683               	bcf	status, 6	;RP1=0, select bank1
  2323  087E  1303               	skipc
  2324  087F  1C03               	bcf	(135)^080h,5	;volatile
  2325  0880  1287               	skipnc
  2326  0881  1803               	bsf	(135)^080h,5	;volatile
  2327  0882  1687               	line	72
  2328                           ;Hormiga877.c: 72:             break;
  2329                           	goto	l199
  2330  0883  298A               	line	73
  2331                           ;Hormiga877.c: 73:         case 3:
  2332                           	
  2333                           l177:	
  2334  0884                     	line	74
  2335                           	
  2336                           l2851:	
  2337  0884                     ;Hormiga877.c: 74:             TRISCbits.TRISC4 = mode;
  2338                           	rrf	(pinMode@mode),w
  2339  0884  0C70               	bsf	status, 5	;RP0=1, select bank1
  2340  0885  1683               	bcf	status, 6	;RP1=0, select bank1
  2341  0886  1303               	skipc
  2342  0887  1C03               	bcf	(135)^080h,4	;volatile
  2343  0888  1207               	skipnc
  2344  0889  1803               	bsf	(135)^080h,4	;volatile
  2345  088A  1607               	line	75
  2346                           ;Hormiga877.c: 75:             break;
  2347                           	goto	l199
  2348  088B  298A               	line	76
  2349                           ;Hormiga877.c: 76:         case 4:
  2350                           	
  2351                           l178:	
  2352  088C                     	line	77
  2353                           	
  2354                           l2853:	
  2355  088C                     ;Hormiga877.c: 77:             TRISCbits.TRISC3 = mode;
  2356                           	rrf	(pinMode@mode),w
  2357  088C  0C70               	bsf	status, 5	;RP0=1, select bank1
  2358  088D  1683               	bcf	status, 6	;RP1=0, select bank1
  2359  088E  1303               	skipc
  2360  088F  1C03               	bcf	(135)^080h,3	;volatile
  2361  0890  1187               	skipnc
  2362  0891  1803               	bsf	(135)^080h,3	;volatile
  2363  0892  1587               	line	78
  2364                           ;Hormiga877.c: 78:             break;
  2365                           	goto	l199
  2366  0893  298A               	line	79
  2367                           ;Hormiga877.c: 79:         case 5:
  2368                           	
  2369                           l179:	
  2370  0894                     	line	80
  2371                           	
  2372                           l2855:	
  2373  0894                     ;Hormiga877.c: 80:             TRISCbits.TRISC2 = mode;
  2374                           	rrf	(pinMode@mode),w
  2375  0894  0C70               	bsf	status, 5	;RP0=1, select bank1
  2376  0895  1683               	bcf	status, 6	;RP1=0, select bank1
  2377  0896  1303               	skipc
  2378  0897  1C03               	bcf	(135)^080h,2	;volatile
  2379  0898  1107               	skipnc
  2380  0899  1803               	bsf	(135)^080h,2	;volatile
  2381  089A  1507               	line	82
  2382                           ;Hormiga877.c: 82:             break;
  2383                           	goto	l199
  2384  089B  298A               	line	83
  2385                           ;Hormiga877.c: 83:         case 6:
  2386                           	
  2387                           l180:	
  2388  089C                     	line	84
  2389                           	
  2390                           l2857:	
  2391  089C                     ;Hormiga877.c: 84:             TRISCbits.TRISC1 = mode;
  2392                           	rrf	(pinMode@mode),w
  2393  089C  0C70               	bsf	status, 5	;RP0=1, select bank1
  2394  089D  1683               	bcf	status, 6	;RP1=0, select bank1
  2395  089E  1303               	skipc
  2396  089F  1C03               	bcf	(135)^080h,1	;volatile
  2397  08A0  1087               	skipnc
  2398  08A1  1803               	bsf	(135)^080h,1	;volatile
  2399  08A2  1487               	line	86
  2400                           ;Hormiga877.c: 86:             break;
  2401                           	goto	l199
  2402  08A3  298A               	line	87
  2403                           ;Hormiga877.c: 87:         case 7:
  2404                           	
  2405                           l181:	
  2406  08A4                     	line	88
  2407                           	
  2408                           l2859:	
  2409  08A4                     ;Hormiga877.c: 88:             TRISCbits.TRISC0 = mode;
  2410                           	rrf	(pinMode@mode),w
  2411  08A4  0C70               	bsf	status, 5	;RP0=1, select bank1
  2412  08A5  1683               	bcf	status, 6	;RP1=0, select bank1
  2413  08A6  1303               	skipc
  2414  08A7  1C03               	bcf	(135)^080h,0	;volatile
  2415  08A8  1007               	skipnc
  2416  08A9  1803               	bsf	(135)^080h,0	;volatile
  2417  08AA  1407               	line	89
  2418                           ;Hormiga877.c: 89:             break;
  2419                           	goto	l199
  2420  08AB  298A               	line	90
  2421                           ;Hormiga877.c: 90:         case 8:
  2422                           	
  2423                           l182:	
  2424  08AC                     	line	91
  2425                           	
  2426                           l2861:	
  2427  08AC                     ;Hormiga877.c: 91:             TRISBbits.TRISB0 = mode;
  2428                           	rrf	(pinMode@mode),w
  2429  08AC  0C70               	bsf	status, 5	;RP0=1, select bank1
  2430  08AD  1683               	bcf	status, 6	;RP1=0, select bank1
  2431  08AE  1303               	skipc
  2432  08AF  1C03               	bcf	(134)^080h,0	;volatile
  2433  08B0  1006               	skipnc
  2434  08B1  1803               	bsf	(134)^080h,0	;volatile
  2435  08B2  1406               	line	92
  2436                           ;Hormiga877.c: 92:             break;
  2437                           	goto	l199
  2438  08B3  298A               	line	93
  2439                           ;Hormiga877.c: 93:         case 9:
  2440                           	
  2441                           l183:	
  2442  08B4                     	line	94
  2443                           	
  2444                           l2863:	
  2445  08B4                     ;Hormiga877.c: 94:             TRISBbits.TRISB1 = mode;
  2446                           	rrf	(pinMode@mode),w
  2447  08B4  0C70               	bsf	status, 5	;RP0=1, select bank1
  2448  08B5  1683               	bcf	status, 6	;RP1=0, select bank1
  2449  08B6  1303               	skipc
  2450  08B7  1C03               	bcf	(134)^080h,1	;volatile
  2451  08B8  1086               	skipnc
  2452  08B9  1803               	bsf	(134)^080h,1	;volatile
  2453  08BA  1486               	line	95
  2454                           ;Hormiga877.c: 95:             break;
  2455                           	goto	l199
  2456  08BB  298A               	line	96
  2457                           ;Hormiga877.c: 96:         case 10:
  2458                           	
  2459                           l184:	
  2460  08BC                     	line	97
  2461                           	
  2462                           l2865:	
  2463  08BC                     ;Hormiga877.c: 97:             TRISBbits.TRISB2 = mode;
  2464                           	rrf	(pinMode@mode),w
  2465  08BC  0C70               	bsf	status, 5	;RP0=1, select bank1
  2466  08BD  1683               	bcf	status, 6	;RP1=0, select bank1
  2467  08BE  1303               	skipc
  2468  08BF  1C03               	bcf	(134)^080h,2	;volatile
  2469  08C0  1106               	skipnc
  2470  08C1  1803               	bsf	(134)^080h,2	;volatile
  2471  08C2  1506               	line	98
  2472                           ;Hormiga877.c: 98:             break;
  2473                           	goto	l199
  2474  08C3  298A               	line	99
  2475                           ;Hormiga877.c: 99:         case 11:
  2476                           	
  2477                           l185:	
  2478  08C4                     	line	100
  2479                           	
  2480                           l2867:	
  2481  08C4                     ;Hormiga877.c: 100:             TRISBbits.TRISB3 = mode;
  2482                           	rrf	(pinMode@mode),w
  2483  08C4  0C70               	bsf	status, 5	;RP0=1, select bank1
  2484  08C5  1683               	bcf	status, 6	;RP1=0, select bank1
  2485  08C6  1303               	skipc
  2486  08C7  1C03               	bcf	(134)^080h,3	;volatile
  2487  08C8  1186               	skipnc
  2488  08C9  1803               	bsf	(134)^080h,3	;volatile
  2489  08CA  1586               	line	101
  2490                           ;Hormiga877.c: 101:             break;
  2491                           	goto	l199
  2492  08CB  298A               	line	102
  2493                           ;Hormiga877.c: 102:         case 12:
  2494                           	
  2495                           l186:	
  2496  08CC                     	line	103
  2497                           	
  2498                           l2869:	
  2499  08CC                     ;Hormiga877.c: 103:             TRISBbits.TRISB4 = mode;
  2500                           	rrf	(pinMode@mode),w
  2501  08CC  0C70               	bsf	status, 5	;RP0=1, select bank1
  2502  08CD  1683               	bcf	status, 6	;RP1=0, select bank1
  2503  08CE  1303               	skipc
  2504  08CF  1C03               	bcf	(134)^080h,4	;volatile
  2505  08D0  1206               	skipnc
  2506  08D1  1803               	bsf	(134)^080h,4	;volatile
  2507  08D2  1606               	line	104
  2508                           ;Hormiga877.c: 104:             break;
  2509                           	goto	l199
  2510  08D3  298A               	line	105
  2511                           ;Hormiga877.c: 105:         case 13:
  2512                           	
  2513                           l187:	
  2514  08D4                     	line	106
  2515                           	
  2516                           l2871:	
  2517  08D4                     ;Hormiga877.c: 106:             TRISBbits.TRISB5 = mode;
  2518                           	rrf	(pinMode@mode),w
  2519  08D4  0C70               	bsf	status, 5	;RP0=1, select bank1
  2520  08D5  1683               	bcf	status, 6	;RP1=0, select bank1
  2521  08D6  1303               	skipc
  2522  08D7  1C03               	bcf	(134)^080h,5	;volatile
  2523  08D8  1286               	skipnc
  2524  08D9  1803               	bsf	(134)^080h,5	;volatile
  2525  08DA  1686               	line	107
  2526                           ;Hormiga877.c: 107:             break;
  2527                           	goto	l199
  2528  08DB  298A               	line	108
  2529                           ;Hormiga877.c: 108:         case 14:
  2530                           	
  2531                           l188:	
  2532  08DC                     	line	109
  2533                           	
  2534                           l2873:	
  2535  08DC                     ;Hormiga877.c: 109:             TRISBbits.TRISB6 = mode;
  2536                           	rrf	(pinMode@mode),w
  2537  08DC  0C70               	bsf	status, 5	;RP0=1, select bank1
  2538  08DD  1683               	bcf	status, 6	;RP1=0, select bank1
  2539  08DE  1303               	skipc
  2540  08DF  1C03               	bcf	(134)^080h,6	;volatile
  2541  08E0  1306               	skipnc
  2542  08E1  1803               	bsf	(134)^080h,6	;volatile
  2543  08E2  1706               	line	110
  2544                           ;Hormiga877.c: 110:             break;
  2545                           	goto	l199
  2546  08E3  298A               	line	111
  2547                           ;Hormiga877.c: 111:         case 15:
  2548                           	
  2549                           l189:	
  2550  08E4                     	line	112
  2551                           	
  2552                           l2875:	
  2553  08E4                     ;Hormiga877.c: 112:             TRISBbits.TRISB7 = mode;
  2554                           	rrf	(pinMode@mode),w
  2555  08E4  0C70               	bsf	status, 5	;RP0=1, select bank1
  2556  08E5  1683               	bcf	status, 6	;RP1=0, select bank1
  2557  08E6  1303               	skipc
  2558  08E7  1C03               	bcf	(134)^080h,7	;volatile
  2559  08E8  1386               	skipnc
  2560  08E9  1803               	bsf	(134)^080h,7	;volatile
  2561  08EA  1786               	line	113
  2562                           ;Hormiga877.c: 113:             break;
  2563                           	goto	l199
  2564  08EB  298A               	line	114
  2565                           ;Hormiga877.c: 114:         case 16:
  2566                           	
  2567                           l190:	
  2568  08EC                     	line	115
  2569                           	
  2570                           l2877:	
  2571  08EC                     ;Hormiga877.c: 115:             TRISDbits.TRISD0 = mode;
  2572                           	rrf	(pinMode@mode),w
  2573  08EC  0C70               	bsf	status, 5	;RP0=1, select bank1
  2574  08ED  1683               	bcf	status, 6	;RP1=0, select bank1
  2575  08EE  1303               	skipc
  2576  08EF  1C03               	bcf	(136)^080h,0	;volatile
  2577  08F0  1008               	skipnc
  2578  08F1  1803               	bsf	(136)^080h,0	;volatile
  2579  08F2  1408               	line	116
  2580                           ;Hormiga877.c: 116:             break;
  2581                           	goto	l199
  2582  08F3  298A               	line	117
  2583                           ;Hormiga877.c: 117:         case 17:
  2584                           	
  2585                           l191:	
  2586  08F4                     	line	118
  2587                           	
  2588                           l2879:	
  2589  08F4                     ;Hormiga877.c: 118:             TRISDbits.TRISD1 = mode;
  2590                           	rrf	(pinMode@mode),w
  2591  08F4  0C70               	bsf	status, 5	;RP0=1, select bank1
  2592  08F5  1683               	bcf	status, 6	;RP1=0, select bank1
  2593  08F6  1303               	skipc
  2594  08F7  1C03               	bcf	(136)^080h,1	;volatile
  2595  08F8  1088               	skipnc
  2596  08F9  1803               	bsf	(136)^080h,1	;volatile
  2597  08FA  1488               	line	119
  2598                           ;Hormiga877.c: 119:             break;
  2599                           	goto	l199
  2600  08FB  298A               	line	120
  2601                           ;Hormiga877.c: 120:         case 18:
  2602                           	
  2603                           l192:	
  2604  08FC                     	line	121
  2605                           	
  2606                           l2881:	
  2607  08FC                     ;Hormiga877.c: 121:             TRISDbits.TRISD2 = mode;
  2608                           	rrf	(pinMode@mode),w
  2609  08FC  0C70               	bsf	status, 5	;RP0=1, select bank1
  2610  08FD  1683               	bcf	status, 6	;RP1=0, select bank1
  2611  08FE  1303               	skipc
  2612  08FF  1C03               	bcf	(136)^080h,2	;volatile
  2613  0900  1108               	skipnc
  2614  0901  1803               	bsf	(136)^080h,2	;volatile
  2615  0902  1508               	line	122
  2616                           ;Hormiga877.c: 122:             break;
  2617                           	goto	l199
  2618  0903  298A               	line	123
  2619                           ;Hormiga877.c: 123:         case 19:
  2620                           	
  2621                           l193:	
  2622  0904                     	line	124
  2623                           	
  2624                           l2883:	
  2625  0904                     ;Hormiga877.c: 124:             TRISDbits.TRISD3 = mode;
  2626                           	rrf	(pinMode@mode),w
  2627  0904  0C70               	bsf	status, 5	;RP0=1, select bank1
  2628  0905  1683               	bcf	status, 6	;RP1=0, select bank1
  2629  0906  1303               	skipc
  2630  0907  1C03               	bcf	(136)^080h,3	;volatile
  2631  0908  1188               	skipnc
  2632  0909  1803               	bsf	(136)^080h,3	;volatile
  2633  090A  1588               	line	125
  2634                           ;Hormiga877.c: 125:             break;
  2635                           	goto	l199
  2636  090B  298A               	line	126
  2637                           ;Hormiga877.c: 126:         case 20:
  2638                           	
  2639                           l194:	
  2640  090C                     	line	127
  2641                           	
  2642                           l2885:	
  2643  090C                     ;Hormiga877.c: 127:    TRISDbits.TRISD4 = mode;
  2644                           	rrf	(pinMode@mode),w
  2645  090C  0C70               	bsf	status, 5	;RP0=1, select bank1
  2646  090D  1683               	bcf	status, 6	;RP1=0, select bank1
  2647  090E  1303               	skipc
  2648  090F  1C03               	bcf	(136)^080h,4	;volatile
  2649  0910  1208               	skipnc
  2650  0911  1803               	bsf	(136)^080h,4	;volatile
  2651  0912  1608               	line	137
  2652                           ;Hormiga877.c: 137:    break;
  2653                           	goto	l199
  2654  0913  298A               	line	138
  2655                           ;Hormiga877.c: 138:         case 21:
  2656                           	
  2657                           l195:	
  2658  0914                     	line	139
  2659                           	
  2660                           l2887:	
  2661  0914                     ;Hormiga877.c: 139:             TRISDbits.TRISD5 = mode;
  2662                           	rrf	(pinMode@mode),w
  2663  0914  0C70               	bsf	status, 5	;RP0=1, select bank1
  2664  0915  1683               	bcf	status, 6	;RP1=0, select bank1
  2665  0916  1303               	skipc
  2666  0917  1C03               	bcf	(136)^080h,5	;volatile
  2667  0918  1288               	skipnc
  2668  0919  1803               	bsf	(136)^080h,5	;volatile
  2669  091A  1688               	line	140
  2670                           ;Hormiga877.c: 140:             break;
  2671                           	goto	l199
  2672  091B  298A               	line	141
  2673                           ;Hormiga877.c: 141:         case 22:
  2674                           	
  2675                           l196:	
  2676  091C                     	line	142
  2677                           	
  2678                           l2889:	
  2679  091C                     ;Hormiga877.c: 142:             TRISDbits.TRISD6 = mode;
  2680                           	rrf	(pinMode@mode),w
  2681  091C  0C70               	bsf	status, 5	;RP0=1, select bank1
  2682  091D  1683               	bcf	status, 6	;RP1=0, select bank1
  2683  091E  1303               	skipc
  2684  091F  1C03               	bcf	(136)^080h,6	;volatile
  2685  0920  1308               	skipnc
  2686  0921  1803               	bsf	(136)^080h,6	;volatile
  2687  0922  1708               	line	143
  2688                           ;Hormiga877.c: 143:             break;
  2689                           	goto	l199
  2690  0923  298A               	line	144
  2691                           ;Hormiga877.c: 144:         case 23:
  2692                           	
  2693                           l197:	
  2694  0924                     	line	145
  2695                           	
  2696                           l2891:	
  2697  0924                     ;Hormiga877.c: 145:             TRISDbits.TRISD7 = mode;
  2698                           	rrf	(pinMode@mode),w
  2699  0924  0C70               	bsf	status, 5	;RP0=1, select bank1
  2700  0925  1683               	bcf	status, 6	;RP1=0, select bank1
  2701  0926  1303               	skipc
  2702  0927  1C03               	bcf	(136)^080h,7	;volatile
  2703  0928  1388               	skipnc
  2704  0929  1803               	bsf	(136)^080h,7	;volatile
  2705  092A  1788               	line	146
  2706                           ;Hormiga877.c: 146:             break;
  2707                           	goto	l199
  2708  092B  298A               	line	147
  2709                           ;Hormiga877.c: 147:         case 24:
  2710                           	
  2711                           l198:	
  2712  092C                     	line	148
  2713                           	
  2714                           l2893:	
  2715  092C                     ;Hormiga877.c: 148:             TRISAbits.TRISA4 = mode;
  2716                           	rrf	(pinMode@mode),w
  2717  092C  0C70               	bsf	status, 5	;RP0=1, select bank1
  2718  092D  1683               	bcf	status, 6	;RP1=0, select bank1
  2719  092E  1303               	skipc
  2720  092F  1C03               	bcf	(133)^080h,4	;volatile
  2721  0930  1205               	skipnc
  2722  0931  1803               	bsf	(133)^080h,4	;volatile
  2723  0932  1605               	line	149
  2724                           ;Hormiga877.c: 149:             break;
  2725                           	goto	l199
  2726  0933  298A               	line	164
  2727                           	
  2728                           l2895:	
  2729  0934                     ;Hormiga877.c: 164:     }
  2730                           	goto	l199
  2731  0934  298A               	
  2732                           l172:	
  2733  0935                     	
  2734                           l2897:	
  2735  0935                     	movf	(pinMode@pin),w
  2736  0935  0873               	movwf	(??_pinMode+0)+0
  2737  0936  00F1               	clrf	(??_pinMode+0)+0+1
  2738  0937  01F2               	; Switch on 2 bytes has been partitioned into a top level switch of size 1, and 1 sub-s
                                 witches
  2739                           ; Switch size 1, requested type "space"
  2740                           ; Number of cases is 1, Range of values is 0 to 0
  2741                           ; switch strategies available:
  2742                           ; Name         Instructions Cycles
  2743                           ; simple_byte            4     3 (average)
  2744                           ; direct_byte           11     8 (fixed)
  2745                           ; jumptable            260     6 (fixed)
  2746                           ;	Chosen strategy is simple_byte
  2747                           
  2748                           	movf 1+(??_pinMode+0)+0,w
  2749  0938  0872               	opt asmopt_push
  2750                           	opt asmopt_off
  2751                           	xorlw	0^0	; case 0
  2752  0939  3A00               	skipnz
  2753  093A  1903               	goto	l3857
  2754  093B  293D               	goto	l199
  2755  093C  298A               	opt asmopt_pop
  2756                           	
  2757                           l3857:	
  2758  093D                     ; Switch size 1, requested type "space"
  2759                           ; Number of cases is 25, Range of values is 0 to 24
  2760                           ; switch strategies available:
  2761                           ; Name         Instructions Cycles
  2762                           ; simple_byte           76    39 (average)
  2763                           ; direct_byte           83     8 (fixed)
  2764                           ; jumptable            260     6 (fixed)
  2765                           ;	Chosen strategy is simple_byte
  2766                           
  2767                           	movf 0+(??_pinMode+0)+0,w
  2768  093D  0871               	opt asmopt_push
  2769                           	opt asmopt_off
  2770                           	xorlw	0^0	; case 0
  2771  093E  3A00               	skipnz
  2772  093F  1903               	goto	l2845
  2773  0940  286C               	xorlw	1^0	; case 1
  2774  0941  3A01               	skipnz
  2775  0942  1903               	goto	l2847
  2776  0943  2874               	xorlw	2^1	; case 2
  2777  0944  3A03               	skipnz
  2778  0945  1903               	goto	l2849
  2779  0946  287C               	xorlw	3^2	; case 3
  2780  0947  3A01               	skipnz
  2781  0948  1903               	goto	l2851
  2782  0949  2884               	xorlw	4^3	; case 4
  2783  094A  3A07               	skipnz
  2784  094B  1903               	goto	l2853
  2785  094C  288C               	xorlw	5^4	; case 5
  2786  094D  3A01               	skipnz
  2787  094E  1903               	goto	l2855
  2788  094F  2894               	xorlw	6^5	; case 6
  2789  0950  3A03               	skipnz
  2790  0951  1903               	goto	l2857
  2791  0952  289C               	xorlw	7^6	; case 7
  2792  0953  3A01               	skipnz
  2793  0954  1903               	goto	l2859
  2794  0955  28A4               	xorlw	8^7	; case 8
  2795  0956  3A0F               	skipnz
  2796  0957  1903               	goto	l2861
  2797  0958  28AC               	xorlw	9^8	; case 9
  2798  0959  3A01               	skipnz
  2799  095A  1903               	goto	l2863
  2800  095B  28B4               	xorlw	10^9	; case 10
  2801  095C  3A03               	skipnz
  2802  095D  1903               	goto	l2865
  2803  095E  28BC               	xorlw	11^10	; case 11
  2804  095F  3A01               	skipnz
  2805  0960  1903               	goto	l2867
  2806  0961  28C4               	xorlw	12^11	; case 12
  2807  0962  3A07               	skipnz
  2808  0963  1903               	goto	l2869
  2809  0964  28CC               	xorlw	13^12	; case 13
  2810  0965  3A01               	skipnz
  2811  0966  1903               	goto	l2871
  2812  0967  28D4               	xorlw	14^13	; case 14
  2813  0968  3A03               	skipnz
  2814  0969  1903               	goto	l2873
  2815  096A  28DC               	xorlw	15^14	; case 15
  2816  096B  3A01               	skipnz
  2817  096C  1903               	goto	l2875
  2818  096D  28E4               	xorlw	16^15	; case 16
  2819  096E  3A1F               	skipnz
  2820  096F  1903               	goto	l2877
  2821  0970  28EC               	xorlw	17^16	; case 17
  2822  0971  3A01               	skipnz
  2823  0972  1903               	goto	l2879
  2824  0973  28F4               	xorlw	18^17	; case 18
  2825  0974  3A03               	skipnz
  2826  0975  1903               	goto	l2881
  2827  0976  28FC               	xorlw	19^18	; case 19
  2828  0977  3A01               	skipnz
  2829  0978  1903               	goto	l2883
  2830  0979  2904               	xorlw	20^19	; case 20
  2831  097A  3A07               	skipnz
  2832  097B  1903               	goto	l2885
  2833  097C  290C               	xorlw	21^20	; case 21
  2834  097D  3A01               	skipnz
  2835  097E  1903               	goto	l2887
  2836  097F  2914               	xorlw	22^21	; case 22
  2837  0980  3A03               	skipnz
  2838  0981  1903               	goto	l2889
  2839  0982  291C               	xorlw	23^22	; case 23
  2840  0983  3A01               	skipnz
  2841  0984  1903               	goto	l2891
  2842  0985  2924               	xorlw	24^23	; case 24
  2843  0986  3A0F               	skipnz
  2844  0987  1903               	goto	l2893
  2845  0988  292C               	goto	l199
  2846  0989  298A               	opt asmopt_pop
  2847                           
  2848                           	
  2849                           l174:	
  2850  098A                     	line	165
  2851                           	
  2852                           l199:	
  2853  098A                     	return
  2854  098A  0008               	opt stack 0
  2855                           GLOBAL	__end_of_pinMode
  2856                           	__end_of_pinMode:
  2857  098B                     	signat	_pinMode,8313
  2858                           	global	_PIDSetSampleTime
  2859                           
  2860 ;; *************** function _PIDSetSampleTime *****************
  2861 ;; Defined at:
  2862 ;;		line 21 in file "PIDController.c"
  2863 ;; Parameters:    Size  Location     Type
  2864 ;;  dt              1    wreg     unsigned char 
  2865 ;; Auto vars:     Size  Location     Type
  2866 ;;  dt              1    1[COMMON] unsigned char 
  2867 ;; Return value:  Size  Location     Type
  2868 ;;                  1    wreg      void 
  2869 ;; Registers used:
  2870 ;;		wreg, status,2, status,0
  2871 ;; Tracked objects:
  2872 ;;		On entry : 0/0
  2873 ;;		On exit  : 0/0
  2874 ;;		Unchanged: 0/0
  2875 ;; Data sizes:     COMMON   BANK0   BANK1   BANK3   BANK2
  2876 ;;      Params:         0       0       0       0       0
  2877 ;;      Locals:         1       0       0       0       0
  2878 ;;      Temps:          1       0       0       0       0
  2879 ;;      Totals:         2       0       0       0       0
  2880 ;;Total ram usage:        2 bytes
  2881 ;; Hardware stack levels used:    1
  2882 ;; This function calls:
  2883 ;;		Nothing
  2884 ;; This function is called by:
  2885 ;;		_setup
  2886 ;; This function uses a non-reentrant model
  2887 ;;
  2888                           psect	text4,local,class=CODE,delta=2,merge=1,group=0
  2889                           	file	"PIDController.c"
  2890                           	line	21
  2891                           global __ptext4
  2892                           __ptext4:	;psect for function _PIDSetSampleTime
  2893  0855                     psect	text4
  2894                           	file	"PIDController.c"
  2895                           	line	21
  2896                           	global	__size_of_PIDSetSampleTime
  2897                           	__size_of_PIDSetSampleTime	equ	__end_of_PIDSetSampleTime-_PIDSetSampleTime
  2898  0015                     	
  2899                           _PIDSetSampleTime:	
  2900  0855                     ;incstack = 0
  2901                           	opt	stack 6
  2902                           ; Regs used in _PIDSetSampleTime: [wreg+status,2+status,0]
  2903                           ;PIDSetSampleTime@dt stored from wreg
  2904                           	movwf	(PIDSetSampleTime@dt)
  2905  0855  00F1               	line	23
  2906                           	
  2907                           l3557:	
  2908  0856                     ;PIDController.c: 21: void PIDSetSampleTime(char dt);PIDController.c: 22: {;PIDControlle
                                 r.c: 23:     OPTION_REG &= 0xD7;
  2909                           	movlw	low(0D7h)
  2910  0856  30D7               	movwf	(??_PIDSetSampleTime+0)+0
  2911  0857  00F0               	movf	(??_PIDSetSampleTime+0)+0,w
  2912  0858  0870               	bsf	status, 5	;RP0=1, select bank1
  2913  0859  1683               	bcf	status, 6	;RP1=0, select bank1
  2914  085A  1303               	andwf	(129)^080h,f	;volatile
  2915  085B  0581               	line	24
  2916                           	
  2917                           l3559:	
  2918  085C                     ;PIDController.c: 24:     TMR0IF = 0;
  2919                           	bcf	(90/8),(90)&7	;volatile
  2920  085C  110B               	line	25
  2921                           ;PIDController.c: 25:     TMR0 = 0xFF - dt;
  2922                           	decf	(PIDSetSampleTime@dt),w
  2923  085D  0371               	xorlw	0ffh
  2924  085E  3AFF               	addlw	0FFh
  2925  085F  3EFF               	bcf	status, 5	;RP0=0, select bank0
  2926  0860  1283               	bcf	status, 6	;RP1=0, select bank0
  2927  0861  1303               	movwf	(1)	;volatile
  2928  0862  0081               	line	26
  2929                           	
  2930                           l3561:	
  2931  0863                     ;PIDController.c: 26:     PID.SampleT = dt;
  2932                           	movf	(PIDSetSampleTime@dt),w
  2933  0863  0871               	movwf	(??_PIDSetSampleTime+0)+0
  2934  0864  00F0               	movf	(??_PIDSetSampleTime+0)+0,w
  2935  0865  0870               	bsf	status, 5	;RP0=1, select bank3
  2936  0866  1683               	bsf	status, 6	;RP1=1, select bank3
  2937  0867  1703               	movwf	0+(_PID)^0180h+0Ch
  2938  0868  009C               	line	27
  2939                           	
  2940                           l465:	
  2941  0869                     	return
  2942  0869  0008               	opt stack 0
  2943                           GLOBAL	__end_of_PIDSetSampleTime
  2944                           	__end_of_PIDSetSampleTime:
  2945  086A                     	signat	_PIDSetSampleTime,4217
  2946                           	global	_loop
  2947                           
  2948 ;; *************** function _loop *****************
  2949 ;; Defined at:
  2950 ;;		line 32 in file "application.c"
  2951 ;; Parameters:    Size  Location     Type
  2952 ;;		None
  2953 ;; Auto vars:     Size  Location     Type
  2954 ;;		None
  2955 ;; Return value:  Size  Location     Type
  2956 ;;                  1    wreg      void 
  2957 ;; Registers used:
  2958 ;;		wreg, fsr0l, fsr0h, status,2, status,0, btemp+1, pclath, cstack
  2959 ;; Tracked objects:
  2960 ;;		On entry : 0/0
  2961 ;;		On exit  : 0/0
  2962 ;;		Unchanged: 0/0
  2963 ;; Data sizes:     COMMON   BANK0   BANK1   BANK3   BANK2
  2964 ;;      Params:         0       0       0       0       0
  2965 ;;      Locals:         0       0       0       0       0
  2966 ;;      Temps:          0       0       4       0       0
  2967 ;;      Totals:         0       0       4       0       0
  2968 ;;Total ram usage:        4 bytes
  2969 ;; Hardware stack levels used:    1
  2970 ;; Hardware stack levels required when called:    5
  2971 ;; This function calls:
  2972 ;;		_AccionControl
  2973 ;;		_EventCounters
  2974 ;;		___xxtofl
  2975 ;;		_digitalWrite
  2976 ;;		_lcdPrint
  2977 ;;		_lcdSetCursor
  2978 ;;		_sprintf
  2979 ;; This function is called by:
  2980 ;;		_main
  2981 ;; This function uses a non-reentrant model
  2982 ;;
  2983                           psect	text5,local,class=CODE,delta=2,merge=1,group=0
  2984                           	file	"application.c"
  2985                           	line	32
  2986                           global __ptext5
  2987                           __ptext5:	;psect for function _loop
  2988  1713                     psect	text5
  2989                           	file	"application.c"
  2990                           	line	32
  2991                           	global	__size_of_loop
  2992                           	__size_of_loop	equ	__end_of_loop-_loop
  2993  00ED                     	
  2994                           _loop:	
  2995  1713                     ;incstack = 0
  2996                           	opt	stack 2
  2997                           ; Regs used in _loop: [wreg-fsr0h+status,2+status,0+btemp+1+pclath+cstack]
  2998                           	line	34
  2999                           	
  3000                           l3697:	
  3001  1713                     ;application.c: 34:     digitalWrite(led,1);
  3002                           	clrf	(digitalWrite@value)
  3003  1713  01F0               	incf	(digitalWrite@value),f
  3004  1714  0AF0               	movlw	low((_led-__stringbase))
  3005  1715  300B               	movwf	fsr0
  3006  1716  0084               	fcall	stringdir
  3007  1717  120A  158A  200A  160A  118A  	fcall	_digitalWrite
  3008  171C  120A  118A  2096  160A  118A  	line	35
  3009                           	
  3010                           l3699:	
  3011  1721                     ;application.c: 35:     Now = EventCounters();
  3012                           	fcall	_EventCounters
  3013  1721  160A  118A  2186  160A  118A  	movf	(1+(?_EventCounters)),w
  3014  1726  0871               	bsf	status, 5	;RP0=1, select bank1
  3015  1727  1683               	bcf	status, 6	;RP1=0, select bank1
  3016  1728  1303               	movwf	(_Now+1)^080h
  3017  1729  00A9               	movf	(0+(?_EventCounters)),w
  3018  172A  0870               	movwf	(_Now)^080h
  3019  172B  00A8               	line	36
  3020                           	
  3021                           l3701:	
  3022  172C                     ;application.c: 36:     sprintf(ScreenROW,"NOW=%u",dTime);
  3023                           	movlw	(low((((STR_2)-__stringbase)|8000h)))&0ffh
  3024  172C  303E               	movwf	(??_loop+0)^080h+0
  3025  172D  00D5               	movf	(??_loop+0)^080h+0,w
  3026  172E  0855               	bcf	status, 5	;RP0=0, select bank0
  3027  172F  1283               	bcf	status, 6	;RP1=0, select bank0
  3028  1730  1303               	movwf	(sprintf@f)
  3029  1731  00A0               	bsf	status, 5	;RP0=1, select bank1
  3030  1732  1683               	bcf	status, 6	;RP1=0, select bank1
  3031  1733  1303               	movf	(_dTime+1)^080h,w
  3032  1734  082B               	bcf	status, 5	;RP0=0, select bank0
  3033  1735  1283               	bcf	status, 6	;RP1=0, select bank0
  3034  1736  1303               	movwf	1+(?_sprintf)+01h
  3035  1737  00A2               	bsf	status, 5	;RP0=1, select bank1
  3036  1738  1683               	bcf	status, 6	;RP1=0, select bank1
  3037  1739  1303               	movf	(_dTime)^080h,w
  3038  173A  082A               	bcf	status, 5	;RP0=0, select bank0
  3039  173B  1283               	bcf	status, 6	;RP1=0, select bank0
  3040  173C  1303               	movwf	0+(?_sprintf)+01h
  3041  173D  00A1               	movlw	(low(_ScreenROW|((0x0)<<8)))&0ffh
  3042  173E  30B3               	fcall	_sprintf
  3043  173F  160A  118A  2633  160A  118A  	line	37
  3044                           	
  3045                           l3703:	
  3046  1744                     ;application.c: 37:     lcdPrint(ScreenROW);
  3047                           	movlw	(low(_ScreenROW|((0x0)<<8))&0ffh)
  3048  1744  30B3               	bcf	status, 5	;RP0=0, select bank0
  3049  1745  1283               	bcf	status, 6	;RP1=0, select bank0
  3050  1746  1303               	movwf	(lcdPrint@string)
  3051  1747  00A0               	movlw	(0x0)
  3052  1748  3000               	movwf	(lcdPrint@string+1)
  3053  1749  00A1               	fcall	_lcdPrint
  3054  174A  160A  118A  2265  160A  118A  	line	38
  3055                           	
  3056                           l3705:	
  3057  174F                     ;application.c: 38:     lcdSetCursor(2,8);
  3058                           	movlw	low(08h)
  3059  174F  3008               	bsf	status, 5	;RP0=1, select bank1
  3060  1750  1683               	bcf	status, 6	;RP1=0, select bank1
  3061  1751  1303               	movwf	(??_loop+0)^080h+0
  3062  1752  00D5               	movf	(??_loop+0)^080h+0,w
  3063  1753  0855               	movwf	(lcdSetCursor@column)
  3064  1754  00FC               	movlw	low(02h)
  3065  1755  3002               	fcall	_lcdSetCursor
  3066  1756  160A  118A  21F8  160A  118A  	line	39
  3067                           	
  3068                           l3707:	
  3069  175B                     ;application.c: 39:     dTime = Now - Last;
  3070                           	bsf	status, 5	;RP0=1, select bank1
  3071  175B  1683               	bcf	status, 6	;RP1=0, select bank1
  3072  175C  1303               	comf	(_Last)^080h,w
  3073  175D  0926               	movwf	(??_loop+0)^080h+0
  3074  175E  00D5               	comf	(_Last+1)^080h,w
  3075  175F  0927               	movwf	((??_loop+0)^080h+0+1)
  3076  1760  00D6               	incf	(??_loop+0)^080h+0,f
  3077  1761  0AD5               	skipnz
  3078  1762  1903               	incf	((??_loop+0)^080h+0+1),f
  3079  1763  0AD6               	movf	(_Now)^080h,w
  3080  1764  0828               	addwf	0+(??_loop+0)^080h+0,w
  3081  1765  0755               	movwf	(_dTime)^080h
  3082  1766  00AA               	movf	(_Now+1)^080h,w
  3083  1767  0829               	skipnc
  3084  1768  1803               	incf	(_Now+1)^080h,w
  3085  1769  0A29               	addwf	1+(??_loop+0)^080h+0,w
  3086  176A  0756               	movwf	1+(_dTime)^080h
  3087  176B  00AB               	line	40
  3088                           	
  3089                           l3709:	
  3090  176C                     ;application.c: 40:     if(dTime >= 20)
  3091                           	movlw	0
  3092  176C  3000               	subwf	(_dTime+1)^080h,w
  3093  176D  022B               	movlw	014h
  3094  176E  3014               	skipnz
  3095  176F  1903               	subwf	(_dTime)^080h,w
  3096  1770  022A               	skipc
  3097  1771  1C03               	goto	u3771
  3098  1772  2F74               	goto	u3770
  3099  1773  2F75               u3771:
  3100  1774                     	goto	l53
  3101  1774  2FFF               u3770:
  3102  1775                     	line	42
  3103                           	
  3104                           l3711:	
  3105  1775                     ;application.c: 41:     {;application.c: 42:         dt++;
  3106                           	movlw	01h
  3107  1775  3001               	addwf	(_dt)^080h,f
  3108  1776  07A4               	skipnc
  3109  1777  1803               	incf	(_dt+1)^080h,f
  3110  1778  0AA5               	movlw	0
  3111  1779  3000               	addwf	(_dt+1)^080h,f
  3112  177A  07A5               	line	43
  3113                           	
  3114                           l3713:	
  3115  177B                     ;application.c: 43:         lcdSetCursor(2,1);
  3116                           	clrf	(lcdSetCursor@column)
  3117  177B  01FC               	incf	(lcdSetCursor@column),f
  3118  177C  0AFC               	movlw	low(02h)
  3119  177D  3002               	fcall	_lcdSetCursor
  3120  177E  160A  118A  21F8  160A  118A  	line	44
  3121                           	
  3122                           l3715:	
  3123  1783                     ;application.c: 44:         lcdPrint("                ");
  3124                           	movlw	(low((((STR_3)-__stringbase)|8000h)))&0ffh
  3125  1783  3013               	bcf	status, 5	;RP0=0, select bank0
  3126  1784  1283               	bcf	status, 6	;RP1=0, select bank0
  3127  1785  1303               	movwf	(lcdPrint@string)
  3128  1786  00A0               	movlw	80h
  3129  1787  3080               	movwf	(lcdPrint@string+1)
  3130  1788  00A1               	fcall	_lcdPrint
  3131  1789  160A  118A  2265  160A  118A  	line	45
  3132                           	
  3133                           l3717:	
  3134  178E                     ;application.c: 45:         lcdSetCursor(2,1);
  3135                           	clrf	(lcdSetCursor@column)
  3136  178E  01FC               	incf	(lcdSetCursor@column),f
  3137  178F  0AFC               	movlw	low(02h)
  3138  1790  3002               	fcall	_lcdSetCursor
  3139  1791  160A  118A  21F8  160A  118A  	line	46
  3140                           	
  3141                           l3719:	
  3142  1796                     ;application.c: 46:         sprintf(ScreenROW,"Time=%u ",dt);
  3143                           	movlw	(low((((STR_4)-__stringbase)|8000h)))&0ffh
  3144  1796  3035               	bsf	status, 5	;RP0=1, select bank1
  3145  1797  1683               	bcf	status, 6	;RP1=0, select bank1
  3146  1798  1303               	movwf	(??_loop+0)^080h+0
  3147  1799  00D5               	movf	(??_loop+0)^080h+0,w
  3148  179A  0855               	bcf	status, 5	;RP0=0, select bank0
  3149  179B  1283               	bcf	status, 6	;RP1=0, select bank0
  3150  179C  1303               	movwf	(sprintf@f)
  3151  179D  00A0               	bsf	status, 5	;RP0=1, select bank1
  3152  179E  1683               	bcf	status, 6	;RP1=0, select bank1
  3153  179F  1303               	movf	(_dt+1)^080h,w
  3154  17A0  0825               	bcf	status, 5	;RP0=0, select bank0
  3155  17A1  1283               	bcf	status, 6	;RP1=0, select bank0
  3156  17A2  1303               	movwf	1+(?_sprintf)+01h
  3157  17A3  00A2               	bsf	status, 5	;RP0=1, select bank1
  3158  17A4  1683               	bcf	status, 6	;RP1=0, select bank1
  3159  17A5  1303               	movf	(_dt)^080h,w
  3160  17A6  0824               	bcf	status, 5	;RP0=0, select bank0
  3161  17A7  1283               	bcf	status, 6	;RP1=0, select bank0
  3162  17A8  1303               	movwf	0+(?_sprintf)+01h
  3163  17A9  00A1               	movlw	(low(_ScreenROW|((0x0)<<8)))&0ffh
  3164  17AA  30B3               	fcall	_sprintf
  3165  17AB  160A  118A  2633  160A  118A  	line	47
  3166                           	
  3167                           l3721:	
  3168  17B0                     ;application.c: 47:         lcdPrint(ScreenROW);
  3169                           	movlw	(low(_ScreenROW|((0x0)<<8))&0ffh)
  3170  17B0  30B3               	bcf	status, 5	;RP0=0, select bank0
  3171  17B1  1283               	bcf	status, 6	;RP1=0, select bank0
  3172  17B2  1303               	movwf	(lcdPrint@string)
  3173  17B3  00A0               	movlw	(0x0)
  3174  17B4  3000               	movwf	(lcdPrint@string+1)
  3175  17B5  00A1               	fcall	_lcdPrint
  3176  17B6  160A  118A  2265  160A  118A  	line	48
  3177                           	
  3178                           l3723:	
  3179  17BB                     ;application.c: 48:         Control = AccionControl(3.14,2.71,0.01);
  3180                           	movlw	0x3c
  3181  17BB  303C               	bcf	status, 5	;RP0=0, select bank0
  3182  17BC  1283               	bcf	status, 6	;RP1=0, select bank0
  3183  17BD  1303               	movwf	(AccionControl@dt+3)
  3184  17BE  00EF               	movlw	0x23
  3185  17BF  3023               	movwf	(AccionControl@dt+2)
  3186  17C0  00EE               	movlw	0xd7
  3187  17C1  30D7               	movwf	(AccionControl@dt+1)
  3188  17C2  00ED               	movlw	0xa
  3189  17C3  300A               	movwf	(AccionControl@dt)
  3190  17C4  00EC               
  3191                           	movlw	0x40
  3192  17C5  3040               	movwf	(AccionControl@Feedback+3)
  3193  17C6  00EB               	movlw	0x2d
  3194  17C7  302D               	movwf	(AccionControl@Feedback+2)
  3195  17C8  00EA               	movlw	0x70
  3196  17C9  3070               	movwf	(AccionControl@Feedback+1)
  3197  17CA  00E9               	movlw	0xa4
  3198  17CB  30A4               	movwf	(AccionControl@Feedback)
  3199  17CC  00E8               
  3200                           	movlw	0x40
  3201  17CD  3040               	movwf	(AccionControl@SetPoint+3)
  3202  17CE  00E7               	movlw	0x48
  3203  17CF  3048               	movwf	(AccionControl@SetPoint+2)
  3204  17D0  00E6               	movlw	0xf5
  3205  17D1  30F5               	movwf	(AccionControl@SetPoint+1)
  3206  17D2  00E5               	movlw	0xc3
  3207  17D3  30C3               	movwf	(AccionControl@SetPoint)
  3208  17D4  00E4               
  3209                           	fcall	_AccionControl
  3210  17D5  120A  158A  218B  160A  118A  	bsf	status, 5	;RP0=1, select bank1
  3211  17DA  1683               	bcf	status, 6	;RP1=0, select bank1
  3212  17DB  1303               	movwf	(??_loop+0)^080h+0
  3213  17DC  00D5               	clrf	((??_loop+0)^080h+0+1)
  3214  17DD  01D6               	clrf	((??_loop+0)^080h+0+2)
  3215  17DE  01D7               	clrf	((??_loop+0)^080h+0+3)
  3216  17DF  01D8               	movf	3+(??_loop+0)^080h+0,w
  3217  17E0  0858               	movwf	(___xxtofl@val+3)^080h
  3218  17E1  00CA               	movf	2+(??_loop+0)^080h+0,w
  3219  17E2  0857               	movwf	(___xxtofl@val+2)^080h
  3220  17E3  00C9               	movf	1+(??_loop+0)^080h+0,w
  3221  17E4  0856               	movwf	(___xxtofl@val+1)^080h
  3222  17E5  00C8               	movf	0+(??_loop+0)^080h+0,w
  3223  17E6  0855               	movwf	(___xxtofl@val)^080h
  3224  17E7  00C7               
  3225                           	movlw	low(0)
  3226  17E8  3000               	fcall	___xxtofl
  3227  17E9  160A  118A  256F  160A  118A  	bsf	status, 5	;RP0=1, select bank1
  3228  17EE  1683               	bcf	status, 6	;RP1=0, select bank1
  3229  17EF  1303               	movf	(3+(?___xxtofl))^080h,w
  3230  17F0  084A               	movwf	(_Control+3)^080h
  3231  17F1  00A3               	movf	(2+(?___xxtofl))^080h,w
  3232  17F2  0849               	movwf	(_Control+2)^080h
  3233  17F3  00A2               	movf	(1+(?___xxtofl))^080h,w
  3234  17F4  0848               	movwf	(_Control+1)^080h
  3235  17F5  00A1               	movf	(0+(?___xxtofl))^080h,w
  3236  17F6  0847               	movwf	(_Control)^080h
  3237  17F7  00A0               
  3238                           	line	49
  3239                           	
  3240                           l3725:	
  3241  17F8                     ;application.c: 49:         dTime = 0;
  3242                           	clrf	(_dTime)^080h
  3243  17F8  01AA               	clrf	(_dTime+1)^080h
  3244  17F9  01AB               	line	50
  3245                           	
  3246                           l3727:	
  3247  17FA                     ;application.c: 50:         Last = Now;
  3248                           	movf	(_Now+1)^080h,w
  3249  17FA  0829               	movwf	(_Last+1)^080h
  3250  17FB  00A7               	movf	(_Now)^080h,w
  3251  17FC  0828               	movwf	(_Last)^080h
  3252  17FD  00A6               	goto	l53
  3253  17FE  2FFF               	line	51
  3254                           ;application.c: 51:     }
  3255                           	
  3256                           l52:	
  3257  17FF                     	line	52
  3258                           	
  3259                           l53:	
  3260  17FF                     	return
  3261  17FF  0008               	opt stack 0
  3262                           GLOBAL	__end_of_loop
  3263                           	__end_of_loop:
  3264  1800                     	signat	_loop,89
  3265                           	global	_sprintf
  3266                           
  3267 ;; *************** function _sprintf *****************
  3268 ;; Defined at:
  3269 ;;		line 500 in file "C:\Program Files (x86)\Microchip\xc8\v2.00\pic\sources\c90\common\doprnt.c"
  3270 ;; Parameters:    Size  Location     Type
  3271 ;;  sp              1    wreg     PTR unsigned char 
  3272 ;;		 -> ScreenROW(16), 
  3273 ;;  f               1    0[BANK0 ] PTR const unsigned char 
  3274 ;;		 -> STR_4(9), STR_2(7), 
  3275 ;; Auto vars:     Size  Location     Type
  3276 ;;  sp              1   11[BANK0 ] PTR unsigned char 
  3277 ;;		 -> ScreenROW(16), 
  3278 ;;  tmpval          4    0        struct .
  3279 ;;  val             2    8[BANK0 ] unsigned int 
  3280 ;;  cp              2    0        PTR const unsigned char 
  3281 ;;  len             2    0        unsigned int 
  3282 ;;  c               1   12[BANK0 ] unsigned char 
  3283 ;;  prec            1   10[BANK0 ] char 
  3284 ;;  ap              1    7[BANK0 ] PTR void [1]
  3285 ;;		 -> ?_sprintf(2), 
  3286 ;;  flag            1    6[BANK0 ] unsigned char 
  3287 ;; Return value:  Size  Location     Type
  3288 ;;                  2    0[BANK0 ] int 
  3289 ;; Registers used:
  3290 ;;		wreg, fsr0l, fsr0h, status,2, status,0, btemp+1, pclath, cstack
  3291 ;; Tracked objects:
  3292 ;;		On entry : 0/0
  3293 ;;		On exit  : 0/0
  3294 ;;		Unchanged: 0/0
  3295 ;; Data sizes:     COMMON   BANK0   BANK1   BANK3   BANK2
  3296 ;;      Params:         0       3       0       0       0
  3297 ;;      Locals:         0       7       0       0       0
  3298 ;;      Temps:          0       3       0       0       0
  3299 ;;      Totals:         0      13       0       0       0
  3300 ;;Total ram usage:       13 bytes
  3301 ;; Hardware stack levels used:    1
  3302 ;; Hardware stack levels required when called:    1
  3303 ;; This function calls:
  3304 ;;		___lwdiv
  3305 ;;		___lwmod
  3306 ;; This function is called by:
  3307 ;;		_loop
  3308 ;; This function uses a non-reentrant model
  3309 ;;
  3310                           psect	text6,local,class=CODE,delta=2,merge=1,group=0
  3311                           	file	"C:\Program Files (x86)\Microchip\xc8\v2.00\pic\sources\c90\common\doprnt.c"
  3312                           	line	500
  3313                           global __ptext6
  3314                           __ptext6:	;psect for function _sprintf
  3315  1633                     psect	text6
  3316                           	file	"C:\Program Files (x86)\Microchip\xc8\v2.00\pic\sources\c90\common\doprnt.c"
  3317                           	line	500
  3318                           	global	__size_of_sprintf
  3319                           	__size_of_sprintf	equ	__end_of_sprintf-_sprintf
  3320  00E0                     	
  3321                           _sprintf:	
  3322  1633                     ;incstack = 0
  3323                           	opt	stack 5
  3324                           ; Regs used in _sprintf: [wreg-fsr0h+status,2+status,0+btemp+1+pclath+cstack]
  3325                           ;sprintf@sp stored from wreg
  3326                           	bcf	status, 5	;RP0=0, select bank0
  3327  1633  1283               	bcf	status, 6	;RP1=0, select bank0
  3328  1634  1303               	movwf	(sprintf@sp)
  3329  1635  00AB               	line	545
  3330                           	
  3331                           l3573:	
  3332  1636                     ;C:\Program Files (x86)\Microchip\xc8\v2.00\pic\sources\c90\common\doprnt.c: 500: sprint
                                 f(char * sp, const char * f, ...);C:\Program Files (x86)\Microchip\xc8\v2.00\pic\sources
                                 \c90\common\doprnt.c: 501: {;C:\Program Files (x86)\Microchip\xc8\v2.00\pic\sources\c90\
                                 common\doprnt.c: 502:  va_list ap;;C:\Program Files (x86)\Microchip\xc8\v2.00\pic\source
                                 s\c90\common\doprnt.c: 507:  char c;;C:\Program Files (x86)\Microchip\xc8\v2.00\pic\sour
                                 ces\c90\common\doprnt.c: 516:  signed char prec;;C:\Program Files (x86)\Microchip\xc8\v2
                                 .00\pic\sources\c90\common\doprnt.c: 520:  unsigned char flag;
  3333                           	movlw	(low(?_sprintf|((0x0)<<8)+01h))&0ffh
  3334  1636  3021               	movwf	(??_sprintf+0)+0
  3335  1637  00A3               	movf	(??_sprintf+0)+0,w
  3336  1638  0823               	movwf	(sprintf@ap)
  3337  1639  00A7               	line	548
  3338                           ;C:\Program Files (x86)\Microchip\xc8\v2.00\pic\sources\c90\common\doprnt.c: 548:  while
                                 ((c = *f++)) {
  3339                           	goto	l3615
  3340  163A  2EF9               	
  3341                           l575:	
  3342  163B                     	line	550
  3343                           	
  3344                           l3575:	
  3345  163B                     ;C:\Program Files (x86)\Microchip\xc8\v2.00\pic\sources\c90\common\doprnt.c: 550:   if(c
                                  != '%')
  3346                           		movlw	37
  3347  163B  3025               	xorwf	((sprintf@c)),w
  3348  163C  062C               	btfsc	status,2
  3349  163D  1903               	goto	u3571
  3350  163E  2E40               	goto	u3570
  3351  163F  2E41               u3571:
  3352  1640                     	goto	l3581
  3353  1640  2E4D               u3570:
  3354  1641                     	line	553
  3355                           	
  3356                           l3577:	
  3357  1641                     ;C:\Program Files (x86)\Microchip\xc8\v2.00\pic\sources\c90\common\doprnt.c: 552:   {;C:
                                 \Program Files (x86)\Microchip\xc8\v2.00\pic\sources\c90\common\doprnt.c: 553:    ((*sp+
                                 + = (c)));
  3358                           	movf	(sprintf@c),w
  3359  1641  082C               	movwf	(??_sprintf+0)+0
  3360  1642  00A3               	movf	(sprintf@sp),w
  3361  1643  082B               	movwf	fsr0
  3362  1644  0084               	movf	(??_sprintf+0)+0,w
  3363  1645  0823               	bcf	status, 7	;select IRP bank0
  3364  1646  1383               	movwf	indf
  3365  1647  0080               	
  3366                           l3579:	
  3367  1648                     	movlw	low(01h)
  3368  1648  3001               	movwf	(??_sprintf+0)+0
  3369  1649  00A3               	movf	(??_sprintf+0)+0,w
  3370  164A  0823               	addwf	(sprintf@sp),f
  3371  164B  07AB               	line	554
  3372                           ;C:\Program Files (x86)\Microchip\xc8\v2.00\pic\sources\c90\common\doprnt.c: 554:    con
                                 tinue;
  3373                           	goto	l3615
  3374  164C  2EF9               	line	555
  3375                           ;C:\Program Files (x86)\Microchip\xc8\v2.00\pic\sources\c90\common\doprnt.c: 555:   }
  3376                           	
  3377                           l576:	
  3378  164D                     	line	560
  3379                           	
  3380                           l3581:	
  3381  164D                     ;C:\Program Files (x86)\Microchip\xc8\v2.00\pic\sources\c90\common\doprnt.c: 560:   flag
                                  = 0;
  3382                           	clrf	(sprintf@flag)
  3383  164D  01A6               	line	654
  3384                           ;C:\Program Files (x86)\Microchip\xc8\v2.00\pic\sources\c90\common\doprnt.c: 654:   swit
                                 ch(c = *f++) {
  3385                           	goto	l3587
  3386  164E  2E57               	line	656
  3387                           ;C:\Program Files (x86)\Microchip\xc8\v2.00\pic\sources\c90\common\doprnt.c: 656:   case
                                  0:
  3388                           	
  3389                           l578:	
  3390  164F                     	line	657
  3391                           ;C:\Program Files (x86)\Microchip\xc8\v2.00\pic\sources\c90\common\doprnt.c: 657:    got
                                 o alldone;
  3392                           	goto	l3617
  3393  164F  2F0D               	line	821
  3394                           ;C:\Program Files (x86)\Microchip\xc8\v2.00\pic\sources\c90\common\doprnt.c: 821:   defa
                                 ult:
  3395                           	
  3396                           l580:	
  3397  1650                     	line	832
  3398                           ;C:\Program Files (x86)\Microchip\xc8\v2.00\pic\sources\c90\common\doprnt.c: 832:    con
                                 tinue;
  3399                           	goto	l3615
  3400  1650  2EF9               	line	836
  3401                           ;C:\Program Files (x86)\Microchip\xc8\v2.00\pic\sources\c90\common\doprnt.c: 836:   case
                                  'u':
  3402                           	
  3403                           l581:	
  3404  1651                     	line	837
  3405                           	
  3406                           l3583:	
  3407  1651                     ;C:\Program Files (x86)\Microchip\xc8\v2.00\pic\sources\c90\common\doprnt.c: 837:    fla
                                 g |= 0xC0;
  3408                           	movlw	low(0C0h)
  3409  1651  30C0               	movwf	(??_sprintf+0)+0
  3410  1652  00A3               	movf	(??_sprintf+0)+0,w
  3411  1653  0823               	iorwf	(sprintf@flag),f
  3412  1654  04A6               	line	838
  3413                           ;C:\Program Files (x86)\Microchip\xc8\v2.00\pic\sources\c90\common\doprnt.c: 838:    bre
                                 ak;
  3414                           	goto	l3589
  3415  1655  2E71               	line	841
  3416                           	
  3417                           l3585:	
  3418  1656                     ;C:\Program Files (x86)\Microchip\xc8\v2.00\pic\sources\c90\common\doprnt.c: 841:   }
  3419                           	goto	l3589
  3420  1656  2E71               	
  3421                           l577:	
  3422  1657                     	
  3423                           l3587:	
  3424  1657                     	movlw	01h
  3425  1657  3001               	addwf	(sprintf@f),f
  3426  1658  07A0               	movlw	-01h
  3427  1659  30FF               	addwf	(sprintf@f),w
  3428  165A  0720               	movwf	fsr0
  3429  165B  0084               	fcall	stringdir
  3430  165C  120A  158A  200A  160A  118A  	movwf	(sprintf@c)
  3431  1661  00AC               	movwf	(??_sprintf+0)+0
  3432  1662  00A3               	clrf	(??_sprintf+0)+0+1
  3433  1663  01A4               	; Switch on 2 bytes has been partitioned into a top level switch of size 1, and 1 sub-s
                                 witches
  3434                           ; Switch size 1, requested type "space"
  3435                           ; Number of cases is 1, Range of values is 0 to 0
  3436                           ; switch strategies available:
  3437                           ; Name         Instructions Cycles
  3438                           ; simple_byte            4     3 (average)
  3439                           ; direct_byte           11     8 (fixed)
  3440                           ; jumptable            260     6 (fixed)
  3441                           ;	Chosen strategy is simple_byte
  3442                           
  3443                           	movf 1+(??_sprintf+0)+0,w
  3444  1664  0824               	opt asmopt_push
  3445                           	opt asmopt_off
  3446                           	xorlw	0^0	; case 0
  3447  1665  3A00               	skipnz
  3448  1666  1903               	goto	l3859
  3449  1667  2E69               	goto	l3615
  3450  1668  2EF9               	opt asmopt_pop
  3451                           	
  3452                           l3859:	
  3453  1669                     ; Switch size 1, requested type "space"
  3454                           ; Number of cases is 2, Range of values is 0 to 117
  3455                           ; switch strategies available:
  3456                           ; Name         Instructions Cycles
  3457                           ; simple_byte            7     4 (average)
  3458                           ; jumptable            260     6 (fixed)
  3459                           ;	Chosen strategy is simple_byte
  3460                           
  3461                           	movf 0+(??_sprintf+0)+0,w
  3462  1669  0823               	opt asmopt_push
  3463                           	opt asmopt_off
  3464                           	xorlw	0^0	; case 0
  3465  166A  3A00               	skipnz
  3466  166B  1903               	goto	l3617
  3467  166C  2F0D               	xorlw	117^0	; case 117
  3468  166D  3A75               	skipnz
  3469  166E  1903               	goto	l3583
  3470  166F  2E51               	goto	l3615
  3471  1670  2EF9               	opt asmopt_pop
  3472                           
  3473                           	
  3474                           l582:	
  3475  1671                     	line	1305
  3476                           	
  3477                           l3589:	
  3478  1671                     ;C:\Program Files (x86)\Microchip\xc8\v2.00\pic\sources\c90\common\doprnt.c: 1292:   {;C
                                 :\Program Files (x86)\Microchip\xc8\v2.00\pic\sources\c90\common\doprnt.c: 1305:     val
                                  = (*(unsigned *)__va_arg((*(unsigned **)ap), (unsigned)0));
  3479                           	movf	(sprintf@ap),w
  3480  1671  0827               	movwf	fsr0
  3481  1672  0084               	bcf	status, 7	;select IRP bank0
  3482  1673  1383               	movf	indf,w
  3483  1674  0800               	movwf	(sprintf@val)
  3484  1675  00A8               	incf	fsr0,f
  3485  1676  0A84               	movf	indf,w
  3486  1677  0800               	movwf	(sprintf@val+1)
  3487  1678  00A9               	
  3488                           l3591:	
  3489  1679                     	movlw	low(02h)
  3490  1679  3002               	movwf	(??_sprintf+0)+0
  3491  167A  00A3               	movf	(??_sprintf+0)+0,w
  3492  167B  0823               	addwf	(sprintf@ap),f
  3493  167C  07A7               	line	1324
  3494                           	
  3495                           l3593:	
  3496  167D                     ;C:\Program Files (x86)\Microchip\xc8\v2.00\pic\sources\c90\common\doprnt.c: 1306:   };C
                                 :\Program Files (x86)\Microchip\xc8\v2.00\pic\sources\c90\common\doprnt.c: 1324:    for(
                                 c = 1 ; c != sizeof dpowers/sizeof dpowers[0] ; c++)
  3497                           	clrf	(sprintf@c)
  3498  167D  01AC               	incf	(sprintf@c),f
  3499  167E  0AAC               	
  3500                           l3595:	
  3501  167F                     		movlw	5
  3502  167F  3005               	xorwf	((sprintf@c)),w
  3503  1680  062C               	btfss	status,2
  3504  1681  1D03               	goto	u3581
  3505  1682  2E84               	goto	u3580
  3506  1683  2E85               u3581:
  3507  1684                     	goto	l3599
  3508  1684  2E87               u3580:
  3509  1685                     	goto	l3605
  3510  1685  2EAF               	
  3511                           l3597:	
  3512  1686                     	goto	l3605
  3513  1686  2EAF               	
  3514                           l583:	
  3515  1687                     	line	1325
  3516                           	
  3517                           l3599:	
  3518  1687                     ;C:\Program Files (x86)\Microchip\xc8\v2.00\pic\sources\c90\common\doprnt.c: 1325:     i
                                 f(val < dpowers[c])
  3519                           	movf	(sprintf@c),w
  3520  1687  082C               	movwf	(??_sprintf+0)+0
  3521  1688  00A3               	addwf	(??_sprintf+0)+0,w
  3522  1689  0723               	addlw	low((((_dpowers)-__stringbase)|8000h))
  3523  168A  3E01               	movwf	fsr0
  3524  168B  0084               	fcall	stringdir
  3525  168C  120A  158A  200A  160A  118A  	movwf	(??_sprintf+1)+0
  3526  1691  00A4               	fcall	stringdir
  3527  1692  120A  158A  200A  160A  118A  	movwf	(??_sprintf+1)+0+1
  3528  1697  00A5               	movf	1+(??_sprintf+1)+0,w
  3529  1698  0825               	subwf	(sprintf@val+1),w
  3530  1699  0229               	skipz
  3531  169A  1D03               	goto	u3595
  3532  169B  2E9E               	movf	0+(??_sprintf+1)+0,w
  3533  169C  0824               	subwf	(sprintf@val),w
  3534  169D  0228               u3595:
  3535  169E                     	skipnc
  3536  169E  1803               	goto	u3591
  3537  169F  2EA1               	goto	u3590
  3538  16A0  2EA2               u3591:
  3539  16A1                     	goto	l3603
  3540  16A1  2EA4               u3590:
  3541  16A2                     	goto	l3605
  3542  16A2  2EAF               	line	1326
  3543                           	
  3544                           l3601:	
  3545  16A3                     ;C:\Program Files (x86)\Microchip\xc8\v2.00\pic\sources\c90\common\doprnt.c: 1326:      
                                 break;
  3546                           	goto	l3605
  3547  16A3  2EAF               	
  3548                           l585:	
  3549  16A4                     	
  3550                           l3603:	
  3551  16A4                     	movlw	low(01h)
  3552  16A4  3001               	movwf	(??_sprintf+0)+0
  3553  16A5  00A3               	movf	(??_sprintf+0)+0,w
  3554  16A6  0823               	addwf	(sprintf@c),f
  3555  16A7  07AC               		movlw	5
  3556  16A8  3005               	xorwf	((sprintf@c)),w
  3557  16A9  062C               	btfss	status,2
  3558  16AA  1D03               	goto	u3601
  3559  16AB  2EAD               	goto	u3600
  3560  16AC  2EAE               u3601:
  3561  16AD                     	goto	l3599
  3562  16AD  2E87               u3600:
  3563  16AE                     	goto	l3605
  3564  16AE  2EAF               	
  3565                           l584:	
  3566  16AF                     	line	1491
  3567                           	
  3568                           l3605:	
  3569  16AF                     ;C:\Program Files (x86)\Microchip\xc8\v2.00\pic\sources\c90\common\doprnt.c: 1441:   {;C
                                 :\Program Files (x86)\Microchip\xc8\v2.00\pic\sources\c90\common\doprnt.c: 1488:   };C:\
                                 Program Files (x86)\Microchip\xc8\v2.00\pic\sources\c90\common\doprnt.c: 1491:   prec = 
                                 c;
  3570                           	movf	(sprintf@c),w
  3571  16AF  082C               	movwf	(??_sprintf+0)+0
  3572  16B0  00A3               	movf	(??_sprintf+0)+0,w
  3573  16B1  0823               	movwf	(sprintf@prec)
  3574  16B2  00AA               	line	1493
  3575                           ;C:\Program Files (x86)\Microchip\xc8\v2.00\pic\sources\c90\common\doprnt.c: 1493:   whi
                                 le(prec--) {
  3576                           	goto	l3613
  3577  16B3  2EEE               	
  3578                           l587:	
  3579  16B4                     	line	1508
  3580                           	
  3581                           l3607:	
  3582  16B4                     ;C:\Program Files (x86)\Microchip\xc8\v2.00\pic\sources\c90\common\doprnt.c: 1497:    {;
                                 C:\Program Files (x86)\Microchip\xc8\v2.00\pic\sources\c90\common\doprnt.c: 1508:     c 
                                 = (val / dpowers[prec]) % 10 + '0';
  3583                           	movlw	0Ah
  3584  16B4  300A               	movwf	(___lwmod@divisor)
  3585  16B5  00F8               	movlw	0
  3586  16B6  3000               	movwf	((___lwmod@divisor))+1
  3587  16B7  00F9               	movf	(sprintf@prec),w
  3588  16B8  082A               	movwf	(??_sprintf+0)+0
  3589  16B9  00A3               	addwf	(??_sprintf+0)+0,w
  3590  16BA  0723               	addlw	low((((_dpowers)-__stringbase)|8000h))
  3591  16BB  3E01               	movwf	fsr0
  3592  16BC  0084               	fcall	stringdir
  3593  16BD  120A  158A  200A  160A  118A  	movwf	(___lwdiv@divisor)
  3594  16C2  00F0               	fcall	stringdir
  3595  16C3  120A  158A  200A  160A  118A  	movwf	(___lwdiv@divisor+1)
  3596  16C8  00F1               	movf	(sprintf@val+1),w
  3597  16C9  0829               	movwf	(___lwdiv@dividend+1)
  3598  16CA  00F3               	movf	(sprintf@val),w
  3599  16CB  0828               	movwf	(___lwdiv@dividend)
  3600  16CC  00F2               	fcall	___lwdiv
  3601  16CD  160A  118A  22AD  160A  118A  	movf	(1+(?___lwdiv)),w
  3602  16D2  0871               	movwf	(___lwmod@dividend+1)
  3603  16D3  00FB               	movf	(0+(?___lwdiv)),w
  3604  16D4  0870               	movwf	(___lwmod@dividend)
  3605  16D5  00FA               	fcall	___lwmod
  3606  16D6  160A  118A  2224  160A  118A  	movf	(0+(?___lwmod)),w
  3607  16DB  0878               	addlw	030h
  3608  16DC  3E30               	bcf	status, 5	;RP0=0, select bank0
  3609  16DD  1283               	bcf	status, 6	;RP1=0, select bank0
  3610  16DE  1303               	movwf	(??_sprintf+1)+0
  3611  16DF  00A4               	movf	(??_sprintf+1)+0,w
  3612  16E0  0824               	movwf	(sprintf@c)
  3613  16E1  00AC               	line	1543
  3614                           	
  3615                           l3609:	
  3616  16E2                     ;C:\Program Files (x86)\Microchip\xc8\v2.00\pic\sources\c90\common\doprnt.c: 1542:    };
                                 C:\Program Files (x86)\Microchip\xc8\v2.00\pic\sources\c90\common\doprnt.c: 1543:    ((*
                                 sp++ = (c)));
  3617                           	movf	(sprintf@c),w
  3618  16E2  082C               	movwf	(??_sprintf+0)+0
  3619  16E3  00A3               	movf	(sprintf@sp),w
  3620  16E4  082B               	movwf	fsr0
  3621  16E5  0084               	movf	(??_sprintf+0)+0,w
  3622  16E6  0823               	bcf	status, 7	;select IRP bank0
  3623  16E7  1383               	movwf	indf
  3624  16E8  0080               	
  3625                           l3611:	
  3626  16E9                     	movlw	low(01h)
  3627  16E9  3001               	movwf	(??_sprintf+0)+0
  3628  16EA  00A3               	movf	(??_sprintf+0)+0,w
  3629  16EB  0823               	addwf	(sprintf@sp),f
  3630  16EC  07AB               	goto	l3613
  3631  16ED  2EEE               	line	1544
  3632                           ;C:\Program Files (x86)\Microchip\xc8\v2.00\pic\sources\c90\common\doprnt.c: 1544:   }
  3633                           	
  3634                           l586:	
  3635  16EE                     	line	1493
  3636                           	
  3637                           l3613:	
  3638  16EE                     ;C:\Program Files (x86)\Microchip\xc8\v2.00\pic\sources\c90\common\doprnt.c: 1493:   whi
                                 le(prec--) {
  3639                           	movlw	low(-1)
  3640  16EE  30FF               	movwf	(??_sprintf+0)+0
  3641  16EF  00A3               	movf	(??_sprintf+0)+0,w
  3642  16F0  0823               	addwf	(sprintf@prec),f
  3643  16F1  07AA               		incf	(((sprintf@prec))),w
  3644  16F2  0A2A               	btfss	status,2
  3645  16F3  1D03               	goto	u3611
  3646  16F4  2EF6               	goto	u3610
  3647  16F5  2EF7               u3611:
  3648  16F6                     	goto	l3607
  3649  16F6  2EB4               u3610:
  3650  16F7                     	goto	l3615
  3651  16F7  2EF9               	
  3652                           l588:	
  3653  16F8                     	goto	l3615
  3654  16F8  2EF9               	line	1552
  3655                           ;C:\Program Files (x86)\Microchip\xc8\v2.00\pic\sources\c90\common\doprnt.c: 1552:  }
  3656                           	
  3657                           l574:	
  3658  16F9                     	line	548
  3659                           	
  3660                           l3615:	
  3661  16F9                     ;C:\Program Files (x86)\Microchip\xc8\v2.00\pic\sources\c90\common\doprnt.c: 548:  while
                                 ((c = *f++)) {
  3662                           	movlw	01h
  3663  16F9  3001               	addwf	(sprintf@f),f
  3664  16FA  07A0               	movlw	-01h
  3665  16FB  30FF               	addwf	(sprintf@f),w
  3666  16FC  0720               	movwf	fsr0
  3667  16FD  0084               	fcall	stringdir
  3668  16FE  120A  158A  200A  160A  118A  	movwf	(??_sprintf+0)+0
  3669  1703  00A3               	movf	(??_sprintf+0)+0,w
  3670  1704  0823               	movwf	(sprintf@c)
  3671  1705  00AC               	movf	(((sprintf@c))),w
  3672  1706  082C               	btfss	status,2
  3673  1707  1D03               	goto	u3621
  3674  1708  2F0A               	goto	u3620
  3675  1709  2F0B               u3621:
  3676  170A                     	goto	l3575
  3677  170A  2E3B               u3620:
  3678  170B                     	goto	l3617
  3679  170B  2F0D               	
  3680                           l589:	
  3681  170C                     	goto	l3617
  3682  170C  2F0D               	line	1554
  3683                           ;C:\Program Files (x86)\Microchip\xc8\v2.00\pic\sources\c90\common\doprnt.c: 1554: alldo
                                 ne:
  3684                           	
  3685                           l579:	
  3686  170D                     	line	1557
  3687                           	
  3688                           l3617:	
  3689  170D                     ;C:\Program Files (x86)\Microchip\xc8\v2.00\pic\sources\c90\common\doprnt.c: 1557:  *sp 
                                 = 0;
  3690                           	movf	(sprintf@sp),w
  3691  170D  082B               	movwf	fsr0
  3692  170E  0084               	bcf	status, 7	;select IRP bank0
  3693  170F  1383               	clrf	indf
  3694  1710  0180               	goto	l590
  3695  1711  2F12               	line	1559
  3696                           	
  3697                           l3619:	
  3698  1712                     	line	1560
  3699                           ;C:\Program Files (x86)\Microchip\xc8\v2.00\pic\sources\c90\common\doprnt.c: 1559:  retu
                                 rn 0;;	Return value of _sprintf is never used
  3700                           	
  3701                           l590:	
  3702  1712                     	return
  3703  1712  0008               	opt stack 0
  3704                           GLOBAL	__end_of_sprintf
  3705                           	__end_of_sprintf:
  3706  1713                     	signat	_sprintf,4698
  3707                           	global	___lwmod
  3708                           
  3709 ;; *************** function ___lwmod *****************
  3710 ;; Defined at:
  3711 ;;		line 5 in file "C:\Program Files (x86)\Microchip\xc8\v2.00\pic\sources\c90\common\lwmod.c"
  3712 ;; Parameters:    Size  Location     Type
  3713 ;;  divisor         2    8[COMMON] unsigned int 
  3714 ;;  dividend        2   10[COMMON] unsigned int 
  3715 ;; Auto vars:     Size  Location     Type
  3716 ;;  counter         1   13[COMMON] unsigned char 
  3717 ;; Return value:  Size  Location     Type
  3718 ;;                  2    8[COMMON] unsigned int 
  3719 ;; Registers used:
  3720 ;;		wreg, status,2, status,0
  3721 ;; Tracked objects:
  3722 ;;		On entry : 0/0
  3723 ;;		On exit  : 0/0
  3724 ;;		Unchanged: 0/0
  3725 ;; Data sizes:     COMMON   BANK0   BANK1   BANK3   BANK2
  3726 ;;      Params:         4       0       0       0       0
  3727 ;;      Locals:         1       0       0       0       0
  3728 ;;      Temps:          1       0       0       0       0
  3729 ;;      Totals:         6       0       0       0       0
  3730 ;;Total ram usage:        6 bytes
  3731 ;; Hardware stack levels used:    1
  3732 ;; This function calls:
  3733 ;;		Nothing
  3734 ;; This function is called by:
  3735 ;;		_sprintf
  3736 ;; This function uses a non-reentrant model
  3737 ;;
  3738                           psect	text7,local,class=CODE,delta=2,merge=1,group=1
  3739                           	file	"C:\Program Files (x86)\Microchip\xc8\v2.00\pic\sources\c90\common\lwmod.c"
  3740                           	line	5
  3741                           global __ptext7
  3742                           __ptext7:	;psect for function ___lwmod
  3743  1224                     psect	text7
  3744                           	file	"C:\Program Files (x86)\Microchip\xc8\v2.00\pic\sources\c90\common\lwmod.c"
  3745                           	line	5
  3746                           	global	__size_of___lwmod
  3747                           	__size_of___lwmod	equ	__end_of___lwmod-___lwmod
  3748  0041                     	
  3749                           ___lwmod:	
  3750  1224                     ;incstack = 0
  3751                           	opt	stack 5
  3752                           ; Regs used in ___lwmod: [wreg+status,2+status,0]
  3753                           	line	12
  3754                           	
  3755                           l3009:	
  3756  1224                     	movf	((___lwmod@divisor)),w
  3757  1224  0878               iorwf	((___lwmod@divisor+1)),w
  3758  1225  0479               	btfsc	status,2
  3759  1226  1903               	goto	u2331
  3760  1227  2A29               	goto	u2330
  3761  1228  2A2A               u2331:
  3762  1229                     	goto	l3027
  3763  1229  2A5F               u2330:
  3764  122A                     	line	13
  3765                           	
  3766                           l3011:	
  3767  122A                     	clrf	(___lwmod@counter)
  3768  122A  01FD               	incf	(___lwmod@counter),f
  3769  122B  0AFD               	line	14
  3770                           	goto	l3017
  3771  122C  2A39               	
  3772                           l871:	
  3773  122D                     	line	15
  3774                           	
  3775                           l3013:	
  3776  122D                     	movlw	01h
  3777  122D  3001               	
  3778                           u2345:
  3779  122E                     	clrc
  3780  122E  1003               	rlf	(___lwmod@divisor),f
  3781  122F  0DF8               	rlf	(___lwmod@divisor+1),f
  3782  1230  0DF9               	addlw	-1
  3783  1231  3EFF               	skipz
  3784  1232  1D03               	goto	u2345
  3785  1233  2A2E               	line	16
  3786                           	
  3787                           l3015:	
  3788  1234                     	movlw	low(01h)
  3789  1234  3001               	movwf	(??___lwmod+0)+0
  3790  1235  00FC               	movf	(??___lwmod+0)+0,w
  3791  1236  087C               	addwf	(___lwmod@counter),f
  3792  1237  07FD               	goto	l3017
  3793  1238  2A39               	line	17
  3794                           	
  3795                           l870:	
  3796  1239                     	line	14
  3797                           	
  3798                           l3017:	
  3799  1239                     	btfss	(___lwmod@divisor+1),(15)&7
  3800  1239  1FF9               	goto	u2351
  3801  123A  2A3C               	goto	u2350
  3802  123B  2A3D               u2351:
  3803  123C                     	goto	l3013
  3804  123C  2A2D               u2350:
  3805  123D                     	goto	l3019
  3806  123D  2A3F               	
  3807                           l872:	
  3808  123E                     	goto	l3019
  3809  123E  2A3F               	line	18
  3810                           	
  3811                           l873:	
  3812  123F                     	line	19
  3813                           	
  3814                           l3019:	
  3815  123F                     	movf	(___lwmod@divisor+1),w
  3816  123F  0879               	subwf	(___lwmod@dividend+1),w
  3817  1240  027B               	skipz
  3818  1241  1D03               	goto	u2365
  3819  1242  2A45               	movf	(___lwmod@divisor),w
  3820  1243  0878               	subwf	(___lwmod@dividend),w
  3821  1244  027A               u2365:
  3822  1245                     	skipc
  3823  1245  1C03               	goto	u2361
  3824  1246  2A48               	goto	u2360
  3825  1247  2A49               u2361:
  3826  1248                     	goto	l3023
  3827  1248  2A50               u2360:
  3828  1249                     	line	20
  3829                           	
  3830                           l3021:	
  3831  1249                     	movf	(___lwmod@divisor),w
  3832  1249  0878               	subwf	(___lwmod@dividend),f
  3833  124A  02FA               	movf	(___lwmod@divisor+1),w
  3834  124B  0879               	skipc
  3835  124C  1C03               	decf	(___lwmod@dividend+1),f
  3836  124D  03FB               	subwf	(___lwmod@dividend+1),f
  3837  124E  02FB               	goto	l3023
  3838  124F  2A50               	
  3839                           l874:	
  3840  1250                     	line	21
  3841                           	
  3842                           l3023:	
  3843  1250                     	movlw	01h
  3844  1250  3001               	
  3845                           u2375:
  3846  1251                     	clrc
  3847  1251  1003               	rrf	(___lwmod@divisor+1),f
  3848  1252  0CF9               	rrf	(___lwmod@divisor),f
  3849  1253  0CF8               	addlw	-1
  3850  1254  3EFF               	skipz
  3851  1255  1D03               	goto	u2375
  3852  1256  2A51               	line	22
  3853                           	
  3854                           l3025:	
  3855  1257                     	movlw	01h
  3856  1257  3001               	subwf	(___lwmod@counter),f
  3857  1258  02FD               	btfss	status,2
  3858  1259  1D03               	goto	u2381
  3859  125A  2A5C               	goto	u2380
  3860  125B  2A5D               u2381:
  3861  125C                     	goto	l3019
  3862  125C  2A3F               u2380:
  3863  125D                     	goto	l3027
  3864  125D  2A5F               	
  3865                           l875:	
  3866  125E                     	goto	l3027
  3867  125E  2A5F               	line	23
  3868                           	
  3869                           l869:	
  3870  125F                     	line	24
  3871                           	
  3872                           l3027:	
  3873  125F                     	movf	(___lwmod@dividend+1),w
  3874  125F  087B               	movwf	(?___lwmod+1)
  3875  1260  00F9               	movf	(___lwmod@dividend),w
  3876  1261  087A               	movwf	(?___lwmod)
  3877  1262  00F8               	goto	l876
  3878  1263  2A64               	
  3879                           l3029:	
  3880  1264                     	line	25
  3881                           	
  3882                           l876:	
  3883  1264                     	return
  3884  1264  0008               	opt stack 0
  3885                           GLOBAL	__end_of___lwmod
  3886                           	__end_of___lwmod:
  3887  1265                     	signat	___lwmod,8314
  3888                           	global	___lwdiv
  3889                           
  3890 ;; *************** function ___lwdiv *****************
  3891 ;; Defined at:
  3892 ;;		line 5 in file "C:\Program Files (x86)\Microchip\xc8\v2.00\pic\sources\c90\common\lwdiv.c"
  3893 ;; Parameters:    Size  Location     Type
  3894 ;;  divisor         2    0[COMMON] unsigned int 
  3895 ;;  dividend        2    2[COMMON] unsigned int 
  3896 ;; Auto vars:     Size  Location     Type
  3897 ;;  quotient        2    5[COMMON] unsigned int 
  3898 ;;  counter         1    7[COMMON] unsigned char 
  3899 ;; Return value:  Size  Location     Type
  3900 ;;                  2    0[COMMON] unsigned int 
  3901 ;; Registers used:
  3902 ;;		wreg, status,2, status,0
  3903 ;; Tracked objects:
  3904 ;;		On entry : 0/0
  3905 ;;		On exit  : 0/0
  3906 ;;		Unchanged: 0/0
  3907 ;; Data sizes:     COMMON   BANK0   BANK1   BANK3   BANK2
  3908 ;;      Params:         4       0       0       0       0
  3909 ;;      Locals:         3       0       0       0       0
  3910 ;;      Temps:          1       0       0       0       0
  3911 ;;      Totals:         8       0       0       0       0
  3912 ;;Total ram usage:        8 bytes
  3913 ;; Hardware stack levels used:    1
  3914 ;; This function calls:
  3915 ;;		Nothing
  3916 ;; This function is called by:
  3917 ;;		_sprintf
  3918 ;; This function uses a non-reentrant model
  3919 ;;
  3920                           psect	text8,local,class=CODE,delta=2,merge=1,group=1
  3921                           	file	"C:\Program Files (x86)\Microchip\xc8\v2.00\pic\sources\c90\common\lwdiv.c"
  3922                           	line	5
  3923                           global __ptext8
  3924                           __ptext8:	;psect for function ___lwdiv
  3925  12AD                     psect	text8
  3926                           	file	"C:\Program Files (x86)\Microchip\xc8\v2.00\pic\sources\c90\common\lwdiv.c"
  3927                           	line	5
  3928                           	global	__size_of___lwdiv
  3929                           	__size_of___lwdiv	equ	__end_of___lwdiv-___lwdiv
  3930  004B                     	
  3931                           ___lwdiv:	
  3932  12AD                     ;incstack = 0
  3933                           	opt	stack 5
  3934                           ; Regs used in ___lwdiv: [wreg+status,2+status,0]
  3935                           	line	13
  3936                           	
  3937                           l2983:	
  3938  12AD                     	clrf	(___lwdiv@quotient)
  3939  12AD  01F5               	clrf	(___lwdiv@quotient+1)
  3940  12AE  01F6               	line	14
  3941                           	
  3942                           l2985:	
  3943  12AF                     	movf	((___lwdiv@divisor)),w
  3944  12AF  0870               iorwf	((___lwdiv@divisor+1)),w
  3945  12B0  0471               	btfsc	status,2
  3946  12B1  1903               	goto	u2261
  3947  12B2  2AB4               	goto	u2260
  3948  12B3  2AB5               u2261:
  3949  12B4                     	goto	l3005
  3950  12B4  2AF2               u2260:
  3951  12B5                     	line	15
  3952                           	
  3953                           l2987:	
  3954  12B5                     	clrf	(___lwdiv@counter)
  3955  12B5  01F7               	incf	(___lwdiv@counter),f
  3956  12B6  0AF7               	line	16
  3957                           	goto	l2993
  3958  12B7  2AC4               	
  3959                           l861:	
  3960  12B8                     	line	17
  3961                           	
  3962                           l2989:	
  3963  12B8                     	movlw	01h
  3964  12B8  3001               	
  3965                           u2275:
  3966  12B9                     	clrc
  3967  12B9  1003               	rlf	(___lwdiv@divisor),f
  3968  12BA  0DF0               	rlf	(___lwdiv@divisor+1),f
  3969  12BB  0DF1               	addlw	-1
  3970  12BC  3EFF               	skipz
  3971  12BD  1D03               	goto	u2275
  3972  12BE  2AB9               	line	18
  3973                           	
  3974                           l2991:	
  3975  12BF                     	movlw	low(01h)
  3976  12BF  3001               	movwf	(??___lwdiv+0)+0
  3977  12C0  00F4               	movf	(??___lwdiv+0)+0,w
  3978  12C1  0874               	addwf	(___lwdiv@counter),f
  3979  12C2  07F7               	goto	l2993
  3980  12C3  2AC4               	line	19
  3981                           	
  3982                           l860:	
  3983  12C4                     	line	16
  3984                           	
  3985                           l2993:	
  3986  12C4                     	btfss	(___lwdiv@divisor+1),(15)&7
  3987  12C4  1FF1               	goto	u2281
  3988  12C5  2AC7               	goto	u2280
  3989  12C6  2AC8               u2281:
  3990  12C7                     	goto	l2989
  3991  12C7  2AB8               u2280:
  3992  12C8                     	goto	l2995
  3993  12C8  2ACA               	
  3994                           l862:	
  3995  12C9                     	goto	l2995
  3996  12C9  2ACA               	line	20
  3997                           	
  3998                           l863:	
  3999  12CA                     	line	21
  4000                           	
  4001                           l2995:	
  4002  12CA                     	movlw	01h
  4003  12CA  3001               	
  4004                           u2295:
  4005  12CB                     	clrc
  4006  12CB  1003               	rlf	(___lwdiv@quotient),f
  4007  12CC  0DF5               	rlf	(___lwdiv@quotient+1),f
  4008  12CD  0DF6               	addlw	-1
  4009  12CE  3EFF               	skipz
  4010  12CF  1D03               	goto	u2295
  4011  12D0  2ACB               	line	22
  4012                           	movf	(___lwdiv@divisor+1),w
  4013  12D1  0871               	subwf	(___lwdiv@dividend+1),w
  4014  12D2  0273               	skipz
  4015  12D3  1D03               	goto	u2305
  4016  12D4  2AD7               	movf	(___lwdiv@divisor),w
  4017  12D5  0870               	subwf	(___lwdiv@dividend),w
  4018  12D6  0272               u2305:
  4019  12D7                     	skipc
  4020  12D7  1C03               	goto	u2301
  4021  12D8  2ADA               	goto	u2300
  4022  12D9  2ADB               u2301:
  4023  12DA                     	goto	l3001
  4024  12DA  2AE3               u2300:
  4025  12DB                     	line	23
  4026                           	
  4027                           l2997:	
  4028  12DB                     	movf	(___lwdiv@divisor),w
  4029  12DB  0870               	subwf	(___lwdiv@dividend),f
  4030  12DC  02F2               	movf	(___lwdiv@divisor+1),w
  4031  12DD  0871               	skipc
  4032  12DE  1C03               	decf	(___lwdiv@dividend+1),f
  4033  12DF  03F3               	subwf	(___lwdiv@dividend+1),f
  4034  12E0  02F3               	line	24
  4035                           	
  4036                           l2999:	
  4037  12E1                     	bsf	(___lwdiv@quotient)+(0/8),(0)&7
  4038  12E1  1475               	goto	l3001
  4039  12E2  2AE3               	line	25
  4040                           	
  4041                           l864:	
  4042  12E3                     	line	26
  4043                           	
  4044                           l3001:	
  4045  12E3                     	movlw	01h
  4046  12E3  3001               	
  4047                           u2315:
  4048  12E4                     	clrc
  4049  12E4  1003               	rrf	(___lwdiv@divisor+1),f
  4050  12E5  0CF1               	rrf	(___lwdiv@divisor),f
  4051  12E6  0CF0               	addlw	-1
  4052  12E7  3EFF               	skipz
  4053  12E8  1D03               	goto	u2315
  4054  12E9  2AE4               	line	27
  4055                           	
  4056                           l3003:	
  4057  12EA                     	movlw	01h
  4058  12EA  3001               	subwf	(___lwdiv@counter),f
  4059  12EB  02F7               	btfss	status,2
  4060  12EC  1D03               	goto	u2321
  4061  12ED  2AEF               	goto	u2320
  4062  12EE  2AF0               u2321:
  4063  12EF                     	goto	l2995
  4064  12EF  2ACA               u2320:
  4065  12F0                     	goto	l3005
  4066  12F0  2AF2               	
  4067                           l865:	
  4068  12F1                     	goto	l3005
  4069  12F1  2AF2               	line	28
  4070                           	
  4071                           l859:	
  4072  12F2                     	line	29
  4073                           	
  4074                           l3005:	
  4075  12F2                     	movf	(___lwdiv@quotient+1),w
  4076  12F2  0876               	movwf	(?___lwdiv+1)
  4077  12F3  00F1               	movf	(___lwdiv@quotient),w
  4078  12F4  0875               	movwf	(?___lwdiv)
  4079  12F5  00F0               	goto	l866
  4080  12F6  2AF7               	
  4081                           l3007:	
  4082  12F7                     	line	30
  4083                           	
  4084                           l866:	
  4085  12F7                     	return
  4086  12F7  0008               	opt stack 0
  4087                           GLOBAL	__end_of___lwdiv
  4088                           	__end_of___lwdiv:
  4089  12F8                     	signat	___lwdiv,8314
  4090                           	global	_lcdSetCursor
  4091                           
  4092 ;; *************** function _lcdSetCursor *****************
  4093 ;; Defined at:
  4094 ;;		line 45 in file "LCD16x2.c"
  4095 ;; Parameters:    Size  Location     Type
  4096 ;;  row             1    wreg     unsigned char 
  4097 ;;  column          1   12[COMMON] unsigned char 
  4098 ;; Auto vars:     Size  Location     Type
  4099 ;;  row             1    0[BANK0 ] unsigned char 
  4100 ;;  location        1    1[BANK0 ] unsigned char 
  4101 ;; Return value:  Size  Location     Type
  4102 ;;                  1    wreg      void 
  4103 ;; Registers used:
  4104 ;;		wreg, fsr0l, fsr0h, status,2, status,0, btemp+1, pclath, cstack
  4105 ;; Tracked objects:
  4106 ;;		On entry : 0/0
  4107 ;;		On exit  : 0/0
  4108 ;;		Unchanged: 0/0
  4109 ;; Data sizes:     COMMON   BANK0   BANK1   BANK3   BANK2
  4110 ;;      Params:         1       0       0       0       0
  4111 ;;      Locals:         0       2       0       0       0
  4112 ;;      Temps:          1       0       0       0       0
  4113 ;;      Totals:         2       2       0       0       0
  4114 ;;Total ram usage:        4 bytes
  4115 ;; Hardware stack levels used:    1
  4116 ;; Hardware stack levels required when called:    3
  4117 ;; This function calls:
  4118 ;;		_WriteInstruction
  4119 ;; This function is called by:
  4120 ;;		_setup
  4121 ;;		_loop
  4122 ;; This function uses a non-reentrant model
  4123 ;;
  4124                           psect	text9,local,class=CODE,delta=2,merge=1,group=0
  4125                           	file	"LCD16x2.c"
  4126                           	line	45
  4127                           global __ptext9
  4128                           __ptext9:	;psect for function _lcdSetCursor
  4129  11F8                     psect	text9
  4130                           	file	"LCD16x2.c"
  4131                           	line	45
  4132                           	global	__size_of_lcdSetCursor
  4133                           	__size_of_lcdSetCursor	equ	__end_of_lcdSetCursor-_lcdSetCursor
  4134  002C                     	
  4135                           _lcdSetCursor:	
  4136  11F8                     ;incstack = 0
  4137                           	opt	stack 3
  4138                           ; Regs used in _lcdSetCursor: [wreg-fsr0h+status,2+status,0+btemp+1+pclath+cstack]
  4139                           ;lcdSetCursor@row stored from wreg
  4140                           	bcf	status, 5	;RP0=0, select bank0
  4141  11F8  1283               	bcf	status, 6	;RP1=0, select bank0
  4142  11F9  1303               	movwf	(lcdSetCursor@row)
  4143  11FA  00A0               	line	47
  4144                           	
  4145                           l3535:	
  4146  11FB                     ;LCD16x2.c: 45: void lcdSetCursor(char row, char column);LCD16x2.c: 46: {;LCD16x2.c: 47:
                                      char location = 0;
  4147                           	clrf	(lcdSetCursor@location)
  4148  11FB  01A1               	line	48
  4149                           	
  4150                           l3537:	
  4151  11FC                     ;LCD16x2.c: 48:     if(row == 1)
  4152                           		decf	((lcdSetCursor@row)),w
  4153  11FC  0320               	btfss	status,2
  4154  11FD  1D03               	goto	u3511
  4155  11FE  2A00               	goto	u3510
  4156  11FF  2A01               u3511:
  4157  1200                     	goto	l3543
  4158  1200  2A0D               u3510:
  4159  1201                     	line	50
  4160                           	
  4161                           l3539:	
  4162  1201                     ;LCD16x2.c: 49:     {;LCD16x2.c: 50:         location = (0x80) + (column - 1);
  4163                           	movf	(lcdSetCursor@column),w
  4164  1201  087C               	addlw	07Fh
  4165  1202  3E7F               	movwf	(??_lcdSetCursor+0)+0
  4166  1203  00FD               	movf	(??_lcdSetCursor+0)+0,w
  4167  1204  087D               	movwf	(lcdSetCursor@location)
  4168  1205  00A1               	line	51
  4169                           	
  4170                           l3541:	
  4171  1206                     ;LCD16x2.c: 51:         WriteInstruction(location);
  4172                           	movf	(lcdSetCursor@location),w
  4173  1206  0821               	fcall	_WriteInstruction
  4174  1207  160A  118A  23B7  160A  118A  	line	52
  4175                           ;LCD16x2.c: 52:     }
  4176                           	goto	l418
  4177  120C  2A23               	line	53
  4178                           ;LCD16x2.c: 53:     else if(row == 2)
  4179                           	
  4180                           l414:	
  4181  120D                     	
  4182                           l3543:	
  4183  120D                     		movlw	2
  4184  120D  3002               	bcf	status, 5	;RP0=0, select bank0
  4185  120E  1283               	bcf	status, 6	;RP1=0, select bank0
  4186  120F  1303               	xorwf	((lcdSetCursor@row)),w
  4187  1210  0620               	btfss	status,2
  4188  1211  1D03               	goto	u3521
  4189  1212  2A14               	goto	u3520
  4190  1213  2A15               u3521:
  4191  1214                     	goto	l418
  4192  1214  2A23               u3520:
  4193  1215                     	line	55
  4194                           	
  4195                           l3545:	
  4196  1215                     ;LCD16x2.c: 54:     {;LCD16x2.c: 55:         location = 0xC0 + (column - 1);
  4197                           	movf	(lcdSetCursor@column),w
  4198  1215  087C               	addlw	0BFh
  4199  1216  3EBF               	movwf	(??_lcdSetCursor+0)+0
  4200  1217  00FD               	movf	(??_lcdSetCursor+0)+0,w
  4201  1218  087D               	movwf	(lcdSetCursor@location)
  4202  1219  00A1               	line	56
  4203                           	
  4204                           l3547:	
  4205  121A                     ;LCD16x2.c: 56:         WriteInstruction(location);
  4206                           	movf	(lcdSetCursor@location),w
  4207  121A  0821               	fcall	_WriteInstruction
  4208  121B  160A  118A  23B7  160A  118A  	line	57
  4209                           ;LCD16x2.c: 57:     }
  4210                           	goto	l418
  4211  1220  2A23               	line	58
  4212                           ;LCD16x2.c: 58:     else
  4213                           	
  4214                           l416:	
  4215  1221                     	line	60
  4216                           ;LCD16x2.c: 59:     {;LCD16x2.c: 60:         return;
  4217                           	goto	l418
  4218  1221  2A23               	line	61
  4219                           ;LCD16x2.c: 61:     }
  4220                           	
  4221                           l417:	
  4222  1222                     	goto	l418
  4223  1222  2A23               	
  4224                           l415:	
  4225  1223                     	line	62
  4226                           	
  4227                           l418:	
  4228  1223                     	return
  4229  1223  0008               	opt stack 0
  4230                           GLOBAL	__end_of_lcdSetCursor
  4231                           	__end_of_lcdSetCursor:
  4232  1224                     	signat	_lcdSetCursor,8313
  4233                           	global	_WriteInstruction
  4234                           
  4235 ;; *************** function _WriteInstruction *****************
  4236 ;; Defined at:
  4237 ;;		line 78 in file "LCD16x2.c"
  4238 ;; Parameters:    Size  Location     Type
  4239 ;;  instruction     1    wreg     unsigned char 
  4240 ;; Auto vars:     Size  Location     Type
  4241 ;;  instruction     1   10[COMMON] unsigned char 
  4242 ;;  MSNibble        1   11[COMMON] unsigned char 
  4243 ;;  LSNibble        1    9[COMMON] unsigned char 
  4244 ;; Return value:  Size  Location     Type
  4245 ;;                  1    wreg      void 
  4246 ;; Registers used:
  4247 ;;		wreg, fsr0l, fsr0h, status,2, status,0, btemp+1, pclath, cstack
  4248 ;; Tracked objects:
  4249 ;;		On entry : 0/0
  4250 ;;		On exit  : 0/0
  4251 ;;		Unchanged: 0/0
  4252 ;; Data sizes:     COMMON   BANK0   BANK1   BANK3   BANK2
  4253 ;;      Params:         0       0       0       0       0
  4254 ;;      Locals:         3       0       0       0       0
  4255 ;;      Temps:          2       0       0       0       0
  4256 ;;      Totals:         5       0       0       0       0
  4257 ;;Total ram usage:        5 bytes
  4258 ;; Hardware stack levels used:    1
  4259 ;; Hardware stack levels required when called:    2
  4260 ;; This function calls:
  4261 ;;		_ByteByNibble
  4262 ;;		_delay
  4263 ;;		_digitalWrite
  4264 ;; This function is called by:
  4265 ;;		_lcdBegin
  4266 ;;		_lcdSetCursor
  4267 ;;		_lcdClear
  4268 ;; This function uses a non-reentrant model
  4269 ;;
  4270                           psect	text10,local,class=CODE,delta=2,merge=1,group=0
  4271                           	line	78
  4272                           global __ptext10
  4273                           __ptext10:	;psect for function _WriteInstruction
  4274  13B7                     psect	text10
  4275                           	file	"LCD16x2.c"
  4276                           	line	78
  4277                           	global	__size_of_WriteInstruction
  4278                           	__size_of_WriteInstruction	equ	__end_of_WriteInstruction-_WriteInstruction
  4279  0082                     	
  4280                           _WriteInstruction:	
  4281  13B7                     ;incstack = 0
  4282                           	opt	stack 3
  4283                           ; Regs used in _WriteInstruction: [wreg-fsr0h+status,2+status,0+btemp+1+pclath+cstack]
  4284                           ;WriteInstruction@instruction stored from wreg
  4285                           	movwf	(WriteInstruction@instruction)
  4286  13B7  00FA               	line	80
  4287                           	
  4288                           l2903:	
  4289  13B8                     ;LCD16x2.c: 78: void WriteInstruction(char instruction);LCD16x2.c: 79: {;LCD16x2.c: 80: 
                                     char MSNibble = 0;
  4290                           	clrf	(WriteInstruction@MSNibble)
  4291  13B8  01FB               	line	81
  4292                           ;LCD16x2.c: 81:     char LSNibble = 0;
  4293                           	clrf	(WriteInstruction@LSNibble)
  4294  13B9  01F9               	line	82
  4295                           	
  4296                           l2905:	
  4297  13BA                     ;LCD16x2.c: 82:     MSNibble = instruction & 0xF0;
  4298                           	movf	(WriteInstruction@instruction),w
  4299  13BA  087A               	andlw	0F0h
  4300  13BB  39F0               	movwf	(??_WriteInstruction+0)+0
  4301  13BC  00F7               	movf	(??_WriteInstruction+0)+0,w
  4302  13BD  0877               	movwf	(WriteInstruction@MSNibble)
  4303  13BE  00FB               	line	83
  4304                           	
  4305                           l2907:	
  4306  13BF                     ;LCD16x2.c: 83:     MSNibble = (MSNibble >> 4);
  4307                           	movf	(WriteInstruction@MSNibble),w
  4308  13BF  087B               	movwf	(??_WriteInstruction+0)+0
  4309  13C0  00F7               	movlw	04h
  4310  13C1  3004               u2145:
  4311  13C2                     	clrc
  4312  13C2  1003               	rrf	(??_WriteInstruction+0)+0,f
  4313  13C3  0CF7               	addlw	-1
  4314  13C4  3EFF               	skipz
  4315  13C5  1D03               	goto	u2145
  4316  13C6  2BC2               	movf	0+(??_WriteInstruction+0)+0,w
  4317  13C7  0877               	movwf	(??_WriteInstruction+1)+0
  4318  13C8  00F8               	movf	(??_WriteInstruction+1)+0,w
  4319  13C9  0878               	movwf	(WriteInstruction@MSNibble)
  4320  13CA  00FB               	line	84
  4321                           	
  4322                           l2909:	
  4323  13CB                     ;LCD16x2.c: 84:     LSNibble = instruction & 0x0F;
  4324                           	movf	(WriteInstruction@instruction),w
  4325  13CB  087A               	andlw	0Fh
  4326  13CC  390F               	movwf	(??_WriteInstruction+0)+0
  4327  13CD  00F7               	movf	(??_WriteInstruction+0)+0,w
  4328  13CE  0877               	movwf	(WriteInstruction@LSNibble)
  4329  13CF  00F9               	line	85
  4330                           	
  4331                           l2911:	
  4332  13D0                     ;LCD16x2.c: 85:     ByteByNibble(MSNibble);
  4333                           	movf	(WriteInstruction@MSNibble),w
  4334  13D0  087B               	fcall	_ByteByNibble
  4335  13D1  120A  158A  2552  160A  118A  	line	86
  4336                           	
  4337                           l2913:	
  4338  13D6                     ;LCD16x2.c: 86:     digitalWrite(RSPin,0);
  4339                           	clrf	(digitalWrite@value)
  4340  13D6  01F0               	bsf	status, 5	;RP0=1, select bank1
  4341  13D7  1683               	bcf	status, 6	;RP1=0, select bank1
  4342  13D8  1303               	movf	(_RSPin)^080h,w
  4343  13D9  0832               	fcall	_digitalWrite
  4344  13DA  120A  118A  2096  160A  118A  	line	87
  4345                           	
  4346                           l2915:	
  4347  13DF                     ;LCD16x2.c: 87:     digitalWrite(RWPin,0);
  4348                           	clrf	(digitalWrite@value)
  4349  13DF  01F0               	bsf	status, 5	;RP0=1, select bank1
  4350  13E0  1683               	bcf	status, 6	;RP1=0, select bank1
  4351  13E1  1303               	movf	(_RWPin)^080h,w
  4352  13E2  0830               	fcall	_digitalWrite
  4353  13E3  120A  118A  2096  160A  118A  	line	88
  4354                           	
  4355                           l2917:	
  4356  13E8                     ;LCD16x2.c: 88:     digitalWrite(ENPin,1);
  4357                           	clrf	(digitalWrite@value)
  4358  13E8  01F0               	incf	(digitalWrite@value),f
  4359  13E9  0AF0               	bsf	status, 5	;RP0=1, select bank1
  4360  13EA  1683               	bcf	status, 6	;RP1=0, select bank1
  4361  13EB  1303               	movf	(_ENPin)^080h,w
  4362  13EC  0831               	fcall	_digitalWrite
  4363  13ED  120A  118A  2096  160A  118A  	line	89
  4364                           	
  4365                           l2919:	
  4366  13F2                     ;LCD16x2.c: 89:     delay(5);
  4367                           	movlw	05h
  4368  13F2  3005               	movwf	(delay@milis)
  4369  13F3  00F0               	movlw	0
  4370  13F4  3000               	movwf	((delay@milis))+1
  4371  13F5  00F1               	fcall	_delay
  4372  13F6  160A  118A  22F8  160A  118A  	line	91
  4373                           	
  4374                           l2921:	
  4375  13FB                     ;LCD16x2.c: 91:     digitalWrite(ENPin,0);
  4376                           	clrf	(digitalWrite@value)
  4377  13FB  01F0               	bsf	status, 5	;RP0=1, select bank1
  4378  13FC  1683               	bcf	status, 6	;RP1=0, select bank1
  4379  13FD  1303               	movf	(_ENPin)^080h,w
  4380  13FE  0831               	fcall	_digitalWrite
  4381  13FF  120A  118A  2096  160A  118A  	line	92
  4382                           	
  4383                           l2923:	
  4384  1404                     ;LCD16x2.c: 92:     delay(5);
  4385                           	movlw	05h
  4386  1404  3005               	movwf	(delay@milis)
  4387  1405  00F0               	movlw	0
  4388  1406  3000               	movwf	((delay@milis))+1
  4389  1407  00F1               	fcall	_delay
  4390  1408  160A  118A  22F8  160A  118A  	line	93
  4391                           	
  4392                           l2925:	
  4393  140D                     ;LCD16x2.c: 93:     ByteByNibble(LSNibble);
  4394                           	movf	(WriteInstruction@LSNibble),w
  4395  140D  0879               	fcall	_ByteByNibble
  4396  140E  120A  158A  2552  160A  118A  	line	94
  4397                           	
  4398                           l2927:	
  4399  1413                     ;LCD16x2.c: 94:     digitalWrite(ENPin,1);
  4400                           	clrf	(digitalWrite@value)
  4401  1413  01F0               	incf	(digitalWrite@value),f
  4402  1414  0AF0               	bsf	status, 5	;RP0=1, select bank1
  4403  1415  1683               	bcf	status, 6	;RP1=0, select bank1
  4404  1416  1303               	movf	(_ENPin)^080h,w
  4405  1417  0831               	fcall	_digitalWrite
  4406  1418  120A  118A  2096  160A  118A  	line	95
  4407                           	
  4408                           l2929:	
  4409  141D                     ;LCD16x2.c: 95:     delay(5);
  4410                           	movlw	05h
  4411  141D  3005               	movwf	(delay@milis)
  4412  141E  00F0               	movlw	0
  4413  141F  3000               	movwf	((delay@milis))+1
  4414  1420  00F1               	fcall	_delay
  4415  1421  160A  118A  22F8  160A  118A  	line	97
  4416                           	
  4417                           l2931:	
  4418  1426                     ;LCD16x2.c: 97:     digitalWrite(ENPin,0);
  4419                           	clrf	(digitalWrite@value)
  4420  1426  01F0               	bsf	status, 5	;RP0=1, select bank1
  4421  1427  1683               	bcf	status, 6	;RP1=0, select bank1
  4422  1428  1303               	movf	(_ENPin)^080h,w
  4423  1429  0831               	fcall	_digitalWrite
  4424  142A  120A  118A  2096  160A  118A  	line	98
  4425                           	
  4426                           l2933:	
  4427  142F                     ;LCD16x2.c: 98:     delay(3);
  4428                           	movlw	03h
  4429  142F  3003               	movwf	(delay@milis)
  4430  1430  00F0               	movlw	0
  4431  1431  3000               	movwf	((delay@milis))+1
  4432  1432  00F1               	fcall	_delay
  4433  1433  160A  118A  22F8  160A  118A  	line	99
  4434                           	
  4435                           l430:	
  4436  1438                     	return
  4437  1438  0008               	opt stack 0
  4438                           GLOBAL	__end_of_WriteInstruction
  4439                           	__end_of_WriteInstruction:
  4440  1439                     	signat	_WriteInstruction,4217
  4441                           	global	_lcdPrint
  4442                           
  4443 ;; *************** function _lcdPrint *****************
  4444 ;; Defined at:
  4445 ;;		line 69 in file "LCD16x2.c"
  4446 ;; Parameters:    Size  Location     Type
  4447 ;;  string          2    0[BANK0 ] PTR unsigned char 
  4448 ;;		 -> STR_3(17), ScreenROW(16), STR_1(17), 
  4449 ;; Auto vars:     Size  Location     Type
  4450 ;;  i               2    5[BANK0 ] int 
  4451 ;; Return value:  Size  Location     Type
  4452 ;;                  1    wreg      void 
  4453 ;; Registers used:
  4454 ;;		wreg, fsr0l, fsr0h, status,2, status,0, btemp+1, pclath, cstack
  4455 ;; Tracked objects:
  4456 ;;		On entry : 0/0
  4457 ;;		On exit  : 0/0
  4458 ;;		Unchanged: 0/0
  4459 ;; Data sizes:     COMMON   BANK0   BANK1   BANK3   BANK2
  4460 ;;      Params:         0       2       0       0       0
  4461 ;;      Locals:         0       2       0       0       0
  4462 ;;      Temps:          0       3       0       0       0
  4463 ;;      Totals:         0       7       0       0       0
  4464 ;;Total ram usage:        7 bytes
  4465 ;; Hardware stack levels used:    1
  4466 ;; Hardware stack levels required when called:    4
  4467 ;; This function calls:
  4468 ;;		_lcdWrite
  4469 ;; This function is called by:
  4470 ;;		_setup
  4471 ;;		_loop
  4472 ;; This function uses a non-reentrant model
  4473 ;;
  4474                           psect	text11,local,class=CODE,delta=2,merge=1,group=0
  4475                           	line	69
  4476                           global __ptext11
  4477                           __ptext11:	;psect for function _lcdPrint
  4478  1265                     psect	text11
  4479                           	file	"LCD16x2.c"
  4480                           	line	69
  4481                           	global	__size_of_lcdPrint
  4482                           	__size_of_lcdPrint	equ	__end_of_lcdPrint-_lcdPrint
  4483  0048                     	
  4484                           _lcdPrint:	
  4485  1265                     ;incstack = 0
  4486                           	opt	stack 2
  4487                           ; Regs used in _lcdPrint: [wreg-fsr0h+status,2+status,0+btemp+1+pclath+cstack]
  4488                           	line	71
  4489                           	
  4490                           l3549:	
  4491  1265                     ;LCD16x2.c: 69: void lcdPrint(char *string);LCD16x2.c: 70: {;LCD16x2.c: 71:     for(int 
                                 i=0;string[i] != '\0';i++)
  4492                           	bcf	status, 5	;RP0=0, select bank0
  4493  1265  1283               	bcf	status, 6	;RP1=0, select bank0
  4494  1266  1303               	clrf	(lcdPrint@i)
  4495  1267  01A5               	clrf	(lcdPrint@i+1)
  4496  1268  01A6               	goto	l3555
  4497  1269  2A8F               	
  4498                           l425:	
  4499  126A                     	line	73
  4500                           	
  4501                           l3551:	
  4502  126A                     ;LCD16x2.c: 72:     {;LCD16x2.c: 73:         lcdWrite(string[i]);
  4503                           	movf	(lcdPrint@i),w
  4504  126A  0825               	addwf	(lcdPrint@string),w
  4505  126B  0720               	movwf	(??_lcdPrint+1)+0
  4506  126C  00A3               	movf	(lcdPrint@string+1),w
  4507  126D  0821               	movwf	(??_lcdPrint+0)+0
  4508  126E  00A2               	skipnc
  4509  126F  1803               	incf	(??_lcdPrint+0)+0,f
  4510  1270  0AA2               	btfss	(lcdPrint@i),7
  4511  1271  1FA5               	goto	u3530
  4512  1272  2A74               	decf	(??_lcdPrint+0)+0,f
  4513  1273  03A2               u3530:
  4514  1274                     	bcf	status, 5	;RP0=0, select bank0
  4515  1274  1283               	bcf	status, 6	;RP1=0, select bank0
  4516  1275  1303               	movf	(??_lcdPrint+0)+0,w
  4517  1276  0822               	movwf	0+((??_lcdPrint+1)+0)+1
  4518  1277  00A4               	movf	1+(??_lcdPrint+1)+0,w
  4519  1278  0824               	movwf	btemp+1
  4520  1279  00FF               	movf	0+(??_lcdPrint+1)+0,w
  4521  127A  0823               	movwf	fsr0
  4522  127B  0084               	fcall	stringtab
  4523  127C  120A  158A  2000  160A  118A  	fcall	_lcdWrite
  4524  1281  160A  118A  2161  160A  118A  	line	74
  4525                           	
  4526                           l3553:	
  4527  1286                     ;LCD16x2.c: 74:     }
  4528                           	movlw	01h
  4529  1286  3001               	bcf	status, 5	;RP0=0, select bank0
  4530  1287  1283               	bcf	status, 6	;RP1=0, select bank0
  4531  1288  1303               	addwf	(lcdPrint@i),f
  4532  1289  07A5               	skipnc
  4533  128A  1803               	incf	(lcdPrint@i+1),f
  4534  128B  0AA6               	movlw	0
  4535  128C  3000               	addwf	(lcdPrint@i+1),f
  4536  128D  07A6               	goto	l3555
  4537  128E  2A8F               	
  4538                           l424:	
  4539  128F                     	
  4540                           l3555:	
  4541  128F                     	movf	(lcdPrint@i),w
  4542  128F  0825               	addwf	(lcdPrint@string),w
  4543  1290  0720               	movwf	(??_lcdPrint+1)+0
  4544  1291  00A3               	movf	(lcdPrint@string+1),w
  4545  1292  0821               	movwf	(??_lcdPrint+0)+0
  4546  1293  00A2               	skipnc
  4547  1294  1803               	incf	(??_lcdPrint+0)+0,f
  4548  1295  0AA2               	btfss	(lcdPrint@i),7
  4549  1296  1FA5               	goto	u3540
  4550  1297  2A99               	decf	(??_lcdPrint+0)+0,f
  4551  1298  03A2               u3540:
  4552  1299                     	bcf	status, 5	;RP0=0, select bank0
  4553  1299  1283               	bcf	status, 6	;RP1=0, select bank0
  4554  129A  1303               	movf	(??_lcdPrint+0)+0,w
  4555  129B  0822               	movwf	0+((??_lcdPrint+1)+0)+1
  4556  129C  00A4               	movf	1+(??_lcdPrint+1)+0,w
  4557  129D  0824               	movwf	btemp+1
  4558  129E  00FF               	movf	0+(??_lcdPrint+1)+0,w
  4559  129F  0823               	movwf	fsr0
  4560  12A0  0084               	fcall	stringtab
  4561  12A1  120A  158A  2000  160A  118A  	xorlw	0
  4562  12A6  3A00               	skipz
  4563  12A7  1D03               	goto	u3551
  4564  12A8  2AAA               	goto	u3550
  4565  12A9  2AAB               u3551:
  4566  12AA                     	goto	l3551
  4567  12AA  2A6A               u3550:
  4568  12AB                     	goto	l427
  4569  12AB  2AAC               	
  4570                           l426:	
  4571  12AC                     	line	75
  4572                           	
  4573                           l427:	
  4574  12AC                     	return
  4575  12AC  0008               	opt stack 0
  4576                           GLOBAL	__end_of_lcdPrint
  4577                           	__end_of_lcdPrint:
  4578  12AD                     	signat	_lcdPrint,4217
  4579                           	global	_lcdWrite
  4580                           
  4581 ;; *************** function _lcdWrite *****************
  4582 ;; Defined at:
  4583 ;;		line 63 in file "LCD16x2.c"
  4584 ;; Parameters:    Size  Location     Type
  4585 ;;  data            1    wreg     unsigned char 
  4586 ;; Auto vars:     Size  Location     Type
  4587 ;;  data            1   12[COMMON] unsigned char 
  4588 ;; Return value:  Size  Location     Type
  4589 ;;                  1    wreg      void 
  4590 ;; Registers used:
  4591 ;;		wreg, fsr0l, fsr0h, status,2, status,0, btemp+1, pclath, cstack
  4592 ;; Tracked objects:
  4593 ;;		On entry : 0/0
  4594 ;;		On exit  : 0/0
  4595 ;;		Unchanged: 0/0
  4596 ;; Data sizes:     COMMON   BANK0   BANK1   BANK3   BANK2
  4597 ;;      Params:         0       0       0       0       0
  4598 ;;      Locals:         1       0       0       0       0
  4599 ;;      Temps:          0       0       0       0       0
  4600 ;;      Totals:         1       0       0       0       0
  4601 ;;Total ram usage:        1 bytes
  4602 ;; Hardware stack levels used:    1
  4603 ;; Hardware stack levels required when called:    3
  4604 ;; This function calls:
  4605 ;;		_WriteData
  4606 ;;		_delay
  4607 ;; This function is called by:
  4608 ;;		_lcdPrint
  4609 ;; This function uses a non-reentrant model
  4610 ;;
  4611                           psect	text12,local,class=CODE,delta=2,merge=1,group=0
  4612                           	line	63
  4613                           global __ptext12
  4614                           __ptext12:	;psect for function _lcdWrite
  4615  1161                     psect	text12
  4616                           	file	"LCD16x2.c"
  4617                           	line	63
  4618                           	global	__size_of_lcdWrite
  4619                           	__size_of_lcdWrite	equ	__end_of_lcdWrite-_lcdWrite
  4620  0011                     	
  4621                           _lcdWrite:	
  4622  1161                     ;incstack = 0
  4623                           	opt	stack 2
  4624                           ; Regs used in _lcdWrite: [wreg-fsr0h+status,2+status,0+btemp+1+pclath+cstack]
  4625                           ;lcdWrite@data stored from wreg
  4626                           	movwf	(lcdWrite@data)
  4627  1161  00FC               	line	65
  4628                           	
  4629                           l2935:	
  4630  1162                     ;LCD16x2.c: 63: void lcdWrite(char data);LCD16x2.c: 64: {;LCD16x2.c: 65:     delay(8);
  4631                           	movlw	08h
  4632  1162  3008               	movwf	(delay@milis)
  4633  1163  00F0               	movlw	0
  4634  1164  3000               	movwf	((delay@milis))+1
  4635  1165  00F1               	fcall	_delay
  4636  1166  160A  118A  22F8  160A  118A  	line	66
  4637                           	
  4638                           l2937:	
  4639  116B                     ;LCD16x2.c: 66:     WriteData(data);
  4640                           	movf	(lcdWrite@data),w
  4641  116B  087C               	fcall	_WriteData
  4642  116C  120A  118A  2013  160A  118A  	line	67
  4643                           	
  4644                           l421:	
  4645  1171                     	return
  4646  1171  0008               	opt stack 0
  4647                           GLOBAL	__end_of_lcdWrite
  4648                           	__end_of_lcdWrite:
  4649  1172                     	signat	_lcdWrite,4217
  4650                           	global	_WriteData
  4651                           
  4652 ;; *************** function _WriteData *****************
  4653 ;; Defined at:
  4654 ;;		line 101 in file "LCD16x2.c"
  4655 ;; Parameters:    Size  Location     Type
  4656 ;;  data            1    wreg     unsigned char 
  4657 ;; Auto vars:     Size  Location     Type
  4658 ;;  data            1   10[COMMON] unsigned char 
  4659 ;;  MSNibble        1   11[COMMON] unsigned char 
  4660 ;;  LSNibble        1    9[COMMON] unsigned char 
  4661 ;; Return value:  Size  Location     Type
  4662 ;;                  1    wreg      void 
  4663 ;; Registers used:
  4664 ;;		wreg, fsr0l, fsr0h, status,2, status,0, btemp+1, pclath, cstack
  4665 ;; Tracked objects:
  4666 ;;		On entry : 0/0
  4667 ;;		On exit  : 0/0
  4668 ;;		Unchanged: 0/0
  4669 ;; Data sizes:     COMMON   BANK0   BANK1   BANK3   BANK2
  4670 ;;      Params:         0       0       0       0       0
  4671 ;;      Locals:         3       0       0       0       0
  4672 ;;      Temps:          2       0       0       0       0
  4673 ;;      Totals:         5       0       0       0       0
  4674 ;;Total ram usage:        5 bytes
  4675 ;; Hardware stack levels used:    1
  4676 ;; Hardware stack levels required when called:    2
  4677 ;; This function calls:
  4678 ;;		_ByteByNibble
  4679 ;;		_delay
  4680 ;;		_digitalWrite
  4681 ;; This function is called by:
  4682 ;;		_lcdWrite
  4683 ;; This function uses a non-reentrant model
  4684 ;;
  4685                           psect	text13,local,class=CODE,delta=2,merge=1,group=0
  4686                           	line	101
  4687                           global __ptext13
  4688                           __ptext13:	;psect for function _WriteData
  4689  0013                     psect	text13
  4690                           	file	"LCD16x2.c"
  4691                           	line	101
  4692                           	global	__size_of_WriteData
  4693                           	__size_of_WriteData	equ	__end_of_WriteData-_WriteData
  4694  0083                     	
  4695                           _WriteData:	
  4696  0013                     ;incstack = 0
  4697                           	opt	stack 2
  4698                           ; Regs used in _WriteData: [wreg-fsr0h+status,2+status,0+btemp+1+pclath+cstack]
  4699                           ;WriteData@data stored from wreg
  4700                           	movwf	(WriteData@data)
  4701  0013  00FA               	line	103
  4702                           	
  4703                           l2797:	
  4704  0014                     ;LCD16x2.c: 101: void WriteData(char data);LCD16x2.c: 102: {;LCD16x2.c: 103:     char MS
                                 Nibble = 0;
  4705                           	clrf	(WriteData@MSNibble)
  4706  0014  01FB               	line	104
  4707                           ;LCD16x2.c: 104:     char LSNibble = 0;
  4708                           	clrf	(WriteData@LSNibble)
  4709  0015  01F9               	line	105
  4710                           	
  4711                           l2799:	
  4712  0016                     ;LCD16x2.c: 105:     MSNibble = data & 0xF0;
  4713                           	movf	(WriteData@data),w
  4714  0016  087A               	andlw	0F0h
  4715  0017  39F0               	movwf	(??_WriteData+0)+0
  4716  0018  00F7               	movf	(??_WriteData+0)+0,w
  4717  0019  0877               	movwf	(WriteData@MSNibble)
  4718  001A  00FB               	line	106
  4719                           	
  4720                           l2801:	
  4721  001B                     ;LCD16x2.c: 106:     MSNibble = (MSNibble >> 4);
  4722                           	movf	(WriteData@MSNibble),w
  4723  001B  087B               	movwf	(??_WriteData+0)+0
  4724  001C  00F7               	movlw	04h
  4725  001D  3004               u2105:
  4726  001E                     	clrc
  4727  001E  1003               	rrf	(??_WriteData+0)+0,f
  4728  001F  0CF7               	addlw	-1
  4729  0020  3EFF               	skipz
  4730  0021  1D03               	goto	u2105
  4731  0022  281E               	movf	0+(??_WriteData+0)+0,w
  4732  0023  0877               	movwf	(??_WriteData+1)+0
  4733  0024  00F8               	movf	(??_WriteData+1)+0,w
  4734  0025  0878               	movwf	(WriteData@MSNibble)
  4735  0026  00FB               	line	107
  4736                           	
  4737                           l2803:	
  4738  0027                     ;LCD16x2.c: 107:     LSNibble = data & 0x0F;
  4739                           	movf	(WriteData@data),w
  4740  0027  087A               	andlw	0Fh
  4741  0028  390F               	movwf	(??_WriteData+0)+0
  4742  0029  00F7               	movf	(??_WriteData+0)+0,w
  4743  002A  0877               	movwf	(WriteData@LSNibble)
  4744  002B  00F9               	line	108
  4745                           	
  4746                           l2805:	
  4747  002C                     ;LCD16x2.c: 108:     ByteByNibble(MSNibble);
  4748                           	movf	(WriteData@MSNibble),w
  4749  002C  087B               	fcall	_ByteByNibble
  4750  002D  120A  158A  2552  120A  118A  	line	109
  4751                           	
  4752                           l2807:	
  4753  0032                     ;LCD16x2.c: 109:     digitalWrite(RSPin,1);
  4754                           	clrf	(digitalWrite@value)
  4755  0032  01F0               	incf	(digitalWrite@value),f
  4756  0033  0AF0               	bsf	status, 5	;RP0=1, select bank1
  4757  0034  1683               	bcf	status, 6	;RP1=0, select bank1
  4758  0035  1303               	movf	(_RSPin)^080h,w
  4759  0036  0832               	fcall	_digitalWrite
  4760  0037  120A  118A  2096  120A  118A  	line	110
  4761                           	
  4762                           l2809:	
  4763  003C                     ;LCD16x2.c: 110:     digitalWrite(RWPin,0);
  4764                           	clrf	(digitalWrite@value)
  4765  003C  01F0               	bsf	status, 5	;RP0=1, select bank1
  4766  003D  1683               	bcf	status, 6	;RP1=0, select bank1
  4767  003E  1303               	movf	(_RWPin)^080h,w
  4768  003F  0830               	fcall	_digitalWrite
  4769  0040  120A  118A  2096  120A  118A  	line	111
  4770                           	
  4771                           l2811:	
  4772  0045                     ;LCD16x2.c: 111:     digitalWrite(ENPin,1);
  4773                           	clrf	(digitalWrite@value)
  4774  0045  01F0               	incf	(digitalWrite@value),f
  4775  0046  0AF0               	bsf	status, 5	;RP0=1, select bank1
  4776  0047  1683               	bcf	status, 6	;RP1=0, select bank1
  4777  0048  1303               	movf	(_ENPin)^080h,w
  4778  0049  0831               	fcall	_digitalWrite
  4779  004A  120A  118A  2096  120A  118A  	line	112
  4780                           	
  4781                           l2813:	
  4782  004F                     ;LCD16x2.c: 112:     delay(5);
  4783                           	movlw	05h
  4784  004F  3005               	movwf	(delay@milis)
  4785  0050  00F0               	movlw	0
  4786  0051  3000               	movwf	((delay@milis))+1
  4787  0052  00F1               	fcall	_delay
  4788  0053  160A  118A  22F8  120A  118A  	line	114
  4789                           	
  4790                           l2815:	
  4791  0058                     ;LCD16x2.c: 114:     digitalWrite(ENPin,0);
  4792                           	clrf	(digitalWrite@value)
  4793  0058  01F0               	bsf	status, 5	;RP0=1, select bank1
  4794  0059  1683               	bcf	status, 6	;RP1=0, select bank1
  4795  005A  1303               	movf	(_ENPin)^080h,w
  4796  005B  0831               	fcall	_digitalWrite
  4797  005C  120A  118A  2096  120A  118A  	line	115
  4798                           	
  4799                           l2817:	
  4800  0061                     ;LCD16x2.c: 115:     delay(5);
  4801                           	movlw	05h
  4802  0061  3005               	movwf	(delay@milis)
  4803  0062  00F0               	movlw	0
  4804  0063  3000               	movwf	((delay@milis))+1
  4805  0064  00F1               	fcall	_delay
  4806  0065  160A  118A  22F8  120A  118A  	line	116
  4807                           	
  4808                           l2819:	
  4809  006A                     ;LCD16x2.c: 116:     ByteByNibble(LSNibble);
  4810                           	movf	(WriteData@LSNibble),w
  4811  006A  0879               	fcall	_ByteByNibble
  4812  006B  120A  158A  2552  120A  118A  	line	117
  4813                           	
  4814                           l2821:	
  4815  0070                     ;LCD16x2.c: 117:     digitalWrite(ENPin,1);
  4816                           	clrf	(digitalWrite@value)
  4817  0070  01F0               	incf	(digitalWrite@value),f
  4818  0071  0AF0               	bsf	status, 5	;RP0=1, select bank1
  4819  0072  1683               	bcf	status, 6	;RP1=0, select bank1
  4820  0073  1303               	movf	(_ENPin)^080h,w
  4821  0074  0831               	fcall	_digitalWrite
  4822  0075  120A  118A  2096  120A  118A  	line	118
  4823                           	
  4824                           l2823:	
  4825  007A                     ;LCD16x2.c: 118:     delay(5);
  4826                           	movlw	05h
  4827  007A  3005               	movwf	(delay@milis)
  4828  007B  00F0               	movlw	0
  4829  007C  3000               	movwf	((delay@milis))+1
  4830  007D  00F1               	fcall	_delay
  4831  007E  160A  118A  22F8  120A  118A  	line	120
  4832                           	
  4833                           l2825:	
  4834  0083                     ;LCD16x2.c: 120:     digitalWrite(ENPin,0);
  4835                           	clrf	(digitalWrite@value)
  4836  0083  01F0               	bsf	status, 5	;RP0=1, select bank1
  4837  0084  1683               	bcf	status, 6	;RP1=0, select bank1
  4838  0085  1303               	movf	(_ENPin)^080h,w
  4839  0086  0831               	fcall	_digitalWrite
  4840  0087  120A  118A  2096  120A  118A  	line	121
  4841                           	
  4842                           l2827:	
  4843  008C                     ;LCD16x2.c: 121:     delay(3);
  4844                           	movlw	03h
  4845  008C  3003               	movwf	(delay@milis)
  4846  008D  00F0               	movlw	0
  4847  008E  3000               	movwf	((delay@milis))+1
  4848  008F  00F1               	fcall	_delay
  4849  0090  160A  118A  22F8  120A  118A  	line	122
  4850                           	
  4851                           l433:	
  4852  0095                     	return
  4853  0095  0008               	opt stack 0
  4854                           GLOBAL	__end_of_WriteData
  4855                           	__end_of_WriteData:
  4856  0096                     	signat	_WriteData,4217
  4857                           	global	_delay
  4858                           
  4859 ;; *************** function _delay *****************
  4860 ;; Defined at:
  4861 ;;		line 576 in file "Hormiga877.c"
  4862 ;; Parameters:    Size  Location     Type
  4863 ;;  milis           2    0[COMMON] const int 
  4864 ;; Auto vars:     Size  Location     Type
  4865 ;;  i               2    5[COMMON] int 
  4866 ;;  j               2    3[COMMON] int 
  4867 ;; Return value:  Size  Location     Type
  4868 ;;                  1    wreg      void 
  4869 ;; Registers used:
  4870 ;;		wreg, status,2, btemp+1
  4871 ;; Tracked objects:
  4872 ;;		On entry : 0/0
  4873 ;;		On exit  : 0/0
  4874 ;;		Unchanged: 0/0
  4875 ;; Data sizes:     COMMON   BANK0   BANK1   BANK3   BANK2
  4876 ;;      Params:         2       0       0       0       0
  4877 ;;      Locals:         4       0       0       0       0
  4878 ;;      Temps:          1       0       0       0       0
  4879 ;;      Totals:         7       0       0       0       0
  4880 ;;Total ram usage:        7 bytes
  4881 ;; Hardware stack levels used:    1
  4882 ;; This function calls:
  4883 ;;		Nothing
  4884 ;; This function is called by:
  4885 ;;		_lcdBegin
  4886 ;;		_lcdWrite
  4887 ;;		_WriteInstruction
  4888 ;;		_WriteData
  4889 ;;		_PBRead
  4890 ;; This function uses a non-reentrant model
  4891 ;;
  4892                           psect	text14,local,class=CODE,delta=2,merge=1,group=0
  4893                           	file	"Hormiga877.c"
  4894                           	line	576
  4895                           global __ptext14
  4896                           __ptext14:	;psect for function _delay
  4897  12F8                     psect	text14
  4898                           	file	"Hormiga877.c"
  4899                           	line	576
  4900                           	global	__size_of_delay
  4901                           	__size_of_delay	equ	__end_of_delay-_delay
  4902  004E                     	
  4903                           _delay:	
  4904  12F8                     ;incstack = 0
  4905                           	opt	stack 4
  4906                           ; Regs used in _delay: [wreg+status,2+btemp+1]
  4907                           	line	578
  4908                           	
  4909                           l2737:	
  4910  12F8                     ;Hormiga877.c: 576: void delay(const int milis);Hormiga877.c: 577: {;Hormiga877.c: 578: 
                                     for(int j=0;j<milis;j++)
  4911                           	clrf	(delay@j)
  4912  12F8  01F3               	clrf	(delay@j+1)
  4913  12F9  01F4               	
  4914                           l2739:	
  4915  12FA                     	movf	(delay@j+1),w
  4916  12FA  0874               	xorlw	80h
  4917  12FB  3A80               	movwf	(??_delay+0)+0
  4918  12FC  00F2               	movf	(delay@milis+1),w
  4919  12FD  0871               	xorlw	80h
  4920  12FE  3A80               	subwf	(??_delay+0)+0,w
  4921  12FF  0272               	skipz
  4922  1300  1D03               	goto	u2065
  4923  1301  2B04               	movf	(delay@milis),w
  4924  1302  0870               	subwf	(delay@j),w
  4925  1303  0273               u2065:
  4926  1304                     
  4927                           	skipc
  4928  1304  1C03               	goto	u2061
  4929  1305  2B07               	goto	u2060
  4930  1306  2B08               u2061:
  4931  1307                     	goto	l2743
  4932  1307  2B0A               u2060:
  4933  1308                     	goto	l374
  4934  1308  2B45               	
  4935                           l2741:	
  4936  1309                     	goto	l374
  4937  1309  2B45               	
  4938                           l370:	
  4939  130A                     	line	581
  4940                           	
  4941                           l2743:	
  4942  130A                     ;Hormiga877.c: 579:     {;Hormiga877.c: 581:         for(int i=0;i<235;i++)
  4943                           	clrf	(delay@i)
  4944  130A  01F5               	clrf	(delay@i+1)
  4945  130B  01F6               	
  4946                           l2745:	
  4947  130C                     	movf	(delay@i+1),w
  4948  130C  0876               	xorlw	80h
  4949  130D  3A80               	movwf	btemp+1
  4950  130E  00FF               	movlw	(0)^80h
  4951  130F  3080               	subwf	btemp+1,w
  4952  1310  027F               	skipz
  4953  1311  1D03               	goto	u2075
  4954  1312  2B15               	movlw	0EBh
  4955  1313  30EB               	subwf	(delay@i),w
  4956  1314  0275               u2075:
  4957  1315                     
  4958                           	skipc
  4959  1315  1C03               	goto	u2071
  4960  1316  2B18               	goto	u2070
  4961  1317  2B19               u2071:
  4962  1318                     	goto	l372
  4963  1318  2B1B               u2070:
  4964  1319                     	goto	l2753
  4965  1319  2B30               	
  4966                           l2747:	
  4967  131A                     	goto	l2753
  4968  131A  2B30               	
  4969                           l372:	
  4970  131B                     	line	583
  4971                           # 583 "Hormiga877.c"
  4972                           NOP ;# 
  4973  131B  0000               psect	text14
  4974                           	line	584
  4975                           	
  4976                           l2749:	
  4977  131C                     ;Hormiga877.c: 584:         }
  4978                           	movlw	01h
  4979  131C  3001               	addwf	(delay@i),f
  4980  131D  07F5               	skipnc
  4981  131E  1803               	incf	(delay@i+1),f
  4982  131F  0AF6               	movlw	0
  4983  1320  3000               	addwf	(delay@i+1),f
  4984  1321  07F6               	
  4985                           l2751:	
  4986  1322                     	movf	(delay@i+1),w
  4987  1322  0876               	xorlw	80h
  4988  1323  3A80               	movwf	btemp+1
  4989  1324  00FF               	movlw	(0)^80h
  4990  1325  3080               	subwf	btemp+1,w
  4991  1326  027F               	skipz
  4992  1327  1D03               	goto	u2085
  4993  1328  2B2B               	movlw	0EBh
  4994  1329  30EB               	subwf	(delay@i),w
  4995  132A  0275               u2085:
  4996  132B                     
  4997                           	skipc
  4998  132B  1C03               	goto	u2081
  4999  132C  2B2E               	goto	u2080
  5000  132D  2B2F               u2081:
  5001  132E                     	goto	l372
  5002  132E  2B1B               u2080:
  5003  132F                     	goto	l2753
  5004  132F  2B30               	
  5005                           l373:	
  5006  1330                     	line	585
  5007                           	
  5008                           l2753:	
  5009  1330                     ;Hormiga877.c: 585:     }
  5010                           	movlw	01h
  5011  1330  3001               	addwf	(delay@j),f
  5012  1331  07F3               	skipnc
  5013  1332  1803               	incf	(delay@j+1),f
  5014  1333  0AF4               	movlw	0
  5015  1334  3000               	addwf	(delay@j+1),f
  5016  1335  07F4               	movf	(delay@j+1),w
  5017  1336  0874               	xorlw	80h
  5018  1337  3A80               	movwf	(??_delay+0)+0
  5019  1338  00F2               	movf	(delay@milis+1),w
  5020  1339  0871               	xorlw	80h
  5021  133A  3A80               	subwf	(??_delay+0)+0,w
  5022  133B  0272               	skipz
  5023  133C  1D03               	goto	u2095
  5024  133D  2B40               	movf	(delay@milis),w
  5025  133E  0870               	subwf	(delay@j),w
  5026  133F  0273               u2095:
  5027  1340                     
  5028                           	skipc
  5029  1340  1C03               	goto	u2091
  5030  1341  2B43               	goto	u2090
  5031  1342  2B44               u2091:
  5032  1343                     	goto	l2743
  5033  1343  2B0A               u2090:
  5034  1344                     	goto	l374
  5035  1344  2B45               	
  5036                           l371:	
  5037  1345                     	line	586
  5038                           	
  5039                           l374:	
  5040  1345                     	return
  5041  1345  0008               	opt stack 0
  5042                           GLOBAL	__end_of_delay
  5043                           	__end_of_delay:
  5044  1346                     	signat	_delay,4217
  5045                           	global	_ByteByNibble
  5046                           
  5047 ;; *************** function _ByteByNibble *****************
  5048 ;; Defined at:
  5049 ;;		line 124 in file "LCD16x2.c"
  5050 ;; Parameters:    Size  Location     Type
  5051 ;;  NibbleValue     1    wreg     unsigned char 
  5052 ;; Auto vars:     Size  Location     Type
  5053 ;;  NibbleValue     1    6[COMMON] unsigned char 
  5054 ;; Return value:  Size  Location     Type
  5055 ;;                  1    wreg      void 
  5056 ;; Registers used:
  5057 ;;		wreg, fsr0l, fsr0h, status,2, status,0, pclath, cstack
  5058 ;; Tracked objects:
  5059 ;;		On entry : 0/0
  5060 ;;		On exit  : 0/0
  5061 ;;		Unchanged: 0/0
  5062 ;; Data sizes:     COMMON   BANK0   BANK1   BANK3   BANK2
  5063 ;;      Params:         0       0       0       0       0
  5064 ;;      Locals:         1       0       0       0       0
  5065 ;;      Temps:          2       0       0       0       0
  5066 ;;      Totals:         3       0       0       0       0
  5067 ;;Total ram usage:        3 bytes
  5068 ;; Hardware stack levels used:    1
  5069 ;; Hardware stack levels required when called:    1
  5070 ;; This function calls:
  5071 ;;		_digitalWrite
  5072 ;; This function is called by:
  5073 ;;		_WriteInstruction
  5074 ;;		_WriteData
  5075 ;; This function uses a non-reentrant model
  5076 ;;
  5077                           psect	text15,local,class=CODE,delta=2,merge=1,group=0
  5078                           	file	"LCD16x2.c"
  5079                           	line	124
  5080                           global __ptext15
  5081                           __ptext15:	;psect for function _ByteByNibble
  5082  0D52                     psect	text15
  5083                           	file	"LCD16x2.c"
  5084                           	line	124
  5085                           	global	__size_of_ByteByNibble
  5086                           	__size_of_ByteByNibble	equ	__end_of_ByteByNibble-_ByteByNibble
  5087  02AE                     	
  5088                           _ByteByNibble:	
  5089  0D52                     ;incstack = 0
  5090                           	opt	stack 3
  5091                           ; Regs used in _ByteByNibble: [wreg-fsr0h+status,2+status,0+pclath+cstack]
  5092                           ;ByteByNibble@NibbleValue stored from wreg
  5093                           	movwf	(ByteByNibble@NibbleValue)
  5094  0D52  00F6               	line	126
  5095                           	
  5096                           l2755:	
  5097  0D53                     ;LCD16x2.c: 124: void ByteByNibble(char NibbleValue);LCD16x2.c: 125: {;LCD16x2.c: 126:  
                                    switch(NibbleValue)
  5098                           	goto	l2791
  5099  0D53  2FC5               	line	128
  5100                           ;LCD16x2.c: 127:     {;LCD16x2.c: 128:         case 0x00:
  5101                           	
  5102                           l437:	
  5103  0D54                     	line	129
  5104                           	
  5105                           l2757:	
  5106  0D54                     ;LCD16x2.c: 129:             digitalWrite(d7Pin,0);
  5107                           	clrf	(digitalWrite@value)
  5108  0D54  01F0               	bsf	status, 5	;RP0=1, select bank1
  5109  0D55  1683               	bcf	status, 6	;RP1=0, select bank1
  5110  0D56  1303               	movf	(_d7Pin)^080h,w
  5111  0D57  082C               	fcall	_digitalWrite
  5112  0D58  120A  118A  2096  120A  158A  	line	130
  5113                           ;LCD16x2.c: 130:             digitalWrite(d6Pin,0);
  5114                           	clrf	(digitalWrite@value)
  5115  0D5D  01F0               	bsf	status, 5	;RP0=1, select bank1
  5116  0D5E  1683               	bcf	status, 6	;RP1=0, select bank1
  5117  0D5F  1303               	movf	(_d6Pin)^080h,w
  5118  0D60  082D               	fcall	_digitalWrite
  5119  0D61  120A  118A  2096  120A  158A  	line	131
  5120                           ;LCD16x2.c: 131:             digitalWrite(d5Pin,0);
  5121                           	clrf	(digitalWrite@value)
  5122  0D66  01F0               	bsf	status, 5	;RP0=1, select bank1
  5123  0D67  1683               	bcf	status, 6	;RP1=0, select bank1
  5124  0D68  1303               	movf	(_d5Pin)^080h,w
  5125  0D69  082E               	fcall	_digitalWrite
  5126  0D6A  120A  118A  2096  120A  158A  	line	132
  5127                           ;LCD16x2.c: 132:             digitalWrite(d4Pin,0);
  5128                           	clrf	(digitalWrite@value)
  5129  0D6F  01F0               	bsf	status, 5	;RP0=1, select bank1
  5130  0D70  1683               	bcf	status, 6	;RP1=0, select bank1
  5131  0D71  1303               	movf	(_d4Pin)^080h,w
  5132  0D72  082F               	fcall	_digitalWrite
  5133  0D73  120A  118A  2096  120A  158A  	line	133
  5134                           ;LCD16x2.c: 133:             break;
  5135                           	goto	l454
  5136  0D78  2FFF               	line	134
  5137                           ;LCD16x2.c: 134:         case 0x01:
  5138                           	
  5139                           l439:	
  5140  0D79                     	line	135
  5141                           	
  5142                           l2759:	
  5143  0D79                     ;LCD16x2.c: 135:             digitalWrite(d7Pin,0);
  5144                           	clrf	(digitalWrite@value)
  5145  0D79  01F0               	bsf	status, 5	;RP0=1, select bank1
  5146  0D7A  1683               	bcf	status, 6	;RP1=0, select bank1
  5147  0D7B  1303               	movf	(_d7Pin)^080h,w
  5148  0D7C  082C               	fcall	_digitalWrite
  5149  0D7D  120A  118A  2096  120A  158A  	line	136
  5150                           ;LCD16x2.c: 136:             digitalWrite(d6Pin,0);
  5151                           	clrf	(digitalWrite@value)
  5152  0D82  01F0               	bsf	status, 5	;RP0=1, select bank1
  5153  0D83  1683               	bcf	status, 6	;RP1=0, select bank1
  5154  0D84  1303               	movf	(_d6Pin)^080h,w
  5155  0D85  082D               	fcall	_digitalWrite
  5156  0D86  120A  118A  2096  120A  158A  	line	137
  5157                           ;LCD16x2.c: 137:             digitalWrite(d5Pin,0);
  5158                           	clrf	(digitalWrite@value)
  5159  0D8B  01F0               	bsf	status, 5	;RP0=1, select bank1
  5160  0D8C  1683               	bcf	status, 6	;RP1=0, select bank1
  5161  0D8D  1303               	movf	(_d5Pin)^080h,w
  5162  0D8E  082E               	fcall	_digitalWrite
  5163  0D8F  120A  118A  2096  120A  158A  	line	138
  5164                           ;LCD16x2.c: 138:             digitalWrite(d4Pin,1);
  5165                           	clrf	(digitalWrite@value)
  5166  0D94  01F0               	incf	(digitalWrite@value),f
  5167  0D95  0AF0               	bsf	status, 5	;RP0=1, select bank1
  5168  0D96  1683               	bcf	status, 6	;RP1=0, select bank1
  5169  0D97  1303               	movf	(_d4Pin)^080h,w
  5170  0D98  082F               	fcall	_digitalWrite
  5171  0D99  120A  118A  2096  120A  158A  	line	139
  5172                           ;LCD16x2.c: 139:             break;
  5173                           	goto	l454
  5174  0D9E  2FFF               	line	140
  5175                           ;LCD16x2.c: 140:         case 0x02:
  5176                           	
  5177                           l440:	
  5178  0D9F                     	line	141
  5179                           	
  5180                           l2761:	
  5181  0D9F                     ;LCD16x2.c: 141:             digitalWrite(d7Pin,0);
  5182                           	clrf	(digitalWrite@value)
  5183  0D9F  01F0               	bsf	status, 5	;RP0=1, select bank1
  5184  0DA0  1683               	bcf	status, 6	;RP1=0, select bank1
  5185  0DA1  1303               	movf	(_d7Pin)^080h,w
  5186  0DA2  082C               	fcall	_digitalWrite
  5187  0DA3  120A  118A  2096  120A  158A  	line	142
  5188                           ;LCD16x2.c: 142:             digitalWrite(d6Pin,0);
  5189                           	clrf	(digitalWrite@value)
  5190  0DA8  01F0               	bsf	status, 5	;RP0=1, select bank1
  5191  0DA9  1683               	bcf	status, 6	;RP1=0, select bank1
  5192  0DAA  1303               	movf	(_d6Pin)^080h,w
  5193  0DAB  082D               	fcall	_digitalWrite
  5194  0DAC  120A  118A  2096  120A  158A  	line	143
  5195                           ;LCD16x2.c: 143:             digitalWrite(d5Pin,1);
  5196                           	clrf	(digitalWrite@value)
  5197  0DB1  01F0               	incf	(digitalWrite@value),f
  5198  0DB2  0AF0               	bsf	status, 5	;RP0=1, select bank1
  5199  0DB3  1683               	bcf	status, 6	;RP1=0, select bank1
  5200  0DB4  1303               	movf	(_d5Pin)^080h,w
  5201  0DB5  082E               	fcall	_digitalWrite
  5202  0DB6  120A  118A  2096  120A  158A  	line	144
  5203                           ;LCD16x2.c: 144:             digitalWrite(d4Pin,0);
  5204                           	clrf	(digitalWrite@value)
  5205  0DBB  01F0               	bsf	status, 5	;RP0=1, select bank1
  5206  0DBC  1683               	bcf	status, 6	;RP1=0, select bank1
  5207  0DBD  1303               	movf	(_d4Pin)^080h,w
  5208  0DBE  082F               	fcall	_digitalWrite
  5209  0DBF  120A  118A  2096  120A  158A  	line	145
  5210                           ;LCD16x2.c: 145:             break;
  5211                           	goto	l454
  5212  0DC4  2FFF               	line	146
  5213                           ;LCD16x2.c: 146:         case 0x03:
  5214                           	
  5215                           l441:	
  5216  0DC5                     	line	147
  5217                           	
  5218                           l2763:	
  5219  0DC5                     ;LCD16x2.c: 147:             digitalWrite(d7Pin,0);
  5220                           	clrf	(digitalWrite@value)
  5221  0DC5  01F0               	bsf	status, 5	;RP0=1, select bank1
  5222  0DC6  1683               	bcf	status, 6	;RP1=0, select bank1
  5223  0DC7  1303               	movf	(_d7Pin)^080h,w
  5224  0DC8  082C               	fcall	_digitalWrite
  5225  0DC9  120A  118A  2096  120A  158A  	line	148
  5226                           ;LCD16x2.c: 148:             digitalWrite(d6Pin,0);
  5227                           	clrf	(digitalWrite@value)
  5228  0DCE  01F0               	bsf	status, 5	;RP0=1, select bank1
  5229  0DCF  1683               	bcf	status, 6	;RP1=0, select bank1
  5230  0DD0  1303               	movf	(_d6Pin)^080h,w
  5231  0DD1  082D               	fcall	_digitalWrite
  5232  0DD2  120A  118A  2096  120A  158A  	line	149
  5233                           ;LCD16x2.c: 149:             digitalWrite(d5Pin,1);
  5234                           	clrf	(digitalWrite@value)
  5235  0DD7  01F0               	incf	(digitalWrite@value),f
  5236  0DD8  0AF0               	bsf	status, 5	;RP0=1, select bank1
  5237  0DD9  1683               	bcf	status, 6	;RP1=0, select bank1
  5238  0DDA  1303               	movf	(_d5Pin)^080h,w
  5239  0DDB  082E               	fcall	_digitalWrite
  5240  0DDC  120A  118A  2096  120A  158A  	line	150
  5241                           ;LCD16x2.c: 150:             digitalWrite(d4Pin,1);
  5242                           	clrf	(digitalWrite@value)
  5243  0DE1  01F0               	incf	(digitalWrite@value),f
  5244  0DE2  0AF0               	bsf	status, 5	;RP0=1, select bank1
  5245  0DE3  1683               	bcf	status, 6	;RP1=0, select bank1
  5246  0DE4  1303               	movf	(_d4Pin)^080h,w
  5247  0DE5  082F               	fcall	_digitalWrite
  5248  0DE6  120A  118A  2096  120A  158A  	line	151
  5249                           ;LCD16x2.c: 151:             break;
  5250                           	goto	l454
  5251  0DEB  2FFF               	line	152
  5252                           ;LCD16x2.c: 152:         case 0x04:
  5253                           	
  5254                           l442:	
  5255  0DEC                     	line	153
  5256                           	
  5257                           l2765:	
  5258  0DEC                     ;LCD16x2.c: 153:             digitalWrite(d7Pin,0);
  5259                           	clrf	(digitalWrite@value)
  5260  0DEC  01F0               	bsf	status, 5	;RP0=1, select bank1
  5261  0DED  1683               	bcf	status, 6	;RP1=0, select bank1
  5262  0DEE  1303               	movf	(_d7Pin)^080h,w
  5263  0DEF  082C               	fcall	_digitalWrite
  5264  0DF0  120A  118A  2096  120A  158A  	line	154
  5265                           ;LCD16x2.c: 154:             digitalWrite(d6Pin,1);
  5266                           	clrf	(digitalWrite@value)
  5267  0DF5  01F0               	incf	(digitalWrite@value),f
  5268  0DF6  0AF0               	bsf	status, 5	;RP0=1, select bank1
  5269  0DF7  1683               	bcf	status, 6	;RP1=0, select bank1
  5270  0DF8  1303               	movf	(_d6Pin)^080h,w
  5271  0DF9  082D               	fcall	_digitalWrite
  5272  0DFA  120A  118A  2096  120A  158A  	line	155
  5273                           ;LCD16x2.c: 155:             digitalWrite(d5Pin,0);
  5274                           	clrf	(digitalWrite@value)
  5275  0DFF  01F0               	bsf	status, 5	;RP0=1, select bank1
  5276  0E00  1683               	bcf	status, 6	;RP1=0, select bank1
  5277  0E01  1303               	movf	(_d5Pin)^080h,w
  5278  0E02  082E               	fcall	_digitalWrite
  5279  0E03  120A  118A  2096  120A  158A  	line	156
  5280                           ;LCD16x2.c: 156:             digitalWrite(d4Pin,0);
  5281                           	clrf	(digitalWrite@value)
  5282  0E08  01F0               	bsf	status, 5	;RP0=1, select bank1
  5283  0E09  1683               	bcf	status, 6	;RP1=0, select bank1
  5284  0E0A  1303               	movf	(_d4Pin)^080h,w
  5285  0E0B  082F               	fcall	_digitalWrite
  5286  0E0C  120A  118A  2096  120A  158A  	line	157
  5287                           ;LCD16x2.c: 157:             break;
  5288                           	goto	l454
  5289  0E11  2FFF               	line	158
  5290                           ;LCD16x2.c: 158:         case 0x05:
  5291                           	
  5292                           l443:	
  5293  0E12                     	line	159
  5294                           	
  5295                           l2767:	
  5296  0E12                     ;LCD16x2.c: 159:             digitalWrite(d7Pin,0);
  5297                           	clrf	(digitalWrite@value)
  5298  0E12  01F0               	bsf	status, 5	;RP0=1, select bank1
  5299  0E13  1683               	bcf	status, 6	;RP1=0, select bank1
  5300  0E14  1303               	movf	(_d7Pin)^080h,w
  5301  0E15  082C               	fcall	_digitalWrite
  5302  0E16  120A  118A  2096  120A  158A  	line	160
  5303                           ;LCD16x2.c: 160:             digitalWrite(d6Pin,1);
  5304                           	clrf	(digitalWrite@value)
  5305  0E1B  01F0               	incf	(digitalWrite@value),f
  5306  0E1C  0AF0               	bsf	status, 5	;RP0=1, select bank1
  5307  0E1D  1683               	bcf	status, 6	;RP1=0, select bank1
  5308  0E1E  1303               	movf	(_d6Pin)^080h,w
  5309  0E1F  082D               	fcall	_digitalWrite
  5310  0E20  120A  118A  2096  120A  158A  	line	161
  5311                           ;LCD16x2.c: 161:             digitalWrite(d5Pin,0);
  5312                           	clrf	(digitalWrite@value)
  5313  0E25  01F0               	bsf	status, 5	;RP0=1, select bank1
  5314  0E26  1683               	bcf	status, 6	;RP1=0, select bank1
  5315  0E27  1303               	movf	(_d5Pin)^080h,w
  5316  0E28  082E               	fcall	_digitalWrite
  5317  0E29  120A  118A  2096  120A  158A  	line	162
  5318                           ;LCD16x2.c: 162:             digitalWrite(d4Pin,1);
  5319                           	clrf	(digitalWrite@value)
  5320  0E2E  01F0               	incf	(digitalWrite@value),f
  5321  0E2F  0AF0               	bsf	status, 5	;RP0=1, select bank1
  5322  0E30  1683               	bcf	status, 6	;RP1=0, select bank1
  5323  0E31  1303               	movf	(_d4Pin)^080h,w
  5324  0E32  082F               	fcall	_digitalWrite
  5325  0E33  120A  118A  2096  120A  158A  	line	163
  5326                           ;LCD16x2.c: 163:             break;
  5327                           	goto	l454
  5328  0E38  2FFF               	line	164
  5329                           ;LCD16x2.c: 164:         case 0x06:
  5330                           	
  5331                           l444:	
  5332  0E39                     	line	165
  5333                           	
  5334                           l2769:	
  5335  0E39                     ;LCD16x2.c: 165:             digitalWrite(d7Pin,0);
  5336                           	clrf	(digitalWrite@value)
  5337  0E39  01F0               	bsf	status, 5	;RP0=1, select bank1
  5338  0E3A  1683               	bcf	status, 6	;RP1=0, select bank1
  5339  0E3B  1303               	movf	(_d7Pin)^080h,w
  5340  0E3C  082C               	fcall	_digitalWrite
  5341  0E3D  120A  118A  2096  120A  158A  	line	166
  5342                           ;LCD16x2.c: 166:             digitalWrite(d6Pin,1);
  5343                           	clrf	(digitalWrite@value)
  5344  0E42  01F0               	incf	(digitalWrite@value),f
  5345  0E43  0AF0               	bsf	status, 5	;RP0=1, select bank1
  5346  0E44  1683               	bcf	status, 6	;RP1=0, select bank1
  5347  0E45  1303               	movf	(_d6Pin)^080h,w
  5348  0E46  082D               	fcall	_digitalWrite
  5349  0E47  120A  118A  2096  120A  158A  	line	167
  5350                           ;LCD16x2.c: 167:             digitalWrite(d5Pin,1);
  5351                           	clrf	(digitalWrite@value)
  5352  0E4C  01F0               	incf	(digitalWrite@value),f
  5353  0E4D  0AF0               	bsf	status, 5	;RP0=1, select bank1
  5354  0E4E  1683               	bcf	status, 6	;RP1=0, select bank1
  5355  0E4F  1303               	movf	(_d5Pin)^080h,w
  5356  0E50  082E               	fcall	_digitalWrite
  5357  0E51  120A  118A  2096  120A  158A  	line	168
  5358                           ;LCD16x2.c: 168:             digitalWrite(d4Pin,0);
  5359                           	clrf	(digitalWrite@value)
  5360  0E56  01F0               	bsf	status, 5	;RP0=1, select bank1
  5361  0E57  1683               	bcf	status, 6	;RP1=0, select bank1
  5362  0E58  1303               	movf	(_d4Pin)^080h,w
  5363  0E59  082F               	fcall	_digitalWrite
  5364  0E5A  120A  118A  2096  120A  158A  	line	169
  5365                           ;LCD16x2.c: 169:             break;
  5366                           	goto	l454
  5367  0E5F  2FFF               	line	170
  5368                           ;LCD16x2.c: 170:         case 0x07:
  5369                           	
  5370                           l445:	
  5371  0E60                     	line	171
  5372                           	
  5373                           l2771:	
  5374  0E60                     ;LCD16x2.c: 171:             digitalWrite(d7Pin,0);
  5375                           	clrf	(digitalWrite@value)
  5376  0E60  01F0               	bsf	status, 5	;RP0=1, select bank1
  5377  0E61  1683               	bcf	status, 6	;RP1=0, select bank1
  5378  0E62  1303               	movf	(_d7Pin)^080h,w
  5379  0E63  082C               	fcall	_digitalWrite
  5380  0E64  120A  118A  2096  120A  158A  	line	172
  5381                           ;LCD16x2.c: 172:             digitalWrite(d6Pin,1);
  5382                           	clrf	(digitalWrite@value)
  5383  0E69  01F0               	incf	(digitalWrite@value),f
  5384  0E6A  0AF0               	bsf	status, 5	;RP0=1, select bank1
  5385  0E6B  1683               	bcf	status, 6	;RP1=0, select bank1
  5386  0E6C  1303               	movf	(_d6Pin)^080h,w
  5387  0E6D  082D               	fcall	_digitalWrite
  5388  0E6E  120A  118A  2096  120A  158A  	line	173
  5389                           ;LCD16x2.c: 173:             digitalWrite(d5Pin,1);
  5390                           	clrf	(digitalWrite@value)
  5391  0E73  01F0               	incf	(digitalWrite@value),f
  5392  0E74  0AF0               	bsf	status, 5	;RP0=1, select bank1
  5393  0E75  1683               	bcf	status, 6	;RP1=0, select bank1
  5394  0E76  1303               	movf	(_d5Pin)^080h,w
  5395  0E77  082E               	fcall	_digitalWrite
  5396  0E78  120A  118A  2096  120A  158A  	line	174
  5397                           ;LCD16x2.c: 174:             digitalWrite(d4Pin,1);
  5398                           	clrf	(digitalWrite@value)
  5399  0E7D  01F0               	incf	(digitalWrite@value),f
  5400  0E7E  0AF0               	bsf	status, 5	;RP0=1, select bank1
  5401  0E7F  1683               	bcf	status, 6	;RP1=0, select bank1
  5402  0E80  1303               	movf	(_d4Pin)^080h,w
  5403  0E81  082F               	fcall	_digitalWrite
  5404  0E82  120A  118A  2096  120A  158A  	line	175
  5405                           ;LCD16x2.c: 175:             break;
  5406                           	goto	l454
  5407  0E87  2FFF               	line	176
  5408                           ;LCD16x2.c: 176:         case 0x08:
  5409                           	
  5410                           l446:	
  5411  0E88                     	line	177
  5412                           	
  5413                           l2773:	
  5414  0E88                     ;LCD16x2.c: 177:             digitalWrite(d7Pin,1);
  5415                           	clrf	(digitalWrite@value)
  5416  0E88  01F0               	incf	(digitalWrite@value),f
  5417  0E89  0AF0               	bsf	status, 5	;RP0=1, select bank1
  5418  0E8A  1683               	bcf	status, 6	;RP1=0, select bank1
  5419  0E8B  1303               	movf	(_d7Pin)^080h,w
  5420  0E8C  082C               	fcall	_digitalWrite
  5421  0E8D  120A  118A  2096  120A  158A  	line	178
  5422                           ;LCD16x2.c: 178:             digitalWrite(d6Pin,0);
  5423                           	clrf	(digitalWrite@value)
  5424  0E92  01F0               	bsf	status, 5	;RP0=1, select bank1
  5425  0E93  1683               	bcf	status, 6	;RP1=0, select bank1
  5426  0E94  1303               	movf	(_d6Pin)^080h,w
  5427  0E95  082D               	fcall	_digitalWrite
  5428  0E96  120A  118A  2096  120A  158A  	line	179
  5429                           ;LCD16x2.c: 179:             digitalWrite(d5Pin,0);
  5430                           	clrf	(digitalWrite@value)
  5431  0E9B  01F0               	bsf	status, 5	;RP0=1, select bank1
  5432  0E9C  1683               	bcf	status, 6	;RP1=0, select bank1
  5433  0E9D  1303               	movf	(_d5Pin)^080h,w
  5434  0E9E  082E               	fcall	_digitalWrite
  5435  0E9F  120A  118A  2096  120A  158A  	line	180
  5436                           ;LCD16x2.c: 180:             digitalWrite(d4Pin,0);
  5437                           	clrf	(digitalWrite@value)
  5438  0EA4  01F0               	bsf	status, 5	;RP0=1, select bank1
  5439  0EA5  1683               	bcf	status, 6	;RP1=0, select bank1
  5440  0EA6  1303               	movf	(_d4Pin)^080h,w
  5441  0EA7  082F               	fcall	_digitalWrite
  5442  0EA8  120A  118A  2096  120A  158A  	line	181
  5443                           ;LCD16x2.c: 181:             break;
  5444                           	goto	l454
  5445  0EAD  2FFF               	line	182
  5446                           ;LCD16x2.c: 182:         case 0x09:
  5447                           	
  5448                           l447:	
  5449  0EAE                     	line	183
  5450                           	
  5451                           l2775:	
  5452  0EAE                     ;LCD16x2.c: 183:             digitalWrite(d7Pin,1);
  5453                           	clrf	(digitalWrite@value)
  5454  0EAE  01F0               	incf	(digitalWrite@value),f
  5455  0EAF  0AF0               	bsf	status, 5	;RP0=1, select bank1
  5456  0EB0  1683               	bcf	status, 6	;RP1=0, select bank1
  5457  0EB1  1303               	movf	(_d7Pin)^080h,w
  5458  0EB2  082C               	fcall	_digitalWrite
  5459  0EB3  120A  118A  2096  120A  158A  	line	184
  5460                           ;LCD16x2.c: 184:             digitalWrite(d6Pin,0);
  5461                           	clrf	(digitalWrite@value)
  5462  0EB8  01F0               	bsf	status, 5	;RP0=1, select bank1
  5463  0EB9  1683               	bcf	status, 6	;RP1=0, select bank1
  5464  0EBA  1303               	movf	(_d6Pin)^080h,w
  5465  0EBB  082D               	fcall	_digitalWrite
  5466  0EBC  120A  118A  2096  120A  158A  	line	185
  5467                           ;LCD16x2.c: 185:             digitalWrite(d5Pin,0);
  5468                           	clrf	(digitalWrite@value)
  5469  0EC1  01F0               	bsf	status, 5	;RP0=1, select bank1
  5470  0EC2  1683               	bcf	status, 6	;RP1=0, select bank1
  5471  0EC3  1303               	movf	(_d5Pin)^080h,w
  5472  0EC4  082E               	fcall	_digitalWrite
  5473  0EC5  120A  118A  2096  120A  158A  	line	186
  5474                           ;LCD16x2.c: 186:             digitalWrite(d4Pin,1);
  5475                           	clrf	(digitalWrite@value)
  5476  0ECA  01F0               	incf	(digitalWrite@value),f
  5477  0ECB  0AF0               	bsf	status, 5	;RP0=1, select bank1
  5478  0ECC  1683               	bcf	status, 6	;RP1=0, select bank1
  5479  0ECD  1303               	movf	(_d4Pin)^080h,w
  5480  0ECE  082F               	fcall	_digitalWrite
  5481  0ECF  120A  118A  2096  120A  158A  	line	187
  5482                           ;LCD16x2.c: 187:             break;
  5483                           	goto	l454
  5484  0ED4  2FFF               	line	188
  5485                           ;LCD16x2.c: 188:         case 0x0A:
  5486                           	
  5487                           l448:	
  5488  0ED5                     	line	189
  5489                           	
  5490                           l2777:	
  5491  0ED5                     ;LCD16x2.c: 189:             digitalWrite(d7Pin,1);
  5492                           	clrf	(digitalWrite@value)
  5493  0ED5  01F0               	incf	(digitalWrite@value),f
  5494  0ED6  0AF0               	bsf	status, 5	;RP0=1, select bank1
  5495  0ED7  1683               	bcf	status, 6	;RP1=0, select bank1
  5496  0ED8  1303               	movf	(_d7Pin)^080h,w
  5497  0ED9  082C               	fcall	_digitalWrite
  5498  0EDA  120A  118A  2096  120A  158A  	line	190
  5499                           ;LCD16x2.c: 190:             digitalWrite(d6Pin,0);
  5500                           	clrf	(digitalWrite@value)
  5501  0EDF  01F0               	bsf	status, 5	;RP0=1, select bank1
  5502  0EE0  1683               	bcf	status, 6	;RP1=0, select bank1
  5503  0EE1  1303               	movf	(_d6Pin)^080h,w
  5504  0EE2  082D               	fcall	_digitalWrite
  5505  0EE3  120A  118A  2096  120A  158A  	line	191
  5506                           ;LCD16x2.c: 191:             digitalWrite(d5Pin,1);
  5507                           	clrf	(digitalWrite@value)
  5508  0EE8  01F0               	incf	(digitalWrite@value),f
  5509  0EE9  0AF0               	bsf	status, 5	;RP0=1, select bank1
  5510  0EEA  1683               	bcf	status, 6	;RP1=0, select bank1
  5511  0EEB  1303               	movf	(_d5Pin)^080h,w
  5512  0EEC  082E               	fcall	_digitalWrite
  5513  0EED  120A  118A  2096  120A  158A  	line	192
  5514                           ;LCD16x2.c: 192:             digitalWrite(d4Pin,0);
  5515                           	clrf	(digitalWrite@value)
  5516  0EF2  01F0               	bsf	status, 5	;RP0=1, select bank1
  5517  0EF3  1683               	bcf	status, 6	;RP1=0, select bank1
  5518  0EF4  1303               	movf	(_d4Pin)^080h,w
  5519  0EF5  082F               	fcall	_digitalWrite
  5520  0EF6  120A  118A  2096  120A  158A  	line	193
  5521                           ;LCD16x2.c: 193:             break;
  5522                           	goto	l454
  5523  0EFB  2FFF               	line	194
  5524                           ;LCD16x2.c: 194:         case 0x0B:
  5525                           	
  5526                           l449:	
  5527  0EFC                     	line	195
  5528                           	
  5529                           l2779:	
  5530  0EFC                     ;LCD16x2.c: 195:             digitalWrite(d7Pin,1);
  5531                           	clrf	(digitalWrite@value)
  5532  0EFC  01F0               	incf	(digitalWrite@value),f
  5533  0EFD  0AF0               	bsf	status, 5	;RP0=1, select bank1
  5534  0EFE  1683               	bcf	status, 6	;RP1=0, select bank1
  5535  0EFF  1303               	movf	(_d7Pin)^080h,w
  5536  0F00  082C               	fcall	_digitalWrite
  5537  0F01  120A  118A  2096  120A  158A  	line	196
  5538                           ;LCD16x2.c: 196:             digitalWrite(d6Pin,0);
  5539                           	clrf	(digitalWrite@value)
  5540  0F06  01F0               	bsf	status, 5	;RP0=1, select bank1
  5541  0F07  1683               	bcf	status, 6	;RP1=0, select bank1
  5542  0F08  1303               	movf	(_d6Pin)^080h,w
  5543  0F09  082D               	fcall	_digitalWrite
  5544  0F0A  120A  118A  2096  120A  158A  	line	197
  5545                           ;LCD16x2.c: 197:             digitalWrite(d5Pin,1);
  5546                           	clrf	(digitalWrite@value)
  5547  0F0F  01F0               	incf	(digitalWrite@value),f
  5548  0F10  0AF0               	bsf	status, 5	;RP0=1, select bank1
  5549  0F11  1683               	bcf	status, 6	;RP1=0, select bank1
  5550  0F12  1303               	movf	(_d5Pin)^080h,w
  5551  0F13  082E               	fcall	_digitalWrite
  5552  0F14  120A  118A  2096  120A  158A  	line	198
  5553                           ;LCD16x2.c: 198:             digitalWrite(d4Pin,1);
  5554                           	clrf	(digitalWrite@value)
  5555  0F19  01F0               	incf	(digitalWrite@value),f
  5556  0F1A  0AF0               	bsf	status, 5	;RP0=1, select bank1
  5557  0F1B  1683               	bcf	status, 6	;RP1=0, select bank1
  5558  0F1C  1303               	movf	(_d4Pin)^080h,w
  5559  0F1D  082F               	fcall	_digitalWrite
  5560  0F1E  120A  118A  2096  120A  158A  	line	199
  5561                           ;LCD16x2.c: 199:             break;
  5562                           	goto	l454
  5563  0F23  2FFF               	line	200
  5564                           ;LCD16x2.c: 200:         case 0x0C:
  5565                           	
  5566                           l450:	
  5567  0F24                     	line	201
  5568                           	
  5569                           l2781:	
  5570  0F24                     ;LCD16x2.c: 201:             digitalWrite(d7Pin,1);
  5571                           	clrf	(digitalWrite@value)
  5572  0F24  01F0               	incf	(digitalWrite@value),f
  5573  0F25  0AF0               	bsf	status, 5	;RP0=1, select bank1
  5574  0F26  1683               	bcf	status, 6	;RP1=0, select bank1
  5575  0F27  1303               	movf	(_d7Pin)^080h,w
  5576  0F28  082C               	fcall	_digitalWrite
  5577  0F29  120A  118A  2096  120A  158A  	line	202
  5578                           ;LCD16x2.c: 202:             digitalWrite(d6Pin,1);
  5579                           	clrf	(digitalWrite@value)
  5580  0F2E  01F0               	incf	(digitalWrite@value),f
  5581  0F2F  0AF0               	bsf	status, 5	;RP0=1, select bank1
  5582  0F30  1683               	bcf	status, 6	;RP1=0, select bank1
  5583  0F31  1303               	movf	(_d6Pin)^080h,w
  5584  0F32  082D               	fcall	_digitalWrite
  5585  0F33  120A  118A  2096  120A  158A  	line	203
  5586                           ;LCD16x2.c: 203:             digitalWrite(d5Pin,0);
  5587                           	clrf	(digitalWrite@value)
  5588  0F38  01F0               	bsf	status, 5	;RP0=1, select bank1
  5589  0F39  1683               	bcf	status, 6	;RP1=0, select bank1
  5590  0F3A  1303               	movf	(_d5Pin)^080h,w
  5591  0F3B  082E               	fcall	_digitalWrite
  5592  0F3C  120A  118A  2096  120A  158A  	line	204
  5593                           ;LCD16x2.c: 204:             digitalWrite(d4Pin,0);
  5594                           	clrf	(digitalWrite@value)
  5595  0F41  01F0               	bsf	status, 5	;RP0=1, select bank1
  5596  0F42  1683               	bcf	status, 6	;RP1=0, select bank1
  5597  0F43  1303               	movf	(_d4Pin)^080h,w
  5598  0F44  082F               	fcall	_digitalWrite
  5599  0F45  120A  118A  2096  120A  158A  	line	205
  5600                           ;LCD16x2.c: 205:             break;
  5601                           	goto	l454
  5602  0F4A  2FFF               	line	206
  5603                           ;LCD16x2.c: 206:         case 0x0D:
  5604                           	
  5605                           l451:	
  5606  0F4B                     	line	207
  5607                           	
  5608                           l2783:	
  5609  0F4B                     ;LCD16x2.c: 207:             digitalWrite(d7Pin,1);
  5610                           	clrf	(digitalWrite@value)
  5611  0F4B  01F0               	incf	(digitalWrite@value),f
  5612  0F4C  0AF0               	bsf	status, 5	;RP0=1, select bank1
  5613  0F4D  1683               	bcf	status, 6	;RP1=0, select bank1
  5614  0F4E  1303               	movf	(_d7Pin)^080h,w
  5615  0F4F  082C               	fcall	_digitalWrite
  5616  0F50  120A  118A  2096  120A  158A  	line	208
  5617                           ;LCD16x2.c: 208:             digitalWrite(d6Pin,1);
  5618                           	clrf	(digitalWrite@value)
  5619  0F55  01F0               	incf	(digitalWrite@value),f
  5620  0F56  0AF0               	bsf	status, 5	;RP0=1, select bank1
  5621  0F57  1683               	bcf	status, 6	;RP1=0, select bank1
  5622  0F58  1303               	movf	(_d6Pin)^080h,w
  5623  0F59  082D               	fcall	_digitalWrite
  5624  0F5A  120A  118A  2096  120A  158A  	line	209
  5625                           ;LCD16x2.c: 209:             digitalWrite(d5Pin,0);
  5626                           	clrf	(digitalWrite@value)
  5627  0F5F  01F0               	bsf	status, 5	;RP0=1, select bank1
  5628  0F60  1683               	bcf	status, 6	;RP1=0, select bank1
  5629  0F61  1303               	movf	(_d5Pin)^080h,w
  5630  0F62  082E               	fcall	_digitalWrite
  5631  0F63  120A  118A  2096  120A  158A  	line	210
  5632                           ;LCD16x2.c: 210:             digitalWrite(d4Pin,1);
  5633                           	clrf	(digitalWrite@value)
  5634  0F68  01F0               	incf	(digitalWrite@value),f
  5635  0F69  0AF0               	bsf	status, 5	;RP0=1, select bank1
  5636  0F6A  1683               	bcf	status, 6	;RP1=0, select bank1
  5637  0F6B  1303               	movf	(_d4Pin)^080h,w
  5638  0F6C  082F               	fcall	_digitalWrite
  5639  0F6D  120A  118A  2096  120A  158A  	line	211
  5640                           ;LCD16x2.c: 211:             break;
  5641                           	goto	l454
  5642  0F72  2FFF               	line	212
  5643                           ;LCD16x2.c: 212:         case 0x0E:
  5644                           	
  5645                           l452:	
  5646  0F73                     	line	213
  5647                           	
  5648                           l2785:	
  5649  0F73                     ;LCD16x2.c: 213:             digitalWrite(d7Pin,1);
  5650                           	clrf	(digitalWrite@value)
  5651  0F73  01F0               	incf	(digitalWrite@value),f
  5652  0F74  0AF0               	bsf	status, 5	;RP0=1, select bank1
  5653  0F75  1683               	bcf	status, 6	;RP1=0, select bank1
  5654  0F76  1303               	movf	(_d7Pin)^080h,w
  5655  0F77  082C               	fcall	_digitalWrite
  5656  0F78  120A  118A  2096  120A  158A  	line	214
  5657                           ;LCD16x2.c: 214:             digitalWrite(d6Pin,1);
  5658                           	clrf	(digitalWrite@value)
  5659  0F7D  01F0               	incf	(digitalWrite@value),f
  5660  0F7E  0AF0               	bsf	status, 5	;RP0=1, select bank1
  5661  0F7F  1683               	bcf	status, 6	;RP1=0, select bank1
  5662  0F80  1303               	movf	(_d6Pin)^080h,w
  5663  0F81  082D               	fcall	_digitalWrite
  5664  0F82  120A  118A  2096  120A  158A  	line	215
  5665                           ;LCD16x2.c: 215:             digitalWrite(d5Pin,1);
  5666                           	clrf	(digitalWrite@value)
  5667  0F87  01F0               	incf	(digitalWrite@value),f
  5668  0F88  0AF0               	bsf	status, 5	;RP0=1, select bank1
  5669  0F89  1683               	bcf	status, 6	;RP1=0, select bank1
  5670  0F8A  1303               	movf	(_d5Pin)^080h,w
  5671  0F8B  082E               	fcall	_digitalWrite
  5672  0F8C  120A  118A  2096  120A  158A  	line	216
  5673                           ;LCD16x2.c: 216:             digitalWrite(d4Pin,0);
  5674                           	clrf	(digitalWrite@value)
  5675  0F91  01F0               	bsf	status, 5	;RP0=1, select bank1
  5676  0F92  1683               	bcf	status, 6	;RP1=0, select bank1
  5677  0F93  1303               	movf	(_d4Pin)^080h,w
  5678  0F94  082F               	fcall	_digitalWrite
  5679  0F95  120A  118A  2096  120A  158A  	line	217
  5680                           ;LCD16x2.c: 217:             break;
  5681                           	goto	l454
  5682  0F9A  2FFF               	line	218
  5683                           ;LCD16x2.c: 218:         case 0x0F:
  5684                           	
  5685                           l453:	
  5686  0F9B                     	line	219
  5687                           	
  5688                           l2787:	
  5689  0F9B                     ;LCD16x2.c: 219:             digitalWrite(d7Pin,1);
  5690                           	clrf	(digitalWrite@value)
  5691  0F9B  01F0               	incf	(digitalWrite@value),f
  5692  0F9C  0AF0               	bsf	status, 5	;RP0=1, select bank1
  5693  0F9D  1683               	bcf	status, 6	;RP1=0, select bank1
  5694  0F9E  1303               	movf	(_d7Pin)^080h,w
  5695  0F9F  082C               	fcall	_digitalWrite
  5696  0FA0  120A  118A  2096  120A  158A  	line	220
  5697                           ;LCD16x2.c: 220:             digitalWrite(d6Pin,1);
  5698                           	clrf	(digitalWrite@value)
  5699  0FA5  01F0               	incf	(digitalWrite@value),f
  5700  0FA6  0AF0               	bsf	status, 5	;RP0=1, select bank1
  5701  0FA7  1683               	bcf	status, 6	;RP1=0, select bank1
  5702  0FA8  1303               	movf	(_d6Pin)^080h,w
  5703  0FA9  082D               	fcall	_digitalWrite
  5704  0FAA  120A  118A  2096  120A  158A  	line	221
  5705                           ;LCD16x2.c: 221:             digitalWrite(d5Pin,1);
  5706                           	clrf	(digitalWrite@value)
  5707  0FAF  01F0               	incf	(digitalWrite@value),f
  5708  0FB0  0AF0               	bsf	status, 5	;RP0=1, select bank1
  5709  0FB1  1683               	bcf	status, 6	;RP1=0, select bank1
  5710  0FB2  1303               	movf	(_d5Pin)^080h,w
  5711  0FB3  082E               	fcall	_digitalWrite
  5712  0FB4  120A  118A  2096  120A  158A  	line	222
  5713                           ;LCD16x2.c: 222:             digitalWrite(d4Pin,1);
  5714                           	clrf	(digitalWrite@value)
  5715  0FB9  01F0               	incf	(digitalWrite@value),f
  5716  0FBA  0AF0               	bsf	status, 5	;RP0=1, select bank1
  5717  0FBB  1683               	bcf	status, 6	;RP1=0, select bank1
  5718  0FBC  1303               	movf	(_d4Pin)^080h,w
  5719  0FBD  082F               	fcall	_digitalWrite
  5720  0FBE  120A  118A  2096  120A  158A  	line	223
  5721                           ;LCD16x2.c: 223:             break;
  5722                           	goto	l454
  5723  0FC3  2FFF               	line	224
  5724                           	
  5725                           l2789:	
  5726  0FC4                     ;LCD16x2.c: 224:     }
  5727                           	goto	l454
  5728  0FC4  2FFF               	
  5729                           l436:	
  5730  0FC5                     	
  5731                           l2791:	
  5732  0FC5                     	movf	(ByteByNibble@NibbleValue),w
  5733  0FC5  0876               	movwf	(??_ByteByNibble+0)+0
  5734  0FC6  00F4               	clrf	(??_ByteByNibble+0)+0+1
  5735  0FC7  01F5               	; Switch on 2 bytes has been partitioned into a top level switch of size 1, and 1 sub-s
                                 witches
  5736                           ; Switch size 1, requested type "space"
  5737                           ; Number of cases is 1, Range of values is 0 to 0
  5738                           ; switch strategies available:
  5739                           ; Name         Instructions Cycles
  5740                           ; simple_byte            4     3 (average)
  5741                           ; direct_byte           11     8 (fixed)
  5742                           ; jumptable            260     6 (fixed)
  5743                           ;	Chosen strategy is simple_byte
  5744                           
  5745                           	movf 1+(??_ByteByNibble+0)+0,w
  5746  0FC8  0875               	opt asmopt_push
  5747                           	opt asmopt_off
  5748                           	xorlw	0^0	; case 0
  5749  0FC9  3A00               	skipnz
  5750  0FCA  1903               	goto	l3861
  5751  0FCB  2FCD               	goto	l454
  5752  0FCC  2FFF               	opt asmopt_pop
  5753                           	
  5754                           l3861:	
  5755  0FCD                     ; Switch size 1, requested type "space"
  5756                           ; Number of cases is 16, Range of values is 0 to 15
  5757                           ; switch strategies available:
  5758                           ; Name         Instructions Cycles
  5759                           ; simple_byte           49    25 (average)
  5760                           ; direct_byte           56     8 (fixed)
  5761                           ; jumptable            260     6 (fixed)
  5762                           ;	Chosen strategy is simple_byte
  5763                           
  5764                           	movf 0+(??_ByteByNibble+0)+0,w
  5765  0FCD  0874               	opt asmopt_push
  5766                           	opt asmopt_off
  5767                           	xorlw	0^0	; case 0
  5768  0FCE  3A00               	skipnz
  5769  0FCF  1903               	goto	l2757
  5770  0FD0  2D54               	xorlw	1^0	; case 1
  5771  0FD1  3A01               	skipnz
  5772  0FD2  1903               	goto	l2759
  5773  0FD3  2D79               	xorlw	2^1	; case 2
  5774  0FD4  3A03               	skipnz
  5775  0FD5  1903               	goto	l2761
  5776  0FD6  2D9F               	xorlw	3^2	; case 3
  5777  0FD7  3A01               	skipnz
  5778  0FD8  1903               	goto	l2763
  5779  0FD9  2DC5               	xorlw	4^3	; case 4
  5780  0FDA  3A07               	skipnz
  5781  0FDB  1903               	goto	l2765
  5782  0FDC  2DEC               	xorlw	5^4	; case 5
  5783  0FDD  3A01               	skipnz
  5784  0FDE  1903               	goto	l2767
  5785  0FDF  2E12               	xorlw	6^5	; case 6
  5786  0FE0  3A03               	skipnz
  5787  0FE1  1903               	goto	l2769
  5788  0FE2  2E39               	xorlw	7^6	; case 7
  5789  0FE3  3A01               	skipnz
  5790  0FE4  1903               	goto	l2771
  5791  0FE5  2E60               	xorlw	8^7	; case 8
  5792  0FE6  3A0F               	skipnz
  5793  0FE7  1903               	goto	l2773
  5794  0FE8  2E88               	xorlw	9^8	; case 9
  5795  0FE9  3A01               	skipnz
  5796  0FEA  1903               	goto	l2775
  5797  0FEB  2EAE               	xorlw	10^9	; case 10
  5798  0FEC  3A03               	skipnz
  5799  0FED  1903               	goto	l2777
  5800  0FEE  2ED5               	xorlw	11^10	; case 11
  5801  0FEF  3A01               	skipnz
  5802  0FF0  1903               	goto	l2779
  5803  0FF1  2EFC               	xorlw	12^11	; case 12
  5804  0FF2  3A07               	skipnz
  5805  0FF3  1903               	goto	l2781
  5806  0FF4  2F24               	xorlw	13^12	; case 13
  5807  0FF5  3A01               	skipnz
  5808  0FF6  1903               	goto	l2783
  5809  0FF7  2F4B               	xorlw	14^13	; case 14
  5810  0FF8  3A03               	skipnz
  5811  0FF9  1903               	goto	l2785
  5812  0FFA  2F73               	xorlw	15^14	; case 15
  5813  0FFB  3A01               	skipnz
  5814  0FFC  1903               	goto	l2787
  5815  0FFD  2F9B               	goto	l454
  5816  0FFE  2FFF               	opt asmopt_pop
  5817                           
  5818                           	
  5819                           l438:	
  5820  0FFF                     	line	225
  5821                           	
  5822                           l454:	
  5823  0FFF                     	return
  5824  0FFF  0008               	opt stack 0
  5825                           GLOBAL	__end_of_ByteByNibble
  5826                           	__end_of_ByteByNibble:
  5827  1000                     	signat	_ByteByNibble,4217
  5828                           	global	_digitalWrite
  5829                           
  5830 ;; *************** function _digitalWrite *****************
  5831 ;; Defined at:
  5832 ;;		line 166 in file "Hormiga877.c"
  5833 ;; Parameters:    Size  Location     Type
  5834 ;;  pin             1    wreg     unsigned char 
  5835 ;;  value           1    0[COMMON] unsigned char 
  5836 ;; Auto vars:     Size  Location     Type
  5837 ;;  pin             1    3[COMMON] unsigned char 
  5838 ;; Return value:  Size  Location     Type
  5839 ;;                  1    wreg      void 
  5840 ;; Registers used:
  5841 ;;		wreg, fsr0l, fsr0h, status,2, status,0
  5842 ;; Tracked objects:
  5843 ;;		On entry : 0/0
  5844 ;;		On exit  : 0/0
  5845 ;;		Unchanged: 0/0
  5846 ;; Data sizes:     COMMON   BANK0   BANK1   BANK3   BANK2
  5847 ;;      Params:         1       0       0       0       0
  5848 ;;      Locals:         1       0       0       0       0
  5849 ;;      Temps:          2       0       0       0       0
  5850 ;;      Totals:         4       0       0       0       0
  5851 ;;Total ram usage:        4 bytes
  5852 ;; Hardware stack levels used:    1
  5853 ;; This function calls:
  5854 ;;		Nothing
  5855 ;; This function is called by:
  5856 ;;		_loop
  5857 ;;		_WriteInstruction
  5858 ;;		_WriteData
  5859 ;;		_ByteByNibble
  5860 ;; This function uses a non-reentrant model
  5861 ;;
  5862                           psect	text16,local,class=CODE,delta=2,merge=1,group=0
  5863                           	file	"Hormiga877.c"
  5864                           	line	166
  5865                           global __ptext16
  5866                           __ptext16:	;psect for function _digitalWrite
  5867  0096                     psect	text16
  5868                           	file	"Hormiga877.c"
  5869                           	line	166
  5870                           	global	__size_of_digitalWrite
  5871                           	__size_of_digitalWrite	equ	__end_of_digitalWrite-_digitalWrite
  5872  0123                     	
  5873                           _digitalWrite:	
  5874  0096                     ;incstack = 0
  5875                           	opt	stack 4
  5876                           ; Regs used in _digitalWrite: [wreg-fsr0h+status,2+status,0]
  5877                           ;digitalWrite@pin stored from wreg
  5878                           	movwf	(digitalWrite@pin)
  5879  0096  00F3               	line	168
  5880                           	
  5881                           l2673:	
  5882  0097                     ;Hormiga877.c: 166: void digitalWrite(char pin, char value);Hormiga877.c: 167: {;Hormiga
                                 877.c: 168:     switch(pin)
  5883                           	goto	l2731
  5884  0097  2963               	line	170
  5885                           ;Hormiga877.c: 169:     {;Hormiga877.c: 170:         case 0:
  5886                           	
  5887                           l203:	
  5888  0098                     	line	171
  5889                           	
  5890                           l2675:	
  5891  0098                     ;Hormiga877.c: 171:             PORTCbits.RC7 = value;
  5892                           	rrf	(digitalWrite@value),w
  5893  0098  0C70               	bcf	status, 5	;RP0=0, select bank0
  5894  0099  1283               	bcf	status, 6	;RP1=0, select bank0
  5895  009A  1303               	skipc
  5896  009B  1C03               	bcf	(7),7	;volatile
  5897  009C  1387               	skipnc
  5898  009D  1803               	bsf	(7),7	;volatile
  5899  009E  1787               	line	172
  5900                           ;Hormiga877.c: 172:             break;
  5901                           	goto	l229
  5902  009F  29B8               	line	173
  5903                           ;Hormiga877.c: 173:         case 1:
  5904                           	
  5905                           l205:	
  5906  00A0                     	line	174
  5907                           	
  5908                           l2677:	
  5909  00A0                     ;Hormiga877.c: 174:             PORTCbits.RC6 = value;
  5910                           	rrf	(digitalWrite@value),w
  5911  00A0  0C70               	bcf	status, 5	;RP0=0, select bank0
  5912  00A1  1283               	bcf	status, 6	;RP1=0, select bank0
  5913  00A2  1303               	skipc
  5914  00A3  1C03               	bcf	(7),6	;volatile
  5915  00A4  1307               	skipnc
  5916  00A5  1803               	bsf	(7),6	;volatile
  5917  00A6  1707               	line	175
  5918                           ;Hormiga877.c: 175:             break;
  5919                           	goto	l229
  5920  00A7  29B8               	line	176
  5921                           ;Hormiga877.c: 176:         case 2:
  5922                           	
  5923                           l206:	
  5924  00A8                     	line	177
  5925                           	
  5926                           l2679:	
  5927  00A8                     ;Hormiga877.c: 177:             PORTCbits.RC5 = value;
  5928                           	rrf	(digitalWrite@value),w
  5929  00A8  0C70               	bcf	status, 5	;RP0=0, select bank0
  5930  00A9  1283               	bcf	status, 6	;RP1=0, select bank0
  5931  00AA  1303               	skipc
  5932  00AB  1C03               	bcf	(7),5	;volatile
  5933  00AC  1287               	skipnc
  5934  00AD  1803               	bsf	(7),5	;volatile
  5935  00AE  1687               	line	178
  5936                           ;Hormiga877.c: 178:             break;
  5937                           	goto	l229
  5938  00AF  29B8               	line	179
  5939                           ;Hormiga877.c: 179:         case 3:
  5940                           	
  5941                           l207:	
  5942  00B0                     	line	180
  5943                           	
  5944                           l2681:	
  5945  00B0                     ;Hormiga877.c: 180:             PORTCbits.RC4 = value;
  5946                           	rrf	(digitalWrite@value),w
  5947  00B0  0C70               	bcf	status, 5	;RP0=0, select bank0
  5948  00B1  1283               	bcf	status, 6	;RP1=0, select bank0
  5949  00B2  1303               	skipc
  5950  00B3  1C03               	bcf	(7),4	;volatile
  5951  00B4  1207               	skipnc
  5952  00B5  1803               	bsf	(7),4	;volatile
  5953  00B6  1607               	line	181
  5954                           ;Hormiga877.c: 181:             break;
  5955                           	goto	l229
  5956  00B7  29B8               	line	182
  5957                           ;Hormiga877.c: 182:         case 4:
  5958                           	
  5959                           l208:	
  5960  00B8                     	line	183
  5961                           	
  5962                           l2683:	
  5963  00B8                     ;Hormiga877.c: 183:             PORTCbits.RC3 = value;
  5964                           	rrf	(digitalWrite@value),w
  5965  00B8  0C70               	bcf	status, 5	;RP0=0, select bank0
  5966  00B9  1283               	bcf	status, 6	;RP1=0, select bank0
  5967  00BA  1303               	skipc
  5968  00BB  1C03               	bcf	(7),3	;volatile
  5969  00BC  1187               	skipnc
  5970  00BD  1803               	bsf	(7),3	;volatile
  5971  00BE  1587               	line	184
  5972                           ;Hormiga877.c: 184:             break;
  5973                           	goto	l229
  5974  00BF  29B8               	line	185
  5975                           ;Hormiga877.c: 185:         case 5:
  5976                           	
  5977                           l209:	
  5978  00C0                     	line	186
  5979                           	
  5980                           l2685:	
  5981  00C0                     ;Hormiga877.c: 186:             CCP1CON = 0x00;
  5982                           	bcf	status, 5	;RP0=0, select bank0
  5983  00C0  1283               	bcf	status, 6	;RP1=0, select bank0
  5984  00C1  1303               	clrf	(23)	;volatile
  5985  00C2  0197               	line	187
  5986                           	
  5987                           l2687:	
  5988  00C3                     ;Hormiga877.c: 187:             PORTCbits.RC2 = value;
  5989                           	rrf	(digitalWrite@value),w
  5990  00C3  0C70               	skipc
  5991  00C4  1C03               	bcf	(7),2	;volatile
  5992  00C5  1107               	skipnc
  5993  00C6  1803               	bsf	(7),2	;volatile
  5994  00C7  1507               	line	188
  5995                           ;Hormiga877.c: 188:             break;
  5996                           	goto	l229
  5997  00C8  29B8               	line	189
  5998                           ;Hormiga877.c: 189:         case 6:
  5999                           	
  6000                           l210:	
  6001  00C9                     	line	190
  6002                           	
  6003                           l2689:	
  6004  00C9                     ;Hormiga877.c: 190:             CCP2CON = 0x00;
  6005                           	bcf	status, 5	;RP0=0, select bank0
  6006  00C9  1283               	bcf	status, 6	;RP1=0, select bank0
  6007  00CA  1303               	clrf	(29)	;volatile
  6008  00CB  019D               	line	191
  6009                           	
  6010                           l2691:	
  6011  00CC                     ;Hormiga877.c: 191:             PORTCbits.RC1 = value;
  6012                           	rrf	(digitalWrite@value),w
  6013  00CC  0C70               	skipc
  6014  00CD  1C03               	bcf	(7),1	;volatile
  6015  00CE  1087               	skipnc
  6016  00CF  1803               	bsf	(7),1	;volatile
  6017  00D0  1487               	line	192
  6018                           ;Hormiga877.c: 192:             break;
  6019                           	goto	l229
  6020  00D1  29B8               	line	193
  6021                           ;Hormiga877.c: 193:         case 7:
  6022                           	
  6023                           l211:	
  6024  00D2                     	line	194
  6025                           	
  6026                           l2693:	
  6027  00D2                     ;Hormiga877.c: 194:             PORTCbits.RC0 = value;
  6028                           	rrf	(digitalWrite@value),w
  6029  00D2  0C70               	bcf	status, 5	;RP0=0, select bank0
  6030  00D3  1283               	bcf	status, 6	;RP1=0, select bank0
  6031  00D4  1303               	skipc
  6032  00D5  1C03               	bcf	(7),0	;volatile
  6033  00D6  1007               	skipnc
  6034  00D7  1803               	bsf	(7),0	;volatile
  6035  00D8  1407               	line	195
  6036                           ;Hormiga877.c: 195:             break;
  6037                           	goto	l229
  6038  00D9  29B8               	line	196
  6039                           ;Hormiga877.c: 196:         case 8:
  6040                           	
  6041                           l212:	
  6042  00DA                     	line	197
  6043                           	
  6044                           l2695:	
  6045  00DA                     ;Hormiga877.c: 197:             PORTBbits.RB0 = value;
  6046                           	rrf	(digitalWrite@value),w
  6047  00DA  0C70               	bcf	status, 5	;RP0=0, select bank0
  6048  00DB  1283               	bcf	status, 6	;RP1=0, select bank0
  6049  00DC  1303               	skipc
  6050  00DD  1C03               	bcf	(6),0	;volatile
  6051  00DE  1006               	skipnc
  6052  00DF  1803               	bsf	(6),0	;volatile
  6053  00E0  1406               	line	198
  6054                           ;Hormiga877.c: 198:             break;
  6055                           	goto	l229
  6056  00E1  29B8               	line	199
  6057                           ;Hormiga877.c: 199:         case 9:
  6058                           	
  6059                           l213:	
  6060  00E2                     	line	200
  6061                           	
  6062                           l2697:	
  6063  00E2                     ;Hormiga877.c: 200:             PORTBbits.RB1 = value;
  6064                           	rrf	(digitalWrite@value),w
  6065  00E2  0C70               	bcf	status, 5	;RP0=0, select bank0
  6066  00E3  1283               	bcf	status, 6	;RP1=0, select bank0
  6067  00E4  1303               	skipc
  6068  00E5  1C03               	bcf	(6),1	;volatile
  6069  00E6  1086               	skipnc
  6070  00E7  1803               	bsf	(6),1	;volatile
  6071  00E8  1486               	line	201
  6072                           ;Hormiga877.c: 201:             break;
  6073                           	goto	l229
  6074  00E9  29B8               	line	202
  6075                           ;Hormiga877.c: 202:         case 10:
  6076                           	
  6077                           l214:	
  6078  00EA                     	line	203
  6079                           	
  6080                           l2699:	
  6081  00EA                     ;Hormiga877.c: 203:             PORTBbits.RB2 = value;
  6082                           	rrf	(digitalWrite@value),w
  6083  00EA  0C70               	bcf	status, 5	;RP0=0, select bank0
  6084  00EB  1283               	bcf	status, 6	;RP1=0, select bank0
  6085  00EC  1303               	skipc
  6086  00ED  1C03               	bcf	(6),2	;volatile
  6087  00EE  1106               	skipnc
  6088  00EF  1803               	bsf	(6),2	;volatile
  6089  00F0  1506               	line	204
  6090                           ;Hormiga877.c: 204:             break;
  6091                           	goto	l229
  6092  00F1  29B8               	line	205
  6093                           ;Hormiga877.c: 205:         case 11:
  6094                           	
  6095                           l215:	
  6096  00F2                     	line	206
  6097                           	
  6098                           l2701:	
  6099  00F2                     ;Hormiga877.c: 206:             PORTBbits.RB3 = value;
  6100                           	rrf	(digitalWrite@value),w
  6101  00F2  0C70               	bcf	status, 5	;RP0=0, select bank0
  6102  00F3  1283               	bcf	status, 6	;RP1=0, select bank0
  6103  00F4  1303               	skipc
  6104  00F5  1C03               	bcf	(6),3	;volatile
  6105  00F6  1186               	skipnc
  6106  00F7  1803               	bsf	(6),3	;volatile
  6107  00F8  1586               	line	207
  6108                           ;Hormiga877.c: 207:             break;
  6109                           	goto	l229
  6110  00F9  29B8               	line	208
  6111                           ;Hormiga877.c: 208:         case 12:
  6112                           	
  6113                           l216:	
  6114  00FA                     	line	209
  6115                           	
  6116                           l2703:	
  6117  00FA                     ;Hormiga877.c: 209:             PORTBbits.RB4 = value;
  6118                           	rrf	(digitalWrite@value),w
  6119  00FA  0C70               	bcf	status, 5	;RP0=0, select bank0
  6120  00FB  1283               	bcf	status, 6	;RP1=0, select bank0
  6121  00FC  1303               	skipc
  6122  00FD  1C03               	bcf	(6),4	;volatile
  6123  00FE  1206               	skipnc
  6124  00FF  1803               	bsf	(6),4	;volatile
  6125  0100  1606               	line	210
  6126                           ;Hormiga877.c: 210:             break;
  6127                           	goto	l229
  6128  0101  29B8               	line	211
  6129                           ;Hormiga877.c: 211:         case 13:
  6130                           	
  6131                           l217:	
  6132  0102                     	line	212
  6133                           	
  6134                           l2705:	
  6135  0102                     ;Hormiga877.c: 212:             PORTBbits.RB5 = value;
  6136                           	rrf	(digitalWrite@value),w
  6137  0102  0C70               	bcf	status, 5	;RP0=0, select bank0
  6138  0103  1283               	bcf	status, 6	;RP1=0, select bank0
  6139  0104  1303               	skipc
  6140  0105  1C03               	bcf	(6),5	;volatile
  6141  0106  1286               	skipnc
  6142  0107  1803               	bsf	(6),5	;volatile
  6143  0108  1686               	line	213
  6144                           ;Hormiga877.c: 213:             break;
  6145                           	goto	l229
  6146  0109  29B8               	line	214
  6147                           ;Hormiga877.c: 214:         case 14:
  6148                           	
  6149                           l218:	
  6150  010A                     	line	215
  6151                           	
  6152                           l2707:	
  6153  010A                     ;Hormiga877.c: 215:             PORTBbits.RB6 = value;
  6154                           	rrf	(digitalWrite@value),w
  6155  010A  0C70               	bcf	status, 5	;RP0=0, select bank0
  6156  010B  1283               	bcf	status, 6	;RP1=0, select bank0
  6157  010C  1303               	skipc
  6158  010D  1C03               	bcf	(6),6	;volatile
  6159  010E  1306               	skipnc
  6160  010F  1803               	bsf	(6),6	;volatile
  6161  0110  1706               	line	216
  6162                           ;Hormiga877.c: 216:             break;
  6163                           	goto	l229
  6164  0111  29B8               	line	217
  6165                           ;Hormiga877.c: 217:         case 15:
  6166                           	
  6167                           l219:	
  6168  0112                     	line	218
  6169                           	
  6170                           l2709:	
  6171  0112                     ;Hormiga877.c: 218:             PORTBbits.RB7 = value;
  6172                           	rrf	(digitalWrite@value),w
  6173  0112  0C70               	bcf	status, 5	;RP0=0, select bank0
  6174  0113  1283               	bcf	status, 6	;RP1=0, select bank0
  6175  0114  1303               	skipc
  6176  0115  1C03               	bcf	(6),7	;volatile
  6177  0116  1386               	skipnc
  6178  0117  1803               	bsf	(6),7	;volatile
  6179  0118  1786               	line	219
  6180                           ;Hormiga877.c: 219:             break;
  6181                           	goto	l229
  6182  0119  29B8               	line	220
  6183                           ;Hormiga877.c: 220:         case 16:
  6184                           	
  6185                           l220:	
  6186  011A                     	line	221
  6187                           	
  6188                           l2711:	
  6189  011A                     ;Hormiga877.c: 221:             PORTDbits.RD0 = value;
  6190                           	rrf	(digitalWrite@value),w
  6191  011A  0C70               	bcf	status, 5	;RP0=0, select bank0
  6192  011B  1283               	bcf	status, 6	;RP1=0, select bank0
  6193  011C  1303               	skipc
  6194  011D  1C03               	bcf	(8),0	;volatile
  6195  011E  1008               	skipnc
  6196  011F  1803               	bsf	(8),0	;volatile
  6197  0120  1408               	line	222
  6198                           ;Hormiga877.c: 222:             break;
  6199                           	goto	l229
  6200  0121  29B8               	line	223
  6201                           ;Hormiga877.c: 223:         case 17:
  6202                           	
  6203                           l221:	
  6204  0122                     	line	224
  6205                           	
  6206                           l2713:	
  6207  0122                     ;Hormiga877.c: 224:             PORTDbits.RD1 = value;
  6208                           	rrf	(digitalWrite@value),w
  6209  0122  0C70               	bcf	status, 5	;RP0=0, select bank0
  6210  0123  1283               	bcf	status, 6	;RP1=0, select bank0
  6211  0124  1303               	skipc
  6212  0125  1C03               	bcf	(8),1	;volatile
  6213  0126  1088               	skipnc
  6214  0127  1803               	bsf	(8),1	;volatile
  6215  0128  1488               	line	225
  6216                           ;Hormiga877.c: 225:             break;
  6217                           	goto	l229
  6218  0129  29B8               	line	226
  6219                           ;Hormiga877.c: 226:         case 18:
  6220                           	
  6221                           l222:	
  6222  012A                     	line	227
  6223                           	
  6224                           l2715:	
  6225  012A                     ;Hormiga877.c: 227:             PORTDbits.RD2 = value;
  6226                           	rrf	(digitalWrite@value),w
  6227  012A  0C70               	bcf	status, 5	;RP0=0, select bank0
  6228  012B  1283               	bcf	status, 6	;RP1=0, select bank0
  6229  012C  1303               	skipc
  6230  012D  1C03               	bcf	(8),2	;volatile
  6231  012E  1108               	skipnc
  6232  012F  1803               	bsf	(8),2	;volatile
  6233  0130  1508               	line	228
  6234                           ;Hormiga877.c: 228:             break;
  6235                           	goto	l229
  6236  0131  29B8               	line	229
  6237                           ;Hormiga877.c: 229:         case 19:
  6238                           	
  6239                           l223:	
  6240  0132                     	line	230
  6241                           	
  6242                           l2717:	
  6243  0132                     ;Hormiga877.c: 230:             PORTDbits.RD3 = value;
  6244                           	rrf	(digitalWrite@value),w
  6245  0132  0C70               	bcf	status, 5	;RP0=0, select bank0
  6246  0133  1283               	bcf	status, 6	;RP1=0, select bank0
  6247  0134  1303               	skipc
  6248  0135  1C03               	bcf	(8),3	;volatile
  6249  0136  1188               	skipnc
  6250  0137  1803               	bsf	(8),3	;volatile
  6251  0138  1588               	line	231
  6252                           ;Hormiga877.c: 231:             break;
  6253                           	goto	l229
  6254  0139  29B8               	line	232
  6255                           ;Hormiga877.c: 232:         case 20:
  6256                           	
  6257                           l224:	
  6258  013A                     	line	233
  6259                           	
  6260                           l2719:	
  6261  013A                     ;Hormiga877.c: 233:             PORTDbits.RD4 = value;
  6262                           	rrf	(digitalWrite@value),w
  6263  013A  0C70               	bcf	status, 5	;RP0=0, select bank0
  6264  013B  1283               	bcf	status, 6	;RP1=0, select bank0
  6265  013C  1303               	skipc
  6266  013D  1C03               	bcf	(8),4	;volatile
  6267  013E  1208               	skipnc
  6268  013F  1803               	bsf	(8),4	;volatile
  6269  0140  1608               	line	234
  6270                           ;Hormiga877.c: 234:             break;
  6271                           	goto	l229
  6272  0141  29B8               	line	235
  6273                           ;Hormiga877.c: 235:         case 21:
  6274                           	
  6275                           l225:	
  6276  0142                     	line	236
  6277                           	
  6278                           l2721:	
  6279  0142                     ;Hormiga877.c: 236:             PORTDbits.RD5 = value;
  6280                           	rrf	(digitalWrite@value),w
  6281  0142  0C70               	bcf	status, 5	;RP0=0, select bank0
  6282  0143  1283               	bcf	status, 6	;RP1=0, select bank0
  6283  0144  1303               	skipc
  6284  0145  1C03               	bcf	(8),5	;volatile
  6285  0146  1288               	skipnc
  6286  0147  1803               	bsf	(8),5	;volatile
  6287  0148  1688               	line	237
  6288                           ;Hormiga877.c: 237:             break;
  6289                           	goto	l229
  6290  0149  29B8               	line	238
  6291                           ;Hormiga877.c: 238:         case 22:
  6292                           	
  6293                           l226:	
  6294  014A                     	line	239
  6295                           	
  6296                           l2723:	
  6297  014A                     ;Hormiga877.c: 239:             PORTDbits.RD6 = value;
  6298                           	rrf	(digitalWrite@value),w
  6299  014A  0C70               	bcf	status, 5	;RP0=0, select bank0
  6300  014B  1283               	bcf	status, 6	;RP1=0, select bank0
  6301  014C  1303               	skipc
  6302  014D  1C03               	bcf	(8),6	;volatile
  6303  014E  1308               	skipnc
  6304  014F  1803               	bsf	(8),6	;volatile
  6305  0150  1708               	line	240
  6306                           ;Hormiga877.c: 240:             break;
  6307                           	goto	l229
  6308  0151  29B8               	line	241
  6309                           ;Hormiga877.c: 241:         case 23:
  6310                           	
  6311                           l227:	
  6312  0152                     	line	242
  6313                           	
  6314                           l2725:	
  6315  0152                     ;Hormiga877.c: 242:             PORTDbits.RD7 = value;
  6316                           	rrf	(digitalWrite@value),w
  6317  0152  0C70               	bcf	status, 5	;RP0=0, select bank0
  6318  0153  1283               	bcf	status, 6	;RP1=0, select bank0
  6319  0154  1303               	skipc
  6320  0155  1C03               	bcf	(8),7	;volatile
  6321  0156  1388               	skipnc
  6322  0157  1803               	bsf	(8),7	;volatile
  6323  0158  1788               	line	243
  6324                           ;Hormiga877.c: 243:             break;
  6325                           	goto	l229
  6326  0159  29B8               	line	244
  6327                           ;Hormiga877.c: 244:         case 24:
  6328                           	
  6329                           l228:	
  6330  015A                     	line	245
  6331                           	
  6332                           l2727:	
  6333  015A                     ;Hormiga877.c: 245:             PORTAbits.RA4 = value;
  6334                           	rrf	(digitalWrite@value),w
  6335  015A  0C70               	bcf	status, 5	;RP0=0, select bank0
  6336  015B  1283               	bcf	status, 6	;RP1=0, select bank0
  6337  015C  1303               	skipc
  6338  015D  1C03               	bcf	(5),4	;volatile
  6339  015E  1205               	skipnc
  6340  015F  1803               	bsf	(5),4	;volatile
  6341  0160  1605               	line	246
  6342                           ;Hormiga877.c: 246:             break;
  6343                           	goto	l229
  6344  0161  29B8               	line	255
  6345                           	
  6346                           l2729:	
  6347  0162                     ;Hormiga877.c: 255:     }
  6348                           	goto	l229
  6349  0162  29B8               	
  6350                           l202:	
  6351  0163                     	
  6352                           l2731:	
  6353  0163                     	movf	(digitalWrite@pin),w
  6354  0163  0873               	movwf	(??_digitalWrite+0)+0
  6355  0164  00F1               	clrf	(??_digitalWrite+0)+0+1
  6356  0165  01F2               	; Switch on 2 bytes has been partitioned into a top level switch of size 1, and 1 sub-s
                                 witches
  6357                           ; Switch size 1, requested type "space"
  6358                           ; Number of cases is 1, Range of values is 0 to 0
  6359                           ; switch strategies available:
  6360                           ; Name         Instructions Cycles
  6361                           ; simple_byte            4     3 (average)
  6362                           ; direct_byte           11     8 (fixed)
  6363                           ; jumptable            260     6 (fixed)
  6364                           ;	Chosen strategy is simple_byte
  6365                           
  6366                           	movf 1+(??_digitalWrite+0)+0,w
  6367  0166  0872               	opt asmopt_push
  6368                           	opt asmopt_off
  6369                           	xorlw	0^0	; case 0
  6370  0167  3A00               	skipnz
  6371  0168  1903               	goto	l3863
  6372  0169  296B               	goto	l229
  6373  016A  29B8               	opt asmopt_pop
  6374                           	
  6375                           l3863:	
  6376  016B                     ; Switch size 1, requested type "space"
  6377                           ; Number of cases is 25, Range of values is 0 to 24
  6378                           ; switch strategies available:
  6379                           ; Name         Instructions Cycles
  6380                           ; simple_byte           76    39 (average)
  6381                           ; direct_byte           83     8 (fixed)
  6382                           ; jumptable            260     6 (fixed)
  6383                           ;	Chosen strategy is simple_byte
  6384                           
  6385                           	movf 0+(??_digitalWrite+0)+0,w
  6386  016B  0871               	opt asmopt_push
  6387                           	opt asmopt_off
  6388                           	xorlw	0^0	; case 0
  6389  016C  3A00               	skipnz
  6390  016D  1903               	goto	l2675
  6391  016E  2898               	xorlw	1^0	; case 1
  6392  016F  3A01               	skipnz
  6393  0170  1903               	goto	l2677
  6394  0171  28A0               	xorlw	2^1	; case 2
  6395  0172  3A03               	skipnz
  6396  0173  1903               	goto	l2679
  6397  0174  28A8               	xorlw	3^2	; case 3
  6398  0175  3A01               	skipnz
  6399  0176  1903               	goto	l2681
  6400  0177  28B0               	xorlw	4^3	; case 4
  6401  0178  3A07               	skipnz
  6402  0179  1903               	goto	l2683
  6403  017A  28B8               	xorlw	5^4	; case 5
  6404  017B  3A01               	skipnz
  6405  017C  1903               	goto	l2685
  6406  017D  28C0               	xorlw	6^5	; case 6
  6407  017E  3A03               	skipnz
  6408  017F  1903               	goto	l2689
  6409  0180  28C9               	xorlw	7^6	; case 7
  6410  0181  3A01               	skipnz
  6411  0182  1903               	goto	l2693
  6412  0183  28D2               	xorlw	8^7	; case 8
  6413  0184  3A0F               	skipnz
  6414  0185  1903               	goto	l2695
  6415  0186  28DA               	xorlw	9^8	; case 9
  6416  0187  3A01               	skipnz
  6417  0188  1903               	goto	l2697
  6418  0189  28E2               	xorlw	10^9	; case 10
  6419  018A  3A03               	skipnz
  6420  018B  1903               	goto	l2699
  6421  018C  28EA               	xorlw	11^10	; case 11
  6422  018D  3A01               	skipnz
  6423  018E  1903               	goto	l2701
  6424  018F  28F2               	xorlw	12^11	; case 12
  6425  0190  3A07               	skipnz
  6426  0191  1903               	goto	l2703
  6427  0192  28FA               	xorlw	13^12	; case 13
  6428  0193  3A01               	skipnz
  6429  0194  1903               	goto	l2705
  6430  0195  2902               	xorlw	14^13	; case 14
  6431  0196  3A03               	skipnz
  6432  0197  1903               	goto	l2707
  6433  0198  290A               	xorlw	15^14	; case 15
  6434  0199  3A01               	skipnz
  6435  019A  1903               	goto	l2709
  6436  019B  2912               	xorlw	16^15	; case 16
  6437  019C  3A1F               	skipnz
  6438  019D  1903               	goto	l2711
  6439  019E  291A               	xorlw	17^16	; case 17
  6440  019F  3A01               	skipnz
  6441  01A0  1903               	goto	l2713
  6442  01A1  2922               	xorlw	18^17	; case 18
  6443  01A2  3A03               	skipnz
  6444  01A3  1903               	goto	l2715
  6445  01A4  292A               	xorlw	19^18	; case 19
  6446  01A5  3A01               	skipnz
  6447  01A6  1903               	goto	l2717
  6448  01A7  2932               	xorlw	20^19	; case 20
  6449  01A8  3A07               	skipnz
  6450  01A9  1903               	goto	l2719
  6451  01AA  293A               	xorlw	21^20	; case 21
  6452  01AB  3A01               	skipnz
  6453  01AC  1903               	goto	l2721
  6454  01AD  2942               	xorlw	22^21	; case 22
  6455  01AE  3A03               	skipnz
  6456  01AF  1903               	goto	l2723
  6457  01B0  294A               	xorlw	23^22	; case 23
  6458  01B1  3A01               	skipnz
  6459  01B2  1903               	goto	l2725
  6460  01B3  2952               	xorlw	24^23	; case 24
  6461  01B4  3A0F               	skipnz
  6462  01B5  1903               	goto	l2727
  6463  01B6  295A               	goto	l229
  6464  01B7  29B8               	opt asmopt_pop
  6465                           
  6466                           	
  6467                           l204:	
  6468  01B8                     	line	256
  6469                           	
  6470                           l229:	
  6471  01B8                     	return
  6472  01B8  0008               	opt stack 0
  6473                           GLOBAL	__end_of_digitalWrite
  6474                           	__end_of_digitalWrite:
  6475  01B9                     	signat	_digitalWrite,8313
  6476                           	global	___xxtofl
  6477                           
  6478 ;; *************** function ___xxtofl *****************
  6479 ;; Defined at:
  6480 ;;		line 10 in file "C:\Program Files (x86)\Microchip\xc8\v2.00\pic\sources\c90\common\xxtofl.c"
  6481 ;; Parameters:    Size  Location     Type
  6482 ;;  sign            1    wreg     unsigned char 
  6483 ;;  val             4    4[BANK1 ] long 
  6484 ;; Auto vars:     Size  Location     Type
  6485 ;;  sign            1   12[BANK1 ] unsigned char 
  6486 ;;  arg             4   14[BANK1 ] unsigned long 
  6487 ;;  exp             1   13[BANK1 ] unsigned char 
  6488 ;; Return value:  Size  Location     Type
  6489 ;;                  4    4[BANK1 ] unsigned char 
  6490 ;; Registers used:
  6491 ;;		wreg, status,2, status,0
  6492 ;; Tracked objects:
  6493 ;;		On entry : 0/0
  6494 ;;		On exit  : 0/0
  6495 ;;		Unchanged: 0/0
  6496 ;; Data sizes:     COMMON   BANK0   BANK1   BANK3   BANK2
  6497 ;;      Params:         0       0       4       0       0
  6498 ;;      Locals:         0       0       6       0       0
  6499 ;;      Temps:          0       0       4       0       0
  6500 ;;      Totals:         0       0      14       0       0
  6501 ;;Total ram usage:       14 bytes
  6502 ;; Hardware stack levels used:    1
  6503 ;; This function calls:
  6504 ;;		Nothing
  6505 ;; This function is called by:
  6506 ;;		_loop
  6507 ;; This function uses a non-reentrant model
  6508 ;;
  6509                           psect	text17,local,class=CODE,delta=2,merge=1,group=1
  6510                           	file	"C:\Program Files (x86)\Microchip\xc8\v2.00\pic\sources\c90\common\xxtofl.c"
  6511                           	line	10
  6512                           global __ptext17
  6513                           __ptext17:	;psect for function ___xxtofl
  6514  156F                     psect	text17
  6515                           	file	"C:\Program Files (x86)\Microchip\xc8\v2.00\pic\sources\c90\common\xxtofl.c"
  6516                           	line	10
  6517                           	global	__size_of___xxtofl
  6518                           	__size_of___xxtofl	equ	__end_of___xxtofl-___xxtofl
  6519  00C4                     	
  6520                           ___xxtofl:	
  6521  156F                     ;incstack = 0
  6522                           	opt	stack 6
  6523                           ; Regs used in ___xxtofl: [wreg+status,2+status,0]
  6524                           ;___xxtofl@sign stored from wreg
  6525                           	bsf	status, 5	;RP0=1, select bank1
  6526  156F  1683               	bcf	status, 6	;RP1=0, select bank1
  6527  1570  1303               	movwf	(___xxtofl@sign)^080h
  6528  1571  00CF               	line	15
  6529                           	
  6530                           l3643:	
  6531  1572                     	movf	((___xxtofl@sign)^080h),w
  6532  1572  084F               	btfsc	status,2
  6533  1573  1903               	goto	u3631
  6534  1574  2D76               	goto	u3630
  6535  1575  2D77               u3631:
  6536  1576                     	goto	l3649
  6537  1576  2D8B               u3630:
  6538  1577                     	
  6539                           l3645:	
  6540  1577                     	btfss	(___xxtofl@val+3)^080h,7
  6541  1577  1FCA               	goto	u3641
  6542  1578  2D7A               	goto	u3640
  6543  1579  2D7B               u3641:
  6544  157A                     	goto	l3649
  6545  157A  2D8B               u3640:
  6546  157B                     	line	16
  6547                           	
  6548                           l3647:	
  6549  157B                     	comf	(___xxtofl@val)^080h+0,w
  6550  157B  0947               	movwf	(___xxtofl@arg)^080h
  6551  157C  00D1               	comf	(___xxtofl@val)^080h+1,w
  6552  157D  0948               	movwf	(___xxtofl@arg+1)^080h
  6553  157E  00D2               	comf	(___xxtofl@val)^080h+2,w
  6554  157F  0949               	movwf	(___xxtofl@arg+2)^080h
  6555  1580  00D3               	comf	(___xxtofl@val)^080h+3,w
  6556  1581  094A               	movwf	(___xxtofl@arg+3)^080h
  6557  1582  00D4               	incf	(___xxtofl@arg)^080h,f
  6558  1583  0AD1               	skipnz
  6559  1584  1903               	incf	(___xxtofl@arg+1)^080h,f
  6560  1585  0AD2               	skipnz
  6561  1586  1903               	incf	(___xxtofl@arg+2)^080h,f
  6562  1587  0AD3               	skipnz
  6563  1588  1903               	incf	(___xxtofl@arg+3)^080h,f
  6564  1589  0AD4               	line	17
  6565                           	goto	l1002
  6566  158A  2D93               	line	18
  6567                           	
  6568                           l1001:	
  6569  158B                     	line	19
  6570                           	
  6571                           l3649:	
  6572  158B                     	movf	(___xxtofl@val+3)^080h,w
  6573  158B  084A               	movwf	(___xxtofl@arg+3)^080h
  6574  158C  00D4               	movf	(___xxtofl@val+2)^080h,w
  6575  158D  0849               	movwf	(___xxtofl@arg+2)^080h
  6576  158E  00D3               	movf	(___xxtofl@val+1)^080h,w
  6577  158F  0848               	movwf	(___xxtofl@arg+1)^080h
  6578  1590  00D2               	movf	(___xxtofl@val)^080h,w
  6579  1591  0847               	movwf	(___xxtofl@arg)^080h
  6580  1592  00D1               
  6581                           	line	20
  6582                           	
  6583                           l1002:	
  6584  1593                     	line	21
  6585                           	movf	(___xxtofl@val+3)^080h,w
  6586  1593  084A               	iorwf	(___xxtofl@val+2)^080h,w
  6587  1594  0449               	iorwf	(___xxtofl@val+1)^080h,w
  6588  1595  0448               	iorwf	(___xxtofl@val)^080h,w
  6589  1596  0447               	skipz
  6590  1597  1D03               	goto	u3651
  6591  1598  2D9A               	goto	u3650
  6592  1599  2D9B               u3651:
  6593  159A                     	goto	l3655
  6594  159A  2DA5               u3650:
  6595  159B                     	line	22
  6596                           	
  6597                           l3651:	
  6598  159B                     	movlw	0x0
  6599  159B  3000               	movwf	(?___xxtofl+3)^080h
  6600  159C  00CA               	movlw	0x0
  6601  159D  3000               	movwf	(?___xxtofl+2)^080h
  6602  159E  00C9               	movlw	0x0
  6603  159F  3000               	movwf	(?___xxtofl+1)^080h
  6604  15A0  00C8               	movlw	0x0
  6605  15A1  3000               	movwf	(?___xxtofl)^080h
  6606  15A2  00C7               
  6607                           	goto	l1004
  6608  15A3  2E32               	
  6609                           l3653:	
  6610  15A4                     	goto	l1004
  6611  15A4  2E32               	
  6612                           l1003:	
  6613  15A5                     	line	23
  6614                           	
  6615                           l3655:	
  6616  15A5                     	movlw	low(096h)
  6617  15A5  3096               	movwf	(??___xxtofl+0)^080h+0
  6618  15A6  00CB               	movf	(??___xxtofl+0)^080h+0,w
  6619  15A7  084B               	movwf	(___xxtofl@exp)^080h
  6620  15A8  00D0               	line	24
  6621                           	goto	l3659
  6622  15A9  2DB8               	
  6623                           l1006:	
  6624  15AA                     	line	25
  6625                           	
  6626                           l3657:	
  6627  15AA                     	movlw	low(01h)
  6628  15AA  3001               	movwf	(??___xxtofl+0)^080h+0
  6629  15AB  00CB               	movf	(??___xxtofl+0)^080h+0,w
  6630  15AC  084B               	addwf	(___xxtofl@exp)^080h,f
  6631  15AD  07D0               	line	26
  6632                           	movlw	01h
  6633  15AE  3001               u3665:
  6634  15AF                     	clrc
  6635  15AF  1003               	rrf	(___xxtofl@arg+3)^080h,f
  6636  15B0  0CD4               	rrf	(___xxtofl@arg+2)^080h,f
  6637  15B1  0CD3               	rrf	(___xxtofl@arg+1)^080h,f
  6638  15B2  0CD2               	rrf	(___xxtofl@arg)^080h,f
  6639  15B3  0CD1               	addlw	-1
  6640  15B4  3EFF               	skipz
  6641  15B5  1D03               	goto	u3665
  6642  15B6  2DAF               
  6643                           	goto	l3659
  6644  15B7  2DB8               	line	27
  6645                           	
  6646                           l1005:	
  6647  15B8                     	line	24
  6648                           	
  6649                           l3659:	
  6650  15B8                     	movlw	high highword(0FE000000h)
  6651  15B8  30FE               	andwf	(___xxtofl@arg+3)^080h,w
  6652  15B9  0554               	btfss	status,2
  6653  15BA  1D03               	goto	u3671
  6654  15BB  2DBD               	goto	u3670
  6655  15BC  2DBE               u3671:
  6656  15BD                     	goto	l3657
  6657  15BD  2DAA               u3670:
  6658  15BE                     	goto	l1008
  6659  15BE  2DDB               	
  6660                           l1007:	
  6661  15BF                     	line	28
  6662                           	goto	l1008
  6663  15BF  2DDB               	
  6664                           l1009:	
  6665  15C0                     	line	29
  6666                           	
  6667                           l3661:	
  6668  15C0                     	movlw	low(01h)
  6669  15C0  3001               	movwf	(??___xxtofl+0)^080h+0
  6670  15C1  00CB               	movf	(??___xxtofl+0)^080h+0,w
  6671  15C2  084B               	addwf	(___xxtofl@exp)^080h,f
  6672  15C3  07D0               	line	30
  6673                           	
  6674                           l3663:	
  6675  15C4                     	movlw	01h
  6676  15C4  3001               	addwf	(___xxtofl@arg)^080h,f
  6677  15C5  07D1               	movlw	0
  6678  15C6  3000               	skipnc
  6679  15C7  1803               movlw 1
  6680  15C8  3001               	addwf	(___xxtofl@arg+1)^080h,f
  6681  15C9  07D2               	movlw	0
  6682  15CA  3000               	skipnc
  6683  15CB  1803               movlw 1
  6684  15CC  3001               	addwf	(___xxtofl@arg+2)^080h,f
  6685  15CD  07D3               	movlw	0
  6686  15CE  3000               	skipnc
  6687  15CF  1803               movlw 1
  6688  15D0  3001               	addwf	(___xxtofl@arg+3)^080h,f
  6689  15D1  07D4               	line	31
  6690                           	
  6691                           l3665:	
  6692  15D2                     	movlw	01h
  6693  15D2  3001               u3685:
  6694  15D3                     	clrc
  6695  15D3  1003               	rrf	(___xxtofl@arg+3)^080h,f
  6696  15D4  0CD4               	rrf	(___xxtofl@arg+2)^080h,f
  6697  15D5  0CD3               	rrf	(___xxtofl@arg+1)^080h,f
  6698  15D6  0CD2               	rrf	(___xxtofl@arg)^080h,f
  6699  15D7  0CD1               	addlw	-1
  6700  15D8  3EFF               	skipz
  6701  15D9  1D03               	goto	u3685
  6702  15DA  2DD3               
  6703                           	line	32
  6704                           	
  6705                           l1008:	
  6706  15DB                     	line	28
  6707                           	movlw	high highword(0FF000000h)
  6708  15DB  30FF               	andwf	(___xxtofl@arg+3)^080h,w
  6709  15DC  0554               	btfss	status,2
  6710  15DD  1D03               	goto	u3691
  6711  15DE  2DE0               	goto	u3690
  6712  15DF  2DE1               u3691:
  6713  15E0                     	goto	l3661
  6714  15E0  2DC0               u3690:
  6715  15E1                     	goto	l3669
  6716  15E1  2DEF               	
  6717                           l1010:	
  6718  15E2                     	line	33
  6719                           	goto	l3669
  6720  15E2  2DEF               	
  6721                           l1012:	
  6722  15E3                     	line	34
  6723                           	
  6724                           l3667:	
  6725  15E3                     	movlw	01h
  6726  15E3  3001               	subwf	(___xxtofl@exp)^080h,f
  6727  15E4  02D0               	line	35
  6728                           	movlw	01h
  6729  15E5  3001               	movwf	(??___xxtofl+0)^080h+0
  6730  15E6  00CB               u3705:
  6731  15E7                     	clrc
  6732  15E7  1003               	rlf	(___xxtofl@arg)^080h,f
  6733  15E8  0DD1               	rlf	(___xxtofl@arg+1)^080h,f
  6734  15E9  0DD2               	rlf	(___xxtofl@arg+2)^080h,f
  6735  15EA  0DD3               	rlf	(___xxtofl@arg+3)^080h,f
  6736  15EB  0DD4               	decfsz	(??___xxtofl+0)^080h+0
  6737  15EC  0BCB               	goto	u3705
  6738  15ED  2DE7               	goto	l3669
  6739  15EE  2DEF               	line	36
  6740                           	
  6741                           l1011:	
  6742  15EF                     	line	33
  6743                           	
  6744                           l3669:	
  6745  15EF                     	btfsc	(___xxtofl@arg+2)^080h,(23)&7
  6746  15EF  1BD3               	goto	u3711
  6747  15F0  2DF2               	goto	u3710
  6748  15F1  2DF3               u3711:
  6749  15F2                     	goto	l1015
  6750  15F2  2DFA               u3710:
  6751  15F3                     	
  6752                           l3671:	
  6753  15F3                     	movlw	low(02h)
  6754  15F3  3002               	subwf	(___xxtofl@exp)^080h,w
  6755  15F4  0250               	skipnc
  6756  15F5  1803               	goto	u3721
  6757  15F6  2DF8               	goto	u3720
  6758  15F7  2DF9               u3721:
  6759  15F8                     	goto	l3667
  6760  15F8  2DE3               u3720:
  6761  15F9                     	goto	l1015
  6762  15F9  2DFA               	
  6763                           l1014:	
  6764  15FA                     	
  6765                           l1015:	
  6766  15FA                     	line	37
  6767                           	btfsc	(___xxtofl@exp)^080h,(0)&7
  6768  15FA  1850               	goto	u3731
  6769  15FB  2DFD               	goto	u3730
  6770  15FC  2DFE               u3731:
  6771  15FD                     	goto	l1016
  6772  15FD  2E06               u3730:
  6773  15FE                     	line	38
  6774                           	
  6775                           l3673:	
  6776  15FE                     	movlw	0FFh
  6777  15FE  30FF               	andwf	(___xxtofl@arg)^080h,f
  6778  15FF  05D1               	movlw	0FFh
  6779  1600  30FF               	andwf	(___xxtofl@arg+1)^080h,f
  6780  1601  05D2               	movlw	07Fh
  6781  1602  307F               	andwf	(___xxtofl@arg+2)^080h,f
  6782  1603  05D3               	movlw	0FFh
  6783  1604  30FF               	andwf	(___xxtofl@arg+3)^080h,f
  6784  1605  05D4               	
  6785                           l1016:	
  6786  1606                     	line	39
  6787                           	clrc
  6788  1606  1003               	rrf	(___xxtofl@exp)^080h,f
  6789  1607  0CD0               
  6790                           	line	40
  6791                           	
  6792                           l3675:	
  6793  1608                     	movf	(___xxtofl@exp)^080h,w
  6794  1608  0850               	movwf	(??___xxtofl+0)^080h+0
  6795  1609  00CB               	clrf	(??___xxtofl+0)^080h+0+1
  6796  160A  01CC               	clrf	(??___xxtofl+0)^080h+0+2
  6797  160B  01CD               	clrf	(??___xxtofl+0)^080h+0+3
  6798  160C  01CE               	movlw	018h
  6799  160D  3018               u3745:
  6800  160E                     	clrc
  6801  160E  1003               	rlf	(??___xxtofl+0)^080h+0,f
  6802  160F  0DCB               	rlf	(??___xxtofl+0)^080h+1,f
  6803  1610  0DCC               	rlf	(??___xxtofl+0)^080h+2,f
  6804  1611  0DCD               	rlf	(??___xxtofl+0)^080h+3,f
  6805  1612  0DCE               u3740:
  6806  1613                     	addlw	-1
  6807  1613  3EFF               	skipz
  6808  1614  1D03               	goto	u3745
  6809  1615  2E0E               	movf	0+(??___xxtofl+0)^080h+0,w
  6810  1616  084B               	iorwf	(___xxtofl@arg)^080h,f
  6811  1617  04D1               	movf	1+(??___xxtofl+0)^080h+0,w
  6812  1618  084C               	iorwf	(___xxtofl@arg+1)^080h,f
  6813  1619  04D2               	movf	2+(??___xxtofl+0)^080h+0,w
  6814  161A  084D               	iorwf	(___xxtofl@arg+2)^080h,f
  6815  161B  04D3               	movf	3+(??___xxtofl+0)^080h+0,w
  6816  161C  084E               	iorwf	(___xxtofl@arg+3)^080h,f
  6817  161D  04D4               	line	41
  6818                           	
  6819                           l3677:	
  6820  161E                     	movf	((___xxtofl@sign)^080h),w
  6821  161E  084F               	btfsc	status,2
  6822  161F  1903               	goto	u3751
  6823  1620  2E22               	goto	u3750
  6824  1621  2E23               u3751:
  6825  1622                     	goto	l3683
  6826  1622  2E29               u3750:
  6827  1623                     	
  6828                           l3679:	
  6829  1623                     	btfss	(___xxtofl@val+3)^080h,7
  6830  1623  1FCA               	goto	u3761
  6831  1624  2E26               	goto	u3760
  6832  1625  2E27               u3761:
  6833  1626                     	goto	l3683
  6834  1626  2E29               u3760:
  6835  1627                     	line	42
  6836                           	
  6837                           l3681:	
  6838  1627                     	bsf	(___xxtofl@arg)^080h+(31/8),(31)&7
  6839  1627  17D4               	goto	l3683
  6840  1628  2E29               	
  6841                           l1017:	
  6842  1629                     	line	43
  6843                           	
  6844                           l3683:	
  6845  1629                     	movf	(___xxtofl@arg+3)^080h,w
  6846  1629  0854               	movwf	(?___xxtofl+3)^080h
  6847  162A  00CA               	movf	(___xxtofl@arg+2)^080h,w
  6848  162B  0853               	movwf	(?___xxtofl+2)^080h
  6849  162C  00C9               	movf	(___xxtofl@arg+1)^080h,w
  6850  162D  0852               	movwf	(?___xxtofl+1)^080h
  6851  162E  00C8               	movf	(___xxtofl@arg)^080h,w
  6852  162F  0851               	movwf	(?___xxtofl)^080h
  6853  1630  00C7               
  6854                           	goto	l1004
  6855  1631  2E32               	
  6856                           l3685:	
  6857  1632                     	line	44
  6858                           	
  6859                           l1004:	
  6860  1632                     	return
  6861  1632  0008               	opt stack 0
  6862                           GLOBAL	__end_of___xxtofl
  6863                           	__end_of___xxtofl:
  6864  1633                     	signat	___xxtofl,8316
  6865                           	global	_EventCounters
  6866                           
  6867 ;; *************** function _EventCounters *****************
  6868 ;; Defined at:
  6869 ;;		line 55 in file "PIDController.c"
  6870 ;; Parameters:    Size  Location     Type
  6871 ;;		None
  6872 ;; Auto vars:     Size  Location     Type
  6873 ;;		None
  6874 ;; Return value:  Size  Location     Type
  6875 ;;                  2    0[COMMON] unsigned int 
  6876 ;; Registers used:
  6877 ;;		wreg, status,2, status,0
  6878 ;; Tracked objects:
  6879 ;;		On entry : 0/0
  6880 ;;		On exit  : 0/0
  6881 ;;		Unchanged: 0/0
  6882 ;; Data sizes:     COMMON   BANK0   BANK1   BANK3   BANK2
  6883 ;;      Params:         2       0       0       0       0
  6884 ;;      Locals:         0       0       0       0       0
  6885 ;;      Temps:          0       0       0       0       0
  6886 ;;      Totals:         2       0       0       0       0
  6887 ;;Total ram usage:        2 bytes
  6888 ;; Hardware stack levels used:    1
  6889 ;; This function calls:
  6890 ;;		Nothing
  6891 ;; This function is called by:
  6892 ;;		_loop
  6893 ;; This function uses a non-reentrant model
  6894 ;;
  6895                           psect	text18,local,class=CODE,delta=2,merge=1,group=0
  6896                           	file	"PIDController.c"
  6897                           	line	55
  6898                           global __ptext18
  6899                           __ptext18:	;psect for function _EventCounters
  6900  1186                     psect	text18
  6901                           	file	"PIDController.c"
  6902                           	line	55
  6903                           	global	__size_of_EventCounters
  6904                           	__size_of_EventCounters	equ	__end_of_EventCounters-_EventCounters
  6905  001C                     	
  6906                           _EventCounters:	
  6907  1186                     ;incstack = 0
  6908                           	opt	stack 6
  6909                           ; Regs used in _EventCounters: [wreg+status,2+status,0]
  6910                           	line	57
  6911                           	
  6912                           l3563:	
  6913  1186                     ;PIDController.c: 57:     while(!TMR0IF);
  6914                           	goto	l480
  6915  1186  2987               	
  6916                           l481:	
  6917  1187                     	
  6918                           l480:	
  6919  1187                     	btfss	(90/8),(90)&7	;volatile
  6920  1187  1D0B               	goto	u3561
  6921  1188  298A               	goto	u3560
  6922  1189  298B               u3561:
  6923  118A                     	goto	l480
  6924  118A  2987               u3560:
  6925  118B                     	
  6926                           l482:	
  6927  118B                     	line	58
  6928                           ;PIDController.c: 58:     TMR0IF = 0;
  6929                           	bcf	(90/8),(90)&7	;volatile
  6930  118B  110B               	line	59
  6931                           	
  6932                           l3565:	
  6933  118C                     ;PIDController.c: 59:     TMR0 = 0xFF - PID.SampleT;
  6934                           	bsf	status, 5	;RP0=1, select bank3
  6935  118C  1683               	bsf	status, 6	;RP1=1, select bank3
  6936  118D  1703               	decf	0+(_PID)^0180h+0Ch,w
  6937  118E  031C               	xorlw	0ffh
  6938  118F  3AFF               	addlw	0FFh
  6939  1190  3EFF               	bcf	status, 5	;RP0=0, select bank0
  6940  1191  1283               	bcf	status, 6	;RP1=0, select bank0
  6941  1192  1303               	movwf	(1)	;volatile
  6942  1193  0081               	line	60
  6943                           	
  6944                           l3567:	
  6945  1194                     ;PIDController.c: 60:     PID.TotalEvents++;
  6946                           	movlw	01h
  6947  1194  3001               	bsf	status, 5	;RP0=1, select bank3
  6948  1195  1683               	bsf	status, 6	;RP1=1, select bank3
  6949  1196  1703               	addwf	0+(_PID)^0180h+0Dh,f
  6950  1197  079D               	skipnc
  6951  1198  1803               	incf	1+(_PID)^0180h+0Dh,f
  6952  1199  0A9E               	movlw	0
  6953  119A  3000               	addwf	1+(_PID)^0180h+0Dh,f
  6954  119B  079E               	line	61
  6955                           	
  6956                           l3569:	
  6957  119C                     ;PIDController.c: 61:     return PID.TotalEvents;
  6958                           	movf	1+(_PID)^0180h+0Dh,w
  6959  119C  081E               	movwf	(?_EventCounters+1)
  6960  119D  00F1               	movf	0+(_PID)^0180h+0Dh,w
  6961  119E  081D               	movwf	(?_EventCounters)
  6962  119F  00F0               	goto	l483
  6963  11A0  29A1               	
  6964                           l3571:	
  6965  11A1                     	line	62
  6966                           	
  6967                           l483:	
  6968  11A1                     	return
  6969  11A1  0008               	opt stack 0
  6970                           GLOBAL	__end_of_EventCounters
  6971                           	__end_of_EventCounters:
  6972  11A2                     	signat	_EventCounters,90
  6973                           	global	_AccionControl
  6974                           
  6975 ;; *************** function _AccionControl *****************
  6976 ;; Defined at:
  6977 ;;		line 44 in file "PIDController.c"
  6978 ;; Parameters:    Size  Location     Type
  6979 ;;  SetPoint        4   68[BANK0 ] unsigned int 
  6980 ;;  Feedback        4   72[BANK0 ] unsigned int 
  6981 ;;  dt              4   76[BANK0 ] unsigned int 
  6982 ;; Auto vars:     Size  Location     Type
  6983 ;;		None
  6984 ;; Return value:  Size  Location     Type
  6985 ;;                  1    wreg      unsigned char 
  6986 ;; Registers used:
  6987 ;;		wreg, fsr0l, fsr0h, status,2, status,0, btemp+1, pclath, cstack
  6988 ;; Tracked objects:
  6989 ;;		On entry : 0/0
  6990 ;;		On exit  : 0/0
  6991 ;;		Unchanged: 0/0
  6992 ;; Data sizes:     COMMON   BANK0   BANK1   BANK3   BANK2
  6993 ;;      Params:         0      12       0       0       0
  6994 ;;      Locals:         0       0       4       0       0
  6995 ;;      Temps:          0       0       0       0       0
  6996 ;;      Totals:         0      12       4       0       0
  6997 ;;Total ram usage:       16 bytes
  6998 ;; Hardware stack levels used:    1
  6999 ;; Hardware stack levels required when called:    2
  7000 ;; This function calls:
  7001 ;;		___fladd
  7002 ;;		___fldiv
  7003 ;;		___flmul
  7004 ;;		___flneg
  7005 ;;		___fltol
  7006 ;; This function is called by:
  7007 ;;		_loop
  7008 ;; This function uses a non-reentrant model
  7009 ;;
  7010                           psect	text19,local,class=CODE,delta=2,merge=1,group=0
  7011                           	line	44
  7012                           global __ptext19
  7013                           __ptext19:	;psect for function _AccionControl
  7014  098B                     psect	text19
  7015                           	file	"PIDController.c"
  7016                           	line	44
  7017                           	global	__size_of_AccionControl
  7018                           	__size_of_AccionControl	equ	__end_of_AccionControl-_AccionControl
  7019  01BE                     	
  7020                           _AccionControl:	
  7021  098B                     ;incstack = 0
  7022                           	opt	stack 4
  7023                           ; Regs used in _AccionControl: [wreg-fsr0h+status,2+status,0+btemp+1+pclath+cstack]
  7024                           	line	46
  7025                           	
  7026                           l3625:	
  7027  098B                     ;PIDController.c: 44: unsigned char AccionControl(double SetPoint, double Feedback, doub
                                 le dt);PIDController.c: 45: {;PIDController.c: 46:     PID.Error = SetPoint - Feedback;

  7028                           	bcf	status, 5	;RP0=0, select bank0
  7029  098B  1283               	bcf	status, 6	;RP1=0, select bank0
  7030  098C  1303               	movf	(AccionControl@SetPoint+3),w
  7031  098D  0867               	movwf	(___fladd@b+3)
  7032  098E  00F7               	movf	(AccionControl@SetPoint+2),w
  7033  098F  0866               	movwf	(___fladd@b+2)
  7034  0990  00F6               	movf	(AccionControl@SetPoint+1),w
  7035  0991  0865               	movwf	(___fladd@b+1)
  7036  0992  00F5               	movf	(AccionControl@SetPoint),w
  7037  0993  0864               	movwf	(___fladd@b)
  7038  0994  00F4               
  7039                           	movf	(AccionControl@Feedback+3),w
  7040  0995  086B               	movwf	(___flneg@f1+3)
  7041  0996  00F3               	movf	(AccionControl@Feedback+2),w
  7042  0997  086A               	movwf	(___flneg@f1+2)
  7043  0998  00F2               	movf	(AccionControl@Feedback+1),w
  7044  0999  0869               	movwf	(___flneg@f1+1)
  7045  099A  00F1               	movf	(AccionControl@Feedback),w
  7046  099B  0868               	movwf	(___flneg@f1)
  7047  099C  00F0               
  7048                           	fcall	___flneg
  7049  099D  160A  118A  2154  120A  158A  	movf	(3+(?___flneg)),w
  7050  09A2  0873               	movwf	(___fladd@a+3)
  7051  09A3  00FB               	movf	(2+(?___flneg)),w
  7052  09A4  0872               	movwf	(___fladd@a+2)
  7053  09A5  00FA               	movf	(1+(?___flneg)),w
  7054  09A6  0871               	movwf	(___fladd@a+1)
  7055  09A7  00F9               	movf	(0+(?___flneg)),w
  7056  09A8  0870               	movwf	(___fladd@a)
  7057  09A9  00F8               
  7058                           	fcall	___fladd
  7059  09AA  120A  118A  21B9  120A  158A  	movf	(3+(?___fladd)),w
  7060  09AF  0877               	bsf	status, 5	;RP0=1, select bank3
  7061  09B0  1683               	bsf	status, 6	;RP1=1, select bank3
  7062  09B1  1703               	movwf	3+(_PID)^0180h+0Fh
  7063  09B2  00A2               	movf	(2+(?___fladd)),w
  7064  09B3  0876               	movwf	2+(_PID)^0180h+0Fh
  7065  09B4  00A1               	movf	(1+(?___fladd)),w
  7066  09B5  0875               	movwf	1+(_PID)^0180h+0Fh
  7067  09B6  00A0               	movf	(0+(?___fladd)),w
  7068  09B7  0874               	movwf	0+(_PID)^0180h+0Fh
  7069  09B8  009F               
  7070                           	line	47
  7071                           	
  7072                           l3627:	
  7073  09B9                     ;PIDController.c: 47:     PID.ErrorAcum += PID.Error;
  7074                           	movlw	low(0Fh)
  7075  09B9  300F               	addlw	low(_PID|((0x1)<<8))&0ffh
  7076  09BA  3E90               	movwf	fsr0
  7077  09BB  0084               	bsf	status, 7	;select IRP bank3
  7078  09BC  1783               	movf	indf,w
  7079  09BD  0800               	movwf	(___fladd@b)
  7080  09BE  00F4               	incf	fsr0,f
  7081  09BF  0A84               	movf	indf,w
  7082  09C0  0800               	movwf	(___fladd@b+1)
  7083  09C1  00F5               	incf	fsr0,f
  7084  09C2  0A84               	movf	indf,w
  7085  09C3  0800               	movwf	(___fladd@b+2)
  7086  09C4  00F6               	incf	fsr0,f
  7087  09C5  0A84               	movf	indf,w
  7088  09C6  0800               	movwf	(___fladd@b+3)
  7089  09C7  00F7               	movlw	low(017h)
  7090  09C8  3017               	addlw	low(_PID|((0x1)<<8))&0ffh
  7091  09C9  3E90               	movwf	fsr0
  7092  09CA  0084               	movf	indf,w
  7093  09CB  0800               	movwf	(___fladd@a)
  7094  09CC  00F8               	incf	fsr0,f
  7095  09CD  0A84               	movf	indf,w
  7096  09CE  0800               	movwf	(___fladd@a+1)
  7097  09CF  00F9               	incf	fsr0,f
  7098  09D0  0A84               	movf	indf,w
  7099  09D1  0800               	movwf	(___fladd@a+2)
  7100  09D2  00FA               	incf	fsr0,f
  7101  09D3  0A84               	movf	indf,w
  7102  09D4  0800               	movwf	(___fladd@a+3)
  7103  09D5  00FB               	fcall	___fladd
  7104  09D6  120A  118A  21B9  120A  158A  	movf	(3+(?___fladd)),w
  7105  09DB  0877               	bsf	status, 5	;RP0=1, select bank3
  7106  09DC  1683               	bsf	status, 6	;RP1=1, select bank3
  7107  09DD  1703               	movwf	3+(_PID)^0180h+017h
  7108  09DE  00AA               	movf	(2+(?___fladd)),w
  7109  09DF  0876               	movwf	2+(_PID)^0180h+017h
  7110  09E0  00A9               	movf	(1+(?___fladd)),w
  7111  09E1  0875               	movwf	1+(_PID)^0180h+017h
  7112  09E2  00A8               	movf	(0+(?___fladd)),w
  7113  09E3  0874               	movwf	0+(_PID)^0180h+017h
  7114  09E4  00A7               
  7115                           	line	48
  7116                           	
  7117                           l3629:	
  7118  09E5                     ;PIDController.c: 48:     PID.P = PID.Kp * PID.Error;
  7119                           	movf	(_PID+3)^0180h,w
  7120  09E5  0813               	bcf	status, 5	;RP0=0, select bank0
  7121  09E6  1283               	bcf	status, 6	;RP1=0, select bank0
  7122  09E7  1303               	movwf	(___flmul@b+3)
  7123  09E8  00CD               	bsf	status, 5	;RP0=1, select bank3
  7124  09E9  1683               	bsf	status, 6	;RP1=1, select bank3
  7125  09EA  1703               	movf	(_PID+2)^0180h,w
  7126  09EB  0812               	bcf	status, 5	;RP0=0, select bank0
  7127  09EC  1283               	bcf	status, 6	;RP1=0, select bank0
  7128  09ED  1303               	movwf	(___flmul@b+2)
  7129  09EE  00CC               	bsf	status, 5	;RP0=1, select bank3
  7130  09EF  1683               	bsf	status, 6	;RP1=1, select bank3
  7131  09F0  1703               	movf	(_PID+1)^0180h,w
  7132  09F1  0811               	bcf	status, 5	;RP0=0, select bank0
  7133  09F2  1283               	bcf	status, 6	;RP1=0, select bank0
  7134  09F3  1303               	movwf	(___flmul@b+1)
  7135  09F4  00CB               	bsf	status, 5	;RP0=1, select bank3
  7136  09F5  1683               	bsf	status, 6	;RP1=1, select bank3
  7137  09F6  1703               	movf	(_PID)^0180h,w
  7138  09F7  0810               	bcf	status, 5	;RP0=0, select bank0
  7139  09F8  1283               	bcf	status, 6	;RP1=0, select bank0
  7140  09F9  1303               	movwf	(___flmul@b)
  7141  09FA  00CA               
  7142                           	movlw	low(0Fh)
  7143  09FB  300F               	addlw	low(_PID|((0x1)<<8))&0ffh
  7144  09FC  3E90               	movwf	fsr0
  7145  09FD  0084               	bsf	status, 7	;select IRP bank3
  7146  09FE  1783               	movf	indf,w
  7147  09FF  0800               	movwf	(___flmul@a)
  7148  0A00  00CE               	incf	fsr0,f
  7149  0A01  0A84               	movf	indf,w
  7150  0A02  0800               	movwf	(___flmul@a+1)
  7151  0A03  00CF               	incf	fsr0,f
  7152  0A04  0A84               	movf	indf,w
  7153  0A05  0800               	movwf	(___flmul@a+2)
  7154  0A06  00D0               	incf	fsr0,f
  7155  0A07  0A84               	movf	indf,w
  7156  0A08  0800               	movwf	(___flmul@a+3)
  7157  0A09  00D1               	fcall	___flmul
  7158  0A0A  120A  118A  2475  120A  158A  	bcf	status, 5	;RP0=0, select bank0
  7159  0A0F  1283               	bcf	status, 6	;RP1=0, select bank0
  7160  0A10  1303               	movf	(3+(?___flmul)),w
  7161  0A11  084D               	bsf	status, 5	;RP0=1, select bank3
  7162  0A12  1683               	bsf	status, 6	;RP1=1, select bank3
  7163  0A13  1703               	movwf	3+(_PID)^0180h+023h
  7164  0A14  00B6               	bcf	status, 5	;RP0=0, select bank0
  7165  0A15  1283               	bcf	status, 6	;RP1=0, select bank0
  7166  0A16  1303               	movf	(2+(?___flmul)),w
  7167  0A17  084C               	bsf	status, 5	;RP0=1, select bank3
  7168  0A18  1683               	bsf	status, 6	;RP1=1, select bank3
  7169  0A19  1703               	movwf	2+(_PID)^0180h+023h
  7170  0A1A  00B5               	bcf	status, 5	;RP0=0, select bank0
  7171  0A1B  1283               	bcf	status, 6	;RP1=0, select bank0
  7172  0A1C  1303               	movf	(1+(?___flmul)),w
  7173  0A1D  084B               	bsf	status, 5	;RP0=1, select bank3
  7174  0A1E  1683               	bsf	status, 6	;RP1=1, select bank3
  7175  0A1F  1703               	movwf	1+(_PID)^0180h+023h
  7176  0A20  00B4               	bcf	status, 5	;RP0=0, select bank0
  7177  0A21  1283               	bcf	status, 6	;RP1=0, select bank0
  7178  0A22  1303               	movf	(0+(?___flmul)),w
  7179  0A23  084A               	bsf	status, 5	;RP0=1, select bank3
  7180  0A24  1683               	bsf	status, 6	;RP1=1, select bank3
  7181  0A25  1703               	movwf	0+(_PID)^0180h+023h
  7182  0A26  00B3               
  7183                           	line	49
  7184                           	
  7185                           l3631:	
  7186  0A27                     ;PIDController.c: 49:     PID.I = PID.Ki * PID.ErrorAcum;
  7187                           	movlw	low(017h)
  7188  0A27  3017               	addlw	low(_PID|((0x1)<<8))&0ffh
  7189  0A28  3E90               	movwf	fsr0
  7190  0A29  0084               	bsf	status, 7	;select IRP bank3
  7191  0A2A  1783               	movf	indf,w
  7192  0A2B  0800               	bcf	status, 5	;RP0=0, select bank0
  7193  0A2C  1283               	bcf	status, 6	;RP1=0, select bank0
  7194  0A2D  1303               	movwf	(___flmul@b)
  7195  0A2E  00CA               	incf	fsr0,f
  7196  0A2F  0A84               	movf	indf,w
  7197  0A30  0800               	movwf	(___flmul@b+1)
  7198  0A31  00CB               	incf	fsr0,f
  7199  0A32  0A84               	movf	indf,w
  7200  0A33  0800               	movwf	(___flmul@b+2)
  7201  0A34  00CC               	incf	fsr0,f
  7202  0A35  0A84               	movf	indf,w
  7203  0A36  0800               	movwf	(___flmul@b+3)
  7204  0A37  00CD               	movlw	low(04h)
  7205  0A38  3004               	addlw	low(_PID|((0x1)<<8))&0ffh
  7206  0A39  3E90               	movwf	fsr0
  7207  0A3A  0084               	movf	indf,w
  7208  0A3B  0800               	movwf	(___flmul@a)
  7209  0A3C  00CE               	incf	fsr0,f
  7210  0A3D  0A84               	movf	indf,w
  7211  0A3E  0800               	movwf	(___flmul@a+1)
  7212  0A3F  00CF               	incf	fsr0,f
  7213  0A40  0A84               	movf	indf,w
  7214  0A41  0800               	movwf	(___flmul@a+2)
  7215  0A42  00D0               	incf	fsr0,f
  7216  0A43  0A84               	movf	indf,w
  7217  0A44  0800               	movwf	(___flmul@a+3)
  7218  0A45  00D1               	fcall	___flmul
  7219  0A46  120A  118A  2475  120A  158A  	bcf	status, 5	;RP0=0, select bank0
  7220  0A4B  1283               	bcf	status, 6	;RP1=0, select bank0
  7221  0A4C  1303               	movf	(3+(?___flmul)),w
  7222  0A4D  084D               	bsf	status, 5	;RP0=1, select bank3
  7223  0A4E  1683               	bsf	status, 6	;RP1=1, select bank3
  7224  0A4F  1703               	movwf	3+(_PID)^0180h+01Fh
  7225  0A50  00B2               	bcf	status, 5	;RP0=0, select bank0
  7226  0A51  1283               	bcf	status, 6	;RP1=0, select bank0
  7227  0A52  1303               	movf	(2+(?___flmul)),w
  7228  0A53  084C               	bsf	status, 5	;RP0=1, select bank3
  7229  0A54  1683               	bsf	status, 6	;RP1=1, select bank3
  7230  0A55  1703               	movwf	2+(_PID)^0180h+01Fh
  7231  0A56  00B1               	bcf	status, 5	;RP0=0, select bank0
  7232  0A57  1283               	bcf	status, 6	;RP1=0, select bank0
  7233  0A58  1303               	movf	(1+(?___flmul)),w
  7234  0A59  084B               	bsf	status, 5	;RP0=1, select bank3
  7235  0A5A  1683               	bsf	status, 6	;RP1=1, select bank3
  7236  0A5B  1703               	movwf	1+(_PID)^0180h+01Fh
  7237  0A5C  00B0               	bcf	status, 5	;RP0=0, select bank0
  7238  0A5D  1283               	bcf	status, 6	;RP1=0, select bank0
  7239  0A5E  1303               	movf	(0+(?___flmul)),w
  7240  0A5F  084A               	bsf	status, 5	;RP0=1, select bank3
  7241  0A60  1683               	bsf	status, 6	;RP1=1, select bank3
  7242  0A61  1703               	movwf	0+(_PID)^0180h+01Fh
  7243  0A62  00AF               
  7244                           	line	50
  7245                           	
  7246                           l3633:	
  7247  0A63                     ;PIDController.c: 50:     PID.D = PID.Kd * ((PID.Error - PID.LastError) / dt);
  7248                           	movlw	low(08h)
  7249  0A63  3008               	addlw	low(_PID|((0x1)<<8))&0ffh
  7250  0A64  3E90               	movwf	fsr0
  7251  0A65  0084               	bsf	status, 7	;select IRP bank3
  7252  0A66  1783               	movf	indf,w
  7253  0A67  0800               	bcf	status, 5	;RP0=0, select bank0
  7254  0A68  1283               	bcf	status, 6	;RP1=0, select bank0
  7255  0A69  1303               	movwf	(___flmul@b)
  7256  0A6A  00CA               	incf	fsr0,f
  7257  0A6B  0A84               	movf	indf,w
  7258  0A6C  0800               	movwf	(___flmul@b+1)
  7259  0A6D  00CB               	incf	fsr0,f
  7260  0A6E  0A84               	movf	indf,w
  7261  0A6F  0800               	movwf	(___flmul@b+2)
  7262  0A70  00CC               	incf	fsr0,f
  7263  0A71  0A84               	movf	indf,w
  7264  0A72  0800               	movwf	(___flmul@b+3)
  7265  0A73  00CD               	movf	(AccionControl@dt+3),w
  7266  0A74  086F               	movwf	(___fldiv@a+3)
  7267  0A75  00B3               	movf	(AccionControl@dt+2),w
  7268  0A76  086E               	movwf	(___fldiv@a+2)
  7269  0A77  00B2               	movf	(AccionControl@dt+1),w
  7270  0A78  086D               	movwf	(___fldiv@a+1)
  7271  0A79  00B1               	movf	(AccionControl@dt),w
  7272  0A7A  086C               	movwf	(___fldiv@a)
  7273  0A7B  00B0               
  7274                           	movlw	low(0Fh)
  7275  0A7C  300F               	addlw	low(_PID|((0x1)<<8))&0ffh
  7276  0A7D  3E90               	movwf	fsr0
  7277  0A7E  0084               	movf	indf,w
  7278  0A7F  0800               	movwf	(___fladd@b)
  7279  0A80  00F4               	incf	fsr0,f
  7280  0A81  0A84               	movf	indf,w
  7281  0A82  0800               	movwf	(___fladd@b+1)
  7282  0A83  00F5               	incf	fsr0,f
  7283  0A84  0A84               	movf	indf,w
  7284  0A85  0800               	movwf	(___fladd@b+2)
  7285  0A86  00F6               	incf	fsr0,f
  7286  0A87  0A84               	movf	indf,w
  7287  0A88  0800               	movwf	(___fladd@b+3)
  7288  0A89  00F7               	movlw	low(013h)
  7289  0A8A  3013               	addlw	low(_PID|((0x1)<<8))&0ffh
  7290  0A8B  3E90               	movwf	fsr0
  7291  0A8C  0084               	movf	indf,w
  7292  0A8D  0800               	movwf	(___flneg@f1)
  7293  0A8E  00F0               	incf	fsr0,f
  7294  0A8F  0A84               	movf	indf,w
  7295  0A90  0800               	movwf	(___flneg@f1+1)
  7296  0A91  00F1               	incf	fsr0,f
  7297  0A92  0A84               	movf	indf,w
  7298  0A93  0800               	movwf	(___flneg@f1+2)
  7299  0A94  00F2               	incf	fsr0,f
  7300  0A95  0A84               	movf	indf,w
  7301  0A96  0800               	movwf	(___flneg@f1+3)
  7302  0A97  00F3               	fcall	___flneg
  7303  0A98  160A  118A  2154  120A  158A  	movf	(3+(?___flneg)),w
  7304  0A9D  0873               	movwf	(___fladd@a+3)
  7305  0A9E  00FB               	movf	(2+(?___flneg)),w
  7306  0A9F  0872               	movwf	(___fladd@a+2)
  7307  0AA0  00FA               	movf	(1+(?___flneg)),w
  7308  0AA1  0871               	movwf	(___fladd@a+1)
  7309  0AA2  00F9               	movf	(0+(?___flneg)),w
  7310  0AA3  0870               	movwf	(___fladd@a)
  7311  0AA4  00F8               
  7312                           	fcall	___fladd
  7313  0AA5  120A  118A  21B9  120A  158A  	movf	(3+(?___fladd)),w
  7314  0AAA  0877               	bcf	status, 5	;RP0=0, select bank0
  7315  0AAB  1283               	bcf	status, 6	;RP1=0, select bank0
  7316  0AAC  1303               	movwf	(___fldiv@b+3)
  7317  0AAD  00B7               	movf	(2+(?___fladd)),w
  7318  0AAE  0876               	movwf	(___fldiv@b+2)
  7319  0AAF  00B6               	movf	(1+(?___fladd)),w
  7320  0AB0  0875               	movwf	(___fldiv@b+1)
  7321  0AB1  00B5               	movf	(0+(?___fladd)),w
  7322  0AB2  0874               	movwf	(___fldiv@b)
  7323  0AB3  00B4               
  7324                           	fcall	___fldiv
  7325  0AB4  120A  158A  2349  120A  158A  	bcf	status, 5	;RP0=0, select bank0
  7326  0AB9  1283               	bcf	status, 6	;RP1=0, select bank0
  7327  0ABA  1303               	movf	(3+(?___fldiv)),w
  7328  0ABB  0833               	movwf	(___flmul@a+3)
  7329  0ABC  00D1               	movf	(2+(?___fldiv)),w
  7330  0ABD  0832               	movwf	(___flmul@a+2)
  7331  0ABE  00D0               	movf	(1+(?___fldiv)),w
  7332  0ABF  0831               	movwf	(___flmul@a+1)
  7333  0AC0  00CF               	movf	(0+(?___fldiv)),w
  7334  0AC1  0830               	movwf	(___flmul@a)
  7335  0AC2  00CE               
  7336                           	fcall	___flmul
  7337  0AC3  120A  118A  2475  120A  158A  	bcf	status, 5	;RP0=0, select bank0
  7338  0AC8  1283               	bcf	status, 6	;RP1=0, select bank0
  7339  0AC9  1303               	movf	(3+(?___flmul)),w
  7340  0ACA  084D               	bsf	status, 5	;RP0=1, select bank3
  7341  0ACB  1683               	bsf	status, 6	;RP1=1, select bank3
  7342  0ACC  1703               	movwf	3+(_PID)^0180h+027h
  7343  0ACD  00BA               	bcf	status, 5	;RP0=0, select bank0
  7344  0ACE  1283               	bcf	status, 6	;RP1=0, select bank0
  7345  0ACF  1303               	movf	(2+(?___flmul)),w
  7346  0AD0  084C               	bsf	status, 5	;RP0=1, select bank3
  7347  0AD1  1683               	bsf	status, 6	;RP1=1, select bank3
  7348  0AD2  1703               	movwf	2+(_PID)^0180h+027h
  7349  0AD3  00B9               	bcf	status, 5	;RP0=0, select bank0
  7350  0AD4  1283               	bcf	status, 6	;RP1=0, select bank0
  7351  0AD5  1303               	movf	(1+(?___flmul)),w
  7352  0AD6  084B               	bsf	status, 5	;RP0=1, select bank3
  7353  0AD7  1683               	bsf	status, 6	;RP1=1, select bank3
  7354  0AD8  1703               	movwf	1+(_PID)^0180h+027h
  7355  0AD9  00B8               	bcf	status, 5	;RP0=0, select bank0
  7356  0ADA  1283               	bcf	status, 6	;RP1=0, select bank0
  7357  0ADB  1303               	movf	(0+(?___flmul)),w
  7358  0ADC  084A               	bsf	status, 5	;RP0=1, select bank3
  7359  0ADD  1683               	bsf	status, 6	;RP1=1, select bank3
  7360  0ADE  1703               	movwf	0+(_PID)^0180h+027h
  7361  0ADF  00B7               
  7362                           	line	51
  7363                           	
  7364                           l3635:	
  7365  0AE0                     ;PIDController.c: 51:     PID.AccionControl = PID.P + PID.I + PID.D;
  7366                           	movlw	low(01Fh)
  7367  0AE0  301F               	addlw	low(_PID|((0x1)<<8))&0ffh
  7368  0AE1  3E90               	movwf	fsr0
  7369  0AE2  0084               	bsf	status, 7	;select IRP bank3
  7370  0AE3  1783               	movf	indf,w
  7371  0AE4  0800               	movwf	(___fladd@b)
  7372  0AE5  00F4               	incf	fsr0,f
  7373  0AE6  0A84               	movf	indf,w
  7374  0AE7  0800               	movwf	(___fladd@b+1)
  7375  0AE8  00F5               	incf	fsr0,f
  7376  0AE9  0A84               	movf	indf,w
  7377  0AEA  0800               	movwf	(___fladd@b+2)
  7378  0AEB  00F6               	incf	fsr0,f
  7379  0AEC  0A84               	movf	indf,w
  7380  0AED  0800               	movwf	(___fladd@b+3)
  7381  0AEE  00F7               	movlw	low(023h)
  7382  0AEF  3023               	addlw	low(_PID|((0x1)<<8))&0ffh
  7383  0AF0  3E90               	movwf	fsr0
  7384  0AF1  0084               	movf	indf,w
  7385  0AF2  0800               	movwf	(___fladd@a)
  7386  0AF3  00F8               	incf	fsr0,f
  7387  0AF4  0A84               	movf	indf,w
  7388  0AF5  0800               	movwf	(___fladd@a+1)
  7389  0AF6  00F9               	incf	fsr0,f
  7390  0AF7  0A84               	movf	indf,w
  7391  0AF8  0800               	movwf	(___fladd@a+2)
  7392  0AF9  00FA               	incf	fsr0,f
  7393  0AFA  0A84               	movf	indf,w
  7394  0AFB  0800               	movwf	(___fladd@a+3)
  7395  0AFC  00FB               	fcall	___fladd
  7396  0AFD  120A  118A  21B9  120A  158A  	movf	(3+(?___fladd)),w
  7397  0B02  0877               	bsf	status, 5	;RP0=1, select bank1
  7398  0B03  1683               	bcf	status, 6	;RP1=0, select bank1
  7399  0B04  1303               	movwf	(_AccionControl$1274+3)^080h
  7400  0B05  00C6               	movf	(2+(?___fladd)),w
  7401  0B06  0876               	movwf	(_AccionControl$1274+2)^080h
  7402  0B07  00C5               	movf	(1+(?___fladd)),w
  7403  0B08  0875               	movwf	(_AccionControl$1274+1)^080h
  7404  0B09  00C4               	movf	(0+(?___fladd)),w
  7405  0B0A  0874               	movwf	(_AccionControl$1274)^080h
  7406  0B0B  00C3               
  7407                           	
  7408                           l3637:	
  7409  0B0C                     ;PIDController.c: 51:     PID.AccionControl = PID.P + PID.I + PID.D;
  7410                           	movlw	low(027h)
  7411  0B0C  3027               	addlw	low(_PID|((0x1)<<8))&0ffh
  7412  0B0D  3E90               	movwf	fsr0
  7413  0B0E  0084               	bsf	status, 7	;select IRP bank3
  7414  0B0F  1783               	movf	indf,w
  7415  0B10  0800               	movwf	(___fladd@b)
  7416  0B11  00F4               	incf	fsr0,f
  7417  0B12  0A84               	movf	indf,w
  7418  0B13  0800               	movwf	(___fladd@b+1)
  7419  0B14  00F5               	incf	fsr0,f
  7420  0B15  0A84               	movf	indf,w
  7421  0B16  0800               	movwf	(___fladd@b+2)
  7422  0B17  00F6               	incf	fsr0,f
  7423  0B18  0A84               	movf	indf,w
  7424  0B19  0800               	movwf	(___fladd@b+3)
  7425  0B1A  00F7               	movf	(_AccionControl$1274+3)^080h,w
  7426  0B1B  0846               	movwf	(___fladd@a+3)
  7427  0B1C  00FB               	movf	(_AccionControl$1274+2)^080h,w
  7428  0B1D  0845               	movwf	(___fladd@a+2)
  7429  0B1E  00FA               	movf	(_AccionControl$1274+1)^080h,w
  7430  0B1F  0844               	movwf	(___fladd@a+1)
  7431  0B20  00F9               	movf	(_AccionControl$1274)^080h,w
  7432  0B21  0843               	movwf	(___fladd@a)
  7433  0B22  00F8               
  7434                           	fcall	___fladd
  7435  0B23  120A  118A  21B9  120A  158A  	movf	(3+(?___fladd)),w
  7436  0B28  0877               	bsf	status, 5	;RP0=1, select bank3
  7437  0B29  1683               	bsf	status, 6	;RP1=1, select bank3
  7438  0B2A  1703               	movwf	3+(_PID)^0180h+02Bh
  7439  0B2B  00BE               	movf	(2+(?___fladd)),w
  7440  0B2C  0876               	movwf	2+(_PID)^0180h+02Bh
  7441  0B2D  00BD               	movf	(1+(?___fladd)),w
  7442  0B2E  0875               	movwf	1+(_PID)^0180h+02Bh
  7443  0B2F  00BC               	movf	(0+(?___fladd)),w
  7444  0B30  0874               	movwf	0+(_PID)^0180h+02Bh
  7445  0B31  00BB               
  7446                           	line	52
  7447                           	
  7448                           l3639:	
  7449  0B32                     ;PIDController.c: 52:     return (char)PID.AccionControl;
  7450                           	movlw	low(02Bh)
  7451  0B32  302B               	addlw	low(_PID|((0x1)<<8))&0ffh
  7452  0B33  3E90               	movwf	fsr0
  7453  0B34  0084               	bsf	status, 7	;select IRP bank3
  7454  0B35  1783               	movf	indf,w
  7455  0B36  0800               	movwf	(___fltol@f1)
  7456  0B37  00F0               	incf	fsr0,f
  7457  0B38  0A84               	movf	indf,w
  7458  0B39  0800               	movwf	(___fltol@f1+1)
  7459  0B3A  00F1               	incf	fsr0,f
  7460  0B3B  0A84               	movf	indf,w
  7461  0B3C  0800               	movwf	(___fltol@f1+2)
  7462  0B3D  00F2               	incf	fsr0,f
  7463  0B3E  0A84               	movf	indf,w
  7464  0B3F  0800               	movwf	(___fltol@f1+3)
  7465  0B40  00F3               	fcall	___fltol
  7466  0B41  160A  118A  2439  120A  158A  	movf	(0+(?___fltol)),w
  7467  0B46  0870               	goto	l477
  7468  0B47  2B48               	
  7469                           l3641:	
  7470  0B48                     	line	53
  7471                           	
  7472                           l477:	
  7473  0B48                     	return
  7474  0B48  0008               	opt stack 0
  7475                           GLOBAL	__end_of_AccionControl
  7476                           	__end_of_AccionControl:
  7477  0B49                     	signat	_AccionControl,12409
  7478                           	global	___fltol
  7479                           
  7480 ;; *************** function ___fltol *****************
  7481 ;; Defined at:
  7482 ;;		line 43 in file "C:\Program Files (x86)\Microchip\xc8\v2.00\pic\sources\c90\common\fltol.c"
  7483 ;; Parameters:    Size  Location     Type
  7484 ;;  f1              4    0[COMMON] unsigned char 
  7485 ;; Auto vars:     Size  Location     Type
  7486 ;;  exp1            1   10[COMMON] unsigned char 
  7487 ;;  sign1           1    9[COMMON] unsigned char 
  7488 ;; Return value:  Size  Location     Type
  7489 ;;                  4    0[COMMON] long 
  7490 ;; Registers used:
  7491 ;;		wreg, status,2, status,0
  7492 ;; Tracked objects:
  7493 ;;		On entry : 0/0
  7494 ;;		On exit  : 0/0
  7495 ;;		Unchanged: 0/0
  7496 ;; Data sizes:     COMMON   BANK0   BANK1   BANK3   BANK2
  7497 ;;      Params:         4       0       0       0       0
  7498 ;;      Locals:         2       0       0       0       0
  7499 ;;      Temps:          5       0       0       0       0
  7500 ;;      Totals:        11       0       0       0       0
  7501 ;;Total ram usage:       11 bytes
  7502 ;; Hardware stack levels used:    1
  7503 ;; This function calls:
  7504 ;;		Nothing
  7505 ;; This function is called by:
  7506 ;;		_AccionControl
  7507 ;; This function uses a non-reentrant model
  7508 ;;
  7509                           psect	text20,local,class=CODE,delta=2,merge=1,group=1
  7510                           	file	"C:\Program Files (x86)\Microchip\xc8\v2.00\pic\sources\c90\common\fltol.c"
  7511                           	line	43
  7512                           global __ptext20
  7513                           __ptext20:	;psect for function ___fltol
  7514  1439                     psect	text20
  7515                           	file	"C:\Program Files (x86)\Microchip\xc8\v2.00\pic\sources\c90\common\fltol.c"
  7516                           	line	43
  7517                           	global	__size_of___fltol
  7518                           	__size_of___fltol	equ	__end_of___fltol-___fltol
  7519  009A                     	
  7520                           ___fltol:	
  7521  1439                     ;incstack = 0
  7522                           	opt	stack 5
  7523                           ; Regs used in ___fltol: [wreg+status,2+status,0]
  7524                           	line	47
  7525                           	
  7526                           l2947:	
  7527  1439                     	movf	(___fltol@f1),w
  7528  1439  0870               	movwf	(??___fltol+0)+0
  7529  143A  00F4               	movf	(___fltol@f1+1),w
  7530  143B  0871               	movwf	((??___fltol+0)+0+1)
  7531  143C  00F5               	movf	(___fltol@f1+2),w
  7532  143D  0872               	movwf	((??___fltol+0)+0+2)
  7533  143E  00F6               	movf	(___fltol@f1+3),w
  7534  143F  0873               	movwf	((??___fltol+0)+0+3)
  7535  1440  00F7               	clrc
  7536  1441  1003               	rlf	(??___fltol+0)+2,w
  7537  1442  0D76               	rlf	(??___fltol+0)+3,w
  7538  1443  0D77               	movwf	(??___fltol+4)+0
  7539  1444  00F8               	movf	(??___fltol+4)+0,w
  7540  1445  0878               	movwf	(___fltol@exp1)
  7541  1446  00FA               	movf	(((___fltol@exp1))),w
  7542  1447  087A               	btfss	status,2
  7543  1448  1D03               	goto	u2161
  7544  1449  2C4B               	goto	u2160
  7545  144A  2C4C               u2161:
  7546  144B                     	goto	l2953
  7547  144B  2C56               u2160:
  7548  144C                     	line	48
  7549                           	
  7550                           l2949:	
  7551  144C                     	movlw	high highword(0)
  7552  144C  3000               	movwf	(?___fltol+3)
  7553  144D  00F3               	movlw	low highword(0)
  7554  144E  3000               	movwf	(?___fltol+2)
  7555  144F  00F2               	movlw	high(0)
  7556  1450  3000               	movwf	(?___fltol+1)
  7557  1451  00F1               	movlw	low(0)
  7558  1452  3000               	movwf	(?___fltol)
  7559  1453  00F0               
  7560                           	goto	l780
  7561  1454  2CD2               	
  7562                           l2951:	
  7563  1455                     	goto	l780
  7564  1455  2CD2               	
  7565                           l779:	
  7566  1456                     	line	49
  7567                           	
  7568                           l2953:	
  7569  1456                     	movf	(___fltol@f1),w
  7570  1456  0870               	movwf	(??___fltol+0)+0
  7571  1457  00F4               	movf	(___fltol@f1+1),w
  7572  1458  0871               	movwf	((??___fltol+0)+0+1)
  7573  1459  00F5               	movf	(___fltol@f1+2),w
  7574  145A  0872               	movwf	((??___fltol+0)+0+2)
  7575  145B  00F6               	movf	(___fltol@f1+3),w
  7576  145C  0873               	movwf	((??___fltol+0)+0+3)
  7577  145D  00F7               	movlw	01Fh
  7578  145E  301F               u2175:
  7579  145F                     	clrc
  7580  145F  1003               	rrf	(??___fltol+0)+3,f
  7581  1460  0CF7               	rrf	(??___fltol+0)+2,f
  7582  1461  0CF6               	rrf	(??___fltol+0)+1,f
  7583  1462  0CF5               	rrf	(??___fltol+0)+0,f
  7584  1463  0CF4               u2170:
  7585  1464                     	addlw	-1
  7586  1464  3EFF               	skipz
  7587  1465  1D03               	goto	u2175
  7588  1466  2C5F               	movf	0+(??___fltol+0)+0,w
  7589  1467  0874               	movwf	(??___fltol+4)+0
  7590  1468  00F8               	movf	(??___fltol+4)+0,w
  7591  1469  0878               	movwf	(___fltol@sign1)
  7592  146A  00F9               	line	50
  7593                           	
  7594                           l2955:	
  7595  146B                     	bsf	(___fltol@f1)+(23/8),(23)&7
  7596  146B  17F2               	line	51
  7597                           	
  7598                           l2957:	
  7599  146C                     	movlw	0FFh
  7600  146C  30FF               	andwf	(___fltol@f1),f
  7601  146D  05F0               	movlw	0FFh
  7602  146E  30FF               	andwf	(___fltol@f1+1),f
  7603  146F  05F1               	movlw	0FFh
  7604  1470  30FF               	andwf	(___fltol@f1+2),f
  7605  1471  05F2               	movlw	0
  7606  1472  3000               	andwf	(___fltol@f1+3),f
  7607  1473  05F3               	line	52
  7608                           	
  7609                           l2959:	
  7610  1474                     	movlw	096h
  7611  1474  3096               	subwf	(___fltol@exp1),f
  7612  1475  02FA               	line	53
  7613                           	
  7614                           l2961:	
  7615  1476                     	btfss	(___fltol@exp1),7
  7616  1476  1FFA               	goto	u2181
  7617  1477  2C79               	goto	u2180
  7618  1478  2C7A               u2181:
  7619  1479                     	goto	l2971
  7620  1479  2C9F               u2180:
  7621  147A                     	line	54
  7622                           	
  7623                           l2963:	
  7624  147A                     	movf	(___fltol@exp1),w
  7625  147A  087A               	xorlw	80h
  7626  147B  3A80               	addlw	-((-23)^80h)
  7627  147C  3E97               	skipnc
  7628  147D  1803               	goto	u2191
  7629  147E  2C80               	goto	u2190
  7630  147F  2C81               u2191:
  7631  1480                     	goto	l2969
  7632  1480  2C8C               u2190:
  7633  1481                     	line	55
  7634                           	
  7635                           l2965:	
  7636  1481                     	movlw	high highword(0)
  7637  1481  3000               	movwf	(?___fltol+3)
  7638  1482  00F3               	movlw	low highword(0)
  7639  1483  3000               	movwf	(?___fltol+2)
  7640  1484  00F2               	movlw	high(0)
  7641  1485  3000               	movwf	(?___fltol+1)
  7642  1486  00F1               	movlw	low(0)
  7643  1487  3000               	movwf	(?___fltol)
  7644  1488  00F0               
  7645                           	goto	l780
  7646  1489  2CD2               	
  7647                           l2967:	
  7648  148A                     	goto	l780
  7649  148A  2CD2               	
  7650                           l782:	
  7651  148B                     	goto	l2969
  7652  148B  2C8C               	line	56
  7653                           	
  7654                           l783:	
  7655  148C                     	line	57
  7656                           	
  7657                           l2969:	
  7658  148C                     	movlw	01h
  7659  148C  3001               u2205:
  7660  148D                     	clrc
  7661  148D  1003               	rrf	(___fltol@f1+3),f
  7662  148E  0CF3               	rrf	(___fltol@f1+2),f
  7663  148F  0CF2               	rrf	(___fltol@f1+1),f
  7664  1490  0CF1               	rrf	(___fltol@f1),f
  7665  1491  0CF0               	addlw	-1
  7666  1492  3EFF               	skipz
  7667  1493  1D03               	goto	u2205
  7668  1494  2C8D               
  7669                           	line	58
  7670                           	movlw	low(01h)
  7671  1495  3001               	movwf	(??___fltol+0)+0
  7672  1496  00F4               	movf	(??___fltol+0)+0,w
  7673  1497  0874               	addwf	(___fltol@exp1),f
  7674  1498  07FA               	btfss	status,2
  7675  1499  1D03               	goto	u2211
  7676  149A  2C9C               	goto	u2210
  7677  149B  2C9D               u2211:
  7678  149C                     	goto	l2969
  7679  149C  2C8C               u2210:
  7680  149D                     	goto	l2979
  7681  149D  2CC2               	
  7682                           l784:	
  7683  149E                     	line	59
  7684                           	goto	l2979
  7685  149E  2CC2               	
  7686                           l781:	
  7687  149F                     	line	60
  7688                           	
  7689                           l2971:	
  7690  149F                     	movlw	low(020h)
  7691  149F  3020               	subwf	(___fltol@exp1),w
  7692  14A0  027A               	skipc
  7693  14A1  1C03               	goto	u2221
  7694  14A2  2CA4               	goto	u2220
  7695  14A3  2CA5               u2221:
  7696  14A4                     	goto	l787
  7697  14A4  2CBB               u2220:
  7698  14A5                     	line	61
  7699                           	
  7700                           l2973:	
  7701  14A5                     	movlw	high highword(0)
  7702  14A5  3000               	movwf	(?___fltol+3)
  7703  14A6  00F3               	movlw	low highword(0)
  7704  14A7  3000               	movwf	(?___fltol+2)
  7705  14A8  00F2               	movlw	high(0)
  7706  14A9  3000               	movwf	(?___fltol+1)
  7707  14AA  00F1               	movlw	low(0)
  7708  14AB  3000               	movwf	(?___fltol)
  7709  14AC  00F0               
  7710                           	goto	l780
  7711  14AD  2CD2               	
  7712                           l2975:	
  7713  14AE                     	goto	l780
  7714  14AE  2CD2               	
  7715                           l786:	
  7716  14AF                     	line	62
  7717                           	goto	l787
  7718  14AF  2CBB               	
  7719                           l788:	
  7720  14B0                     	line	63
  7721                           	
  7722                           l2977:	
  7723  14B0                     	movlw	01h
  7724  14B0  3001               	movwf	(??___fltol+0)+0
  7725  14B1  00F4               u2235:
  7726  14B2                     	clrc
  7727  14B2  1003               	rlf	(___fltol@f1),f
  7728  14B3  0DF0               	rlf	(___fltol@f1+1),f
  7729  14B4  0DF1               	rlf	(___fltol@f1+2),f
  7730  14B5  0DF2               	rlf	(___fltol@f1+3),f
  7731  14B6  0DF3               	decfsz	(??___fltol+0)+0
  7732  14B7  0BF4               	goto	u2235
  7733  14B8  2CB2               	line	64
  7734                           	movlw	01h
  7735  14B9  3001               	subwf	(___fltol@exp1),f
  7736  14BA  02FA               	line	65
  7737                           	
  7738                           l787:	
  7739  14BB                     	line	62
  7740                           	movf	((___fltol@exp1)),w
  7741  14BB  087A               	btfss	status,2
  7742  14BC  1D03               	goto	u2241
  7743  14BD  2CBF               	goto	u2240
  7744  14BE  2CC0               u2241:
  7745  14BF                     	goto	l2977
  7746  14BF  2CB0               u2240:
  7747  14C0                     	goto	l2979
  7748  14C0  2CC2               	
  7749                           l789:	
  7750  14C1                     	goto	l2979
  7751  14C1  2CC2               	line	66
  7752                           	
  7753                           l785:	
  7754  14C2                     	line	67
  7755                           	
  7756                           l2979:	
  7757  14C2                     	movf	((___fltol@sign1)),w
  7758  14C2  0879               	btfsc	status,2
  7759  14C3  1903               	goto	u2251
  7760  14C4  2CC6               	goto	u2250
  7761  14C5  2CC7               u2251:
  7762  14C6                     	goto	l790
  7763  14C6  2CD2               u2250:
  7764  14C7                     	line	68
  7765                           	
  7766                           l2981:	
  7767  14C7                     	comf	(___fltol@f1),f
  7768  14C7  09F0               	comf	(___fltol@f1+1),f
  7769  14C8  09F1               	comf	(___fltol@f1+2),f
  7770  14C9  09F2               	comf	(___fltol@f1+3),f
  7771  14CA  09F3               	incf	(___fltol@f1),f
  7772  14CB  0AF0               	skipnz
  7773  14CC  1903               	incf	(___fltol@f1+1),f
  7774  14CD  0AF1               	skipnz
  7775  14CE  1903               	incf	(___fltol@f1+2),f
  7776  14CF  0AF2               	skipnz
  7777  14D0  1903               	incf	(___fltol@f1+3),f
  7778  14D1  0AF3               	
  7779                           l790:	
  7780  14D2                     	line	69
  7781                           	line	70
  7782                           	
  7783                           l780:	
  7784  14D2                     	return
  7785  14D2  0008               	opt stack 0
  7786                           GLOBAL	__end_of___fltol
  7787                           	__end_of___fltol:
  7788  14D3                     	signat	___fltol,4220
  7789                           	global	___flneg
  7790                           
  7791 ;; *************** function ___flneg *****************
  7792 ;; Defined at:
  7793 ;;		line 15 in file "C:\Program Files (x86)\Microchip\xc8\v2.00\pic\sources\c90\common\flneg.c"
  7794 ;; Parameters:    Size  Location     Type
  7795 ;;  f1              4    0[COMMON] long 
  7796 ;; Auto vars:     Size  Location     Type
  7797 ;;		None
  7798 ;; Return value:  Size  Location     Type
  7799 ;;                  4    0[COMMON] long 
  7800 ;; Registers used:
  7801 ;;		wreg
  7802 ;; Tracked objects:
  7803 ;;		On entry : 0/0
  7804 ;;		On exit  : 0/0
  7805 ;;		Unchanged: 0/0
  7806 ;; Data sizes:     COMMON   BANK0   BANK1   BANK3   BANK2
  7807 ;;      Params:         4       0       0       0       0
  7808 ;;      Locals:         0       0       0       0       0
  7809 ;;      Temps:          0       0       0       0       0
  7810 ;;      Totals:         4       0       0       0       0
  7811 ;;Total ram usage:        4 bytes
  7812 ;; Hardware stack levels used:    1
  7813 ;; This function calls:
  7814 ;;		Nothing
  7815 ;; This function is called by:
  7816 ;;		_AccionControl
  7817 ;; This function uses a non-reentrant model
  7818 ;;
  7819                           psect	text21,local,class=CODE,delta=2,merge=1,group=1
  7820                           	file	"C:\Program Files (x86)\Microchip\xc8\v2.00\pic\sources\c90\common\flneg.c"
  7821                           	line	15
  7822                           global __ptext21
  7823                           __ptext21:	;psect for function ___flneg
  7824  1154                     psect	text21
  7825                           	file	"C:\Program Files (x86)\Microchip\xc8\v2.00\pic\sources\c90\common\flneg.c"
  7826                           	line	15
  7827                           	global	__size_of___flneg
  7828                           	__size_of___flneg	equ	__end_of___flneg-___flneg
  7829  000D                     	
  7830                           ___flneg:	
  7831  1154                     ;incstack = 0
  7832                           	opt	stack 5
  7833                           ; Regs used in ___flneg: [wreg]
  7834                           	line	17
  7835                           	
  7836                           l2939:	
  7837  1154                     	movf	(___flneg@f1+3),w
  7838  1154  0873               	iorwf	(___flneg@f1+2),w
  7839  1155  0472               	iorwf	(___flneg@f1+1),w
  7840  1156  0471               	iorwf	(___flneg@f1),w
  7841  1157  0470               	skipnz
  7842  1158  1903               	goto	u2151
  7843  1159  295B               	goto	u2150
  7844  115A  295C               u2151:
  7845  115B                     	goto	l2943
  7846  115B  295F               u2150:
  7847  115C                     	line	18
  7848                           	
  7849                           l2941:	
  7850  115C                     	movlw	080h
  7851  115C  3080               	xorwf	(___flneg@f1+3),f
  7852  115D  06F3               	goto	l2943
  7853  115E  295F               	
  7854                           l775:	
  7855  115F                     	line	19
  7856                           	
  7857                           l2943:	
  7858  115F                     	goto	l776
  7859  115F  2960               	
  7860                           l2945:	
  7861  1160                     	line	20
  7862                           	
  7863                           l776:	
  7864  1160                     	return
  7865  1160  0008               	opt stack 0
  7866                           GLOBAL	__end_of___flneg
  7867                           	__end_of___flneg:
  7868  1161                     	signat	___flneg,4220
  7869                           	global	___flmul
  7870                           
  7871 ;; *************** function ___flmul *****************
  7872 ;; Defined at:
  7873 ;;		line 8 in file "C:\Program Files (x86)\Microchip\xc8\v2.00\pic\sources\c90\common\sprcmul.c"
  7874 ;; Parameters:    Size  Location     Type
  7875 ;;  b               4   42[BANK0 ] long 
  7876 ;;  a               4   46[BANK0 ] long 
  7877 ;; Auto vars:     Size  Location     Type
  7878 ;;  prod            4   62[BANK0 ] struct .
  7879 ;;  grs             4   56[BANK0 ] unsigned long 
  7880 ;;  temp            2   66[BANK0 ] struct .
  7881 ;;  bexp            1   61[BANK0 ] unsigned char 
  7882 ;;  aexp            1   60[BANK0 ] unsigned char 
  7883 ;;  sign            1   55[BANK0 ] unsigned char 
  7884 ;; Return value:  Size  Location     Type
  7885 ;;                  4   42[BANK0 ] unsigned char 
  7886 ;; Registers used:
  7887 ;;		wreg, status,2, status,0, btemp+1, pclath, cstack
  7888 ;; Tracked objects:
  7889 ;;		On entry : 0/0
  7890 ;;		On exit  : 0/0
  7891 ;;		Unchanged: 0/0
  7892 ;; Data sizes:     COMMON   BANK0   BANK1   BANK3   BANK2
  7893 ;;      Params:         0       8       0       0       0
  7894 ;;      Locals:         0      13       0       0       0
  7895 ;;      Temps:          0       5       0       0       0
  7896 ;;      Totals:         0      26       0       0       0
  7897 ;;Total ram usage:       26 bytes
  7898 ;; Hardware stack levels used:    1
  7899 ;; Hardware stack levels required when called:    1
  7900 ;; This function calls:
  7901 ;;		__Umul8_16
  7902 ;; This function is called by:
  7903 ;;		_AccionControl
  7904 ;; This function uses a non-reentrant model
  7905 ;;
  7906                           psect	text22,local,class=CODE,delta=2,merge=1,group=1
  7907                           	file	"C:\Program Files (x86)\Microchip\xc8\v2.00\pic\sources\c90\common\sprcmul.c"
  7908                           	line	8
  7909                           global __ptext22
  7910                           __ptext22:	;psect for function ___flmul
  7911  0475                     psect	text22
  7912                           	file	"C:\Program Files (x86)\Microchip\xc8\v2.00\pic\sources\c90\common\sprcmul.c"
  7913                           	line	8
  7914                           	global	__size_of___flmul
  7915                           	__size_of___flmul	equ	__end_of___flmul-___flmul
  7916  0375                     	
  7917                           ___flmul:	
  7918  0475                     ;incstack = 0
  7919                           	opt	stack 4
  7920                           ; Regs used in ___flmul: [wreg+status,2+status,0+btemp+1+pclath+cstack]
  7921                           	line	17
  7922                           	
  7923                           l3367:	
  7924  0475                     	bcf	status, 5	;RP0=0, select bank0
  7925  0475  1283               	bcf	status, 6	;RP1=0, select bank0
  7926  0476  1303               	movf	0+(___flmul@b)+03h,w
  7927  0477  084D               	andlw	080h
  7928  0478  3980               	movwf	(??___flmul+0)+0
  7929  0479  00D2               	movf	(??___flmul+0)+0,w
  7930  047A  0852               	movwf	(___flmul@sign)
  7931  047B  00D7               	line	18
  7932                           	
  7933                           l3369:	
  7934  047C                     	movf	0+(___flmul@b)+03h,w
  7935  047C  084D               	movwf	(??___flmul+0)+0
  7936  047D  00D2               	addwf	(??___flmul+0)+0,w
  7937  047E  0752               	movwf	(??___flmul+1)+0
  7938  047F  00D3               	movf	(??___flmul+1)+0,w
  7939  0480  0853               	movwf	(___flmul@bexp)
  7940  0481  00DD               	line	19
  7941                           	
  7942                           l3371:	
  7943  0482                     	btfss	0+(___flmul@b)+02h,(7)&7
  7944  0482  1FCC               	goto	u3141
  7945  0483  2C85               	goto	u3140
  7946  0484  2C86               u3141:
  7947  0485                     	goto	l3375
  7948  0485  2C88               u3140:
  7949  0486                     	line	20
  7950                           	
  7951                           l3373:	
  7952  0486                     	bsf	(___flmul@bexp)+(0/8),(0)&7
  7953  0486  145D               	goto	l3375
  7954  0487  2C88               	line	21
  7955                           	
  7956                           l972:	
  7957  0488                     	line	24
  7958                           	
  7959                           l3375:	
  7960  0488                     	movf	((___flmul@bexp)),w
  7961  0488  085D               	btfsc	status,2
  7962  0489  1903               	goto	u3151
  7963  048A  2C8C               	goto	u3150
  7964  048B  2C8D               u3151:
  7965  048C                     	goto	l3383
  7966  048C  2C9D               u3150:
  7967  048D                     	line	26
  7968                           	
  7969                           l3377:	
  7970  048D                     		incf	((___flmul@bexp)),w
  7971  048D  0A5D               	btfss	status,2
  7972  048E  1D03               	goto	u3161
  7973  048F  2C91               	goto	u3160
  7974  0490  2C92               u3161:
  7975  0491                     	goto	l3381
  7976  0491  2C9B               u3160:
  7977  0492                     	line	28
  7978                           	
  7979                           l3379:	
  7980  0492                     	movlw	0x0
  7981  0492  3000               	movwf	(___flmul@b+3)
  7982  0493  00CD               	movlw	0x0
  7983  0494  3000               	movwf	(___flmul@b+2)
  7984  0495  00CC               	movlw	0x0
  7985  0496  3000               	movwf	(___flmul@b+1)
  7986  0497  00CB               	movlw	0x0
  7987  0498  3000               	movwf	(___flmul@b)
  7988  0499  00CA               
  7989                           	goto	l3381
  7990  049A  2C9B               	line	29
  7991                           	
  7992                           l974:	
  7993  049B                     	line	31
  7994                           	
  7995                           l3381:	
  7996  049B                     	bsf	(___flmul@b)+(23/8),(23)&7
  7997  049B  17CC               	line	33
  7998                           	goto	l3385
  7999  049C  2CA6               	line	34
  8000                           	
  8001                           l973:	
  8002  049D                     	line	36
  8003                           	
  8004                           l3383:	
  8005  049D                     	movlw	0x0
  8006  049D  3000               	movwf	(___flmul@b+3)
  8007  049E  00CD               	movlw	0x0
  8008  049F  3000               	movwf	(___flmul@b+2)
  8009  04A0  00CC               	movlw	0x0
  8010  04A1  3000               	movwf	(___flmul@b+1)
  8011  04A2  00CB               	movlw	0x0
  8012  04A3  3000               	movwf	(___flmul@b)
  8013  04A4  00CA               
  8014                           	goto	l3385
  8015  04A5  2CA6               	line	37
  8016                           	
  8017                           l975:	
  8018  04A6                     	line	39
  8019                           	
  8020                           l3385:	
  8021  04A6                     	movf	0+(___flmul@a)+03h,w
  8022  04A6  0851               	andlw	080h
  8023  04A7  3980               	movwf	(??___flmul+0)+0
  8024  04A8  00D2               	movf	(??___flmul+0)+0,w
  8025  04A9  0852               	xorwf	(___flmul@sign),f
  8026  04AA  06D7               	line	40
  8027                           	
  8028                           l3387:	
  8029  04AB                     	movf	0+(___flmul@a)+03h,w
  8030  04AB  0851               	movwf	(??___flmul+0)+0
  8031  04AC  00D2               	addwf	(??___flmul+0)+0,w
  8032  04AD  0752               	movwf	(??___flmul+1)+0
  8033  04AE  00D3               	movf	(??___flmul+1)+0,w
  8034  04AF  0853               	movwf	(___flmul@aexp)
  8035  04B0  00DC               	line	41
  8036                           	
  8037                           l3389:	
  8038  04B1                     	btfss	0+(___flmul@a)+02h,(7)&7
  8039  04B1  1FD0               	goto	u3171
  8040  04B2  2CB4               	goto	u3170
  8041  04B3  2CB5               u3171:
  8042  04B4                     	goto	l3393
  8043  04B4  2CB7               u3170:
  8044  04B5                     	line	42
  8045                           	
  8046                           l3391:	
  8047  04B5                     	bsf	(___flmul@aexp)+(0/8),(0)&7
  8048  04B5  145C               	goto	l3393
  8049  04B6  2CB7               	line	43
  8050                           	
  8051                           l976:	
  8052  04B7                     	line	45
  8053                           	
  8054                           l3393:	
  8055  04B7                     	movf	((___flmul@aexp)),w
  8056  04B7  085C               	btfsc	status,2
  8057  04B8  1903               	goto	u3181
  8058  04B9  2CBB               	goto	u3180
  8059  04BA  2CBC               u3181:
  8060  04BB                     	goto	l3401
  8061  04BB  2CCC               u3180:
  8062  04BC                     	line	48
  8063                           	
  8064                           l3395:	
  8065  04BC                     		incf	((___flmul@aexp)),w
  8066  04BC  0A5C               	btfss	status,2
  8067  04BD  1D03               	goto	u3191
  8068  04BE  2CC0               	goto	u3190
  8069  04BF  2CC1               u3191:
  8070  04C0                     	goto	l3399
  8071  04C0  2CCA               u3190:
  8072  04C1                     	line	50
  8073                           	
  8074                           l3397:	
  8075  04C1                     	movlw	0x0
  8076  04C1  3000               	movwf	(___flmul@a+3)
  8077  04C2  00D1               	movlw	0x0
  8078  04C3  3000               	movwf	(___flmul@a+2)
  8079  04C4  00D0               	movlw	0x0
  8080  04C5  3000               	movwf	(___flmul@a+1)
  8081  04C6  00CF               	movlw	0x0
  8082  04C7  3000               	movwf	(___flmul@a)
  8083  04C8  00CE               
  8084                           	goto	l3399
  8085  04C9  2CCA               	line	51
  8086                           	
  8087                           l978:	
  8088  04CA                     	line	53
  8089                           	
  8090                           l3399:	
  8091  04CA                     	bsf	(___flmul@a)+(23/8),(23)&7
  8092  04CA  17D0               	line	54
  8093                           	goto	l3403
  8094  04CB  2CD5               	line	55
  8095                           	
  8096                           l977:	
  8097  04CC                     	line	57
  8098                           	
  8099                           l3401:	
  8100  04CC                     	movlw	0x0
  8101  04CC  3000               	movwf	(___flmul@a+3)
  8102  04CD  00D1               	movlw	0x0
  8103  04CE  3000               	movwf	(___flmul@a+2)
  8104  04CF  00D0               	movlw	0x0
  8105  04D0  3000               	movwf	(___flmul@a+1)
  8106  04D1  00CF               	movlw	0x0
  8107  04D2  3000               	movwf	(___flmul@a)
  8108  04D3  00CE               
  8109                           	goto	l3403
  8110  04D4  2CD5               	line	58
  8111                           	
  8112                           l979:	
  8113  04D5                     	line	65
  8114                           	
  8115                           l3403:	
  8116  04D5                     	movf	((___flmul@aexp)),w
  8117  04D5  085C               	btfsc	status,2
  8118  04D6  1903               	goto	u3201
  8119  04D7  2CD9               	goto	u3200
  8120  04D8  2CDA               u3201:
  8121  04D9                     	goto	l3407
  8122  04D9  2CE0               u3200:
  8123  04DA                     	
  8124                           l3405:	
  8125  04DA                     	movf	((___flmul@bexp)),w
  8126  04DA  085D               	btfss	status,2
  8127  04DB  1D03               	goto	u3211
  8128  04DC  2CDE               	goto	u3210
  8129  04DD  2CDF               u3211:
  8130  04DE                     	goto	l3411
  8131  04DE  2CEA               u3210:
  8132  04DF                     	goto	l3407
  8133  04DF  2CE0               	
  8134                           l982:	
  8135  04E0                     	line	66
  8136                           	
  8137                           l3407:	
  8138  04E0                     	movlw	0x0
  8139  04E0  3000               	movwf	(?___flmul+3)
  8140  04E1  00CD               	movlw	0x0
  8141  04E2  3000               	movwf	(?___flmul+2)
  8142  04E3  00CC               	movlw	0x0
  8143  04E4  3000               	movwf	(?___flmul+1)
  8144  04E5  00CB               	movlw	0x0
  8145  04E6  3000               	movwf	(?___flmul)
  8146  04E7  00CA               
  8147                           	goto	l983
  8148  04E8  2FE9               	
  8149                           l3409:	
  8150  04E9                     	goto	l983
  8151  04E9  2FE9               	line	67
  8152                           	
  8153                           l980:	
  8154  04EA                     	line	119
  8155                           	
  8156                           l3411:	
  8157  04EA                     	movf	(___flmul@b),w
  8158  04EA  084A               	movwf	(??___flmul+0)+0
  8159  04EB  00D2               	movf	(??___flmul+0)+0,w
  8160  04EC  0852               	movwf	(__Umul8_16@multiplicand)
  8161  04ED  00F0               	movf	0+(___flmul@a)+02h,w
  8162  04EE  0850               	fcall	__Umul8_16
  8163  04EF  160A  118A  21A2  120A  118A  	movf	(1+(?__Umul8_16)),w
  8164  04F4  0871               	bcf	status, 5	;RP0=0, select bank0
  8165  04F5  1283               	bcf	status, 6	;RP1=0, select bank0
  8166  04F6  1303               	movwf	(___flmul@temp+1)
  8167  04F7  00E3               	movf	(0+(?__Umul8_16)),w
  8168  04F8  0870               	movwf	(___flmul@temp)
  8169  04F9  00E2               	line	120
  8170                           	
  8171                           l3413:	
  8172  04FA                     	movf	(___flmul@temp),w
  8173  04FA  0862               	movwf	(??___flmul+0)+0
  8174  04FB  00D2               	clrf	(??___flmul+0)+0+1
  8175  04FC  01D3               	clrf	(??___flmul+0)+0+2
  8176  04FD  01D4               	clrf	(??___flmul+0)+0+3
  8177  04FE  01D5               	movf	3+(??___flmul+0)+0,w
  8178  04FF  0855               	movwf	(___flmul@grs+3)
  8179  0500  00DB               	movf	2+(??___flmul+0)+0,w
  8180  0501  0854               	movwf	(___flmul@grs+2)
  8181  0502  00DA               	movf	1+(??___flmul+0)+0,w
  8182  0503  0853               	movwf	(___flmul@grs+1)
  8183  0504  00D9               	movf	0+(??___flmul+0)+0,w
  8184  0505  0852               	movwf	(___flmul@grs)
  8185  0506  00D8               
  8186                           	line	121
  8187                           	
  8188                           l3415:	
  8189  0507                     	movf	0+(___flmul@temp)+01h,w
  8190  0507  0863               	movwf	(??___flmul+0)+0
  8191  0508  00D2               	clrf	(??___flmul+0)+0+1
  8192  0509  01D3               	clrf	(??___flmul+0)+0+2
  8193  050A  01D4               	clrf	(??___flmul+0)+0+3
  8194  050B  01D5               	movf	3+(??___flmul+0)+0,w
  8195  050C  0855               	movwf	(___flmul@prod+3)
  8196  050D  00E1               	movf	2+(??___flmul+0)+0,w
  8197  050E  0854               	movwf	(___flmul@prod+2)
  8198  050F  00E0               	movf	1+(??___flmul+0)+0,w
  8199  0510  0853               	movwf	(___flmul@prod+1)
  8200  0511  00DF               	movf	0+(??___flmul+0)+0,w
  8201  0512  0852               	movwf	(___flmul@prod)
  8202  0513  00DE               
  8203                           	line	122
  8204                           	movf	0+(___flmul@b)+01h,w
  8205  0514  084B               	movwf	(??___flmul+0)+0
  8206  0515  00D2               	movf	(??___flmul+0)+0,w
  8207  0516  0852               	movwf	(__Umul8_16@multiplicand)
  8208  0517  00F0               	movf	0+(___flmul@a)+01h,w
  8209  0518  084F               	fcall	__Umul8_16
  8210  0519  160A  118A  21A2  120A  118A  	movf	(1+(?__Umul8_16)),w
  8211  051E  0871               	bcf	status, 5	;RP0=0, select bank0
  8212  051F  1283               	bcf	status, 6	;RP1=0, select bank0
  8213  0520  1303               	movwf	(___flmul@temp+1)
  8214  0521  00E3               	movf	(0+(?__Umul8_16)),w
  8215  0522  0870               	movwf	(___flmul@temp)
  8216  0523  00E2               	line	123
  8217                           	
  8218                           l3417:	
  8219  0524                     	movf	(___flmul@temp),w
  8220  0524  0862               	movwf	(??___flmul+0)+0
  8221  0525  00D2               	clrf	(??___flmul+0)+0+1
  8222  0526  01D3               	clrf	(??___flmul+0)+0+2
  8223  0527  01D4               	clrf	(??___flmul+0)+0+3
  8224  0528  01D5               	movf	0+(??___flmul+0)+0,w
  8225  0529  0852               	addwf	(___flmul@grs),f
  8226  052A  07D8               	movf	1+(??___flmul+0)+0,w
  8227  052B  0853               	clrz
  8228  052C  1103               	skipnc
  8229  052D  1803               	addlw	1
  8230  052E  3E01               	skipnz
  8231  052F  1903               	goto	u3221
  8232  0530  2D32               	addwf	(___flmul@grs+1),f
  8233  0531  07D9               u3221:
  8234  0532                     	movf	2+(??___flmul+0)+0,w
  8235  0532  0854               	clrz
  8236  0533  1103               	skipnc
  8237  0534  1803               	addlw	1
  8238  0535  3E01               	skipnz
  8239  0536  1903               	goto	u3222
  8240  0537  2D39               	addwf	(___flmul@grs+2),f
  8241  0538  07DA               u3222:
  8242  0539                     	movf	3+(??___flmul+0)+0,w
  8243  0539  0855               	clrz
  8244  053A  1103               	skipnc
  8245  053B  1803               	addlw	1
  8246  053C  3E01               	skipnz
  8247  053D  1903               	goto	u3223
  8248  053E  2D40               	addwf	(___flmul@grs+3),f
  8249  053F  07DB               u3223:
  8250  0540                     
  8251                           	line	124
  8252                           	
  8253                           l3419:	
  8254  0540                     	movf	0+(___flmul@temp)+01h,w
  8255  0540  0863               	movwf	(??___flmul+0)+0
  8256  0541  00D2               	clrf	(??___flmul+0)+0+1
  8257  0542  01D3               	clrf	(??___flmul+0)+0+2
  8258  0543  01D4               	clrf	(??___flmul+0)+0+3
  8259  0544  01D5               	movf	0+(??___flmul+0)+0,w
  8260  0545  0852               	addwf	(___flmul@prod),f
  8261  0546  07DE               	movf	1+(??___flmul+0)+0,w
  8262  0547  0853               	clrz
  8263  0548  1103               	skipnc
  8264  0549  1803               	addlw	1
  8265  054A  3E01               	skipnz
  8266  054B  1903               	goto	u3231
  8267  054C  2D4E               	addwf	(___flmul@prod+1),f
  8268  054D  07DF               u3231:
  8269  054E                     	movf	2+(??___flmul+0)+0,w
  8270  054E  0854               	clrz
  8271  054F  1103               	skipnc
  8272  0550  1803               	addlw	1
  8273  0551  3E01               	skipnz
  8274  0552  1903               	goto	u3232
  8275  0553  2D55               	addwf	(___flmul@prod+2),f
  8276  0554  07E0               u3232:
  8277  0555                     	movf	3+(??___flmul+0)+0,w
  8278  0555  0855               	clrz
  8279  0556  1103               	skipnc
  8280  0557  1803               	addlw	1
  8281  0558  3E01               	skipnz
  8282  0559  1903               	goto	u3233
  8283  055A  2D5C               	addwf	(___flmul@prod+3),f
  8284  055B  07E1               u3233:
  8285  055C                     
  8286                           	line	125
  8287                           	movf	0+(___flmul@b)+02h,w
  8288  055C  084C               	movwf	(??___flmul+0)+0
  8289  055D  00D2               	movf	(??___flmul+0)+0,w
  8290  055E  0852               	movwf	(__Umul8_16@multiplicand)
  8291  055F  00F0               	movf	(___flmul@a),w
  8292  0560  084E               	fcall	__Umul8_16
  8293  0561  160A  118A  21A2  120A  118A  	movf	(1+(?__Umul8_16)),w
  8294  0566  0871               	bcf	status, 5	;RP0=0, select bank0
  8295  0567  1283               	bcf	status, 6	;RP1=0, select bank0
  8296  0568  1303               	movwf	(___flmul@temp+1)
  8297  0569  00E3               	movf	(0+(?__Umul8_16)),w
  8298  056A  0870               	movwf	(___flmul@temp)
  8299  056B  00E2               	line	126
  8300                           	
  8301                           l3421:	
  8302  056C                     	movf	(___flmul@temp),w
  8303  056C  0862               	movwf	(??___flmul+0)+0
  8304  056D  00D2               	clrf	(??___flmul+0)+0+1
  8305  056E  01D3               	clrf	(??___flmul+0)+0+2
  8306  056F  01D4               	clrf	(??___flmul+0)+0+3
  8307  0570  01D5               	movf	0+(??___flmul+0)+0,w
  8308  0571  0852               	addwf	(___flmul@grs),f
  8309  0572  07D8               	movf	1+(??___flmul+0)+0,w
  8310  0573  0853               	clrz
  8311  0574  1103               	skipnc
  8312  0575  1803               	addlw	1
  8313  0576  3E01               	skipnz
  8314  0577  1903               	goto	u3241
  8315  0578  2D7A               	addwf	(___flmul@grs+1),f
  8316  0579  07D9               u3241:
  8317  057A                     	movf	2+(??___flmul+0)+0,w
  8318  057A  0854               	clrz
  8319  057B  1103               	skipnc
  8320  057C  1803               	addlw	1
  8321  057D  3E01               	skipnz
  8322  057E  1903               	goto	u3242
  8323  057F  2D81               	addwf	(___flmul@grs+2),f
  8324  0580  07DA               u3242:
  8325  0581                     	movf	3+(??___flmul+0)+0,w
  8326  0581  0855               	clrz
  8327  0582  1103               	skipnc
  8328  0583  1803               	addlw	1
  8329  0584  3E01               	skipnz
  8330  0585  1903               	goto	u3243
  8331  0586  2D88               	addwf	(___flmul@grs+3),f
  8332  0587  07DB               u3243:
  8333  0588                     
  8334                           	line	127
  8335                           	
  8336                           l3423:	
  8337  0588                     	movf	0+(___flmul@temp)+01h,w
  8338  0588  0863               	movwf	(??___flmul+0)+0
  8339  0589  00D2               	clrf	(??___flmul+0)+0+1
  8340  058A  01D3               	clrf	(??___flmul+0)+0+2
  8341  058B  01D4               	clrf	(??___flmul+0)+0+3
  8342  058C  01D5               	movf	0+(??___flmul+0)+0,w
  8343  058D  0852               	addwf	(___flmul@prod),f
  8344  058E  07DE               	movf	1+(??___flmul+0)+0,w
  8345  058F  0853               	clrz
  8346  0590  1103               	skipnc
  8347  0591  1803               	addlw	1
  8348  0592  3E01               	skipnz
  8349  0593  1903               	goto	u3251
  8350  0594  2D96               	addwf	(___flmul@prod+1),f
  8351  0595  07DF               u3251:
  8352  0596                     	movf	2+(??___flmul+0)+0,w
  8353  0596  0854               	clrz
  8354  0597  1103               	skipnc
  8355  0598  1803               	addlw	1
  8356  0599  3E01               	skipnz
  8357  059A  1903               	goto	u3252
  8358  059B  2D9D               	addwf	(___flmul@prod+2),f
  8359  059C  07E0               u3252:
  8360  059D                     	movf	3+(??___flmul+0)+0,w
  8361  059D  0855               	clrz
  8362  059E  1103               	skipnc
  8363  059F  1803               	addlw	1
  8364  05A0  3E01               	skipnz
  8365  05A1  1903               	goto	u3253
  8366  05A2  2DA4               	addwf	(___flmul@prod+3),f
  8367  05A3  07E1               u3253:
  8368  05A4                     
  8369                           	line	128
  8370                           	
  8371                           l3425:	
  8372  05A4                     	movlw	08h
  8373  05A4  3008               	movwf	(??___flmul+0)+0
  8374  05A5  00D2               u3265:
  8375  05A6                     	clrc
  8376  05A6  1003               	rlf	(___flmul@grs),f
  8377  05A7  0DD8               	rlf	(___flmul@grs+1),f
  8378  05A8  0DD9               	rlf	(___flmul@grs+2),f
  8379  05A9  0DDA               	rlf	(___flmul@grs+3),f
  8380  05AA  0DDB               	decfsz	(??___flmul+0)+0
  8381  05AB  0BD2               	goto	u3265
  8382  05AC  2DA6               	line	129
  8383                           	
  8384                           l3427:	
  8385  05AD                     	movf	0+(___flmul@b)+01h,w
  8386  05AD  084B               	movwf	(??___flmul+0)+0
  8387  05AE  00D2               	movf	(??___flmul+0)+0,w
  8388  05AF  0852               	movwf	(__Umul8_16@multiplicand)
  8389  05B0  00F0               	movf	(___flmul@a),w
  8390  05B1  084E               	fcall	__Umul8_16
  8391  05B2  160A  118A  21A2  120A  118A  	movf	(1+(?__Umul8_16)),w
  8392  05B7  0871               	bcf	status, 5	;RP0=0, select bank0
  8393  05B8  1283               	bcf	status, 6	;RP1=0, select bank0
  8394  05B9  1303               	movwf	(___flmul@temp+1)
  8395  05BA  00E3               	movf	(0+(?__Umul8_16)),w
  8396  05BB  0870               	movwf	(___flmul@temp)
  8397  05BC  00E2               	line	130
  8398                           	
  8399                           l3429:	
  8400  05BD                     	movf	(___flmul@temp),w
  8401  05BD  0862               	movwf	((??___flmul+0)+0)
  8402  05BE  00D2               	movf	(___flmul@temp+1),w
  8403  05BF  0863               	movwf	((??___flmul+0)+0+1)
  8404  05C0  00D3               	clrf	((??___flmul+0)+0+2)
  8405  05C1  01D4               	clrf	((??___flmul+0)+0+3)
  8406  05C2  01D5               	movf	0+(??___flmul+0)+0,w
  8407  05C3  0852               	addwf	(___flmul@grs),f
  8408  05C4  07D8               	movf	1+(??___flmul+0)+0,w
  8409  05C5  0853               	clrz
  8410  05C6  1103               	skipnc
  8411  05C7  1803               	addlw	1
  8412  05C8  3E01               	skipnz
  8413  05C9  1903               	goto	u3271
  8414  05CA  2DCC               	addwf	(___flmul@grs+1),f
  8415  05CB  07D9               u3271:
  8416  05CC                     	movf	2+(??___flmul+0)+0,w
  8417  05CC  0854               	clrz
  8418  05CD  1103               	skipnc
  8419  05CE  1803               	addlw	1
  8420  05CF  3E01               	skipnz
  8421  05D0  1903               	goto	u3272
  8422  05D1  2DD3               	addwf	(___flmul@grs+2),f
  8423  05D2  07DA               u3272:
  8424  05D3                     	movf	3+(??___flmul+0)+0,w
  8425  05D3  0855               	clrz
  8426  05D4  1103               	skipnc
  8427  05D5  1803               	addlw	1
  8428  05D6  3E01               	skipnz
  8429  05D7  1903               	goto	u3273
  8430  05D8  2DDA               	addwf	(___flmul@grs+3),f
  8431  05D9  07DB               u3273:
  8432  05DA                     
  8433                           	line	131
  8434                           	
  8435                           l3431:	
  8436  05DA                     	movf	(___flmul@b),w
  8437  05DA  084A               	movwf	(??___flmul+0)+0
  8438  05DB  00D2               	movf	(??___flmul+0)+0,w
  8439  05DC  0852               	movwf	(__Umul8_16@multiplicand)
  8440  05DD  00F0               	movf	0+(___flmul@a)+01h,w
  8441  05DE  084F               	fcall	__Umul8_16
  8442  05DF  160A  118A  21A2  120A  118A  	movf	(1+(?__Umul8_16)),w
  8443  05E4  0871               	bcf	status, 5	;RP0=0, select bank0
  8444  05E5  1283               	bcf	status, 6	;RP1=0, select bank0
  8445  05E6  1303               	movwf	(___flmul@temp+1)
  8446  05E7  00E3               	movf	(0+(?__Umul8_16)),w
  8447  05E8  0870               	movwf	(___flmul@temp)
  8448  05E9  00E2               	line	132
  8449                           	
  8450                           l3433:	
  8451  05EA                     	movf	(___flmul@temp),w
  8452  05EA  0862               	movwf	((??___flmul+0)+0)
  8453  05EB  00D2               	movf	(___flmul@temp+1),w
  8454  05EC  0863               	movwf	((??___flmul+0)+0+1)
  8455  05ED  00D3               	clrf	((??___flmul+0)+0+2)
  8456  05EE  01D4               	clrf	((??___flmul+0)+0+3)
  8457  05EF  01D5               	movf	0+(??___flmul+0)+0,w
  8458  05F0  0852               	addwf	(___flmul@grs),f
  8459  05F1  07D8               	movf	1+(??___flmul+0)+0,w
  8460  05F2  0853               	clrz
  8461  05F3  1103               	skipnc
  8462  05F4  1803               	addlw	1
  8463  05F5  3E01               	skipnz
  8464  05F6  1903               	goto	u3281
  8465  05F7  2DF9               	addwf	(___flmul@grs+1),f
  8466  05F8  07D9               u3281:
  8467  05F9                     	movf	2+(??___flmul+0)+0,w
  8468  05F9  0854               	clrz
  8469  05FA  1103               	skipnc
  8470  05FB  1803               	addlw	1
  8471  05FC  3E01               	skipnz
  8472  05FD  1903               	goto	u3282
  8473  05FE  2E00               	addwf	(___flmul@grs+2),f
  8474  05FF  07DA               u3282:
  8475  0600                     	movf	3+(??___flmul+0)+0,w
  8476  0600  0855               	clrz
  8477  0601  1103               	skipnc
  8478  0602  1803               	addlw	1
  8479  0603  3E01               	skipnz
  8480  0604  1903               	goto	u3283
  8481  0605  2E07               	addwf	(___flmul@grs+3),f
  8482  0606  07DB               u3283:
  8483  0607                     
  8484                           	line	133
  8485                           	
  8486                           l3435:	
  8487  0607                     	movlw	08h
  8488  0607  3008               	movwf	(??___flmul+0)+0
  8489  0608  00D2               u3295:
  8490  0609                     	clrc
  8491  0609  1003               	rlf	(___flmul@grs),f
  8492  060A  0DD8               	rlf	(___flmul@grs+1),f
  8493  060B  0DD9               	rlf	(___flmul@grs+2),f
  8494  060C  0DDA               	rlf	(___flmul@grs+3),f
  8495  060D  0DDB               	decfsz	(??___flmul+0)+0
  8496  060E  0BD2               	goto	u3295
  8497  060F  2E09               	line	134
  8498                           	movf	(___flmul@b),w
  8499  0610  084A               	movwf	(??___flmul+0)+0
  8500  0611  00D2               	movf	(??___flmul+0)+0,w
  8501  0612  0852               	movwf	(__Umul8_16@multiplicand)
  8502  0613  00F0               	movf	(___flmul@a),w
  8503  0614  084E               	fcall	__Umul8_16
  8504  0615  160A  118A  21A2  120A  118A  	movf	(1+(?__Umul8_16)),w
  8505  061A  0871               	bcf	status, 5	;RP0=0, select bank0
  8506  061B  1283               	bcf	status, 6	;RP1=0, select bank0
  8507  061C  1303               	movwf	(___flmul@temp+1)
  8508  061D  00E3               	movf	(0+(?__Umul8_16)),w
  8509  061E  0870               	movwf	(___flmul@temp)
  8510  061F  00E2               	line	135
  8511                           	
  8512                           l3437:	
  8513  0620                     	movf	(___flmul@temp),w
  8514  0620  0862               	movwf	((??___flmul+0)+0)
  8515  0621  00D2               	movf	(___flmul@temp+1),w
  8516  0622  0863               	movwf	((??___flmul+0)+0+1)
  8517  0623  00D3               	clrf	((??___flmul+0)+0+2)
  8518  0624  01D4               	clrf	((??___flmul+0)+0+3)
  8519  0625  01D5               	movf	0+(??___flmul+0)+0,w
  8520  0626  0852               	addwf	(___flmul@grs),f
  8521  0627  07D8               	movf	1+(??___flmul+0)+0,w
  8522  0628  0853               	clrz
  8523  0629  1103               	skipnc
  8524  062A  1803               	addlw	1
  8525  062B  3E01               	skipnz
  8526  062C  1903               	goto	u3301
  8527  062D  2E2F               	addwf	(___flmul@grs+1),f
  8528  062E  07D9               u3301:
  8529  062F                     	movf	2+(??___flmul+0)+0,w
  8530  062F  0854               	clrz
  8531  0630  1103               	skipnc
  8532  0631  1803               	addlw	1
  8533  0632  3E01               	skipnz
  8534  0633  1903               	goto	u3302
  8535  0634  2E36               	addwf	(___flmul@grs+2),f
  8536  0635  07DA               u3302:
  8537  0636                     	movf	3+(??___flmul+0)+0,w
  8538  0636  0855               	clrz
  8539  0637  1103               	skipnc
  8540  0638  1803               	addlw	1
  8541  0639  3E01               	skipnz
  8542  063A  1903               	goto	u3303
  8543  063B  2E3D               	addwf	(___flmul@grs+3),f
  8544  063C  07DB               u3303:
  8545  063D                     
  8546                           	line	136
  8547                           	
  8548                           l3439:	
  8549  063D                     	movf	0+(___flmul@b)+01h,w
  8550  063D  084B               	movwf	(??___flmul+0)+0
  8551  063E  00D2               	movf	(??___flmul+0)+0,w
  8552  063F  0852               	movwf	(__Umul8_16@multiplicand)
  8553  0640  00F0               	movf	0+(___flmul@a)+02h,w
  8554  0641  0850               	fcall	__Umul8_16
  8555  0642  160A  118A  21A2  120A  118A  	movf	(1+(?__Umul8_16)),w
  8556  0647  0871               	bcf	status, 5	;RP0=0, select bank0
  8557  0648  1283               	bcf	status, 6	;RP1=0, select bank0
  8558  0649  1303               	movwf	(___flmul@temp+1)
  8559  064A  00E3               	movf	(0+(?__Umul8_16)),w
  8560  064B  0870               	movwf	(___flmul@temp)
  8561  064C  00E2               	line	137
  8562                           	movf	(___flmul@temp),w
  8563  064D  0862               	movwf	((??___flmul+0)+0)
  8564  064E  00D2               	movf	(___flmul@temp+1),w
  8565  064F  0863               	movwf	((??___flmul+0)+0+1)
  8566  0650  00D3               	clrf	((??___flmul+0)+0+2)
  8567  0651  01D4               	clrf	((??___flmul+0)+0+3)
  8568  0652  01D5               	movf	0+(??___flmul+0)+0,w
  8569  0653  0852               	addwf	(___flmul@prod),f
  8570  0654  07DE               	movf	1+(??___flmul+0)+0,w
  8571  0655  0853               	clrz
  8572  0656  1103               	skipnc
  8573  0657  1803               	addlw	1
  8574  0658  3E01               	skipnz
  8575  0659  1903               	goto	u3311
  8576  065A  2E5C               	addwf	(___flmul@prod+1),f
  8577  065B  07DF               u3311:
  8578  065C                     	movf	2+(??___flmul+0)+0,w
  8579  065C  0854               	clrz
  8580  065D  1103               	skipnc
  8581  065E  1803               	addlw	1
  8582  065F  3E01               	skipnz
  8583  0660  1903               	goto	u3312
  8584  0661  2E63               	addwf	(___flmul@prod+2),f
  8585  0662  07E0               u3312:
  8586  0663                     	movf	3+(??___flmul+0)+0,w
  8587  0663  0855               	clrz
  8588  0664  1103               	skipnc
  8589  0665  1803               	addlw	1
  8590  0666  3E01               	skipnz
  8591  0667  1903               	goto	u3313
  8592  0668  2E6A               	addwf	(___flmul@prod+3),f
  8593  0669  07E1               u3313:
  8594  066A                     
  8595                           	line	138
  8596                           	
  8597                           l3441:	
  8598  066A                     	movf	0+(___flmul@b)+02h,w
  8599  066A  084C               	movwf	(??___flmul+0)+0
  8600  066B  00D2               	movf	(??___flmul+0)+0,w
  8601  066C  0852               	movwf	(__Umul8_16@multiplicand)
  8602  066D  00F0               	movf	0+(___flmul@a)+01h,w
  8603  066E  084F               	fcall	__Umul8_16
  8604  066F  160A  118A  21A2  120A  118A  	movf	(1+(?__Umul8_16)),w
  8605  0674  0871               	bcf	status, 5	;RP0=0, select bank0
  8606  0675  1283               	bcf	status, 6	;RP1=0, select bank0
  8607  0676  1303               	movwf	(___flmul@temp+1)
  8608  0677  00E3               	movf	(0+(?__Umul8_16)),w
  8609  0678  0870               	movwf	(___flmul@temp)
  8610  0679  00E2               	line	139
  8611                           	
  8612                           l3443:	
  8613  067A                     	movf	(___flmul@temp),w
  8614  067A  0862               	movwf	((??___flmul+0)+0)
  8615  067B  00D2               	movf	(___flmul@temp+1),w
  8616  067C  0863               	movwf	((??___flmul+0)+0+1)
  8617  067D  00D3               	clrf	((??___flmul+0)+0+2)
  8618  067E  01D4               	clrf	((??___flmul+0)+0+3)
  8619  067F  01D5               	movf	0+(??___flmul+0)+0,w
  8620  0680  0852               	addwf	(___flmul@prod),f
  8621  0681  07DE               	movf	1+(??___flmul+0)+0,w
  8622  0682  0853               	clrz
  8623  0683  1103               	skipnc
  8624  0684  1803               	addlw	1
  8625  0685  3E01               	skipnz
  8626  0686  1903               	goto	u3321
  8627  0687  2E89               	addwf	(___flmul@prod+1),f
  8628  0688  07DF               u3321:
  8629  0689                     	movf	2+(??___flmul+0)+0,w
  8630  0689  0854               	clrz
  8631  068A  1103               	skipnc
  8632  068B  1803               	addlw	1
  8633  068C  3E01               	skipnz
  8634  068D  1903               	goto	u3322
  8635  068E  2E90               	addwf	(___flmul@prod+2),f
  8636  068F  07E0               u3322:
  8637  0690                     	movf	3+(??___flmul+0)+0,w
  8638  0690  0855               	clrz
  8639  0691  1103               	skipnc
  8640  0692  1803               	addlw	1
  8641  0693  3E01               	skipnz
  8642  0694  1903               	goto	u3323
  8643  0695  2E97               	addwf	(___flmul@prod+3),f
  8644  0696  07E1               u3323:
  8645  0697                     
  8646                           	line	140
  8647                           	movf	0+(___flmul@b)+02h,w
  8648  0697  084C               	movwf	(??___flmul+0)+0
  8649  0698  00D2               	movf	(??___flmul+0)+0,w
  8650  0699  0852               	movwf	(__Umul8_16@multiplicand)
  8651  069A  00F0               	movf	0+(___flmul@a)+02h,w
  8652  069B  0850               	fcall	__Umul8_16
  8653  069C  160A  118A  21A2  120A  118A  	movf	(1+(?__Umul8_16)),w
  8654  06A1  0871               	bcf	status, 5	;RP0=0, select bank0
  8655  06A2  1283               	bcf	status, 6	;RP1=0, select bank0
  8656  06A3  1303               	movwf	(___flmul@temp+1)
  8657  06A4  00E3               	movf	(0+(?__Umul8_16)),w
  8658  06A5  0870               	movwf	(___flmul@temp)
  8659  06A6  00E2               	line	141
  8660                           	
  8661                           l3445:	
  8662  06A7                     	movf	(___flmul@temp),w
  8663  06A7  0862               	movwf	((??___flmul+0)+0)
  8664  06A8  00D2               	movf	(___flmul@temp+1),w
  8665  06A9  0863               	movwf	((??___flmul+0)+0+1)
  8666  06AA  00D3               	clrf	((??___flmul+0)+0+2)
  8667  06AB  01D4               	clrf	((??___flmul+0)+0+3)
  8668  06AC  01D5               	movlw	08h
  8669  06AD  3008               u3335:
  8670  06AE                     	clrc
  8671  06AE  1003               	rlf	(??___flmul+0)+0,f
  8672  06AF  0DD2               	rlf	(??___flmul+0)+1,f
  8673  06B0  0DD3               	rlf	(??___flmul+0)+2,f
  8674  06B1  0DD4               	rlf	(??___flmul+0)+3,f
  8675  06B2  0DD5               u3330:
  8676  06B3                     	addlw	-1
  8677  06B3  3EFF               	skipz
  8678  06B4  1D03               	goto	u3335
  8679  06B5  2EAE               	movf	0+(??___flmul+0)+0,w
  8680  06B6  0852               	addwf	(___flmul@prod),f
  8681  06B7  07DE               	movf	1+(??___flmul+0)+0,w
  8682  06B8  0853               	clrz
  8683  06B9  1103               	skipnc
  8684  06BA  1803               	addlw	1
  8685  06BB  3E01               	skipnz
  8686  06BC  1903               	goto	u3341
  8687  06BD  2EBF               	addwf	(___flmul@prod+1),f
  8688  06BE  07DF               u3341:
  8689  06BF                     	movf	2+(??___flmul+0)+0,w
  8690  06BF  0854               	clrz
  8691  06C0  1103               	skipnc
  8692  06C1  1803               	addlw	1
  8693  06C2  3E01               	skipnz
  8694  06C3  1903               	goto	u3342
  8695  06C4  2EC6               	addwf	(___flmul@prod+2),f
  8696  06C5  07E0               u3342:
  8697  06C6                     	movf	3+(??___flmul+0)+0,w
  8698  06C6  0855               	clrz
  8699  06C7  1103               	skipnc
  8700  06C8  1803               	addlw	1
  8701  06C9  3E01               	skipnz
  8702  06CA  1903               	goto	u3343
  8703  06CB  2ECD               	addwf	(___flmul@prod+3),f
  8704  06CC  07E1               u3343:
  8705  06CD                     
  8706                           	line	145
  8707                           	
  8708                           l3447:	
  8709  06CD                     	movf	(___flmul@grs),w
  8710  06CD  0858               	movwf	(??___flmul+0)+0
  8711  06CE  00D2               	movf	(___flmul@grs+1),w
  8712  06CF  0859               	movwf	((??___flmul+0)+0+1)
  8713  06D0  00D3               	movf	(___flmul@grs+2),w
  8714  06D1  085A               	movwf	((??___flmul+0)+0+2)
  8715  06D2  00D4               	movf	(___flmul@grs+3),w
  8716  06D3  085B               	movwf	((??___flmul+0)+0+3)
  8717  06D4  00D5               	movlw	018h
  8718  06D5  3018               u3355:
  8719  06D6                     	clrc
  8720  06D6  1003               	rrf	(??___flmul+0)+3,f
  8721  06D7  0CD5               	rrf	(??___flmul+0)+2,f
  8722  06D8  0CD4               	rrf	(??___flmul+0)+1,f
  8723  06D9  0CD3               	rrf	(??___flmul+0)+0,f
  8724  06DA  0CD2               u3350:
  8725  06DB                     	addlw	-1
  8726  06DB  3EFF               	skipz
  8727  06DC  1D03               	goto	u3355
  8728  06DD  2ED6               	movf	0+(??___flmul+0)+0,w
  8729  06DE  0852               	addwf	(___flmul@prod),f
  8730  06DF  07DE               	movf	1+(??___flmul+0)+0,w
  8731  06E0  0853               	clrz
  8732  06E1  1103               	skipnc
  8733  06E2  1803               	addlw	1
  8734  06E3  3E01               	skipnz
  8735  06E4  1903               	goto	u3361
  8736  06E5  2EE7               	addwf	(___flmul@prod+1),f
  8737  06E6  07DF               u3361:
  8738  06E7                     	movf	2+(??___flmul+0)+0,w
  8739  06E7  0854               	clrz
  8740  06E8  1103               	skipnc
  8741  06E9  1803               	addlw	1
  8742  06EA  3E01               	skipnz
  8743  06EB  1903               	goto	u3362
  8744  06EC  2EEE               	addwf	(___flmul@prod+2),f
  8745  06ED  07E0               u3362:
  8746  06EE                     	movf	3+(??___flmul+0)+0,w
  8747  06EE  0855               	clrz
  8748  06EF  1103               	skipnc
  8749  06F0  1803               	addlw	1
  8750  06F1  3E01               	skipnz
  8751  06F2  1903               	goto	u3363
  8752  06F3  2EF5               	addwf	(___flmul@prod+3),f
  8753  06F4  07E1               u3363:
  8754  06F5                     
  8755                           	line	146
  8756                           	
  8757                           l3449:	
  8758  06F5                     	movlw	08h
  8759  06F5  3008               	movwf	(??___flmul+0)+0
  8760  06F6  00D2               u3375:
  8761  06F7                     	clrc
  8762  06F7  1003               	rlf	(___flmul@grs),f
  8763  06F8  0DD8               	rlf	(___flmul@grs+1),f
  8764  06F9  0DD9               	rlf	(___flmul@grs+2),f
  8765  06FA  0DDA               	rlf	(___flmul@grs+3),f
  8766  06FB  0DDB               	decfsz	(??___flmul+0)+0
  8767  06FC  0BD2               	goto	u3375
  8768  06FD  2EF7               	line	149
  8769                           	
  8770                           l3451:	
  8771  06FE                     	movf	(___flmul@bexp),w
  8772  06FE  085D               	addwf	(___flmul@aexp),w
  8773  06FF  075C               	movwf	(??___flmul+0)+0
  8774  0700  00D2               	clrf	(??___flmul+0)+0+1
  8775  0701  01D3               	rlf	1+(??___flmul+0)+0,f
  8776  0702  0DD3               	
  8777                           	movf	0+(??___flmul+0)+0,w
  8778  0703  0852               	addlw	low(-126)
  8779  0704  3E82               	movwf	(___flmul@temp)
  8780  0705  00E2               	movf	1+(??___flmul+0)+0,w
  8781  0706  0853               	skipnc
  8782  0707  1803               	addlw	1
  8783  0708  3E01               	addlw	high(-126)
  8784  0709  3EFF               	movwf	1+(___flmul@temp)
  8785  070A  00E3               	line	152
  8786                           	goto	l3463
  8787  070B  2F2B               	
  8788                           l985:	
  8789  070C                     	line	153
  8790                           	
  8791                           l3453:	
  8792  070C                     	movlw	01h
  8793  070C  3001               	movwf	(??___flmul+0)+0
  8794  070D  00D2               u3385:
  8795  070E                     	clrc
  8796  070E  1003               	rlf	(___flmul@prod),f
  8797  070F  0DDE               	rlf	(___flmul@prod+1),f
  8798  0710  0DDF               	rlf	(___flmul@prod+2),f
  8799  0711  0DE0               	rlf	(___flmul@prod+3),f
  8800  0712  0DE1               	decfsz	(??___flmul+0)+0
  8801  0713  0BD2               	goto	u3385
  8802  0714  2F0E               	line	154
  8803                           	
  8804                           l3455:	
  8805  0715                     	btfss	(___flmul@grs+3),(31)&7
  8806  0715  1FDB               	goto	u3391
  8807  0716  2F18               	goto	u3390
  8808  0717  2F19               u3391:
  8809  0718                     	goto	l3459
  8810  0718  2F1B               u3390:
  8811  0719                     	line	155
  8812                           	
  8813                           l3457:	
  8814  0719                     	bsf	(___flmul@prod)+(0/8),(0)&7
  8815  0719  145E               	goto	l3459
  8816  071A  2F1B               	line	156
  8817                           	
  8818                           l986:	
  8819  071B                     	line	157
  8820                           	
  8821                           l3459:	
  8822  071B                     	movlw	01h
  8823  071B  3001               	movwf	(??___flmul+0)+0
  8824  071C  00D2               u3405:
  8825  071D                     	clrc
  8826  071D  1003               	rlf	(___flmul@grs),f
  8827  071E  0DD8               	rlf	(___flmul@grs+1),f
  8828  071F  0DD9               	rlf	(___flmul@grs+2),f
  8829  0720  0DDA               	rlf	(___flmul@grs+3),f
  8830  0721  0DDB               	decfsz	(??___flmul+0)+0
  8831  0722  0BD2               	goto	u3405
  8832  0723  2F1D               	line	158
  8833                           	
  8834                           l3461:	
  8835  0724                     	movlw	0FFh
  8836  0724  30FF               	addwf	(___flmul@temp),f
  8837  0725  07E2               	skipnc
  8838  0726  1803               	incf	(___flmul@temp+1),f
  8839  0727  0AE3               	movlw	0FFh
  8840  0728  30FF               	addwf	(___flmul@temp+1),f
  8841  0729  07E3               	goto	l3463
  8842  072A  2F2B               	line	159
  8843                           	
  8844                           l984:	
  8845  072B                     	line	152
  8846                           	
  8847                           l3463:	
  8848  072B                     	btfss	(___flmul@prod+2),(23)&7
  8849  072B  1FE0               	goto	u3411
  8850  072C  2F2E               	goto	u3410
  8851  072D  2F2F               u3411:
  8852  072E                     	goto	l3453
  8853  072E  2F0C               u3410:
  8854  072F                     	goto	l3465
  8855  072F  2F30               	
  8856                           l987:	
  8857  0730                     	line	163
  8858                           	
  8859                           l3465:	
  8860  0730                     	clrf	(___flmul@aexp)
  8861  0730  01DC               	line	164
  8862                           	
  8863                           l3467:	
  8864  0731                     	btfss	(___flmul@grs+3),(31)&7
  8865  0731  1FDB               	goto	u3421
  8866  0732  2F34               	goto	u3420
  8867  0733  2F35               u3421:
  8868  0734                     	goto	l3475
  8869  0734  2F55               u3420:
  8870  0735                     	line	165
  8871                           	
  8872                           l3469:	
  8873  0735                     	movlw	0FFh
  8874  0735  30FF               	andwf	(___flmul@grs),w
  8875  0736  0558               	movwf	(??___flmul+0)+0
  8876  0737  00D2               	movlw	0FFh
  8877  0738  30FF               	andwf	(___flmul@grs+1),w
  8878  0739  0559               	movwf	((??___flmul+0)+0+1)
  8879  073A  00D3               	movlw	0FFh
  8880  073B  30FF               	andwf	(___flmul@grs+2),w
  8881  073C  055A               	movwf	((??___flmul+0)+0+2)
  8882  073D  00D4               	movlw	07Fh
  8883  073E  307F               	andwf	(___flmul@grs+3),w
  8884  073F  055B               	movwf	((??___flmul+0)+0+3)
  8885  0740  00D5               	movf	3+(??___flmul+0)+0,w
  8886  0741  0855               	iorwf	2+(??___flmul+0)+0,w
  8887  0742  0454               	iorwf	1+(??___flmul+0)+0,w
  8888  0743  0453               	iorwf	0+(??___flmul+0)+0,w
  8889  0744  0452               	skipnz
  8890  0745  1903               	goto	u3431
  8891  0746  2F48               	goto	u3430
  8892  0747  2F49               u3431:
  8893  0748                     	goto	l989
  8894  0748  2F4C               u3430:
  8895  0749                     	line	166
  8896                           	
  8897                           l3471:	
  8898  0749                     	clrf	(___flmul@aexp)
  8899  0749  01DC               	incf	(___flmul@aexp),f
  8900  074A  0ADC               	line	167
  8901                           	goto	l3475
  8902  074B  2F55               	line	168
  8903                           	
  8904                           l989:	
  8905  074C                     	line	169
  8906                           	btfss	(___flmul@prod),(0)&7
  8907  074C  1C5E               	goto	u3441
  8908  074D  2F4F               	goto	u3440
  8909  074E  2F50               u3441:
  8910  074F                     	goto	l3475
  8911  074F  2F55               u3440:
  8912  0750                     	line	170
  8913                           	
  8914                           l3473:	
  8915  0750                     	clrf	(___flmul@aexp)
  8916  0750  01DC               	incf	(___flmul@aexp),f
  8917  0751  0ADC               	goto	l3475
  8918  0752  2F55               	line	171
  8919                           	
  8920                           l991:	
  8921  0753                     	goto	l3475
  8922  0753  2F55               	line	172
  8923                           	
  8924                           l990:	
  8925  0754                     	goto	l3475
  8926  0754  2F55               	line	173
  8927                           	
  8928                           l988:	
  8929  0755                     	line	174
  8930                           	
  8931                           l3475:	
  8932  0755                     	movf	((___flmul@aexp)),w
  8933  0755  085C               	btfsc	status,2
  8934  0756  1903               	goto	u3451
  8935  0757  2F59               	goto	u3450
  8936  0758  2F5A               u3451:
  8937  0759                     	goto	l3485
  8938  0759  2F8D               u3450:
  8939  075A                     	line	175
  8940                           	
  8941                           l3477:	
  8942  075A                     	movlw	01h
  8943  075A  3001               	addwf	(___flmul@prod),f
  8944  075B  07DE               	movlw	0
  8945  075C  3000               	skipnc
  8946  075D  1803               movlw 1
  8947  075E  3001               	addwf	(___flmul@prod+1),f
  8948  075F  07DF               	movlw	0
  8949  0760  3000               	skipnc
  8950  0761  1803               movlw 1
  8951  0762  3001               	addwf	(___flmul@prod+2),f
  8952  0763  07E0               	movlw	0
  8953  0764  3000               	skipnc
  8954  0765  1803               movlw 1
  8955  0766  3001               	addwf	(___flmul@prod+3),f
  8956  0767  07E1               	line	176
  8957                           	
  8958                           l3479:	
  8959  0768                     	btfss	(___flmul@prod+3),(24)&7
  8960  0768  1C61               	goto	u3461
  8961  0769  2F6B               	goto	u3460
  8962  076A  2F6C               u3461:
  8963  076B                     	goto	l3485
  8964  076B  2F8D               u3460:
  8965  076C                     	line	177
  8966                           	
  8967                           l3481:	
  8968  076C                     	movf	(___flmul@prod),w
  8969  076C  085E               	movwf	(??___flmul+0)+0
  8970  076D  00D2               	movf	(___flmul@prod+1),w
  8971  076E  085F               	movwf	((??___flmul+0)+0+1)
  8972  076F  00D3               	movf	(___flmul@prod+2),w
  8973  0770  0860               	movwf	((??___flmul+0)+0+2)
  8974  0771  00D4               	movf	(___flmul@prod+3),w
  8975  0772  0861               	movwf	((??___flmul+0)+0+3)
  8976  0773  00D5               	movlw	01h
  8977  0774  3001               	movwf	(??___flmul+4)+0
  8978  0775  00D6               u3475:
  8979  0776                     	rlf	(??___flmul+0)+3,w
  8980  0776  0D55               	rrf	(??___flmul+0)+3,f
  8981  0777  0CD5               	rrf	(??___flmul+0)+2,f
  8982  0778  0CD4               	rrf	(??___flmul+0)+1,f
  8983  0779  0CD3               	rrf	(??___flmul+0)+0,f
  8984  077A  0CD2               u3470:
  8985  077B                     	decfsz	(??___flmul+4)+0,f
  8986  077B  0BD6               	goto	u3475
  8987  077C  2F76               	movf	3+(??___flmul+0)+0,w
  8988  077D  0855               	movwf	(___flmul@prod+3)
  8989  077E  00E1               	movf	2+(??___flmul+0)+0,w
  8990  077F  0854               	movwf	(___flmul@prod+2)
  8991  0780  00E0               	movf	1+(??___flmul+0)+0,w
  8992  0781  0853               	movwf	(___flmul@prod+1)
  8993  0782  00DF               	movf	0+(??___flmul+0)+0,w
  8994  0783  0852               	movwf	(___flmul@prod)
  8995  0784  00DE               
  8996                           	line	178
  8997                           	
  8998                           l3483:	
  8999  0785                     	movlw	01h
  9000  0785  3001               	addwf	(___flmul@temp),f
  9001  0786  07E2               	skipnc
  9002  0787  1803               	incf	(___flmul@temp+1),f
  9003  0788  0AE3               	movlw	0
  9004  0789  3000               	addwf	(___flmul@temp+1),f
  9005  078A  07E3               	goto	l3485
  9006  078B  2F8D               	line	179
  9007                           	
  9008                           l993:	
  9009  078C                     	goto	l3485
  9010  078C  2F8D               	line	180
  9011                           	
  9012                           l992:	
  9013  078D                     	line	183
  9014                           	
  9015                           l3485:	
  9016  078D                     	movf	(___flmul@temp+1),w
  9017  078D  0863               	xorlw	80h
  9018  078E  3A80               	movwf	btemp+1
  9019  078F  00FF               	movlw	(0)^80h
  9020  0790  3080               	subwf	btemp+1,w
  9021  0791  027F               	skipz
  9022  0792  1D03               	goto	u3485
  9023  0793  2F96               	movlw	0FFh
  9024  0794  30FF               	subwf	(___flmul@temp),w
  9025  0795  0262               u3485:
  9026  0796                     
  9027                           	skipc
  9028  0796  1C03               	goto	u3481
  9029  0797  2F99               	goto	u3480
  9030  0798  2F9A               u3481:
  9031  0799                     	goto	l3489
  9032  0799  2FA5               u3480:
  9033  079A                     	line	184
  9034                           	
  9035                           l3487:	
  9036  079A                     	movlw	07Fh
  9037  079A  307F               	bcf	status, 5	;RP0=0, select bank0
  9038  079B  1283               	bcf	status, 6	;RP1=0, select bank0
  9039  079C  1303               	movwf	(___flmul@prod+3)
  9040  079D  00E1               	movlw	080h
  9041  079E  3080               	movwf	(___flmul@prod+2)
  9042  079F  00E0               	movlw	0
  9043  07A0  3000               	movwf	(___flmul@prod+1)
  9044  07A1  00DF               	movlw	0
  9045  07A2  3000               	movwf	(___flmul@prod)
  9046  07A3  00DE               
  9047                           	line	185
  9048                           	goto	l995
  9049  07A4  2FDC               	line	187
  9050                           	
  9051                           l994:	
  9052  07A5                     	
  9053                           l3489:	
  9054  07A5                     	bcf	status, 5	;RP0=0, select bank0
  9055  07A5  1283               	bcf	status, 6	;RP1=0, select bank0
  9056  07A6  1303               	movf	(___flmul@temp+1),w
  9057  07A7  0863               	xorlw	80h
  9058  07A8  3A80               	movwf	btemp+1
  9059  07A9  00FF               	movlw	(0)^80h
  9060  07AA  3080               	subwf	btemp+1,w
  9061  07AB  027F               	skipz
  9062  07AC  1D03               	goto	u3495
  9063  07AD  2FB0               	movlw	01h
  9064  07AE  3001               	subwf	(___flmul@temp),w
  9065  07AF  0262               u3495:
  9066  07B0                     
  9067                           	skipnc
  9068  07B0  1803               	goto	u3491
  9069  07B1  2FB3               	goto	u3490
  9070  07B2  2FB4               u3491:
  9071  07B3                     	goto	l3495
  9072  07B3  2FC0               u3490:
  9073  07B4                     	line	188
  9074                           	
  9075                           l3491:	
  9076  07B4                     	movlw	high highword(0)
  9077  07B4  3000               	bcf	status, 5	;RP0=0, select bank0
  9078  07B5  1283               	bcf	status, 6	;RP1=0, select bank0
  9079  07B6  1303               	movwf	(___flmul@prod+3)
  9080  07B7  00E1               	movlw	low highword(0)
  9081  07B8  3000               	movwf	(___flmul@prod+2)
  9082  07B9  00E0               	movlw	high(0)
  9083  07BA  3000               	movwf	(___flmul@prod+1)
  9084  07BB  00DF               	movlw	low(0)
  9085  07BC  3000               	movwf	(___flmul@prod)
  9086  07BD  00DE               
  9087                           	line	190
  9088                           	
  9089                           l3493:	
  9090  07BE                     	clrf	(___flmul@sign)
  9091  07BE  01D7               	line	191
  9092                           	goto	l995
  9093  07BF  2FDC               	line	192
  9094                           	
  9095                           l996:	
  9096  07C0                     	line	194
  9097                           	
  9098                           l3495:	
  9099  07C0                     	bcf	status, 5	;RP0=0, select bank0
  9100  07C0  1283               	bcf	status, 6	;RP1=0, select bank0
  9101  07C1  1303               	movf	(___flmul@temp),w
  9102  07C2  0862               	movwf	(??___flmul+0)+0
  9103  07C3  00D2               	movf	(??___flmul+0)+0,w
  9104  07C4  0852               	movwf	(___flmul@bexp)
  9105  07C5  00DD               	line	195
  9106                           	movlw	0FFh
  9107  07C6  30FF               	andwf	(___flmul@prod),f
  9108  07C7  05DE               	movlw	0FFh
  9109  07C8  30FF               	andwf	(___flmul@prod+1),f
  9110  07C9  05DF               	movlw	07Fh
  9111  07CA  307F               	andwf	(___flmul@prod+2),f
  9112  07CB  05E0               	movlw	0
  9113  07CC  3000               	andwf	(___flmul@prod+3),f
  9114  07CD  05E1               	line	196
  9115                           	
  9116                           l3497:	
  9117  07CE                     	btfss	(___flmul@bexp),(0)&7
  9118  07CE  1C5D               	goto	u3501
  9119  07CF  2FD1               	goto	u3500
  9120  07D0  2FD2               u3501:
  9121  07D1                     	goto	l3501
  9122  07D1  2FD4               u3500:
  9123  07D2                     	line	197
  9124                           	
  9125                           l3499:	
  9126  07D2                     	bsf	0+(___flmul@prod)+02h+(7/8),(7)&7
  9127  07D2  17E0               	goto	l3501
  9128  07D3  2FD4               	line	198
  9129                           	
  9130                           l998:	
  9131  07D4                     	line	199
  9132                           	
  9133                           l3501:	
  9134  07D4                     	movf	(___flmul@bexp),w
  9135  07D4  085D               	movwf	(??___flmul+0)+0
  9136  07D5  00D2               	clrc
  9137  07D6  1003               	rrf	(??___flmul+0)+0,w
  9138  07D7  0C52               	movwf	(??___flmul+1)+0
  9139  07D8  00D3               	movf	(??___flmul+1)+0,w
  9140  07D9  0853               	movwf	0+(___flmul@prod)+03h
  9141  07DA  00E1               	goto	l995
  9142  07DB  2FDC               	line	200
  9143                           	
  9144                           l997:	
  9145  07DC                     	
  9146                           l995:	
  9147  07DC                     	line	201
  9148                           	movf	(___flmul@sign),w
  9149  07DC  0857               	movwf	(??___flmul+0)+0
  9150  07DD  00D2               	movf	(??___flmul+0)+0,w
  9151  07DE  0852               	iorwf	0+(___flmul@prod)+03h,f
  9152  07DF  04E1               	line	203
  9153                           	
  9154                           l3503:	
  9155  07E0                     	movf	(___flmul@prod+3),w
  9156  07E0  0861               	movwf	(?___flmul+3)
  9157  07E1  00CD               	movf	(___flmul@prod+2),w
  9158  07E2  0860               	movwf	(?___flmul+2)
  9159  07E3  00CC               	movf	(___flmul@prod+1),w
  9160  07E4  085F               	movwf	(?___flmul+1)
  9161  07E5  00CB               	movf	(___flmul@prod),w
  9162  07E6  085E               	movwf	(?___flmul)
  9163  07E7  00CA               
  9164                           	goto	l983
  9165  07E8  2FE9               	
  9166                           l3505:	
  9167  07E9                     	line	205
  9168                           	
  9169                           l983:	
  9170  07E9                     	return
  9171  07E9  0008               	opt stack 0
  9172                           GLOBAL	__end_of___flmul
  9173                           	__end_of___flmul:
  9174  07EA                     	signat	___flmul,8316
  9175                           	global	__Umul8_16
  9176                           
  9177 ;; *************** function __Umul8_16 *****************
  9178 ;; Defined at:
  9179 ;;		line 4 in file "C:\Program Files (x86)\Microchip\xc8\v2.00\pic\sources\c90\common\Umul8_16.c"
  9180 ;; Parameters:    Size  Location     Type
  9181 ;;  multiplier      1    wreg     unsigned char 
  9182 ;;  multiplicand    1    0[COMMON] unsigned char 
  9183 ;; Auto vars:     Size  Location     Type
  9184 ;;  multiplier      1    8[COMMON] unsigned char 
  9185 ;;  word_mpld       2    6[COMMON] unsigned int 
  9186 ;;  product         2    4[COMMON] unsigned int 
  9187 ;; Return value:  Size  Location     Type
  9188 ;;                  2    0[COMMON] unsigned int 
  9189 ;; Registers used:
  9190 ;;		wreg, status,2, status,0
  9191 ;; Tracked objects:
  9192 ;;		On entry : 0/0
  9193 ;;		On exit  : 0/0
  9194 ;;		Unchanged: 0/0
  9195 ;; Data sizes:     COMMON   BANK0   BANK1   BANK3   BANK2
  9196 ;;      Params:         2       0       0       0       0
  9197 ;;      Locals:         5       0       0       0       0
  9198 ;;      Temps:          2       0       0       0       0
  9199 ;;      Totals:         9       0       0       0       0
  9200 ;;Total ram usage:        9 bytes
  9201 ;; Hardware stack levels used:    1
  9202 ;; This function calls:
  9203 ;;		Nothing
  9204 ;; This function is called by:
  9205 ;;		___flmul
  9206 ;; This function uses a non-reentrant model
  9207 ;;
  9208                           psect	text23,local,class=CODE,delta=2,merge=1,group=1
  9209                           	file	"C:\Program Files (x86)\Microchip\xc8\v2.00\pic\sources\c90\common\Umul8_16.c"
  9210                           	line	4
  9211                           global __ptext23
  9212                           __ptext23:	;psect for function __Umul8_16
  9213  11A2                     psect	text23
  9214                           	file	"C:\Program Files (x86)\Microchip\xc8\v2.00\pic\sources\c90\common\Umul8_16.c"
  9215                           	line	4
  9216                           	global	__size_of__Umul8_16
  9217                           	__size_of__Umul8_16	equ	__end_of__Umul8_16-__Umul8_16
  9218  002A                     	
  9219                           __Umul8_16:	
  9220  11A2                     ;incstack = 0
  9221                           	opt	stack 4
  9222                           ; Regs used in __Umul8_16: [wreg+status,2+status,0]
  9223                           ;__Umul8_16@multiplier stored from wreg
  9224                           	movwf	(__Umul8_16@multiplier)
  9225  11A2  00F8               	line	5
  9226                           	
  9227                           l2829:	
  9228  11A3                     	clrf	(__Umul8_16@product)
  9229  11A3  01F4               	clrf	(__Umul8_16@product+1)
  9230  11A4  01F5               	line	6
  9231                           	
  9232                           l2831:	
  9233  11A5                     	movf	(__Umul8_16@multiplicand),w
  9234  11A5  0870               	movwf	(??__Umul8_16+0)+0
  9235  11A6  00F2               	clrf	(??__Umul8_16+0)+0+1
  9236  11A7  01F3               	movf	0+(??__Umul8_16+0)+0,w
  9237  11A8  0872               	movwf	(__Umul8_16@word_mpld)
  9238  11A9  00F6               	movf	1+(??__Umul8_16+0)+0,w
  9239  11AA  0873               	movwf	(__Umul8_16@word_mpld+1)
  9240  11AB  00F7               	goto	l2833
  9241  11AC  29AD               	line	50
  9242                           	
  9243                           l1020:	
  9244  11AD                     	line	51
  9245                           	
  9246                           l2833:	
  9247  11AD                     	btfss	(__Umul8_16@multiplier),(0)&7
  9248  11AD  1C78               	goto	u2111
  9249  11AE  29B0               	goto	u2110
  9250  11AF  29B1               u2111:
  9251  11B0                     	goto	l1021
  9252  11B0  29B7               u2110:
  9253  11B1                     	line	52
  9254                           	
  9255                           l2835:	
  9256  11B1                     	movf	(__Umul8_16@word_mpld),w
  9257  11B1  0876               	addwf	(__Umul8_16@product),f
  9258  11B2  07F4               	skipnc
  9259  11B3  1803               	incf	(__Umul8_16@product+1),f
  9260  11B4  0AF5               	movf	(__Umul8_16@word_mpld+1),w
  9261  11B5  0877               	addwf	(__Umul8_16@product+1),f
  9262  11B6  07F5               	line	53
  9263                           	
  9264                           l1021:	
  9265  11B7                     	line	54
  9266                           	movlw	01h
  9267  11B7  3001               	
  9268                           u2125:
  9269  11B8                     	clrc
  9270  11B8  1003               	rlf	(__Umul8_16@word_mpld),f
  9271  11B9  0DF6               	rlf	(__Umul8_16@word_mpld+1),f
  9272  11BA  0DF7               	addlw	-1
  9273  11BB  3EFF               	skipz
  9274  11BC  1D03               	goto	u2125
  9275  11BD  29B8               	line	55
  9276                           	clrc
  9277  11BE  1003               	rrf	(__Umul8_16@multiplier),f
  9278  11BF  0CF8               
  9279                           	line	56
  9280                           	
  9281                           l2837:	
  9282  11C0                     	movf	((__Umul8_16@multiplier)),w
  9283  11C0  0878               	btfss	status,2
  9284  11C1  1D03               	goto	u2131
  9285  11C2  29C4               	goto	u2130
  9286  11C3  29C5               u2131:
  9287  11C4                     	goto	l2833
  9288  11C4  29AD               u2130:
  9289  11C5                     	goto	l2839
  9290  11C5  29C6               	
  9291                           l1022:	
  9292  11C6                     	line	59
  9293                           	
  9294                           l2839:	
  9295  11C6                     	movf	(__Umul8_16@product+1),w
  9296  11C6  0875               	movwf	(?__Umul8_16+1)
  9297  11C7  00F1               	movf	(__Umul8_16@product),w
  9298  11C8  0874               	movwf	(?__Umul8_16)
  9299  11C9  00F0               	goto	l1023
  9300  11CA  29CB               	
  9301                           l2841:	
  9302  11CB                     	line	60
  9303                           	
  9304                           l1023:	
  9305  11CB                     	return
  9306  11CB  0008               	opt stack 0
  9307                           GLOBAL	__end_of__Umul8_16
  9308                           	__end_of__Umul8_16:
  9309  11CC                     	signat	__Umul8_16,8314
  9310                           	global	___fldiv
  9311                           
  9312 ;; *************** function ___fldiv *****************
  9313 ;; Defined at:
  9314 ;;		line 8 in file "C:\Program Files (x86)\Microchip\xc8\v2.00\pic\sources\c90\common\sprcdiv.c"
  9315 ;; Parameters:    Size  Location     Type
  9316 ;;  a               4   16[BANK0 ] unsigned int 
  9317 ;;  b               4   20[BANK0 ] unsigned int 
  9318 ;; Auto vars:     Size  Location     Type
  9319 ;;  grs             4   36[BANK0 ] unsigned long 
  9320 ;;  rem             4   29[BANK0 ] unsigned long 
  9321 ;;  new_exp         2   34[BANK0 ] int 
  9322 ;;  aexp            1   41[BANK0 ] unsigned char 
  9323 ;;  bexp            1   40[BANK0 ] unsigned char 
  9324 ;;  sign            1   33[BANK0 ] unsigned char 
  9325 ;; Return value:  Size  Location     Type
  9326 ;;                  4   16[BANK0 ] unsigned char 
  9327 ;; Registers used:
  9328 ;;		wreg, status,2, status,0, btemp+1
  9329 ;; Tracked objects:
  9330 ;;		On entry : 0/0
  9331 ;;		On exit  : 0/0
  9332 ;;		Unchanged: 0/0
  9333 ;; Data sizes:     COMMON   BANK0   BANK1   BANK3   BANK2
  9334 ;;      Params:         0       8       0       0       0
  9335 ;;      Locals:         0      13       0       0       0
  9336 ;;      Temps:          0       5       0       0       0
  9337 ;;      Totals:         0      26       0       0       0
  9338 ;;Total ram usage:       26 bytes
  9339 ;; Hardware stack levels used:    1
  9340 ;; This function calls:
  9341 ;;		Nothing
  9342 ;; This function is called by:
  9343 ;;		_AccionControl
  9344 ;; This function uses a non-reentrant model
  9345 ;;
  9346                           psect	text24,local,class=CODE,delta=2,merge=1,group=1
  9347                           	file	"C:\Program Files (x86)\Microchip\xc8\v2.00\pic\sources\c90\common\sprcdiv.c"
  9348                           	line	8
  9349                           global __ptext24
  9350                           __ptext24:	;psect for function ___fldiv
  9351  0B49                     psect	text24
  9352                           	file	"C:\Program Files (x86)\Microchip\xc8\v2.00\pic\sources\c90\common\sprcdiv.c"
  9353                           	line	8
  9354                           	global	__size_of___fldiv
  9355                           	__size_of___fldiv	equ	__end_of___fldiv-___fldiv
  9356  0209                     	
  9357                           ___fldiv:	
  9358  0B49                     ;incstack = 0
  9359                           	opt	stack 5
  9360                           ; Regs used in ___fldiv: [wreg+status,2+status,0+btemp+1]
  9361                           	line	26
  9362                           	
  9363                           l3225:	
  9364  0B49                     	bcf	status, 5	;RP0=0, select bank0
  9365  0B49  1283               	bcf	status, 6	;RP1=0, select bank0
  9366  0B4A  1303               	movf	0+(___fldiv@b)+03h,w
  9367  0B4B  0837               	andlw	080h
  9368  0B4C  3980               	movwf	(??___fldiv+0)+0
  9369  0B4D  00B8               	movf	(??___fldiv+0)+0,w
  9370  0B4E  0838               	movwf	(___fldiv@sign)
  9371  0B4F  00C1               	line	27
  9372                           	
  9373                           l3227:	
  9374  0B50                     	movf	0+(___fldiv@b)+03h,w
  9375  0B50  0837               	movwf	(??___fldiv+0)+0
  9376  0B51  00B8               	addwf	(??___fldiv+0)+0,w
  9377  0B52  0738               	movwf	(??___fldiv+1)+0
  9378  0B53  00B9               	movf	(??___fldiv+1)+0,w
  9379  0B54  0839               	movwf	(___fldiv@bexp)
  9380  0B55  00C8               	line	28
  9381                           	
  9382                           l3229:	
  9383  0B56                     	btfss	0+(___fldiv@b)+02h,(7)&7
  9384  0B56  1FB6               	goto	u2851
  9385  0B57  2B59               	goto	u2850
  9386  0B58  2B5A               u2851:
  9387  0B59                     	goto	l3233
  9388  0B59  2B5C               u2850:
  9389  0B5A                     	line	29
  9390                           	
  9391                           l3231:	
  9392  0B5A                     	bsf	(___fldiv@bexp)+(0/8),(0)&7
  9393  0B5A  1448               	goto	l3233
  9394  0B5B  2B5C               	line	30
  9395                           	
  9396                           l936:	
  9397  0B5C                     	line	33
  9398                           	
  9399                           l3233:	
  9400  0B5C                     	movf	((___fldiv@bexp)),w
  9401  0B5C  0848               	btfsc	status,2
  9402  0B5D  1903               	goto	u2861
  9403  0B5E  2B60               	goto	u2860
  9404  0B5F  2B61               u2861:
  9405  0B60                     	goto	l3243
  9406  0B60  2B72               u2860:
  9407  0B61                     	line	35
  9408                           	
  9409                           l3235:	
  9410  0B61                     		incf	((___fldiv@bexp)),w
  9411  0B61  0A48               	btfss	status,2
  9412  0B62  1D03               	goto	u2871
  9413  0B63  2B65               	goto	u2870
  9414  0B64  2B66               u2871:
  9415  0B65                     	goto	l3239
  9416  0B65  2B6F               u2870:
  9417  0B66                     	line	37
  9418                           	
  9419                           l3237:	
  9420  0B66                     	movlw	0x0
  9421  0B66  3000               	movwf	(___fldiv@b+3)
  9422  0B67  00B7               	movlw	0x0
  9423  0B68  3000               	movwf	(___fldiv@b+2)
  9424  0B69  00B6               	movlw	0x0
  9425  0B6A  3000               	movwf	(___fldiv@b+1)
  9426  0B6B  00B5               	movlw	0x0
  9427  0B6C  3000               	movwf	(___fldiv@b)
  9428  0B6D  00B4               
  9429                           	goto	l3239
  9430  0B6E  2B6F               	line	38
  9431                           	
  9432                           l938:	
  9433  0B6F                     	line	40
  9434                           	
  9435                           l3239:	
  9436  0B6F                     	bsf	(___fldiv@b)+(23/8),(23)&7
  9437  0B6F  17B6               	line	42
  9438                           	
  9439                           l3241:	
  9440  0B70                     	clrf	0+(___fldiv@b)+03h
  9441  0B70  01B7               	line	43
  9442                           	goto	l3245
  9443  0B71  2B7B               	line	44
  9444                           	
  9445                           l937:	
  9446  0B72                     	line	46
  9447                           	
  9448                           l3243:	
  9449  0B72                     	movlw	0x0
  9450  0B72  3000               	movwf	(___fldiv@b+3)
  9451  0B73  00B7               	movlw	0x0
  9452  0B74  3000               	movwf	(___fldiv@b+2)
  9453  0B75  00B6               	movlw	0x0
  9454  0B76  3000               	movwf	(___fldiv@b+1)
  9455  0B77  00B5               	movlw	0x0
  9456  0B78  3000               	movwf	(___fldiv@b)
  9457  0B79  00B4               
  9458                           	goto	l3245
  9459  0B7A  2B7B               	line	47
  9460                           	
  9461                           l939:	
  9462  0B7B                     	line	49
  9463                           	
  9464                           l3245:	
  9465  0B7B                     	movf	0+(___fldiv@a)+03h,w
  9466  0B7B  0833               	andlw	080h
  9467  0B7C  3980               	movwf	(??___fldiv+0)+0
  9468  0B7D  00B8               	movf	(??___fldiv+0)+0,w
  9469  0B7E  0838               	xorwf	(___fldiv@sign),f
  9470  0B7F  06C1               	line	50
  9471                           	
  9472                           l3247:	
  9473  0B80                     	movf	0+(___fldiv@a)+03h,w
  9474  0B80  0833               	movwf	(??___fldiv+0)+0
  9475  0B81  00B8               	addwf	(??___fldiv+0)+0,w
  9476  0B82  0738               	movwf	(??___fldiv+1)+0
  9477  0B83  00B9               	movf	(??___fldiv+1)+0,w
  9478  0B84  0839               	movwf	(___fldiv@aexp)
  9479  0B85  00C9               	line	51
  9480                           	
  9481                           l3249:	
  9482  0B86                     	btfss	0+(___fldiv@a)+02h,(7)&7
  9483  0B86  1FB2               	goto	u2881
  9484  0B87  2B89               	goto	u2880
  9485  0B88  2B8A               u2881:
  9486  0B89                     	goto	l3253
  9487  0B89  2B8C               u2880:
  9488  0B8A                     	line	52
  9489                           	
  9490                           l3251:	
  9491  0B8A                     	bsf	(___fldiv@aexp)+(0/8),(0)&7
  9492  0B8A  1449               	goto	l3253
  9493  0B8B  2B8C               	line	53
  9494                           	
  9495                           l940:	
  9496  0B8C                     	line	56
  9497                           	
  9498                           l3253:	
  9499  0B8C                     	movf	((___fldiv@aexp)),w
  9500  0B8C  0849               	btfsc	status,2
  9501  0B8D  1903               	goto	u2891
  9502  0B8E  2B90               	goto	u2890
  9503  0B8F  2B91               u2891:
  9504  0B90                     	goto	l3263
  9505  0B90  2BA2               u2890:
  9506  0B91                     	line	58
  9507                           	
  9508                           l3255:	
  9509  0B91                     		incf	((___fldiv@aexp)),w
  9510  0B91  0A49               	btfss	status,2
  9511  0B92  1D03               	goto	u2901
  9512  0B93  2B95               	goto	u2900
  9513  0B94  2B96               u2901:
  9514  0B95                     	goto	l3259
  9515  0B95  2B9F               u2900:
  9516  0B96                     	line	60
  9517                           	
  9518                           l3257:	
  9519  0B96                     	movlw	0x0
  9520  0B96  3000               	movwf	(___fldiv@a+3)
  9521  0B97  00B3               	movlw	0x0
  9522  0B98  3000               	movwf	(___fldiv@a+2)
  9523  0B99  00B2               	movlw	0x0
  9524  0B9A  3000               	movwf	(___fldiv@a+1)
  9525  0B9B  00B1               	movlw	0x0
  9526  0B9C  3000               	movwf	(___fldiv@a)
  9527  0B9D  00B0               
  9528                           	goto	l3259
  9529  0B9E  2B9F               	line	61
  9530                           	
  9531                           l942:	
  9532  0B9F                     	line	63
  9533                           	
  9534                           l3259:	
  9535  0B9F                     	bsf	(___fldiv@a)+(23/8),(23)&7
  9536  0B9F  17B2               	line	65
  9537                           	
  9538                           l3261:	
  9539  0BA0                     	clrf	0+(___fldiv@a)+03h
  9540  0BA0  01B3               	line	66
  9541                           	goto	l943
  9542  0BA1  2BAA               	line	67
  9543                           	
  9544                           l941:	
  9545  0BA2                     	line	69
  9546                           	
  9547                           l3263:	
  9548  0BA2                     	movlw	0x0
  9549  0BA2  3000               	movwf	(___fldiv@a+3)
  9550  0BA3  00B3               	movlw	0x0
  9551  0BA4  3000               	movwf	(___fldiv@a+2)
  9552  0BA5  00B2               	movlw	0x0
  9553  0BA6  3000               	movwf	(___fldiv@a+1)
  9554  0BA7  00B1               	movlw	0x0
  9555  0BA8  3000               	movwf	(___fldiv@a)
  9556  0BA9  00B0               
  9557                           	line	70
  9558                           	
  9559                           l943:	
  9560  0BAA                     	line	75
  9561                           	movf	(___fldiv@a+3),w
  9562  0BAA  0833               	iorwf	(___fldiv@a+2),w
  9563  0BAB  0432               	iorwf	(___fldiv@a+1),w
  9564  0BAC  0431               	iorwf	(___fldiv@a),w
  9565  0BAD  0430               	skipz
  9566  0BAE  1D03               	goto	u2911
  9567  0BAF  2BB1               	goto	u2910
  9568  0BB0  2BB2               u2911:
  9569  0BB1                     	goto	l3273
  9570  0BB1  2BCC               u2910:
  9571  0BB2                     	line	76
  9572                           	
  9573                           l3265:	
  9574  0BB2                     	movlw	high highword(0)
  9575  0BB2  3000               	movwf	(___fldiv@b+3)
  9576  0BB3  00B7               	movlw	low highword(0)
  9577  0BB4  3000               	movwf	(___fldiv@b+2)
  9578  0BB5  00B6               	movlw	high(0)
  9579  0BB6  3000               	movwf	(___fldiv@b+1)
  9580  0BB7  00B5               	movlw	low(0)
  9581  0BB8  3000               	movwf	(___fldiv@b)
  9582  0BB9  00B4               
  9583                           	line	77
  9584                           	movlw	080h
  9585  0BBA  3080               	iorwf	0+(___fldiv@b)+02h,f
  9586  0BBB  04B6               	movlw	07Fh
  9587  0BBC  307F               	iorwf	1+(___fldiv@b)+02h,f
  9588  0BBD  04B7               	line	78
  9589                           	
  9590                           l3267:	
  9591  0BBE                     	movf	(___fldiv@sign),w
  9592  0BBE  0841               	movwf	(??___fldiv+0)+0
  9593  0BBF  00B8               	movf	(??___fldiv+0)+0,w
  9594  0BC0  0838               	iorwf	0+(___fldiv@b)+03h,f
  9595  0BC1  04B7               	line	79
  9596                           	
  9597                           l3269:	
  9598  0BC2                     	movf	(___fldiv@b+3),w
  9599  0BC2  0837               	movwf	(?___fldiv+3)
  9600  0BC3  00B3               	movf	(___fldiv@b+2),w
  9601  0BC4  0836               	movwf	(?___fldiv+2)
  9602  0BC5  00B2               	movf	(___fldiv@b+1),w
  9603  0BC6  0835               	movwf	(?___fldiv+1)
  9604  0BC7  00B1               	movf	(___fldiv@b),w
  9605  0BC8  0834               	movwf	(?___fldiv)
  9606  0BC9  00B0               
  9607                           	goto	l945
  9608  0BCA  2D51               	
  9609                           l3271:	
  9610  0BCB                     	goto	l945
  9611  0BCB  2D51               	line	80
  9612                           	
  9613                           l944:	
  9614  0BCC                     	line	83
  9615                           	
  9616                           l3273:	
  9617  0BCC                     	movf	((___fldiv@bexp)),w
  9618  0BCC  0848               	btfss	status,2
  9619  0BCD  1D03               	goto	u2921
  9620  0BCE  2BD0               	goto	u2920
  9621  0BCF  2BD1               u2921:
  9622  0BD0                     	goto	l3279
  9623  0BD0  2BE3               u2920:
  9624  0BD1                     	line	84
  9625                           	
  9626                           l3275:	
  9627  0BD1                     	movlw	high highword(0)
  9628  0BD1  3000               	movwf	(___fldiv@b+3)
  9629  0BD2  00B7               	movlw	low highword(0)
  9630  0BD3  3000               	movwf	(___fldiv@b+2)
  9631  0BD4  00B6               	movlw	high(0)
  9632  0BD5  3000               	movwf	(___fldiv@b+1)
  9633  0BD6  00B5               	movlw	low(0)
  9634  0BD7  3000               	movwf	(___fldiv@b)
  9635  0BD8  00B4               
  9636                           	line	85
  9637                           	movf	(___fldiv@b+3),w
  9638  0BD9  0837               	movwf	(?___fldiv+3)
  9639  0BDA  00B3               	movf	(___fldiv@b+2),w
  9640  0BDB  0836               	movwf	(?___fldiv+2)
  9641  0BDC  00B2               	movf	(___fldiv@b+1),w
  9642  0BDD  0835               	movwf	(?___fldiv+1)
  9643  0BDE  00B1               	movf	(___fldiv@b),w
  9644  0BDF  0834               	movwf	(?___fldiv)
  9645  0BE0  00B0               
  9646                           	goto	l945
  9647  0BE1  2D51               	
  9648                           l3277:	
  9649  0BE2                     	goto	l945
  9650  0BE2  2D51               	line	86
  9651                           	
  9652                           l946:	
  9653  0BE3                     	line	89
  9654                           	
  9655                           l3279:	
  9656  0BE3                     	movf	(___fldiv@aexp),w
  9657  0BE3  0849               	movwf	(??___fldiv+0)+0
  9658  0BE4  00B8               	clrf	(??___fldiv+0)+0+1
  9659  0BE5  01B9               	comf	(??___fldiv+0)+0,f
  9660  0BE6  09B8               	comf	(??___fldiv+0)+1,f
  9661  0BE7  09B9               	incf	(??___fldiv+0)+0,f
  9662  0BE8  0AB8               	skipnz
  9663  0BE9  1903               	incf	(??___fldiv+0)+1,f
  9664  0BEA  0AB9               	movf	(___fldiv@bexp),w
  9665  0BEB  0848               	addwf	0+(??___fldiv+0)+0,w
  9666  0BEC  0738               	movwf	(??___fldiv+2)+0
  9667  0BED  00BA               	movf	1+(??___fldiv+0)+0,w
  9668  0BEE  0839               	skipnc
  9669  0BEF  1803               	incf	1+(??___fldiv+0)+0,w
  9670  0BF0  0A39               	movwf	((??___fldiv+2)+0)+1
  9671  0BF1  00BB               	movf	0+(??___fldiv+2)+0,w
  9672  0BF2  083A               	addlw	low(07Fh)
  9673  0BF3  3E7F               	movwf	(___fldiv@new_exp)
  9674  0BF4  00C2               	movf	1+(??___fldiv+2)+0,w
  9675  0BF5  083B               	skipnc
  9676  0BF6  1803               	addlw	1
  9677  0BF7  3E01               	addlw	high(07Fh)
  9678  0BF8  3E00               	movwf	1+(___fldiv@new_exp)
  9679  0BF9  00C3               	line	92
  9680                           	
  9681                           l3281:	
  9682  0BFA                     	movf	(___fldiv@b+3),w
  9683  0BFA  0837               	movwf	(___fldiv@rem+3)
  9684  0BFB  00C0               	movf	(___fldiv@b+2),w
  9685  0BFC  0836               	movwf	(___fldiv@rem+2)
  9686  0BFD  00BF               	movf	(___fldiv@b+1),w
  9687  0BFE  0835               	movwf	(___fldiv@rem+1)
  9688  0BFF  00BE               	movf	(___fldiv@b),w
  9689  0C00  0834               	movwf	(___fldiv@rem)
  9690  0C01  00BD               
  9691                           	line	93
  9692                           	
  9693                           l3283:	
  9694  0C02                     	movlw	high highword(0)
  9695  0C02  3000               	movwf	(___fldiv@b+3)
  9696  0C03  00B7               	movlw	low highword(0)
  9697  0C04  3000               	movwf	(___fldiv@b+2)
  9698  0C05  00B6               	movlw	high(0)
  9699  0C06  3000               	movwf	(___fldiv@b+1)
  9700  0C07  00B5               	movlw	low(0)
  9701  0C08  3000               	movwf	(___fldiv@b)
  9702  0C09  00B4               
  9703                           	line	94
  9704                           	
  9705                           l3285:	
  9706  0C0A                     	movlw	high highword(0)
  9707  0C0A  3000               	movwf	(___fldiv@grs+3)
  9708  0C0B  00C7               	movlw	low highword(0)
  9709  0C0C  3000               	movwf	(___fldiv@grs+2)
  9710  0C0D  00C6               	movlw	high(0)
  9711  0C0E  3000               	movwf	(___fldiv@grs+1)
  9712  0C0F  00C5               	movlw	low(0)
  9713  0C10  3000               	movwf	(___fldiv@grs)
  9714  0C11  00C4               
  9715                           	line	96
  9716                           	
  9717                           l3287:	
  9718  0C12                     	clrf	(___fldiv@aexp)
  9719  0C12  01C9               	line	97
  9720                           	goto	l3307
  9721  0C13  2C62               	
  9722                           l948:	
  9723  0C14                     	line	100
  9724                           	
  9725                           l3289:	
  9726  0C14                     	movf	((___fldiv@aexp)),w
  9727  0C14  0849               	btfsc	status,2
  9728  0C15  1903               	goto	u2931
  9729  0C16  2C18               	goto	u2930
  9730  0C17  2C19               u2931:
  9731  0C18                     	goto	l3299
  9732  0C18  2C3B               u2930:
  9733  0C19                     	line	101
  9734                           	
  9735                           l3291:	
  9736  0C19                     	movlw	01h
  9737  0C19  3001               	movwf	(??___fldiv+0)+0
  9738  0C1A  00B8               u2945:
  9739  0C1B                     	clrc
  9740  0C1B  1003               	rlf	(___fldiv@rem),f
  9741  0C1C  0DBD               	rlf	(___fldiv@rem+1),f
  9742  0C1D  0DBE               	rlf	(___fldiv@rem+2),f
  9743  0C1E  0DBF               	rlf	(___fldiv@rem+3),f
  9744  0C1F  0DC0               	decfsz	(??___fldiv+0)+0
  9745  0C20  0BB8               	goto	u2945
  9746  0C21  2C1B               	line	102
  9747                           	movlw	01h
  9748  0C22  3001               	movwf	(??___fldiv+0)+0
  9749  0C23  00B8               u2955:
  9750  0C24                     	clrc
  9751  0C24  1003               	rlf	(___fldiv@b),f
  9752  0C25  0DB4               	rlf	(___fldiv@b+1),f
  9753  0C26  0DB5               	rlf	(___fldiv@b+2),f
  9754  0C27  0DB6               	rlf	(___fldiv@b+3),f
  9755  0C28  0DB7               	decfsz	(??___fldiv+0)+0
  9756  0C29  0BB8               	goto	u2955
  9757  0C2A  2C24               	line	103
  9758                           	
  9759                           l3293:	
  9760  0C2B                     	btfss	(___fldiv@grs+3),(31)&7
  9761  0C2B  1FC7               	goto	u2961
  9762  0C2C  2C2E               	goto	u2960
  9763  0C2D  2C2F               u2961:
  9764  0C2E                     	goto	l3297
  9765  0C2E  2C31               u2960:
  9766  0C2F                     	line	104
  9767                           	
  9768                           l3295:	
  9769  0C2F                     	bsf	(___fldiv@b)+(0/8),(0)&7
  9770  0C2F  1434               	goto	l3297
  9771  0C30  2C31               	line	105
  9772                           	
  9773                           l950:	
  9774  0C31                     	line	106
  9775                           	
  9776                           l3297:	
  9777  0C31                     	movlw	01h
  9778  0C31  3001               	movwf	(??___fldiv+0)+0
  9779  0C32  00B8               u2975:
  9780  0C33                     	clrc
  9781  0C33  1003               	rlf	(___fldiv@grs),f
  9782  0C34  0DC4               	rlf	(___fldiv@grs+1),f
  9783  0C35  0DC5               	rlf	(___fldiv@grs+2),f
  9784  0C36  0DC6               	rlf	(___fldiv@grs+3),f
  9785  0C37  0DC7               	decfsz	(??___fldiv+0)+0
  9786  0C38  0BB8               	goto	u2975
  9787  0C39  2C33               	goto	l3299
  9788  0C3A  2C3B               	line	107
  9789                           	
  9790                           l949:	
  9791  0C3B                     	line	112
  9792                           	
  9793                           l3299:	
  9794  0C3B                     	movf	(___fldiv@a+3),w
  9795  0C3B  0833               	subwf	(___fldiv@rem+3),w
  9796  0C3C  0240               	skipz
  9797  0C3D  1D03               	goto	u2985
  9798  0C3E  2C49               	movf	(___fldiv@a+2),w
  9799  0C3F  0832               	subwf	(___fldiv@rem+2),w
  9800  0C40  023F               	skipz
  9801  0C41  1D03               	goto	u2985
  9802  0C42  2C49               	movf	(___fldiv@a+1),w
  9803  0C43  0831               	subwf	(___fldiv@rem+1),w
  9804  0C44  023E               	skipz
  9805  0C45  1D03               	goto	u2985
  9806  0C46  2C49               	movf	(___fldiv@a),w
  9807  0C47  0830               	subwf	(___fldiv@rem),w
  9808  0C48  023D               u2985:
  9809  0C49                     	skipc
  9810  0C49  1C03               	goto	u2981
  9811  0C4A  2C4C               	goto	u2980
  9812  0C4B  2C4D               u2981:
  9813  0C4C                     	goto	l3305
  9814  0C4C  2C5D               u2980:
  9815  0C4D                     	line	115
  9816                           	
  9817                           l3301:	
  9818  0C4D                     	bsf	(___fldiv@grs)+(30/8),(30)&7
  9819  0C4D  1747               	line	116
  9820                           	
  9821                           l3303:	
  9822  0C4E                     	movf	(___fldiv@a),w
  9823  0C4E  0830               	subwf	(___fldiv@rem),f
  9824  0C4F  02BD               	movf	(___fldiv@a+1),w
  9825  0C50  0831               	skipc
  9826  0C51  1C03               	incfsz	(___fldiv@a+1),w
  9827  0C52  0F31               	subwf	(___fldiv@rem+1),f
  9828  0C53  02BE               	movf	(___fldiv@a+2),w
  9829  0C54  0832               	skipc
  9830  0C55  1C03               	incfsz	(___fldiv@a+2),w
  9831  0C56  0F32               	subwf	(___fldiv@rem+2),f
  9832  0C57  02BF               	movf	(___fldiv@a+3),w
  9833  0C58  0833               	skipc
  9834  0C59  1C03               	incfsz	(___fldiv@a+3),w
  9835  0C5A  0F33               	subwf	(___fldiv@rem+3),f
  9836  0C5B  02C0               	goto	l3305
  9837  0C5C  2C5D               	line	117
  9838                           	
  9839                           l951:	
  9840  0C5D                     	line	118
  9841                           	
  9842                           l3305:	
  9843  0C5D                     	movlw	low(01h)
  9844  0C5D  3001               	movwf	(??___fldiv+0)+0
  9845  0C5E  00B8               	movf	(??___fldiv+0)+0,w
  9846  0C5F  0838               	addwf	(___fldiv@aexp),f
  9847  0C60  07C9               	goto	l3307
  9848  0C61  2C62               	line	119
  9849                           	
  9850                           l947:	
  9851  0C62                     	line	97
  9852                           	
  9853                           l3307:	
  9854  0C62                     	movlw	low(01Ah)
  9855  0C62  301A               	subwf	(___fldiv@aexp),w
  9856  0C63  0249               	skipc
  9857  0C64  1C03               	goto	u2991
  9858  0C65  2C67               	goto	u2990
  9859  0C66  2C68               u2991:
  9860  0C67                     	goto	l3289
  9861  0C67  2C14               u2990:
  9862  0C68                     	goto	l3309
  9863  0C68  2C69               	
  9864                           l952:	
  9865  0C69                     	line	122
  9866                           	
  9867                           l3309:	
  9868  0C69                     	movf	(___fldiv@rem+3),w
  9869  0C69  0840               	iorwf	(___fldiv@rem+2),w
  9870  0C6A  043F               	iorwf	(___fldiv@rem+1),w
  9871  0C6B  043E               	iorwf	(___fldiv@rem),w
  9872  0C6C  043D               	skipnz
  9873  0C6D  1903               	goto	u3001
  9874  0C6E  2C70               	goto	u3000
  9875  0C6F  2C71               u3001:
  9876  0C70                     	goto	l3323
  9877  0C70  2C93               u3000:
  9878  0C71                     	line	123
  9879                           	
  9880                           l3311:	
  9881  0C71                     	bsf	(___fldiv@grs)+(0/8),(0)&7
  9882  0C71  1444               	goto	l3323
  9883  0C72  2C93               	line	124
  9884                           	
  9885                           l953:	
  9886  0C73                     	line	127
  9887                           	goto	l3323
  9888  0C73  2C93               	
  9889                           l955:	
  9890  0C74                     	line	128
  9891                           	
  9892                           l3313:	
  9893  0C74                     	movlw	01h
  9894  0C74  3001               	movwf	(??___fldiv+0)+0
  9895  0C75  00B8               u3015:
  9896  0C76                     	clrc
  9897  0C76  1003               	rlf	(___fldiv@b),f
  9898  0C77  0DB4               	rlf	(___fldiv@b+1),f
  9899  0C78  0DB5               	rlf	(___fldiv@b+2),f
  9900  0C79  0DB6               	rlf	(___fldiv@b+3),f
  9901  0C7A  0DB7               	decfsz	(??___fldiv+0)+0
  9902  0C7B  0BB8               	goto	u3015
  9903  0C7C  2C76               	line	129
  9904                           	
  9905                           l3315:	
  9906  0C7D                     	btfss	(___fldiv@grs+3),(31)&7
  9907  0C7D  1FC7               	goto	u3021
  9908  0C7E  2C80               	goto	u3020
  9909  0C7F  2C81               u3021:
  9910  0C80                     	goto	l3319
  9911  0C80  2C83               u3020:
  9912  0C81                     	line	130
  9913                           	
  9914                           l3317:	
  9915  0C81                     	bsf	(___fldiv@b)+(0/8),(0)&7
  9916  0C81  1434               	goto	l3319
  9917  0C82  2C83               	line	131
  9918                           	
  9919                           l956:	
  9920  0C83                     	line	132
  9921                           	
  9922                           l3319:	
  9923  0C83                     	movlw	01h
  9924  0C83  3001               	movwf	(??___fldiv+0)+0
  9925  0C84  00B8               u3035:
  9926  0C85                     	clrc
  9927  0C85  1003               	rlf	(___fldiv@grs),f
  9928  0C86  0DC4               	rlf	(___fldiv@grs+1),f
  9929  0C87  0DC5               	rlf	(___fldiv@grs+2),f
  9930  0C88  0DC6               	rlf	(___fldiv@grs+3),f
  9931  0C89  0DC7               	decfsz	(??___fldiv+0)+0
  9932  0C8A  0BB8               	goto	u3035
  9933  0C8B  2C85               	line	133
  9934                           	
  9935                           l3321:	
  9936  0C8C                     	movlw	0FFh
  9937  0C8C  30FF               	addwf	(___fldiv@new_exp),f
  9938  0C8D  07C2               	skipnc
  9939  0C8E  1803               	incf	(___fldiv@new_exp+1),f
  9940  0C8F  0AC3               	movlw	0FFh
  9941  0C90  30FF               	addwf	(___fldiv@new_exp+1),f
  9942  0C91  07C3               	goto	l3323
  9943  0C92  2C93               	line	134
  9944                           	
  9945                           l954:	
  9946  0C93                     	line	127
  9947                           	
  9948                           l3323:	
  9949  0C93                     	btfss	(___fldiv@b+2),(23)&7
  9950  0C93  1FB6               	goto	u3041
  9951  0C94  2C96               	goto	u3040
  9952  0C95  2C97               u3041:
  9953  0C96                     	goto	l3313
  9954  0C96  2C74               u3040:
  9955  0C97                     	goto	l3325
  9956  0C97  2C98               	
  9957                           l957:	
  9958  0C98                     	line	139
  9959                           	
  9960                           l3325:	
  9961  0C98                     	clrf	(___fldiv@aexp)
  9962  0C98  01C9               	line	140
  9963                           	
  9964                           l3327:	
  9965  0C99                     	btfss	(___fldiv@grs+3),(31)&7
  9966  0C99  1FC7               	goto	u3051
  9967  0C9A  2C9C               	goto	u3050
  9968  0C9B  2C9D               u3051:
  9969  0C9C                     	goto	l3335
  9970  0C9C  2CBD               u3050:
  9971  0C9D                     	line	141
  9972                           	
  9973                           l3329:	
  9974  0C9D                     	movlw	0FFh
  9975  0C9D  30FF               	andwf	(___fldiv@grs),w
  9976  0C9E  0544               	movwf	(??___fldiv+0)+0
  9977  0C9F  00B8               	movlw	0FFh
  9978  0CA0  30FF               	andwf	(___fldiv@grs+1),w
  9979  0CA1  0545               	movwf	((??___fldiv+0)+0+1)
  9980  0CA2  00B9               	movlw	0FFh
  9981  0CA3  30FF               	andwf	(___fldiv@grs+2),w
  9982  0CA4  0546               	movwf	((??___fldiv+0)+0+2)
  9983  0CA5  00BA               	movlw	07Fh
  9984  0CA6  307F               	andwf	(___fldiv@grs+3),w
  9985  0CA7  0547               	movwf	((??___fldiv+0)+0+3)
  9986  0CA8  00BB               	movf	3+(??___fldiv+0)+0,w
  9987  0CA9  083B               	iorwf	2+(??___fldiv+0)+0,w
  9988  0CAA  043A               	iorwf	1+(??___fldiv+0)+0,w
  9989  0CAB  0439               	iorwf	0+(??___fldiv+0)+0,w
  9990  0CAC  0438               	skipnz
  9991  0CAD  1903               	goto	u3061
  9992  0CAE  2CB0               	goto	u3060
  9993  0CAF  2CB1               u3061:
  9994  0CB0                     	goto	l959
  9995  0CB0  2CB4               u3060:
  9996  0CB1                     	line	142
  9997                           	
  9998                           l3331:	
  9999  0CB1                     	clrf	(___fldiv@aexp)
 10000  0CB1  01C9               	incf	(___fldiv@aexp),f
 10001  0CB2  0AC9               	line	143
 10002                           	goto	l3335
 10003  0CB3  2CBD               	line	144
 10004                           	
 10005                           l959:	
 10006  0CB4                     	line	145
 10007                           	btfss	(___fldiv@b),(0)&7
 10008  0CB4  1C34               	goto	u3071
 10009  0CB5  2CB7               	goto	u3070
 10010  0CB6  2CB8               u3071:
 10011  0CB7                     	goto	l3335
 10012  0CB7  2CBD               u3070:
 10013  0CB8                     	line	146
 10014                           	
 10015                           l3333:	
 10016  0CB8                     	clrf	(___fldiv@aexp)
 10017  0CB8  01C9               	incf	(___fldiv@aexp),f
 10018  0CB9  0AC9               	goto	l3335
 10019  0CBA  2CBD               	line	147
 10020                           	
 10021                           l961:	
 10022  0CBB                     	goto	l3335
 10023  0CBB  2CBD               	line	148
 10024                           	
 10025                           l960:	
 10026  0CBC                     	goto	l3335
 10027  0CBC  2CBD               	line	149
 10028                           	
 10029                           l958:	
 10030  0CBD                     	line	150
 10031                           	
 10032                           l3335:	
 10033  0CBD                     	movf	((___fldiv@aexp)),w
 10034  0CBD  0849               	btfsc	status,2
 10035  0CBE  1903               	goto	u3081
 10036  0CBF  2CC1               	goto	u3080
 10037  0CC0  2CC2               u3081:
 10038  0CC1                     	goto	l3345
 10039  0CC1  2CF5               u3080:
 10040  0CC2                     	line	151
 10041                           	
 10042                           l3337:	
 10043  0CC2                     	movlw	01h
 10044  0CC2  3001               	addwf	(___fldiv@b),f
 10045  0CC3  07B4               	movlw	0
 10046  0CC4  3000               	skipnc
 10047  0CC5  1803               movlw 1
 10048  0CC6  3001               	addwf	(___fldiv@b+1),f
 10049  0CC7  07B5               	movlw	0
 10050  0CC8  3000               	skipnc
 10051  0CC9  1803               movlw 1
 10052  0CCA  3001               	addwf	(___fldiv@b+2),f
 10053  0CCB  07B6               	movlw	0
 10054  0CCC  3000               	skipnc
 10055  0CCD  1803               movlw 1
 10056  0CCE  3001               	addwf	(___fldiv@b+3),f
 10057  0CCF  07B7               	line	152
 10058                           	
 10059                           l3339:	
 10060  0CD0                     	btfss	(___fldiv@b+3),(24)&7
 10061  0CD0  1C37               	goto	u3091
 10062  0CD1  2CD3               	goto	u3090
 10063  0CD2  2CD4               u3091:
 10064  0CD3                     	goto	l3345
 10065  0CD3  2CF5               u3090:
 10066  0CD4                     	line	153
 10067                           	
 10068                           l3341:	
 10069  0CD4                     	movf	(___fldiv@b),w
 10070  0CD4  0834               	movwf	(??___fldiv+0)+0
 10071  0CD5  00B8               	movf	(___fldiv@b+1),w
 10072  0CD6  0835               	movwf	((??___fldiv+0)+0+1)
 10073  0CD7  00B9               	movf	(___fldiv@b+2),w
 10074  0CD8  0836               	movwf	((??___fldiv+0)+0+2)
 10075  0CD9  00BA               	movf	(___fldiv@b+3),w
 10076  0CDA  0837               	movwf	((??___fldiv+0)+0+3)
 10077  0CDB  00BB               	movlw	01h
 10078  0CDC  3001               	movwf	(??___fldiv+4)+0
 10079  0CDD  00BC               u3105:
 10080  0CDE                     	rlf	(??___fldiv+0)+3,w
 10081  0CDE  0D3B               	rrf	(??___fldiv+0)+3,f
 10082  0CDF  0CBB               	rrf	(??___fldiv+0)+2,f
 10083  0CE0  0CBA               	rrf	(??___fldiv+0)+1,f
 10084  0CE1  0CB9               	rrf	(??___fldiv+0)+0,f
 10085  0CE2  0CB8               u3100:
 10086  0CE3                     	decfsz	(??___fldiv+4)+0,f
 10087  0CE3  0BBC               	goto	u3105
 10088  0CE4  2CDE               	movf	3+(??___fldiv+0)+0,w
 10089  0CE5  083B               	movwf	(___fldiv@b+3)
 10090  0CE6  00B7               	movf	2+(??___fldiv+0)+0,w
 10091  0CE7  083A               	movwf	(___fldiv@b+2)
 10092  0CE8  00B6               	movf	1+(??___fldiv+0)+0,w
 10093  0CE9  0839               	movwf	(___fldiv@b+1)
 10094  0CEA  00B5               	movf	0+(??___fldiv+0)+0,w
 10095  0CEB  0838               	movwf	(___fldiv@b)
 10096  0CEC  00B4               
 10097                           	line	154
 10098                           	
 10099                           l3343:	
 10100  0CED                     	movlw	01h
 10101  0CED  3001               	addwf	(___fldiv@new_exp),f
 10102  0CEE  07C2               	skipnc
 10103  0CEF  1803               	incf	(___fldiv@new_exp+1),f
 10104  0CF0  0AC3               	movlw	0
 10105  0CF1  3000               	addwf	(___fldiv@new_exp+1),f
 10106  0CF2  07C3               	goto	l3345
 10107  0CF3  2CF5               	line	155
 10108                           	
 10109                           l963:	
 10110  0CF4                     	goto	l3345
 10111  0CF4  2CF5               	line	156
 10112                           	
 10113                           l962:	
 10114  0CF5                     	line	159
 10115                           	
 10116                           l3345:	
 10117  0CF5                     	movf	(___fldiv@new_exp+1),w
 10118  0CF5  0843               	xorlw	80h
 10119  0CF6  3A80               	movwf	btemp+1
 10120  0CF7  00FF               	movlw	(0)^80h
 10121  0CF8  3080               	subwf	btemp+1,w
 10122  0CF9  027F               	skipz
 10123  0CFA  1D03               	goto	u3115
 10124  0CFB  2CFE               	movlw	0FFh
 10125  0CFC  30FF               	subwf	(___fldiv@new_exp),w
 10126  0CFD  0242               u3115:
 10127  0CFE                     
 10128                           	skipc
 10129  0CFE  1C03               	goto	u3111
 10130  0CFF  2D01               	goto	u3110
 10131  0D00  2D02               u3111:
 10132  0D01                     	goto	l3349
 10133  0D01  2D11               u3110:
 10134  0D02                     	line	160
 10135                           	
 10136                           l3347:	
 10137  0D02                     	movlw	0FFh
 10138  0D02  30FF               	bcf	status, 5	;RP0=0, select bank0
 10139  0D03  1283               	bcf	status, 6	;RP1=0, select bank0
 10140  0D04  1303               	movwf	(___fldiv@new_exp)
 10141  0D05  00C2               	movlw	0
 10142  0D06  3000               	movwf	((___fldiv@new_exp))+1
 10143  0D07  00C3               	line	161
 10144                           	movlw	high highword(0)
 10145  0D08  3000               	movwf	(___fldiv@b+3)
 10146  0D09  00B7               	movlw	low highword(0)
 10147  0D0A  3000               	movwf	(___fldiv@b+2)
 10148  0D0B  00B6               	movlw	high(0)
 10149  0D0C  3000               	movwf	(___fldiv@b+1)
 10150  0D0D  00B5               	movlw	low(0)
 10151  0D0E  3000               	movwf	(___fldiv@b)
 10152  0D0F  00B4               
 10153                           	goto	l3349
 10154  0D10  2D11               	line	162
 10155                           	
 10156                           l964:	
 10157  0D11                     	line	165
 10158                           	
 10159                           l3349:	
 10160  0D11                     	bcf	status, 5	;RP0=0, select bank0
 10161  0D11  1283               	bcf	status, 6	;RP1=0, select bank0
 10162  0D12  1303               	movf	(___fldiv@new_exp+1),w
 10163  0D13  0843               	xorlw	80h
 10164  0D14  3A80               	movwf	btemp+1
 10165  0D15  00FF               	movlw	(0)^80h
 10166  0D16  3080               	subwf	btemp+1,w
 10167  0D17  027F               	skipz
 10168  0D18  1D03               	goto	u3125
 10169  0D19  2D1C               	movlw	01h
 10170  0D1A  3001               	subwf	(___fldiv@new_exp),w
 10171  0D1B  0242               u3125:
 10172  0D1C                     
 10173                           	skipnc
 10174  0D1C  1803               	goto	u3121
 10175  0D1D  2D1F               	goto	u3120
 10176  0D1E  2D20               u3121:
 10177  0D1F                     	goto	l965
 10178  0D1F  2D2D               u3120:
 10179  0D20                     	line	166
 10180                           	
 10181                           l3351:	
 10182  0D20                     	bcf	status, 5	;RP0=0, select bank0
 10183  0D20  1283               	bcf	status, 6	;RP1=0, select bank0
 10184  0D21  1303               	clrf	(___fldiv@new_exp)
 10185  0D22  01C2               	clrf	(___fldiv@new_exp+1)
 10186  0D23  01C3               	line	167
 10187                           	
 10188                           l3353:	
 10189  0D24                     	movlw	high highword(0)
 10190  0D24  3000               	movwf	(___fldiv@b+3)
 10191  0D25  00B7               	movlw	low highword(0)
 10192  0D26  3000               	movwf	(___fldiv@b+2)
 10193  0D27  00B6               	movlw	high(0)
 10194  0D28  3000               	movwf	(___fldiv@b+1)
 10195  0D29  00B5               	movlw	low(0)
 10196  0D2A  3000               	movwf	(___fldiv@b)
 10197  0D2B  00B4               
 10198                           	line	169
 10199                           	
 10200                           l3355:	
 10201  0D2C                     	clrf	(___fldiv@sign)
 10202  0D2C  01C1               	line	170
 10203                           	
 10204                           l965:	
 10205  0D2D                     	line	173
 10206                           	bcf	status, 5	;RP0=0, select bank0
 10207  0D2D  1283               	bcf	status, 6	;RP1=0, select bank0
 10208  0D2E  1303               	movf	(___fldiv@new_exp),w
 10209  0D2F  0842               	movwf	(??___fldiv+0)+0
 10210  0D30  00B8               	movf	(??___fldiv+0)+0,w
 10211  0D31  0838               	movwf	(___fldiv@bexp)
 10212  0D32  00C8               	line	175
 10213                           	
 10214                           l3357:	
 10215  0D33                     	btfss	(___fldiv@bexp),(0)&7
 10216  0D33  1C48               	goto	u3131
 10217  0D34  2D36               	goto	u3130
 10218  0D35  2D37               u3131:
 10219  0D36                     	goto	l3361
 10220  0D36  2D39               u3130:
 10221  0D37                     	line	176
 10222                           	
 10223                           l3359:	
 10224  0D37                     	bsf	0+(___fldiv@b)+02h+(7/8),(7)&7
 10225  0D37  17B6               	line	177
 10226                           	goto	l967
 10227  0D38  2D3D               	line	179
 10228                           	
 10229                           l966:	
 10230  0D39                     	line	180
 10231                           	
 10232                           l3361:	
 10233  0D39                     	movlw	low(07Fh)
 10234  0D39  307F               	movwf	(??___fldiv+0)+0
 10235  0D3A  00B8               	movf	(??___fldiv+0)+0,w
 10236  0D3B  0838               	andwf	0+(___fldiv@b)+02h,f
 10237  0D3C  05B6               	line	181
 10238                           	
 10239                           l967:	
 10240  0D3D                     	line	182
 10241                           	movf	(___fldiv@bexp),w
 10242  0D3D  0848               	movwf	(??___fldiv+0)+0
 10243  0D3E  00B8               	clrc
 10244  0D3F  1003               	rrf	(??___fldiv+0)+0,w
 10245  0D40  0C38               	movwf	(??___fldiv+1)+0
 10246  0D41  00B9               	movf	(??___fldiv+1)+0,w
 10247  0D42  0839               	movwf	0+(___fldiv@b)+03h
 10248  0D43  00B7               	line	183
 10249                           	movf	(___fldiv@sign),w
 10250  0D44  0841               	movwf	(??___fldiv+0)+0
 10251  0D45  00B8               	movf	(??___fldiv+0)+0,w
 10252  0D46  0838               	iorwf	0+(___fldiv@b)+03h,f
 10253  0D47  04B7               	line	184
 10254                           	
 10255                           l3363:	
 10256  0D48                     	movf	(___fldiv@b+3),w
 10257  0D48  0837               	movwf	(?___fldiv+3)
 10258  0D49  00B3               	movf	(___fldiv@b+2),w
 10259  0D4A  0836               	movwf	(?___fldiv+2)
 10260  0D4B  00B2               	movf	(___fldiv@b+1),w
 10261  0D4C  0835               	movwf	(?___fldiv+1)
 10262  0D4D  00B1               	movf	(___fldiv@b),w
 10263  0D4E  0834               	movwf	(?___fldiv)
 10264  0D4F  00B0               
 10265                           	goto	l945
 10266  0D50  2D51               	
 10267                           l3365:	
 10268  0D51                     	line	185
 10269                           	
 10270                           l945:	
 10271  0D51                     	return
 10272  0D51  0008               	opt stack 0
 10273                           GLOBAL	__end_of___fldiv
 10274                           	__end_of___fldiv:
 10275  0D52                     	signat	___fldiv,8316
 10276                           	global	___fladd
 10277                           
 10278 ;; *************** function ___fladd *****************
 10279 ;; Defined at:
 10280 ;;		line 10 in file "C:\Program Files (x86)\Microchip\xc8\v2.00\pic\sources\c90\common\sprcadd.c"
 10281 ;; Parameters:    Size  Location     Type
 10282 ;;  b               4    4[COMMON] unsigned char 
 10283 ;;  a               4    8[COMMON] unsigned char 
 10284 ;; Auto vars:     Size  Location     Type
 10285 ;;  grs             1   15[BANK0 ] unsigned char 
 10286 ;;  bexp            1   14[BANK0 ] unsigned char 
 10287 ;;  aexp            1   13[BANK0 ] unsigned char 
 10288 ;;  signs           1   12[BANK0 ] unsigned char 
 10289 ;; Return value:  Size  Location     Type
 10290 ;;                  4    4[COMMON] unsigned char 
 10291 ;; Registers used:
 10292 ;;		wreg, status,2, status,0, btemp+1
 10293 ;; Tracked objects:
 10294 ;;		On entry : 0/0
 10295 ;;		On exit  : 0/0
 10296 ;;		Unchanged: 0/0
 10297 ;; Data sizes:     COMMON   BANK0   BANK1   BANK3   BANK2
 10298 ;;      Params:         8       0       0       0       0
 10299 ;;      Locals:         0       4       0       0       0
 10300 ;;      Temps:          0      12       0       0       0
 10301 ;;      Totals:         8      16       0       0       0
 10302 ;;Total ram usage:       24 bytes
 10303 ;; Hardware stack levels used:    1
 10304 ;; This function calls:
 10305 ;;		Nothing
 10306 ;; This function is called by:
 10307 ;;		_AccionControl
 10308 ;; This function uses a non-reentrant model
 10309 ;;
 10310                           psect	text25,local,class=CODE,delta=2,merge=1,group=1
 10311                           	file	"C:\Program Files (x86)\Microchip\xc8\v2.00\pic\sources\c90\common\sprcadd.c"
 10312                           	line	10
 10313                           global __ptext25
 10314                           __ptext25:	;psect for function ___fladd
 10315  01B9                     psect	text25
 10316                           	file	"C:\Program Files (x86)\Microchip\xc8\v2.00\pic\sources\c90\common\sprcadd.c"
 10317                           	line	10
 10318                           	global	__size_of___fladd
 10319                           	__size_of___fladd	equ	__end_of___fladd-___fladd
 10320  02BC                     	
 10321                           ___fladd:	
 10322  01B9                     ;incstack = 0
 10323                           	opt	stack 5
 10324                           ; Regs used in ___fladd: [wreg+status,2+status,0+btemp+1]
 10325                           	line	21
 10326                           	
 10327                           l3031:	
 10328  01B9                     	movf	0+(___fladd@b)+03h,w
 10329  01B9  0877               	andlw	080h
 10330  01BA  3980               	bcf	status, 5	;RP0=0, select bank0
 10331  01BB  1283               	bcf	status, 6	;RP1=0, select bank0
 10332  01BC  1303               	movwf	(??___fladd+0)+0
 10333  01BD  00A0               	movf	(??___fladd+0)+0,w
 10334  01BE  0820               	movwf	(___fladd@signs)
 10335  01BF  00AC               	line	22
 10336                           	
 10337                           l3033:	
 10338  01C0                     	movf	0+(___fladd@b)+03h,w
 10339  01C0  0877               	movwf	(??___fladd+0)+0
 10340  01C1  00A0               	addwf	(??___fladd+0)+0,w
 10341  01C2  0720               	movwf	(??___fladd+1)+0
 10342  01C3  00A1               	movf	(??___fladd+1)+0,w
 10343  01C4  0821               	movwf	(___fladd@bexp)
 10344  01C5  00AE               	line	23
 10345                           	
 10346                           l3035:	
 10347  01C6                     	btfss	0+(___fladd@b)+02h,(7)&7
 10348  01C6  1FF6               	goto	u2391
 10349  01C7  29C9               	goto	u2390
 10350  01C8  29CA               u2391:
 10351  01C9                     	goto	l3039
 10352  01C9  29CC               u2390:
 10353  01CA                     	line	24
 10354                           	
 10355                           l3037:	
 10356  01CA                     	bsf	(___fladd@bexp)+(0/8),(0)&7
 10357  01CA  142E               	goto	l3039
 10358  01CB  29CC               	line	25
 10359                           	
 10360                           l879:	
 10361  01CC                     	line	28
 10362                           	
 10363                           l3039:	
 10364  01CC                     	movf	((___fladd@bexp)),w
 10365  01CC  082E               	btfsc	status,2
 10366  01CD  1903               	goto	u2401
 10367  01CE  29D0               	goto	u2400
 10368  01CF  29D1               u2401:
 10369  01D0                     	goto	l3049
 10370  01D0  29E2               u2400:
 10371  01D1                     	line	30
 10372                           	
 10373                           l3041:	
 10374  01D1                     		incf	((___fladd@bexp)),w
 10375  01D1  0A2E               	btfss	status,2
 10376  01D2  1D03               	goto	u2411
 10377  01D3  29D5               	goto	u2410
 10378  01D4  29D6               u2411:
 10379  01D5                     	goto	l3045
 10380  01D5  29DF               u2410:
 10381  01D6                     	line	32
 10382                           	
 10383                           l3043:	
 10384  01D6                     	movlw	0x0
 10385  01D6  3000               	movwf	(___fladd@b+3)
 10386  01D7  00F7               	movlw	0x0
 10387  01D8  3000               	movwf	(___fladd@b+2)
 10388  01D9  00F6               	movlw	0x0
 10389  01DA  3000               	movwf	(___fladd@b+1)
 10390  01DB  00F5               	movlw	0x0
 10391  01DC  3000               	movwf	(___fladd@b)
 10392  01DD  00F4               
 10393                           	goto	l3045
 10394  01DE  29DF               	line	33
 10395                           	
 10396                           l881:	
 10397  01DF                     	line	35
 10398                           	
 10399                           l3045:	
 10400  01DF                     	bsf	(___fladd@b)+(23/8),(23)&7
 10401  01DF  17F6               	line	37
 10402                           	
 10403                           l3047:	
 10404  01E0                     	clrf	0+(___fladd@b)+03h
 10405  01E0  01F7               	line	38
 10406                           	goto	l3051
 10407  01E1  29EB               	line	39
 10408                           	
 10409                           l880:	
 10410  01E2                     	line	41
 10411                           	
 10412                           l3049:	
 10413  01E2                     	movlw	0x0
 10414  01E2  3000               	movwf	(___fladd@b+3)
 10415  01E3  00F7               	movlw	0x0
 10416  01E4  3000               	movwf	(___fladd@b+2)
 10417  01E5  00F6               	movlw	0x0
 10418  01E6  3000               	movwf	(___fladd@b+1)
 10419  01E7  00F5               	movlw	0x0
 10420  01E8  3000               	movwf	(___fladd@b)
 10421  01E9  00F4               
 10422                           	goto	l3051
 10423  01EA  29EB               	line	42
 10424                           	
 10425                           l882:	
 10426  01EB                     	line	44
 10427                           	
 10428                           l3051:	
 10429  01EB                     	movf	0+(___fladd@a)+03h,w
 10430  01EB  087B               	andlw	080h
 10431  01EC  3980               	movwf	(??___fladd+0)+0
 10432  01ED  00A0               	movf	(??___fladd+0)+0,w
 10433  01EE  0820               	movwf	(___fladd@aexp)
 10434  01EF  00AD               	line	46
 10435                           	
 10436                           l3053:	
 10437  01F0                     	movf	(___fladd@aexp),w
 10438  01F0  082D               	xorwf	(___fladd@signs),w
 10439  01F1  062C               	skipnz
 10440  01F2  1903               	goto	u2421
 10441  01F3  29F5               	goto	u2420
 10442  01F4  29F6               u2421:
 10443  01F5                     	goto	l3057
 10444  01F5  29F8               u2420:
 10445  01F6                     	line	47
 10446                           	
 10447                           l3055:	
 10448  01F6                     	bsf	(___fladd@signs)+(6/8),(6)&7
 10449  01F6  172C               	goto	l3057
 10450  01F7  29F8               	line	48
 10451                           	
 10452                           l883:	
 10453  01F8                     	line	49
 10454                           	
 10455                           l3057:	
 10456  01F8                     	movf	0+(___fladd@a)+03h,w
 10457  01F8  087B               	movwf	(??___fladd+0)+0
 10458  01F9  00A0               	addwf	(??___fladd+0)+0,w
 10459  01FA  0720               	movwf	(??___fladd+1)+0
 10460  01FB  00A1               	movf	(??___fladd+1)+0,w
 10461  01FC  0821               	movwf	(___fladd@aexp)
 10462  01FD  00AD               	line	50
 10463                           	
 10464                           l3059:	
 10465  01FE                     	btfss	0+(___fladd@a)+02h,(7)&7
 10466  01FE  1FFA               	goto	u2431
 10467  01FF  2A01               	goto	u2430
 10468  0200  2A02               u2431:
 10469  0201                     	goto	l3063
 10470  0201  2A04               u2430:
 10471  0202                     	line	51
 10472                           	
 10473                           l3061:	
 10474  0202                     	bsf	(___fladd@aexp)+(0/8),(0)&7
 10475  0202  142D               	goto	l3063
 10476  0203  2A04               	line	52
 10477                           	
 10478                           l884:	
 10479  0204                     	line	55
 10480                           	
 10481                           l3063:	
 10482  0204                     	movf	((___fladd@aexp)),w
 10483  0204  082D               	btfsc	status,2
 10484  0205  1903               	goto	u2441
 10485  0206  2A08               	goto	u2440
 10486  0207  2A09               u2441:
 10487  0208                     	goto	l3073
 10488  0208  2A1A               u2440:
 10489  0209                     	line	57
 10490                           	
 10491                           l3065:	
 10492  0209                     		incf	((___fladd@aexp)),w
 10493  0209  0A2D               	btfss	status,2
 10494  020A  1D03               	goto	u2451
 10495  020B  2A0D               	goto	u2450
 10496  020C  2A0E               u2451:
 10497  020D                     	goto	l3069
 10498  020D  2A17               u2450:
 10499  020E                     	line	59
 10500                           	
 10501                           l3067:	
 10502  020E                     	movlw	0x0
 10503  020E  3000               	movwf	(___fladd@a+3)
 10504  020F  00FB               	movlw	0x0
 10505  0210  3000               	movwf	(___fladd@a+2)
 10506  0211  00FA               	movlw	0x0
 10507  0212  3000               	movwf	(___fladd@a+1)
 10508  0213  00F9               	movlw	0x0
 10509  0214  3000               	movwf	(___fladd@a)
 10510  0215  00F8               
 10511                           	goto	l3069
 10512  0216  2A17               	line	60
 10513                           	
 10514                           l886:	
 10515  0217                     	line	62
 10516                           	
 10517                           l3069:	
 10518  0217                     	bsf	(___fladd@a)+(23/8),(23)&7
 10519  0217  17FA               	line	64
 10520                           	
 10521                           l3071:	
 10522  0218                     	clrf	0+(___fladd@a)+03h
 10523  0218  01FB               	line	65
 10524                           	goto	l887
 10525  0219  2A22               	line	66
 10526                           	
 10527                           l885:	
 10528  021A                     	line	68
 10529                           	
 10530                           l3073:	
 10531  021A                     	movlw	0x0
 10532  021A  3000               	movwf	(___fladd@a+3)
 10533  021B  00FB               	movlw	0x0
 10534  021C  3000               	movwf	(___fladd@a+2)
 10535  021D  00FA               	movlw	0x0
 10536  021E  3000               	movwf	(___fladd@a+1)
 10537  021F  00F9               	movlw	0x0
 10538  0220  3000               	movwf	(___fladd@a)
 10539  0221  00F8               
 10540                           	line	69
 10541                           	
 10542                           l887:	
 10543  0222                     	line	75
 10544                           	movf	(___fladd@bexp),w
 10545  0222  082E               	subwf	(___fladd@aexp),w
 10546  0223  022D               	skipnc
 10547  0224  1803               	goto	u2461
 10548  0225  2A27               	goto	u2460
 10549  0226  2A28               u2461:
 10550  0227                     	goto	l3109
 10551  0227  2A6E               u2460:
 10552  0228                     	line	77
 10553                           	
 10554                           l3075:	
 10555  0228                     	btfss	(___fladd@signs),(6)&7
 10556  0228  1F2C               	goto	u2471
 10557  0229  2A2B               	goto	u2470
 10558  022A  2A2C               u2471:
 10559  022B                     	goto	l3079
 10560  022B  2A31               u2470:
 10561  022C                     	line	78
 10562                           	
 10563                           l3077:	
 10564  022C                     	movlw	low(080h)
 10565  022C  3080               	movwf	(??___fladd+0)+0
 10566  022D  00A0               	movf	(??___fladd+0)+0,w
 10567  022E  0820               	xorwf	(___fladd@signs),f
 10568  022F  06AC               	goto	l3079
 10569  0230  2A31               	line	79
 10570                           	
 10571                           l889:	
 10572  0231                     	line	81
 10573                           	
 10574                           l3079:	
 10575  0231                     	movf	(___fladd@bexp),w
 10576  0231  082E               	movwf	(??___fladd+0)+0
 10577  0232  00A0               	movf	(??___fladd+0)+0,w
 10578  0233  0820               	movwf	(___fladd@grs)
 10579  0234  00AF               	line	82
 10580                           	
 10581                           l3081:	
 10582  0235                     	movf	(___fladd@aexp),w
 10583  0235  082D               	movwf	(??___fladd+0)+0
 10584  0236  00A0               	movf	(??___fladd+0)+0,w
 10585  0237  0820               	movwf	(___fladd@bexp)
 10586  0238  00AE               	line	83
 10587                           	
 10588                           l3083:	
 10589  0239                     	movf	(___fladd@grs),w
 10590  0239  082F               	movwf	(??___fladd+0)+0
 10591  023A  00A0               	movf	(??___fladd+0)+0,w
 10592  023B  0820               	movwf	(___fladd@aexp)
 10593  023C  00AD               	line	84
 10594                           	
 10595                           l3085:	
 10596  023D                     	movf	(___fladd@b),w
 10597  023D  0874               	movwf	(??___fladd+0)+0
 10598  023E  00A0               	movf	(??___fladd+0)+0,w
 10599  023F  0820               	movwf	(___fladd@grs)
 10600  0240  00AF               	line	85
 10601                           	
 10602                           l3087:	
 10603  0241                     	movf	(___fladd@a),w
 10604  0241  0878               	movwf	(??___fladd+0)+0
 10605  0242  00A0               	movf	(??___fladd+0)+0,w
 10606  0243  0820               	movwf	(___fladd@b)
 10607  0244  00F4               	line	86
 10608                           	
 10609                           l3089:	
 10610  0245                     	movf	(___fladd@grs),w
 10611  0245  082F               	movwf	(??___fladd+0)+0
 10612  0246  00A0               	movf	(??___fladd+0)+0,w
 10613  0247  0820               	movwf	(___fladd@a)
 10614  0248  00F8               	line	87
 10615                           	
 10616                           l3091:	
 10617  0249                     	movf	0+(___fladd@b)+01h,w
 10618  0249  0875               	movwf	(??___fladd+0)+0
 10619  024A  00A0               	movf	(??___fladd+0)+0,w
 10620  024B  0820               	movwf	(___fladd@grs)
 10621  024C  00AF               	line	88
 10622                           	
 10623                           l3093:	
 10624  024D                     	movf	0+(___fladd@a)+01h,w
 10625  024D  0879               	movwf	(??___fladd+0)+0
 10626  024E  00A0               	movf	(??___fladd+0)+0,w
 10627  024F  0820               	movwf	0+(___fladd@b)+01h
 10628  0250  00F5               	line	89
 10629                           	
 10630                           l3095:	
 10631  0251                     	movf	(___fladd@grs),w
 10632  0251  082F               	movwf	(??___fladd+0)+0
 10633  0252  00A0               	movf	(??___fladd+0)+0,w
 10634  0253  0820               	movwf	0+(___fladd@a)+01h
 10635  0254  00F9               	line	90
 10636                           	
 10637                           l3097:	
 10638  0255                     	movf	0+(___fladd@b)+02h,w
 10639  0255  0876               	movwf	(??___fladd+0)+0
 10640  0256  00A0               	movf	(??___fladd+0)+0,w
 10641  0257  0820               	movwf	(___fladd@grs)
 10642  0258  00AF               	line	91
 10643                           	
 10644                           l3099:	
 10645  0259                     	movf	0+(___fladd@a)+02h,w
 10646  0259  087A               	movwf	(??___fladd+0)+0
 10647  025A  00A0               	movf	(??___fladd+0)+0,w
 10648  025B  0820               	movwf	0+(___fladd@b)+02h
 10649  025C  00F6               	line	92
 10650                           	
 10651                           l3101:	
 10652  025D                     	movf	(___fladd@grs),w
 10653  025D  082F               	movwf	(??___fladd+0)+0
 10654  025E  00A0               	movf	(??___fladd+0)+0,w
 10655  025F  0820               	movwf	0+(___fladd@a)+02h
 10656  0260  00FA               	line	93
 10657                           	
 10658                           l3103:	
 10659  0261                     	movf	0+(___fladd@b)+03h,w
 10660  0261  0877               	movwf	(??___fladd+0)+0
 10661  0262  00A0               	movf	(??___fladd+0)+0,w
 10662  0263  0820               	movwf	(___fladd@grs)
 10663  0264  00AF               	line	94
 10664                           	
 10665                           l3105:	
 10666  0265                     	movf	0+(___fladd@a)+03h,w
 10667  0265  087B               	movwf	(??___fladd+0)+0
 10668  0266  00A0               	movf	(??___fladd+0)+0,w
 10669  0267  0820               	movwf	0+(___fladd@b)+03h
 10670  0268  00F7               	line	95
 10671                           	
 10672                           l3107:	
 10673  0269                     	movf	(___fladd@grs),w
 10674  0269  082F               	movwf	(??___fladd+0)+0
 10675  026A  00A0               	movf	(??___fladd+0)+0,w
 10676  026B  0820               	movwf	0+(___fladd@a)+03h
 10677  026C  00FB               	goto	l3109
 10678  026D  2A6E               	line	96
 10679                           	
 10680                           l888:	
 10681  026E                     	line	98
 10682                           	
 10683                           l3109:	
 10684  026E                     	clrf	(___fladd@grs)
 10685  026E  01AF               	line	100
 10686                           	
 10687                           l3111:	
 10688  026F                     	movf	(___fladd@bexp),w
 10689  026F  082E               	movwf	(??___fladd+0)+0
 10690  0270  00A0               	clrf	(??___fladd+0)+0+1
 10691  0271  01A1               	comf	(??___fladd+0)+0,f
 10692  0272  09A0               	comf	(??___fladd+0)+1,f
 10693  0273  09A1               	incf	(??___fladd+0)+0,f
 10694  0274  0AA0               	skipnz
 10695  0275  1903               	incf	(??___fladd+0)+1,f
 10696  0276  0AA1               	movf	(___fladd@aexp),w
 10697  0277  082D               	addwf	0+(??___fladd+0)+0,w
 10698  0278  0720               	movwf	(??___fladd+2)+0
 10699  0279  00A2               	movf	1+(??___fladd+0)+0,w
 10700  027A  0821               	skipnc
 10701  027B  1803               	incf	1+(??___fladd+0)+0,w
 10702  027C  0A21               	movwf	((??___fladd+2)+0)+1
 10703  027D  00A3               	movf	1+(??___fladd+2)+0,w
 10704  027E  0823               	xorlw	80h
 10705  027F  3A80               	movwf	btemp+1
 10706  0280  00FF               	movlw	(0)^80h
 10707  0281  3080               	subwf	btemp+1,w
 10708  0282  027F               	skipz
 10709  0283  1D03               	goto	u2485
 10710  0284  2A87               	movlw	01Ah
 10711  0285  301A               	subwf	0+(??___fladd+2)+0,w
 10712  0286  0222               u2485:
 10713  0287                     
 10714                           	skipc
 10715  0287  1C03               	goto	u2481
 10716  0288  2A8A               	goto	u2480
 10717  0289  2A8B               u2481:
 10718  028A                     	goto	l3127
 10719  028A  2ACC               u2480:
 10720  028B                     	line	101
 10721                           	
 10722                           l3113:	
 10723  028B                     	movf	(___fladd@b+3),w
 10724  028B  0877               	iorwf	(___fladd@b+2),w
 10725  028C  0476               	iorwf	(___fladd@b+1),w
 10726  028D  0475               	iorwf	(___fladd@b),w
 10727  028E  0474               	skipz
 10728  028F  1D03               	goto	u2491
 10729  0290  2A92               	goto	u2490
 10730  0291  2A94               u2491:
 10731  0292                     	movlw	1
 10732  0292  3001               	goto	u2500
 10733  0293  2A95               u2490:
 10734  0294                     	movlw	0
 10735  0294  3000               u2500:
 10736  0295                     	bcf	status, 5	;RP0=0, select bank0
 10737  0295  1283               	bcf	status, 6	;RP1=0, select bank0
 10738  0296  1303               	movwf	(??___fladd+0)+0
 10739  0297  00A0               	movf	(??___fladd+0)+0,w
 10740  0298  0820               	movwf	(___fladd@grs)
 10741  0299  00AF               	line	102
 10742                           	movlw	high highword(0)
 10743  029A  3000               	movwf	(___fladd@b+3)
 10744  029B  00F7               	movlw	low highword(0)
 10745  029C  3000               	movwf	(___fladd@b+2)
 10746  029D  00F6               	movlw	high(0)
 10747  029E  3000               	movwf	(___fladd@b+1)
 10748  029F  00F5               	movlw	low(0)
 10749  02A0  3000               	movwf	(___fladd@b)
 10750  02A1  00F4               
 10751                           	line	103
 10752                           	movf	(___fladd@aexp),w
 10753  02A2  082D               	movwf	(??___fladd+0)+0
 10754  02A3  00A0               	movf	(??___fladd+0)+0,w
 10755  02A4  0820               	movwf	(___fladd@bexp)
 10756  02A5  00AE               	line	104
 10757                           	goto	l891
 10758  02A6  2AD5               	line	105
 10759                           	
 10760                           l890:	
 10761  02A7                     	line	106
 10762                           	goto	l3127
 10763  02A7  2ACC               	
 10764                           l893:	
 10765  02A8                     	line	109
 10766                           	btfss	(___fladd@grs),(0)&7
 10767  02A8  1C2F               	goto	u2511
 10768  02A9  2AAB               	goto	u2510
 10769  02AA  2AAC               u2511:
 10770  02AB                     	goto	l3117
 10771  02AB  2AB5               u2510:
 10772  02AC                     	line	110
 10773                           	
 10774                           l3115:	
 10775  02AC                     	movf	(___fladd@grs),w
 10776  02AC  082F               	movwf	(??___fladd+0)+0
 10777  02AD  00A0               	clrc
 10778  02AE  1003               	rrf	(??___fladd+0)+0,w
 10779  02AF  0C20               	iorlw	01h
 10780  02B0  3801               	movwf	(??___fladd+1)+0
 10781  02B1  00A1               	movf	(??___fladd+1)+0,w
 10782  02B2  0821               	movwf	(___fladd@grs)
 10783  02B3  00AF               	line	111
 10784                           	goto	l3119
 10785  02B4  2AB8               	line	112
 10786                           	
 10787                           l894:	
 10788  02B5                     	line	113
 10789                           	
 10790                           l3117:	
 10791  02B5                     	clrc
 10792  02B5  1003               	rrf	(___fladd@grs),f
 10793  02B6  0CAF               
 10794                           	goto	l3119
 10795  02B7  2AB8               	line	114
 10796                           	
 10797                           l895:	
 10798  02B8                     	line	115
 10799                           	
 10800                           l3119:	
 10801  02B8                     	btfss	(___fladd@b),(0)&7
 10802  02B8  1C74               	goto	u2521
 10803  02B9  2ABB               	goto	u2520
 10804  02BA  2ABC               u2521:
 10805  02BB                     	goto	l3123
 10806  02BB  2ABE               u2520:
 10807  02BC                     	line	116
 10808                           	
 10809                           l3121:	
 10810  02BC                     	bsf	(___fladd@grs)+(7/8),(7)&7
 10811  02BC  17AF               	goto	l3123
 10812  02BD  2ABE               	line	117
 10813                           	
 10814                           l896:	
 10815  02BE                     	line	118
 10816                           	
 10817                           l3123:	
 10818  02BE                     	movlw	01h
 10819  02BE  3001               	movwf	(??___fladd+0)+0
 10820  02BF  00A0               u2535:
 10821  02C0                     	rlf	(___fladd@b+3),w
 10822  02C0  0D77               	rrf	(___fladd@b+3),f
 10823  02C1  0CF7               	rrf	(___fladd@b+2),f
 10824  02C2  0CF6               	rrf	(___fladd@b+1),f
 10825  02C3  0CF5               	rrf	(___fladd@b),f
 10826  02C4  0CF4               	decfsz	(??___fladd+0)+0&07fh,f
 10827  02C5  0BA0               	goto	u2535
 10828  02C6  2AC0               
 10829                           	line	119
 10830                           	
 10831                           l3125:	
 10832  02C7                     	movlw	low(01h)
 10833  02C7  3001               	movwf	(??___fladd+0)+0
 10834  02C8  00A0               	movf	(??___fladd+0)+0,w
 10835  02C9  0820               	addwf	(___fladd@bexp),f
 10836  02CA  07AE               	goto	l3127
 10837  02CB  2ACC               	line	120
 10838                           	
 10839                           l892:	
 10840  02CC                     	line	106
 10841                           	
 10842                           l3127:	
 10843  02CC                     	bcf	status, 5	;RP0=0, select bank0
 10844  02CC  1283               	bcf	status, 6	;RP1=0, select bank0
 10845  02CD  1303               	movf	(___fladd@aexp),w
 10846  02CE  082D               	subwf	(___fladd@bexp),w
 10847  02CF  022E               	skipc
 10848  02D0  1C03               	goto	u2541
 10849  02D1  2AD3               	goto	u2540
 10850  02D2  2AD4               u2541:
 10851  02D3                     	goto	l893
 10852  02D3  2AA8               u2540:
 10853  02D4                     	goto	l891
 10854  02D4  2AD5               	
 10855                           l897:	
 10856  02D5                     	line	121
 10857                           	
 10858                           l891:	
 10859  02D5                     	line	124
 10860                           	btfsc	(___fladd@signs),(6)&7
 10861  02D5  1B2C               	goto	u2551
 10862  02D6  2AD8               	goto	u2550
 10863  02D7  2AD9               u2551:
 10864  02D8                     	goto	l3153
 10865  02D8  2B28               u2550:
 10866  02D9                     	line	127
 10867                           	
 10868                           l3129:	
 10869  02D9                     	movf	((___fladd@bexp)),w
 10870  02D9  082E               	btfss	status,2
 10871  02DA  1D03               	goto	u2561
 10872  02DB  2ADD               	goto	u2560
 10873  02DC  2ADE               u2561:
 10874  02DD                     	goto	l3135
 10875  02DD  2AE8               u2560:
 10876  02DE                     	line	128
 10877                           	
 10878                           l3131:	
 10879  02DE                     	movlw	0x0
 10880  02DE  3000               	movwf	(?___fladd+3)
 10881  02DF  00F7               	movlw	0x0
 10882  02E0  3000               	movwf	(?___fladd+2)
 10883  02E1  00F6               	movlw	0x0
 10884  02E2  3000               	movwf	(?___fladd+1)
 10885  02E3  00F5               	movlw	0x0
 10886  02E4  3000               	movwf	(?___fladd)
 10887  02E5  00F4               
 10888                           	goto	l900
 10889  02E6  2C74               	
 10890                           l3133:	
 10891  02E7                     	goto	l900
 10892  02E7  2C74               	line	129
 10893                           	
 10894                           l899:	
 10895  02E8                     	line	132
 10896                           	
 10897                           l3135:	
 10898  02E8                     	movf	(___fladd@a),w
 10899  02E8  0878               	addwf	(___fladd@b),f
 10900  02E9  07F4               	movf	(___fladd@a+1),w
 10901  02EA  0879               	clrz
 10902  02EB  1103               	skipnc
 10903  02EC  1803               	addlw	1
 10904  02ED  3E01               	skipnz
 10905  02EE  1903               	goto	u2571
 10906  02EF  2AF1               	addwf	(___fladd@b+1),f
 10907  02F0  07F5               u2571:
 10908  02F1                     	movf	(___fladd@a+2),w
 10909  02F1  087A               	clrz
 10910  02F2  1103               	skipnc
 10911  02F3  1803               	addlw	1
 10912  02F4  3E01               	skipnz
 10913  02F5  1903               	goto	u2572
 10914  02F6  2AF8               	addwf	(___fladd@b+2),f
 10915  02F7  07F6               u2572:
 10916  02F8                     	movf	(___fladd@a+3),w
 10917  02F8  087B               	clrz
 10918  02F9  1103               	skipnc
 10919  02FA  1803               	addlw	1
 10920  02FB  3E01               	skipnz
 10921  02FC  1903               	goto	u2573
 10922  02FD  2AFF               	addwf	(___fladd@b+3),f
 10923  02FE  07F7               u2573:
 10924  02FF                     
 10925                           	line	134
 10926                           	
 10927                           l3137:	
 10928  02FF                     	btfss	(___fladd@b+3),(24)&7
 10929  02FF  1C77               	goto	u2581
 10930  0300  2B02               	goto	u2580
 10931  0301  2B03               u2581:
 10932  0302                     	goto	l3187
 10933  0302  2BF1               u2580:
 10934  0303                     	line	135
 10935                           	
 10936                           l3139:	
 10937  0303                     	btfss	(___fladd@grs),(0)&7
 10938  0303  1C2F               	goto	u2591
 10939  0304  2B06               	goto	u2590
 10940  0305  2B07               u2591:
 10941  0306                     	goto	l3143
 10942  0306  2B10               u2590:
 10943  0307                     	line	136
 10944                           	
 10945                           l3141:	
 10946  0307                     	movf	(___fladd@grs),w
 10947  0307  082F               	movwf	(??___fladd+0)+0
 10948  0308  00A0               	clrc
 10949  0309  1003               	rrf	(??___fladd+0)+0,w
 10950  030A  0C20               	iorlw	01h
 10951  030B  3801               	movwf	(??___fladd+1)+0
 10952  030C  00A1               	movf	(??___fladd+1)+0,w
 10953  030D  0821               	movwf	(___fladd@grs)
 10954  030E  00AF               	line	137
 10955                           	goto	l3145
 10956  030F  2B13               	line	138
 10957                           	
 10958                           l902:	
 10959  0310                     	line	139
 10960                           	
 10961                           l3143:	
 10962  0310                     	clrc
 10963  0310  1003               	rrf	(___fladd@grs),f
 10964  0311  0CAF               
 10965                           	goto	l3145
 10966  0312  2B13               	line	140
 10967                           	
 10968                           l903:	
 10969  0313                     	line	141
 10970                           	
 10971                           l3145:	
 10972  0313                     	btfss	(___fladd@b),(0)&7
 10973  0313  1C74               	goto	u2601
 10974  0314  2B16               	goto	u2600
 10975  0315  2B17               u2601:
 10976  0316                     	goto	l3149
 10977  0316  2B19               u2600:
 10978  0317                     	line	142
 10979                           	
 10980                           l3147:	
 10981  0317                     	bsf	(___fladd@grs)+(7/8),(7)&7
 10982  0317  17AF               	goto	l3149
 10983  0318  2B19               	line	143
 10984                           	
 10985                           l904:	
 10986  0319                     	line	144
 10987                           	
 10988                           l3149:	
 10989  0319                     	movlw	01h
 10990  0319  3001               	movwf	(??___fladd+0)+0
 10991  031A  00A0               u2615:
 10992  031B                     	rlf	(___fladd@b+3),w
 10993  031B  0D77               	rrf	(___fladd@b+3),f
 10994  031C  0CF7               	rrf	(___fladd@b+2),f
 10995  031D  0CF6               	rrf	(___fladd@b+1),f
 10996  031E  0CF5               	rrf	(___fladd@b),f
 10997  031F  0CF4               	decfsz	(??___fladd+0)+0&07fh,f
 10998  0320  0BA0               	goto	u2615
 10999  0321  2B1B               
 11000                           	line	145
 11001                           	
 11002                           l3151:	
 11003  0322                     	movlw	low(01h)
 11004  0322  3001               	movwf	(??___fladd+0)+0
 11005  0323  00A0               	movf	(??___fladd+0)+0,w
 11006  0324  0820               	addwf	(___fladd@bexp),f
 11007  0325  07AE               	goto	l3187
 11008  0326  2BF1               	line	146
 11009                           	
 11010                           l901:	
 11011  0327                     	line	148
 11012                           	goto	l3187
 11013  0327  2BF1               	line	149
 11014                           	
 11015                           l898:	
 11016  0328                     	line	153
 11017                           	
 11018                           l3153:	
 11019  0328                     	movf	(___fladd@b+3),w
 11020  0328  0877               	xorlw	80h
 11021  0329  3A80               	movwf	btemp+1
 11022  032A  00FF               	movf	(___fladd@a+3),w
 11023  032B  087B               	xorlw	80h
 11024  032C  3A80               	subwf	btemp+1,w
 11025  032D  027F               	
 11026                           	skipz
 11027  032E  1D03               	goto	u2623
 11028  032F  2B3A               	movf	(___fladd@a+2),w
 11029  0330  087A               	subwf	(___fladd@b+2),w
 11030  0331  0276               	skipz
 11031  0332  1D03               	goto	u2623
 11032  0333  2B3A               	movf	(___fladd@a+1),w
 11033  0334  0879               	subwf	(___fladd@b+1),w
 11034  0335  0275               	skipz
 11035  0336  1D03               	goto	u2623
 11036  0337  2B3A               	movf	(___fladd@a),w
 11037  0338  0878               	subwf	(___fladd@b),w
 11038  0339  0274               u2623:
 11039  033A                     	skipnc
 11040  033A  1803               	goto	u2621
 11041  033B  2B3D               	goto	u2620
 11042  033C  2B3E               u2621:
 11043  033D                     	goto	l3163
 11044  033D  2BA4               u2620:
 11045  033E                     	line	154
 11046                           	
 11047                           l3155:	
 11048  033E                     	movlw	0FFh
 11049  033E  30FF               	movwf	((??___fladd+0)+0)
 11050  033F  00A0               	movlw	0FFh
 11051  0340  30FF               	movwf	((??___fladd+0)+0+1)
 11052  0341  00A1               	movlw	0FFh
 11053  0342  30FF               	movwf	((??___fladd+0)+0+2)
 11054  0343  00A2               	movlw	0FFh
 11055  0344  30FF               	movwf	((??___fladd+0)+0+3)
 11056  0345  00A3               	movf	(___fladd@a),w
 11057  0346  0878               	movwf	(??___fladd+4)+0
 11058  0347  00A4               	movf	(___fladd@a+1),w
 11059  0348  0879               	movwf	((??___fladd+4)+0+1)
 11060  0349  00A5               	movf	(___fladd@a+2),w
 11061  034A  087A               	movwf	((??___fladd+4)+0+2)
 11062  034B  00A6               	movf	(___fladd@a+3),w
 11063  034C  087B               	movwf	((??___fladd+4)+0+3)
 11064  034D  00A7               	comf	(___fladd@b),w
 11065  034E  0974               	movwf	(??___fladd+8)+0
 11066  034F  00A8               	comf	(___fladd@b+1),w
 11067  0350  0975               	movwf	((??___fladd+8)+0+1)
 11068  0351  00A9               	comf	(___fladd@b+2),w
 11069  0352  0976               	movwf	((??___fladd+8)+0+2)
 11070  0353  00AA               	comf	(___fladd@b+3),w
 11071  0354  0977               	movwf	((??___fladd+8)+0+3)
 11072  0355  00AB               	incf	(??___fladd+8)+0,f
 11073  0356  0AA8               	skipnz
 11074  0357  1903               	incf	((??___fladd+8)+0+1),f
 11075  0358  0AA9               	skipnz
 11076  0359  1903               	incf	((??___fladd+8)+0+2),f
 11077  035A  0AAA               	skipnz
 11078  035B  1903               	incf	((??___fladd+8)+0+3),f
 11079  035C  0AAB               	movf	0+(??___fladd+8)+0,w
 11080  035D  0828               	addwf	(??___fladd+4)+0,f
 11081  035E  07A4               	movf	1+(??___fladd+8)+0,w
 11082  035F  0829               	skipnc
 11083  0360  1803               	incfsz	1+(??___fladd+8)+0,w
 11084  0361  0F29               	goto	u2630
 11085  0362  2B64               	goto	u2631
 11086  0363  2B65               u2630:
 11087  0364                     	addwf	(??___fladd+4)+1,f
 11088  0364  07A5               u2631:
 11089  0365                     	movf	2+(??___fladd+8)+0,w
 11090  0365  082A               	skipnc
 11091  0366  1803               	incfsz	2+(??___fladd+8)+0,w
 11092  0367  0F2A               	goto	u2632
 11093  0368  2B6A               	goto	u2633
 11094  0369  2B6B               u2632:
 11095  036A                     	addwf	(??___fladd+4)+2,f
 11096  036A  07A6               u2633:
 11097  036B                     	movf	3+(??___fladd+8)+0,w
 11098  036B  082B               	skipnc
 11099  036C  1803               	incf	3+(??___fladd+8)+0,w
 11100  036D  0A2B               	addwf	(??___fladd+4)+3,f
 11101  036E  07A7               	movf	0+(??___fladd+4)+0,w
 11102  036F  0824               	addwf	(??___fladd+0)+0,f
 11103  0370  07A0               	movf	1+(??___fladd+4)+0,w
 11104  0371  0825               	skipnc
 11105  0372  1803               	incfsz	1+(??___fladd+4)+0,w
 11106  0373  0F25               	goto	u2640
 11107  0374  2B76               	goto	u2641
 11108  0375  2B77               u2640:
 11109  0376                     	addwf	(??___fladd+0)+1,f
 11110  0376  07A1               u2641:
 11111  0377                     	movf	2+(??___fladd+4)+0,w
 11112  0377  0826               	skipnc
 11113  0378  1803               	incfsz	2+(??___fladd+4)+0,w
 11114  0379  0F26               	goto	u2642
 11115  037A  2B7C               	goto	u2643
 11116  037B  2B7D               u2642:
 11117  037C                     	addwf	(??___fladd+0)+2,f
 11118  037C  07A2               u2643:
 11119  037D                     	movf	3+(??___fladd+4)+0,w
 11120  037D  0827               	skipnc
 11121  037E  1803               	incf	3+(??___fladd+4)+0,w
 11122  037F  0A27               	addwf	(??___fladd+0)+3,f
 11123  0380  07A3               	movf	3+(??___fladd+0)+0,w
 11124  0381  0823               	movwf	(___fladd@b+3)
 11125  0382  00F7               	movf	2+(??___fladd+0)+0,w
 11126  0383  0822               	movwf	(___fladd@b+2)
 11127  0384  00F6               	movf	1+(??___fladd+0)+0,w
 11128  0385  0821               	movwf	(___fladd@b+1)
 11129  0386  00F5               	movf	0+(??___fladd+0)+0,w
 11130  0387  0820               	movwf	(___fladd@b)
 11131  0388  00F4               
 11132                           	line	155
 11133                           	movlw	low(080h)
 11134  0389  3080               	movwf	(??___fladd+0)+0
 11135  038A  00A0               	movf	(??___fladd+0)+0,w
 11136  038B  0820               	xorwf	(___fladd@signs),f
 11137  038C  06AC               	line	156
 11138                           	
 11139                           l3157:	
 11140  038D                     	comf	(___fladd@grs),f
 11141  038D  09AF               	incf	(___fladd@grs),f
 11142  038E  0AAF               	line	157
 11143                           	
 11144                           l3159:	
 11145  038F                     	movf	((___fladd@grs)),w
 11146  038F  082F               	btfss	status,2
 11147  0390  1D03               	goto	u2651
 11148  0391  2B93               	goto	u2650
 11149  0392  2B94               u2651:
 11150  0393                     	goto	l908
 11151  0393  2BB2               u2650:
 11152  0394                     	line	158
 11153                           	
 11154                           l3161:	
 11155  0394                     	movlw	01h
 11156  0394  3001               	addwf	(___fladd@b),f
 11157  0395  07F4               	movlw	0
 11158  0396  3000               	skipnc
 11159  0397  1803               movlw 1
 11160  0398  3001               	addwf	(___fladd@b+1),f
 11161  0399  07F5               	movlw	0
 11162  039A  3000               	skipnc
 11163  039B  1803               movlw 1
 11164  039C  3001               	addwf	(___fladd@b+2),f
 11165  039D  07F6               	movlw	0
 11166  039E  3000               	skipnc
 11167  039F  1803               movlw 1
 11168  03A0  3001               	addwf	(___fladd@b+3),f
 11169  03A1  07F7               	goto	l908
 11170  03A2  2BB2               	line	159
 11171                           	
 11172                           l907:	
 11173  03A3                     	line	160
 11174                           	goto	l908
 11175  03A3  2BB2               	line	161
 11176                           	
 11177                           l906:	
 11178  03A4                     	line	162
 11179                           	
 11180                           l3163:	
 11181  03A4                     	movf	(___fladd@a),w
 11182  03A4  0878               	subwf	(___fladd@b),f
 11183  03A5  02F4               	movf	(___fladd@a+1),w
 11184  03A6  0879               	skipc
 11185  03A7  1C03               	incfsz	(___fladd@a+1),w
 11186  03A8  0F79               	subwf	(___fladd@b+1),f
 11187  03A9  02F5               	movf	(___fladd@a+2),w
 11188  03AA  087A               	skipc
 11189  03AB  1C03               	incfsz	(___fladd@a+2),w
 11190  03AC  0F7A               	subwf	(___fladd@b+2),f
 11191  03AD  02F6               	movf	(___fladd@a+3),w
 11192  03AE  087B               	skipc
 11193  03AF  1C03               	incfsz	(___fladd@a+3),w
 11194  03B0  0F7B               	subwf	(___fladd@b+3),f
 11195  03B1  02F7               	line	163
 11196                           	
 11197                           l908:	
 11198  03B2                     	line	166
 11199                           	movf	(___fladd@b+3),w
 11200  03B2  0877               	iorwf	(___fladd@b+2),w
 11201  03B3  0476               	iorwf	(___fladd@b+1),w
 11202  03B4  0475               	iorwf	(___fladd@b),w
 11203  03B5  0474               	skipz
 11204  03B6  1D03               	goto	u2661
 11205  03B7  2BB9               	goto	u2660
 11206  03B8  2BBA               u2661:
 11207  03B9                     	goto	l3185
 11208  03B9  2BEB               u2660:
 11209  03BA                     	
 11210                           l3165:	
 11211  03BA                     	movf	((___fladd@grs)),w
 11212  03BA  082F               	btfss	status,2
 11213  03BB  1D03               	goto	u2671
 11214  03BC  2BBE               	goto	u2670
 11215  03BD  2BBF               u2671:
 11216  03BE                     	goto	l3185
 11217  03BE  2BEB               u2670:
 11218  03BF                     	line	167
 11219                           	
 11220                           l3167:	
 11221  03BF                     	movlw	0x0
 11222  03BF  3000               	movwf	(?___fladd+3)
 11223  03C0  00F7               	movlw	0x0
 11224  03C1  3000               	movwf	(?___fladd+2)
 11225  03C2  00F6               	movlw	0x0
 11226  03C3  3000               	movwf	(?___fladd+1)
 11227  03C4  00F5               	movlw	0x0
 11228  03C5  3000               	movwf	(?___fladd)
 11229  03C6  00F4               
 11230                           	goto	l900
 11231  03C7  2C74               	
 11232                           l3169:	
 11233  03C8                     	goto	l900
 11234  03C8  2C74               	line	168
 11235                           	
 11236                           l909:	
 11237  03C9                     	line	171
 11238                           	goto	l3185
 11239  03C9  2BEB               	
 11240                           l911:	
 11241  03CA                     	line	172
 11242                           	
 11243                           l3171:	
 11244  03CA                     	movlw	01h
 11245  03CA  3001               	movwf	(??___fladd+0)+0
 11246  03CB  00A0               u2685:
 11247  03CC                     	clrc
 11248  03CC  1003               	rlf	(___fladd@b),f
 11249  03CD  0DF4               	rlf	(___fladd@b+1),f
 11250  03CE  0DF5               	rlf	(___fladd@b+2),f
 11251  03CF  0DF6               	rlf	(___fladd@b+3),f
 11252  03D0  0DF7               	decfsz	(??___fladd+0)+0
 11253  03D1  0BA0               	goto	u2685
 11254  03D2  2BCC               	line	173
 11255                           	
 11256                           l3173:	
 11257  03D3                     	btfss	(___fladd@grs),(7)&7
 11258  03D3  1FAF               	goto	u2691
 11259  03D4  2BD6               	goto	u2690
 11260  03D5  2BD7               u2691:
 11261  03D6                     	goto	l912
 11262  03D6  2BD8               u2690:
 11263  03D7                     	line	174
 11264                           	
 11265                           l3175:	
 11266  03D7                     	bsf	(___fladd@b)+(0/8),(0)&7
 11267  03D7  1474               	line	175
 11268                           	
 11269                           l912:	
 11270  03D8                     	line	176
 11271                           	btfss	(___fladd@grs),(0)&7
 11272  03D8  1C2F               	goto	u2701
 11273  03D9  2BDB               	goto	u2700
 11274  03DA  2BDC               u2701:
 11275  03DB                     	goto	l3179
 11276  03DB  2BDF               u2700:
 11277  03DC                     	line	177
 11278                           	
 11279                           l3177:	
 11280  03DC                     	setc
 11281  03DC  1403               	rlf	(___fladd@grs),f
 11282  03DD  0DAF               	line	178
 11283                           	goto	l3181
 11284  03DE  2BE2               	line	179
 11285                           	
 11286                           l913:	
 11287  03DF                     	line	180
 11288                           	
 11289                           l3179:	
 11290  03DF                     	clrc
 11291  03DF  1003               	rlf	(___fladd@grs),f
 11292  03E0  0DAF               
 11293                           	goto	l3181
 11294  03E1  2BE2               	line	181
 11295                           	
 11296                           l914:	
 11297  03E2                     	line	182
 11298                           	
 11299                           l3181:	
 11300  03E2                     	movf	((___fladd@bexp)),w
 11301  03E2  082E               	btfsc	status,2
 11302  03E3  1903               	goto	u2711
 11303  03E4  2BE6               	goto	u2710
 11304  03E5  2BE7               u2711:
 11305  03E6                     	goto	l3185
 11306  03E6  2BEB               u2710:
 11307  03E7                     	line	183
 11308                           	
 11309                           l3183:	
 11310  03E7                     	movlw	01h
 11311  03E7  3001               	subwf	(___fladd@bexp),f
 11312  03E8  02AE               	goto	l3185
 11313  03E9  2BEB               	line	184
 11314                           	
 11315                           l915:	
 11316  03EA                     	goto	l3185
 11317  03EA  2BEB               	line	185
 11318                           	
 11319                           l910:	
 11320  03EB                     	line	171
 11321                           	
 11322                           l3185:	
 11323  03EB                     	btfss	(___fladd@b+2),(23)&7
 11324  03EB  1FF6               	goto	u2721
 11325  03EC  2BEE               	goto	u2720
 11326  03ED  2BEF               u2721:
 11327  03EE                     	goto	l3171
 11328  03EE  2BCA               u2720:
 11329  03EF                     	goto	l3187
 11330  03EF  2BF1               	
 11331                           l916:	
 11332  03F0                     	goto	l3187
 11333  03F0  2BF1               	line	186
 11334                           	
 11335                           l905:	
 11336  03F1                     	line	192
 11337                           	
 11338                           l3187:	
 11339  03F1                     	clrf	(___fladd@aexp)
 11340  03F1  01AD               	line	193
 11341                           	
 11342                           l3189:	
 11343  03F2                     	btfss	(___fladd@grs),(7)&7
 11344  03F2  1FAF               	goto	u2731
 11345  03F3  2BF5               	goto	u2730
 11346  03F4  2BF6               u2731:
 11347  03F5                     	goto	l3197
 11348  03F5  2C08               u2730:
 11349  03F6                     	line	194
 11350                           	
 11351                           l3191:	
 11352  03F6                     	movf	(___fladd@grs),w
 11353  03F6  082F               	andlw	07Fh
 11354  03F7  397F               	btfsc	status,2
 11355  03F8  1903               	goto	u2741
 11356  03F9  2BFB               	goto	u2740
 11357  03FA  2BFC               u2741:
 11358  03FB                     	goto	l918
 11359  03FB  2BFF               u2740:
 11360  03FC                     	line	195
 11361                           	
 11362                           l3193:	
 11363  03FC                     	clrf	(___fladd@aexp)
 11364  03FC  01AD               	incf	(___fladd@aexp),f
 11365  03FD  0AAD               	line	196
 11366                           	goto	l3197
 11367  03FE  2C08               	line	197
 11368                           	
 11369                           l918:	
 11370  03FF                     	line	198
 11371                           	btfss	(___fladd@b),(0)&7
 11372  03FF  1C74               	goto	u2751
 11373  0400  2C02               	goto	u2750
 11374  0401  2C03               u2751:
 11375  0402                     	goto	l3197
 11376  0402  2C08               u2750:
 11377  0403                     	line	199
 11378                           	
 11379                           l3195:	
 11380  0403                     	clrf	(___fladd@aexp)
 11381  0403  01AD               	incf	(___fladd@aexp),f
 11382  0404  0AAD               	goto	l3197
 11383  0405  2C08               	line	200
 11384                           	
 11385                           l920:	
 11386  0406                     	goto	l3197
 11387  0406  2C08               	line	201
 11388                           	
 11389                           l919:	
 11390  0407                     	goto	l3197
 11391  0407  2C08               	line	202
 11392                           	
 11393                           l917:	
 11394  0408                     	line	203
 11395                           	
 11396                           l3197:	
 11397  0408                     	movf	((___fladd@aexp)),w
 11398  0408  082D               	btfsc	status,2
 11399  0409  1903               	goto	u2761
 11400  040A  2C0C               	goto	u2760
 11401  040B  2C0D               u2761:
 11402  040C                     	goto	l921
 11403  040C  2C43               u2760:
 11404  040D                     	line	204
 11405                           	
 11406                           l3199:	
 11407  040D                     	movlw	01h
 11408  040D  3001               	addwf	(___fladd@b),f
 11409  040E  07F4               	movlw	0
 11410  040F  3000               	skipnc
 11411  0410  1803               movlw 1
 11412  0411  3001               	addwf	(___fladd@b+1),f
 11413  0412  07F5               	movlw	0
 11414  0413  3000               	skipnc
 11415  0414  1803               movlw 1
 11416  0415  3001               	addwf	(___fladd@b+2),f
 11417  0416  07F6               	movlw	0
 11418  0417  3000               	skipnc
 11419  0418  1803               movlw 1
 11420  0419  3001               	addwf	(___fladd@b+3),f
 11421  041A  07F7               	line	205
 11422                           	
 11423                           l3201:	
 11424  041B                     	btfss	(___fladd@b+3),(24)&7
 11425  041B  1C77               	goto	u2771
 11426  041C  2C1E               	goto	u2770
 11427  041D  2C1F               u2771:
 11428  041E                     	goto	l921
 11429  041E  2C43               u2770:
 11430  041F                     	line	206
 11431                           	
 11432                           l3203:	
 11433  041F                     	movf	(___fladd@b),w
 11434  041F  0874               	movwf	(??___fladd+0)+0
 11435  0420  00A0               	movf	(___fladd@b+1),w
 11436  0421  0875               	movwf	((??___fladd+0)+0+1)
 11437  0422  00A1               	movf	(___fladd@b+2),w
 11438  0423  0876               	movwf	((??___fladd+0)+0+2)
 11439  0424  00A2               	movf	(___fladd@b+3),w
 11440  0425  0877               	movwf	((??___fladd+0)+0+3)
 11441  0426  00A3               	movlw	01h
 11442  0427  3001               	movwf	(??___fladd+4)+0
 11443  0428  00A4               u2785:
 11444  0429                     	rlf	(??___fladd+0)+3,w
 11445  0429  0D23               	rrf	(??___fladd+0)+3,f
 11446  042A  0CA3               	rrf	(??___fladd+0)+2,f
 11447  042B  0CA2               	rrf	(??___fladd+0)+1,f
 11448  042C  0CA1               	rrf	(??___fladd+0)+0,f
 11449  042D  0CA0               u2780:
 11450  042E                     	decfsz	(??___fladd+4)+0,f
 11451  042E  0BA4               	goto	u2785
 11452  042F  2C29               	movf	3+(??___fladd+0)+0,w
 11453  0430  0823               	movwf	(___fladd@b+3)
 11454  0431  00F7               	movf	2+(??___fladd+0)+0,w
 11455  0432  0822               	movwf	(___fladd@b+2)
 11456  0433  00F6               	movf	1+(??___fladd+0)+0,w
 11457  0434  0821               	movwf	(___fladd@b+1)
 11458  0435  00F5               	movf	0+(??___fladd+0)+0,w
 11459  0436  0820               	movwf	(___fladd@b)
 11460  0437  00F4               
 11461                           	line	207
 11462                           		incf	((___fladd@bexp)),w
 11463  0438  0A2E               	btfsc	status,2
 11464  0439  1903               	goto	u2791
 11465  043A  2C3C               	goto	u2790
 11466  043B  2C3D               u2791:
 11467  043C                     	goto	l921
 11468  043C  2C43               u2790:
 11469  043D                     	line	208
 11470                           	
 11471                           l3205:	
 11472  043D                     	movlw	low(01h)
 11473  043D  3001               	movwf	(??___fladd+0)+0
 11474  043E  00A0               	movf	(??___fladd+0)+0,w
 11475  043F  0820               	addwf	(___fladd@bexp),f
 11476  0440  07AE               	goto	l921
 11477  0441  2C43               	line	209
 11478                           	
 11479                           l923:	
 11480  0442                     	goto	l921
 11481  0442  2C43               	line	210
 11482                           	
 11483                           l922:	
 11484  0443                     	line	211
 11485                           	
 11486                           l921:	
 11487  0443                     	line	215
 11488                           		incf	((___fladd@bexp)),w
 11489  0443  0A2E               	btfsc	status,2
 11490  0444  1903               	goto	u2801
 11491  0445  2C47               	goto	u2800
 11492  0446  2C48               u2801:
 11493  0447                     	goto	l3209
 11494  0447  2C4E               u2800:
 11495  0448                     	
 11496                           l3207:	
 11497  0448                     	movf	((___fladd@bexp)),w
 11498  0448  082E               	btfss	status,2
 11499  0449  1D03               	goto	u2811
 11500  044A  2C4C               	goto	u2810
 11501  044B  2C4D               u2811:
 11502  044C                     	goto	l3215
 11503  044C  2C5E               u2810:
 11504  044D                     	goto	l3209
 11505  044D  2C4E               	
 11506                           l926:	
 11507  044E                     	line	216
 11508                           	
 11509                           l3209:	
 11510  044E                     	movlw	high highword(0)
 11511  044E  3000               	movwf	(___fladd@b+3)
 11512  044F  00F7               	movlw	low highword(0)
 11513  0450  3000               	movwf	(___fladd@b+2)
 11514  0451  00F6               	movlw	high(0)
 11515  0452  3000               	movwf	(___fladd@b+1)
 11516  0453  00F5               	movlw	low(0)
 11517  0454  3000               	movwf	(___fladd@b)
 11518  0455  00F4               
 11519                           	line	218
 11520                           	
 11521                           l3211:	
 11522  0456                     	movf	((___fladd@bexp)),w
 11523  0456  082E               	btfss	status,2
 11524  0457  1D03               	goto	u2821
 11525  0458  2C5A               	goto	u2820
 11526  0459  2C5B               u2821:
 11527  045A                     	goto	l3215
 11528  045A  2C5E               u2820:
 11529  045B                     	line	219
 11530                           	
 11531                           l3213:	
 11532  045B                     	clrf	(___fladd@signs)
 11533  045B  01AC               	goto	l3215
 11534  045C  2C5E               	line	220
 11535                           	
 11536                           l927:	
 11537  045D                     	goto	l3215
 11538  045D  2C5E               	line	221
 11539                           	
 11540                           l924:	
 11541  045E                     	line	225
 11542                           	
 11543                           l3215:	
 11544  045E                     	btfss	(___fladd@bexp),(0)&7
 11545  045E  1C2E               	goto	u2831
 11546  045F  2C61               	goto	u2830
 11547  0460  2C62               u2831:
 11548  0461                     	goto	l3219
 11549  0461  2C64               u2830:
 11550  0462                     	line	226
 11551                           	
 11552                           l3217:	
 11553  0462                     	bsf	0+(___fladd@b)+02h+(7/8),(7)&7
 11554  0462  17F6               	line	227
 11555                           	goto	l929
 11556  0463  2C68               	line	229
 11557                           	
 11558                           l928:	
 11559  0464                     	line	230
 11560                           	
 11561                           l3219:	
 11562  0464                     	movlw	low(07Fh)
 11563  0464  307F               	movwf	(??___fladd+0)+0
 11564  0465  00A0               	movf	(??___fladd+0)+0,w
 11565  0466  0820               	andwf	0+(___fladd@b)+02h,f
 11566  0467  05F6               	line	231
 11567                           	
 11568                           l929:	
 11569  0468                     	line	232
 11570                           	movf	(___fladd@bexp),w
 11571  0468  082E               	movwf	(??___fladd+0)+0
 11572  0469  00A0               	clrc
 11573  046A  1003               	rrf	(??___fladd+0)+0,w
 11574  046B  0C20               	movwf	(??___fladd+1)+0
 11575  046C  00A1               	movf	(??___fladd+1)+0,w
 11576  046D  0821               	movwf	0+(___fladd@b)+03h
 11577  046E  00F7               	line	233
 11578                           	
 11579                           l3221:	
 11580  046F                     	btfss	(___fladd@signs),(7)&7
 11581  046F  1FAC               	goto	u2841
 11582  0470  2C72               	goto	u2840
 11583  0471  2C73               u2841:
 11584  0472                     	goto	l930
 11585  0472  2C74               u2840:
 11586  0473                     	line	234
 11587                           	
 11588                           l3223:	
 11589  0473                     	bsf	0+(___fladd@b)+03h+(7/8),(7)&7
 11590  0473  17F7               	line	235
 11591                           	
 11592                           l930:	
 11593  0474                     	line	236
 11594                           	line	237
 11595                           	
 11596                           l900:	
 11597  0474                     	return
 11598  0474  0008               	opt stack 0
 11599                           GLOBAL	__end_of___fladd
 11600                           	__end_of___fladd:
 11601  0475                     	signat	___fladd,8316
 11602                           	global	_Initialization
 11603                           
 11604 ;; *************** function _Initialization *****************
 11605 ;; Defined at:
 11606 ;;		line 14 in file "Hormiga877.c"
 11607 ;; Parameters:    Size  Location     Type
 11608 ;;		None
 11609 ;; Auto vars:     Size  Location     Type
 11610 ;;		None
 11611 ;; Return value:  Size  Location     Type
 11612 ;;                  1    wreg      void 
 11613 ;; Registers used:
 11614 ;;		wreg, status,2, status,0, pclath, cstack
 11615 ;; Tracked objects:
 11616 ;;		On entry : 0/0
 11617 ;;		On exit  : 0/0
 11618 ;;		Unchanged: 0/0
 11619 ;; Data sizes:     COMMON   BANK0   BANK1   BANK3   BANK2
 11620 ;;      Params:         0       0       0       0       0
 11621 ;;      Locals:         0       0       0       0       0
 11622 ;;      Temps:          0       0       0       0       0
 11623 ;;      Totals:         0       0       0       0       0
 11624 ;;Total ram usage:        0 bytes
 11625 ;; Hardware stack levels used:    1
 11626 ;; Hardware stack levels required when called:    1
 11627 ;; This function calls:
 11628 ;;		_PWMConfiguration
 11629 ;; This function is called by:
 11630 ;;		_main
 11631 ;; This function uses a non-reentrant model
 11632 ;;
 11633                           psect	text26,local,class=CODE,delta=2,merge=1,group=0
 11634                           	file	"Hormiga877.c"
 11635                           	line	14
 11636                           global __ptext26
 11637                           __ptext26:	;psect for function _Initialization
 11638  11CC                     psect	text26
 11639                           	file	"Hormiga877.c"
 11640                           	line	14
 11641                           	global	__size_of_Initialization
 11642                           	__size_of_Initialization	equ	__end_of_Initialization-_Initialization
 11643  002C                     	
 11644                           _Initialization:	
 11645  11CC                     ;incstack = 0
 11646                           	opt	stack 6
 11647                           ; Regs used in _Initialization: [wreg+status,2+status,0+pclath+cstack]
 11648                           	line	17
 11649                           	
 11650                           l2163:	
 11651  11CC                     ;Hormiga877.c: 17:     ADCON0 = 0x81;
 11652                           	movlw	low(081h)
 11653  11CC  3081               	bcf	status, 5	;RP0=0, select bank0
 11654  11CD  1283               	bcf	status, 6	;RP1=0, select bank0
 11655  11CE  1303               	movwf	(31)	;volatile
 11656  11CF  009F               	line	18
 11657                           ;Hormiga877.c: 18:     ADCON1 = 0xC2;
 11658                           	movlw	low(0C2h)
 11659  11D0  30C2               	bsf	status, 5	;RP0=1, select bank1
 11660  11D1  1683               	bcf	status, 6	;RP1=0, select bank1
 11661  11D2  1303               	movwf	(159)^080h	;volatile
 11662  11D3  009F               	line	20
 11663                           # 20 "Hormiga877.c"
 11664                           CLRF PORTA ;# 
 11665  11D4  0185               	line	21
 11666                           # 21 "Hormiga877.c"
 11667                           MOVLW 0x3F ;# 
 11668  11D5  303F               	line	22
 11669                           # 22 "Hormiga877.c"
 11670                           MOVWF TRISA ;# 
 11671  11D6  0085               psect	text26
 11672                           	line	23
 11673                           	
 11674                           l2165:	
 11675  11D7                     ;Hormiga877.c: 23:     PORTB = 0x00;
 11676                           	bcf	status, 5	;RP0=0, select bank0
 11677  11D7  1283               	bcf	status, 6	;RP1=0, select bank0
 11678  11D8  1303               	clrf	(6)	;volatile
 11679  11D9  0186               	line	24
 11680                           	
 11681                           l2167:	
 11682  11DA                     ;Hormiga877.c: 24:     TRISB &= 0x00;
 11683                           	bsf	status, 5	;RP0=1, select bank1
 11684  11DA  1683               	bcf	status, 6	;RP1=0, select bank1
 11685  11DB  1303               	clrf	(134)^080h	;volatile
 11686  11DC  0186               	line	25
 11687                           	
 11688                           l2169:	
 11689  11DD                     ;Hormiga877.c: 25:     PORTB = 0x00;
 11690                           	bcf	status, 5	;RP0=0, select bank0
 11691  11DD  1283               	bcf	status, 6	;RP1=0, select bank0
 11692  11DE  1303               	clrf	(6)	;volatile
 11693  11DF  0186               	line	27
 11694                           	
 11695                           l2171:	
 11696  11E0                     ;Hormiga877.c: 27:     PORTC = 0x00;
 11697                           	clrf	(7)	;volatile
 11698  11E0  0187               	line	28
 11699                           	
 11700                           l2173:	
 11701  11E1                     ;Hormiga877.c: 28:     TRISC = 0x00;
 11702                           	bsf	status, 5	;RP0=1, select bank1
 11703  11E1  1683               	bcf	status, 6	;RP1=0, select bank1
 11704  11E2  1303               	clrf	(135)^080h	;volatile
 11705  11E3  0187               	line	29
 11706                           	
 11707                           l2175:	
 11708  11E4                     ;Hormiga877.c: 29:     PORTC = 0x00;
 11709                           	bcf	status, 5	;RP0=0, select bank0
 11710  11E4  1283               	bcf	status, 6	;RP1=0, select bank0
 11711  11E5  1303               	clrf	(7)	;volatile
 11712  11E6  0187               	line	34
 11713                           	
 11714                           l2177:	
 11715  11E7                     ;Hormiga877.c: 34:     PWMConfiguration();
 11716                           	fcall	_PWMConfiguration
 11717  11E7  120A  118A  2004  160A  118A  	line	36
 11718                           # 36 "Hormiga877.c"
 11719                           CLRF PORTD ;# 
 11720  11EC  0188               	line	37
 11721                           # 37 "Hormiga877.c"
 11722                           MOVLW 0x00 ;# 
 11723  11ED  3000               	line	38
 11724                           # 38 "Hormiga877.c"
 11725                           MOVF TRISD ;# 
 11726  11EE  0888               	line	39
 11727                           # 39 "Hormiga877.c"
 11728                           CLRF PORTD ;# 
 11729  11EF  0188               psect	text26
 11730                           	line	40
 11731                           	
 11732                           l2179:	
 11733  11F0                     ;Hormiga877.c: 40:     PORTE = 0x00;
 11734                           	bcf	status, 5	;RP0=0, select bank0
 11735  11F0  1283               	bcf	status, 6	;RP1=0, select bank0
 11736  11F1  1303               	clrf	(9)	;volatile
 11737  11F2  0189               	line	41
 11738                           	
 11739                           l2181:	
 11740  11F3                     ;Hormiga877.c: 41:     TRISE = 0x07;
 11741                           	movlw	low(07h)
 11742  11F3  3007               	bsf	status, 5	;RP0=1, select bank1
 11743  11F4  1683               	bcf	status, 6	;RP1=0, select bank1
 11744  11F5  1303               	movwf	(137)^080h	;volatile
 11745  11F6  0089               	line	42
 11746                           	
 11747                           l163:	
 11748  11F7                     	return
 11749  11F7  0008               	opt stack 0
 11750                           GLOBAL	__end_of_Initialization
 11751                           	__end_of_Initialization:
 11752  11F8                     	signat	_Initialization,89
 11753                           	global	_PWMConfiguration
 11754                           
 11755 ;; *************** function _PWMConfiguration *****************
 11756 ;; Defined at:
 11757 ;;		line 44 in file "Hormiga877.c"
 11758 ;; Parameters:    Size  Location     Type
 11759 ;;		None
 11760 ;; Auto vars:     Size  Location     Type
 11761 ;;		None
 11762 ;; Return value:  Size  Location     Type
 11763 ;;                  1    wreg      void 
 11764 ;; Registers used:
 11765 ;;		wreg, status,2
 11766 ;; Tracked objects:
 11767 ;;		On entry : 0/0
 11768 ;;		On exit  : 0/0
 11769 ;;		Unchanged: 0/0
 11770 ;; Data sizes:     COMMON   BANK0   BANK1   BANK3   BANK2
 11771 ;;      Params:         0       0       0       0       0
 11772 ;;      Locals:         0       0       0       0       0
 11773 ;;      Temps:          0       0       0       0       0
 11774 ;;      Totals:         0       0       0       0       0
 11775 ;;Total ram usage:        0 bytes
 11776 ;; Hardware stack levels used:    1
 11777 ;; This function calls:
 11778 ;;		Nothing
 11779 ;; This function is called by:
 11780 ;;		_Initialization
 11781 ;; This function uses a non-reentrant model
 11782 ;;
 11783                           psect	text27,local,class=CODE,delta=2,merge=1,group=0
 11784                           	line	44
 11785                           global __ptext27
 11786                           __ptext27:	;psect for function _PWMConfiguration
 11787  0004                     psect	text27
 11788                           	file	"Hormiga877.c"
 11789                           	line	44
 11790                           	global	__size_of_PWMConfiguration
 11791                           	__size_of_PWMConfiguration	equ	__end_of_PWMConfiguration-_PWMConfiguration
 11792  000F                     	
 11793                           _PWMConfiguration:	
 11794  0004                     ;incstack = 0
 11795                           	opt	stack 6
 11796                           ; Regs used in _PWMConfiguration: [wreg+status,2]
 11797                           	line	46
 11798                           	
 11799                           l2071:	
 11800  0004                     ;Hormiga877.c: 46:     PR2 = 0xFF;
 11801                           	movlw	low(0FFh)
 11802  0004  30FF               	bsf	status, 5	;RP0=1, select bank1
 11803  0005  1683               	bcf	status, 6	;RP1=0, select bank1
 11804  0006  1303               	movwf	(146)^080h	;volatile
 11805  0007  0092               	line	47
 11806                           ;Hormiga877.c: 47:     T2CON = 0x05;
 11807                           	movlw	low(05h)
 11808  0008  3005               	bcf	status, 5	;RP0=0, select bank0
 11809  0009  1283               	bcf	status, 6	;RP1=0, select bank0
 11810  000A  1303               	movwf	(18)	;volatile
 11811  000B  0092               	line	48
 11812                           	
 11813                           l2073:	
 11814  000C                     ;Hormiga877.c: 48:     CCPR2L = 0x00;
 11815                           	clrf	(27)	;volatile
 11816  000C  019B               	line	49
 11817                           	
 11818                           l2075:	
 11819  000D                     ;Hormiga877.c: 49:     CCPR1L = 0x00;
 11820                           	clrf	(21)	;volatile
 11821  000D  0195               	line	50
 11822                           ;Hormiga877.c: 50:     CCP1CON = 0x0C;
 11823                           	movlw	low(0Ch)
 11824  000E  300C               	movwf	(23)	;volatile
 11825  000F  0097               	line	51
 11826                           ;Hormiga877.c: 51:     CCP2CON = 0x0C;
 11827                           	movlw	low(0Ch)
 11828  0010  300C               	movwf	(29)	;volatile
 11829  0011  009D               	line	52
 11830                           	
 11831                           l166:	
 11832  0012                     	return
 11833  0012  0008               	opt stack 0
 11834                           GLOBAL	__end_of_PWMConfiguration
 11835                           	__end_of_PWMConfiguration:
 11836  0013                     	signat	_PWMConfiguration,89
 11837                           global	___latbits
 11838                           ___latbits	equ	2
 11839  0002                     	global	btemp
 11840                           	btemp set 07Eh
 11841  007E                     
 11842                           	DABS	1,126,2	;btemp
 11843                           	global	wtemp0
 11844                           	wtemp0 set btemp+0
 11845  007E                     	end


Data Sizes:
    Strings     50
    Constant    18
    Data        0
    BSS         82
    Persistent  0
    Stack       0

Auto Spaces:
    Space          Size  Autos    Used
    COMMON           14     14      14
    BANK0            80     80      80
    BANK1            80     22      57
    BANK3            96      0      47
    BANK2            96      0       0

Pointer List with Targets:

    sprintf@f	PTR const unsigned char  size(1) Largest target is 9
		 -> STR_4(CODE[9]), STR_2(CODE[7]), 

    sprintf@sp	PTR unsigned char  size(1) Largest target is 16
		 -> ScreenROW(BANK1[16]), 

    sprintf@ap	PTR void [1] size(1) Largest target is 2
		 -> ?_sprintf(BANK0[2]), 

    lcdPrint@string	PTR unsigned char  size(2) Largest target is 17
		 -> STR_3(CODE[17]), ScreenROW(BANK1[16]), STR_1(CODE[17]), 


Critical Paths under _main in COMMON

    _setup->_lcdBegin
    _setup->_lcdSetCursor
    _lcdBegin->_WriteInstruction
    _loop->_lcdSetCursor
    _sprintf->___lwmod
    ___lwmod->___lwdiv
    _lcdSetCursor->_WriteInstruction
    _WriteInstruction->_ByteByNibble
    _WriteInstruction->_delay
    _lcdPrint->_lcdWrite
    _lcdWrite->_WriteData
    _WriteData->_ByteByNibble
    _WriteData->_delay
    _ByteByNibble->_digitalWrite
    _AccionControl->___fladd
    ___flmul->___fladd
    ___fldiv->___fladd
    ___fladd->___flneg

Critical Paths under _main in BANK0

    _setup->_lcdPrint
    _loop->_AccionControl
    ___xxtofl->_AccionControl
    _AccionControl->___flmul
    ___flmul->___fldiv
    ___fldiv->___fladd

Critical Paths under _main in BANK1

    _main->_loop
    _loop->___xxtofl
    ___xxtofl->_AccionControl

Critical Paths under _main in BANK3

    None.

Critical Paths under _main in BANK2

    None.

Call Graph Tables:

 ---------------------------------------------------------------------------------
 (Depth) Function   	        Calls       Base Space   Used Autos Params    Refs
 ---------------------------------------------------------------------------------
 (0) _main                                                 0     0      0   94530
                     _Initialization
                               _loop
                              _setup
 ---------------------------------------------------------------------------------
 (1) _setup                                                6     6      0   48598
                                              7 BANK0      6     6      0
                   _PIDSetSampleTime
                           _lcdBegin
                           _lcdPrint
                       _lcdSetCursor
                            _pinMode
 ---------------------------------------------------------------------------------
 (2) _lcdBegin                                             8     2      6   17177
                                             12 COMMON     2     2      0
                                              0 BANK0      6     0      6
                   _WriteInstruction
                              _delay
                            _pinMode
 ---------------------------------------------------------------------------------
 (2) _pinMode                                              4     3      1    1180
                                              0 COMMON     4     3      1
 ---------------------------------------------------------------------------------
 (2) _PIDSetSampleTime                                     2     2      0      44
                                              0 COMMON     2     2      0
 ---------------------------------------------------------------------------------
 (1) _loop                                                 4     4      0   45932
                                             18 BANK1      4     4      0
                      _AccionControl
                      _EventCounters
                           ___xxtofl
                       _digitalWrite
                           _lcdPrint
                       _lcdSetCursor
                            _sprintf
 ---------------------------------------------------------------------------------
 (2) _sprintf                                             21    18      3    1230
                                              0 BANK0     13    10      3
                            ___lwdiv
                            ___lwmod
 ---------------------------------------------------------------------------------
 (3) ___lwmod                                              6     2      4     311
                                              8 COMMON     6     2      4
                            ___lwdiv (ARG)
 ---------------------------------------------------------------------------------
 (3) ___lwdiv                                              8     4      4     314
                                              0 COMMON     8     4      4
 ---------------------------------------------------------------------------------
 (2) _lcdSetCursor                                         4     3      1   14548
                                             12 COMMON     2     1      1
                                              0 BANK0      2     2      0
                   _WriteInstruction
 ---------------------------------------------------------------------------------
 (3) _WriteInstruction                                     5     5      0   14109
                                              7 COMMON     5     5      0
                       _ByteByNibble
                              _delay
                       _digitalWrite
 ---------------------------------------------------------------------------------
 (2) _lcdPrint                                             7     5      2   15649
                                              0 BANK0      7     5      2
                           _lcdWrite
 ---------------------------------------------------------------------------------
 (3) _lcdWrite                                             1     1      0   15255
                                             12 COMMON     1     1      0
                          _WriteData
                              _delay
 ---------------------------------------------------------------------------------
 (4) _WriteData                                            5     5      0   14109
                                              7 COMMON     5     5      0
                       _ByteByNibble
                              _delay
                       _digitalWrite
 ---------------------------------------------------------------------------------
 (4) _delay                                                7     5      2    1124
                                              0 COMMON     7     5      2
 ---------------------------------------------------------------------------------
 (4) _ByteByNibble                                         3     3      0    6446
                                              4 COMMON     3     3      0
                       _digitalWrite
 ---------------------------------------------------------------------------------
 (4) _digitalWrite                                         4     3      1    6424
                                              0 COMMON     4     3      1
 ---------------------------------------------------------------------------------
 (2) ___xxtofl                                            14    10      4     398
                                              4 BANK1     14    10      4
                      _AccionControl (ARG)
 ---------------------------------------------------------------------------------
 (2) _EventCounters                                        2     0      2       0
                                              0 COMMON     2     0      2
 ---------------------------------------------------------------------------------
 (2) _AccionControl                                       16     4     12    7683
                                             68 BANK0     12     0     12
                                              0 BANK1      4     4      0
                            ___fladd
                            ___fldiv
                            ___flmul
                            ___flneg
                            ___fltol
 ---------------------------------------------------------------------------------
 (3) ___fltol                                             11     7      4     305
                                              0 COMMON    11     7      4
 ---------------------------------------------------------------------------------
 (3) ___flneg                                              4     0      4     197
                                              0 COMMON     4     0      4
 ---------------------------------------------------------------------------------
 (3) ___flmul                                             26    18      8    2721
                                             42 BANK0     26    18      8
                          __Umul8_16
                            ___fladd (ARG)
                            ___fldiv (ARG)
                            ___flneg (ARG)
 ---------------------------------------------------------------------------------
 (4) __Umul8_16                                            9     7      2     799
                                              0 COMMON     9     7      2
 ---------------------------------------------------------------------------------
 (3) ___fldiv                                             26    18      8    1273
                                             16 BANK0     26    18      8
                            ___fladd (ARG)
                            ___flneg (ARG)
 ---------------------------------------------------------------------------------
 (3) ___fladd                                             24    16      8    2870
                                              4 COMMON     8     0      8
                                              0 BANK0     16    16      0
                            ___flneg (ARG)
 ---------------------------------------------------------------------------------
 (1) _Initialization                                       0     0      0       0
                   _PWMConfiguration
 ---------------------------------------------------------------------------------
 (2) _PWMConfiguration                                     0     0      0       0
 ---------------------------------------------------------------------------------
 Estimated maximum stack depth 4
 ---------------------------------------------------------------------------------

 Call Graph Graphs:

 _main (ROOT)
   _Initialization
     _PWMConfiguration
   _loop
     _AccionControl
       ___fladd
         ___flneg (ARG)
       ___fldiv
         ___fladd (ARG)
           ___flneg (ARG)
         ___flneg (ARG)
       ___flmul
         __Umul8_16
         ___fladd (ARG)
           ___flneg (ARG)
         ___fldiv (ARG)
           ___fladd (ARG)
             ___flneg (ARG)
           ___flneg (ARG)
         ___flneg (ARG)
       ___flneg
       ___fltol
     _EventCounters
     ___xxtofl
       _AccionControl (ARG)
         ___fladd
           ___flneg (ARG)
         ___fldiv
           ___fladd (ARG)
             ___flneg (ARG)
           ___flneg (ARG)
         ___flmul
           __Umul8_16
           ___fladd (ARG)
             ___flneg (ARG)
           ___fldiv (ARG)
             ___fladd (ARG)
               ___flneg (ARG)
             ___flneg (ARG)
           ___flneg (ARG)
         ___flneg
         ___fltol
     _digitalWrite
     _lcdPrint
       _lcdWrite
         _WriteData
           _ByteByNibble
             _digitalWrite
           _delay
           _digitalWrite
         _delay
     _lcdSetCursor
       _WriteInstruction
         _ByteByNibble
           _digitalWrite
         _delay
         _digitalWrite
     _sprintf
       ___lwdiv
       ___lwmod
         ___lwdiv (ARG)
   _setup
     _PIDSetSampleTime
     _lcdBegin
       _WriteInstruction
         _ByteByNibble
           _digitalWrite
         _delay
         _digitalWrite
       _delay
       _pinMode
     _lcdPrint
       _lcdWrite
         _WriteData
           _ByteByNibble
             _digitalWrite
           _delay
           _digitalWrite
         _delay
     _lcdSetCursor
       _WriteInstruction
         _ByteByNibble
           _digitalWrite
         _delay
         _digitalWrite
     _pinMode

 Address spaces:
Name               Size   Autos  Total    Cost      Usage
BITCOMMON            E      0       0       0        0.0%
EEDATA             100      0       0       0        0.0%
NULL                 0      0       0       0        0.0%
CODE                 0      0       0       0        0.0%
COMMON               E      E       E       1      100.0%
BITSFR0              0      0       0       1        0.0%
SFR0                 0      0       0       1        0.0%
BITSFR1              0      0       0       2        0.0%
SFR1                 0      0       0       2        0.0%
STACK                0      0       0       2        0.0%
ABS                  0      0      C6       3        0.0%
BITBANK0            50      0       0       4        0.0%
BITSFR3              0      0       0       4        0.0%
SFR3                 0      0       0       4        0.0%
BANK0               50     50      50       5      100.0%
BITSFR2              0      0       0       5        0.0%
SFR2                 0      0       0       5        0.0%
BITBANK1            50      0       0       6        0.0%
BANK1               50     16      39       7       71.3%
BITBANK3            60      0       0       8        0.0%
BANK3               60      0      2F       9       49.0%
BITBANK2            60      0       0      10        0.0%
BANK2               60      0       0      11        0.0%
DATA                 0      0      C6      12        0.0%


Microchip Technology PIC Macro Assembler V2.00 build -1524193055 
Symbol Table                                                                                   Tue Feb 07 08:32:48 2023

               ___fldiv@aexp 0049                 ___fldiv@bexp 0048                            pc 0002  
               ___fldiv@sign 0041                  __CFG_CP$OFF 0000                           _D4 081E  
                         _D5 081D                           _D6 081C                           _D7 081B  
                         l52 17FF                           l53 17FF                           l49 13B6  
                         _EN 0820                           _RS 0821                           _dt 00A4  
                         fsr 0004                 lcdWrite@data 007C                ?_ByteByNibble 0070  
        __Umul8_16@word_mpld 0076                  __CFG_LVP$ON 0000                          l202 0163  
                        l210 00C9                          l211 00D2                          l203 0098  
                        l204 01B8                          l220 011A                          l212 00DA  
                        l221 0122                          l213 00E2                          l205 00A0  
                        l222 012A                          l214 00EA                          l206 00A8  
                        l223 0132                          l215 00F2                          l207 00B0  
                        l224 013A                          l216 00FA                          l208 00B8  
                        l160 1183                          l225 0142                          l217 0102  
                        l209 00C0                          l226 014A                          l218 010A  
                        l163 11F7                          l227 0152                          l219 0112  
                        l228 015A                          l172 0935                          l180 089C  
                        l229 01B8                          l421 1171                          l181 08A4  
                        l173 086C                          l166 0012                          l430 1438  
                        l414 120D                          l174 098A                          l190 08EC  
                        l182 08AC                          l158 117D                          l415 1223  
                        l191 08F4                          l183 08B4                          l175 0874  
                        l159 1183                          l440 0D9F                          l424 128F  
                        l416 1221                          l192 08FC                          l184 08BC  
                        l176 087C                          l408 156E                          l441 0DC5  
                        l433 0095                          l425 126A                          l417 1222  
                        l193 0904                          l185 08C4                          l177 0884  
                        l450 0F24                          l442 0DEC                          l370 130A  
                        l426 12AC                          l418 1223                          l194 090C  
                        l186 08CC                          l178 088C                          l451 0F4B  
                        l443 0E12                          l371 1345                          l427 12AC  
                        l195 0914                          l187 08D4                          l179 0894  
                        l436 0FC5                          l452 0F73                          l444 0E39  
                        l372 131B                          l196 091C                          l188 08DC  
                        l453 0F9B                          l445 0E60                          l437 0D54  
                        l373 1330                          l197 0924                          l189 08E4  
                        l438 0FFF                          l446 0E88                          l454 0FFF  
                        l374 1345                          l198 092C                          l447 0EAE  
                        l439 0D79                          l199 098A                          l480 1187  
                        l448 0ED5                          l481 1187                          l449 0EFC  
                        l465 0869                          l482 118B                          l483 11A1  
                        l900 0474                          l580 1650                          l901 0327  
                        l477 0B48                          l581 1651                          l910 03EB  
                        l902 0310                          l590 1712                          l574 16F9  
                        l582 1671                          l911 03CA                          l903 0313  
                        l583 1687                          l575 163B                          l920 0406  
                        l912 03D8                          l904 0319                          l584 16AF  
                        l576 164D                          l921 0443                          l905 03F1  
                        l913 03DF                          l585 16A4                          l577 1657  
                        l930 0474                          l922 0443                          l914 03E2  
                        l906 03A4                          l586 16EE                          l578 164F  
                        l923 0442                          l915 03EA                          l907 03A3  
                        l579 170D                          l587 16B4                          l924 045E  
                        l916 03F0                          l908 03B2                          l940 0B8C  
                        l780 14D2                          l860 12C4                          l588 16F8  
                        l917 0408                          l909 03C9                          l941 0BA2  
                        l781 149F                          l861 12B8                          l589 170C  
                        l926 044E                          l918 03FF                          l950 0C31  
                        l942 0B9F                          l790 14D2                          l782 148B  
                        l862 12C9                          l870 1239                          l927 045D  
                        l919 0407                          l951 0C5D                          l943 0BAA  
                        l775 115F                          l783 148C                          l863 12CA  
                        l871 122D                          l928 0464                          l880 01E2  
                        l960 0CBC                          l952 0C69                          l944 0BCC  
                        l936 0B5C                          l776 1160                          l784 149E  
                        l864 12E3                          l872 123E                          l929 0468  
                        l881 01DF                          l961 0CBB                          l953 0C73  
                        l945 0D51                          l937 0B72                          l785 14C2  
                        l865 12F1                          l873 123F                          l890 02A7  
                        l882 01EB                          l962 0CF5                          l954 0C93  
                        l946 0BE3                          l938 0B6F                          l786 14AF  
                        l866 12F7                          l874 1250                          l891 02D5  
                        l883 01F8                          l963 0CF4                          l955 0C74  
                        l947 0C62                          l939 0B7B                          l787 14BB  
                        l779 1456                          l859 12F2                          l875 125E  
                        l892 02CC                          l884 0204                          l964 0D11  
                        l956 0C83                          l948 0C14                          l980 04EA  
                        l972 0488                          l788 14B0                          l876 1264  
                        l893 02A8                          l885 021A                          l965 0D2D  
                        l957 0C98                          l949 0C3B                          l973 049D  
                        l789 14C1                          l869 125F                          l894 02B5  
                        l886 0217                          l966 0D39                          l958 0CBD  
                        l990 0754                          l982 04E0                          l974 049B  
                        l895 02B8                          l887 0222                          l879 01CC  
                        l967 0D3D                          l959 0CB4                          l991 0753  
                        l983 07E9                          l975 04A6                          l896 02BE  
                        l888 026E                          l992 078D                          l984 072B  
                        l976 04B7                          l897 02D5                          l889 0231  
                        l993 078C                          l985 070C                          l977 04CC  
                        l898 0328                          l994 07A5                          l986 071B  
                        l978 04CA                          l899 02E8                          l995 07DC  
                        l987 0730                          l979 04D5                          l996 07C0  
                        l988 0755                          l997 07DC                          l989 074C  
                        l998 07D4                          _PR2 0092                          _PID 0190  
               __CFG_CPD$OFF 0000                          _RnW 081F                          _Now 00A8  
                        _led 081A                          fsr0 0004                          indf 0000  
               __CFG_FOSC$HS 0000                 ___flmul@aexp 005C                 ___flmul@bexp 005D  
               ___flmul@sign 0057                 ___flmul@temp 0062                 ___flmul@prod 005E  
               ___fltol@exp1 007A                         l1001 158B                         l1010 15E2  
                       l1002 1593                         l1011 15EF                         l1003 15A5  
   __end_of_PIDSetSampleTime 086A                         l1020 11AD                         l1012 15E3  
                       l1004 1632                         l1021 11B7                         l1005 15B8  
                       l1022 11C6                         l1014 15FA                         l1006 15AA  
                       l1023 11CB                         l1015 15FA                         l1007 15BF  
                       l1016 1606                         l1008 15DB                         l1017 1629  
                       l1009 15C0                         l3001 12E3                         PORTA 0005  
                       l3003 12EA                         l3011 122A                         PORTD 0008  
                       l3101 025D                         l3005 12F2                         l3021 1249  
                       l3013 122D                         l2071 0004                         l3111 026F  
                       l3103 0261                         l3031 01B9                         l3007 12F7  
                       l3023 1250                         l3015 1234                         l2073 000C  
                       l3201 041B                         l3121 02BC                         l3113 028B  
                       l3105 0265                         l3041 01D1                         l3033 01C0  
                       l3025 1257                         l3017 1239                         l3009 1224  
                       l2075 000D                         l2171 11E0                         l2163 11CC  
                       l3211 0456                         l3203 041F                         l3131 02DE  
                       l3123 02BE                         l3115 02AC                         l3107 0269  
                       l3051 01EB                         l3043 01D6                         l3035 01C6  
                       l3019 123F                         l3027 125F                         l2181 11F3  
                       l2173 11E1                         l2165 11D7                         l3221 046F  
                       l3213 045B                         l3205 043D                         l3141 0307  
                       l3133 02E7                         l3125 02C7                         l3117 02B5  
                       l3109 026E                         l3061 0202                         l3053 01F0  
                       l3045 01DF                         l3037 01CA                         l3301 0C4D  
                       l3029 1264                         l2175 11E4                         l2167 11DA  
                       l3223 0473                         l3215 045E                         l3207 0448  
                       l3151 0322                         l3143 0310                         l3135 02E8  
                       l3119 02B8                         l3127 02CC                         l3071 0218  
                       l3063 0204                         l3055 01F6                         l3047 01E0  
                       l3039 01CC                         l3311 0C71                         l3303 0C4E  
                       l3231 0B5A                         l2177 11E7                         l2169 11DD  
                       l3217 0462                         l3209 044E                         l3161 0394  
                       l3145 0313                         l3137 02FF                         l3129 02D9  
                       l3153 0328                         l3081 0235                         l3065 0209  
                       l3073 021A                         l3057 01F8                         l3049 01E2  
                       l3321 0C8C                         l3313 0C74                         l3305 0C5D  
                       l3241 0B70                         l3233 0B5C                         l3225 0B49  
                       l3401 04CC                         l2179 11F0                         l3219 0464  
                       l3171 03CA                         l3155 033E                         l3163 03A4  
                       l3147 0317                         l3139 0303                         l3091 0249  
                       l3083 0239                         l3075 0228                         l3067 020E  
                       l3059 01FE                         l3331 0CB1                         l3315 0C7D  
                       l3323 0C93                         l3307 0C62                         l3251 0B8A  
                       l3235 0B61                         l3243 0B72                         l3227 0B50  
                       l3411 04EA                         l3403 04D5                         l3181 03E2  
                       l3173 03D3                         l3165 03BA                         l3157 038D  
                       l3149 0319                         l3093 024D                         l3085 023D  
                       l3077 022C                         l3069 0217                         l3341 0CD4  
                       l3333 0CB8                         l3325 0C98                         l3317 0C81  
                       l3309 0C69                         l3261 0BA0                         l3253 0B8C  
                       l3245 0B7B                         l3237 0B66                         l3229 0B56  
                       l3501 07D4                         l3421 056C                         l3413 04FA  
                       l3405 04DA                         l2701 00F2                         l3191 03F6  
                       l3183 03E7                         l3175 03D7                         l3167 03BF  
                       l3159 038F                         l3095 0251                         l3087 0241  
                       l3079 0231                         l3351 0D20                         l3343 0CED  
                       l3335 0CBD                         l3327 0C99                         l3319 0C83  
                       l3271 0BCB                         l3255 0B91                         l3263 0BA2  
                       l3247 0B80                         l3239 0B6F                         l3503 07E0  
                       l3431 05DA                         l3423 0588                         l3415 0507  
                       l3407 04E0                         l2711 011A                         l2703 00FA  
                       l3511 1511                         l3193 03FC                         l3177 03DC  
                       l3169 03C8                         l3185 03EB                         l3097 0255  
                       l3089 0245                         l3361 0D39                         l3353 0D24  
                       l3337 0CC2                         l3345 0CF5                         l3329 0C9D  
                       l3281 0BFA                         l3265 0BB2                         l3273 0BCC  
                       l3257 0B96                         l3249 0B86                         l3505 07E9  
                       l3441 066A                         l3433 05EA                         l3425 05A4  
                       l3417 0524                         l3409 04E9                         l2721 0142  
                       l2713 0122                         l2705 0102                         l2801 001B  
                       l3601 16A3                         l3521 153E                         l3513 151A  
                       l3195 0403                         l3179 03DF                         l3187 03F1  
                       l3099 0259                         l3363 0D48                         l3355 0D2C  
                       l3347 0D02                         l3339 0CD0                         l3291 0C19  
                       l3283 0C02                         l3275 0BD1                         l3267 0BBE  
                       l3259 0B9F                         l3451 06FE                         l3443 067A  
                       l3435 0607                         l3427 05AD                         l3419 0540  
                       l3371 0482                         l2723 014A                         l2715 012A  
                       l2707 010A                         l2731 0163                         l2811 0045  
                       l2803 0027                         l3611 16E9                         l3603 16A4  
                       l3531 1562                         l3523 1547                         l3515 1523  
                       l3507 14D4                         l3197 0408                         l3189 03F2  
                       l3365 0D51                         l3357 0D33                         l3349 0D11  
                       l3293 0C2B                         l3285 0C0A                         l3277 0BE2  
                       l3269 0BC2                         l3461 0724                         l3453 070C  
                       l3445 06A7                         l3437 0620                         l3429 05BD  
                       l3381 049B                         l3373 0486                         l2725 0152  
                       l2717 0132                         l2709 0112                         l2741 1309  
                       l2821 0070                         l2813 004F                         l2805 002C  
                       l3541 1206                         l3613 16EE                         l3605 16AF  
                       l3701 172C                         l3533 1568                         l3525 1550  
                       l3517 152C                         l3509 150A                _EventCounters 1186  
                       l3199 040D                         l3359 0D37                         l3295 0C2F  
                       l3287 0C12                         l3279 0BE3                         l2831 11A5  
                       l3471 0749                         l3455 0715                         l3463 072B  
                       l3447 06CD                         l3439 063D                         l3391 04B5  
                       l3383 049D                         l3375 0488                         l3367 0475  
                       l3631 0A27                         l2727 015A                         l2719 013A  
                       l2751 1322                         l2743 130A                         l2823 007A  
                       l2815 0058                         l2807 0032                         l3551 126A  
                       l2911 13D0                         l2903 13B8                         l3543 120D  
                       l3535 11FB                         l3607 16B4                         l3615 16F9  
                       l3711 1775                         l3703 1744                         l3527 1556  
                       l3519 1535                         l3297 0C31                         l3289 0C14  
                       l2841 11CB                         l2833 11AD                         l3481 076C  
                       l3473 0750                         l3465 0730                         l3457 0719  
                       l3449 06F5                         l3393 04B7                         l3385 04A6  
                       l3377 048D                         l3369 047C                         l3641 0B48  
                       l3633 0A63                         l3625 098B                         l2729 0162  
                       l2681 00B0                         l2673 0097                         l2761 0D9F  
                       l2753 1330                         l2745 130C                         l2737 12F8  
                       l2825 0083                         l2817 0061                         l2809 003C  
                       l3553 1286                         l2921 13FB                         l2913 13D6  
                       l2905 13BA                         l3545 1215                         l3537 11FC  
                       l3609 16E2                         l3617 170D                         l3721 17B0  
                       l3713 177B                         l3705 174F                         l3561 0863  
                       l3529 155C                         l3299 0C3B                         l2835 11B1  
                       l3491 07B4                         l3483 0785                         l3475 0755  
                       l3467 0731                         l3459 071B                         l3395 04BC  
                       l3387 04AB                         l3379 0492                         l3635 0AE0  
                       l3627 09B9                         l3571 11A1                         l3563 1186  
                       l3651 159B                         l3643 1572                         l2691 00CC  
                       l2683 00B8                         l2675 0098                         l2771 0E60  
                       l2763 0DC5                         l2755 0D53                         l2747 131A  
                       l2739 12FA                         l2827 008C                         l2819 006A  
                       l3555 128F                         l2931 1426                         l2923 1404  
                       l2915 13DF                         l2907 13BF                         l3547 121A  
                       l3539 1201                         l3619 1712                         l3723 17BB  
                       l3715 1783                         l3707 175B                         l2851 0884  
                       l2843 086B                         l3731 1177                         l2837 11C0  
                       l2829 11A3                         l3493 07BE                         l3477 075A  
                       l3485 078D                         l3469 0735                         l3397 04C1  
                       l3389 04B1                         l2941 115C                         l3637 0B0C  
                       l3629 09E5                         l3565 118C                         l3661 15C0  
                       l3653 15A4                         l3645 1577                         l2693 00D2  
                       l2685 00C0                         l2677 00A0                         l2781 0F24  
                       l2773 0E88                         l2765 0DEC                         l2757 0D54  
                       l2749 131C                         l3549 1265                         l2933 142F  
                       l2925 140D                         l2917 13E8                         l2909 13CB  
                       l3581 164D                         l3573 1636                         l3725 17F8  
                       l3717 178E                         l3709 176C                         l3557 0856  
                       l2861 08AC                         l2853 088C                         l2845 086C  
                       l3733 117D                         l2839 11C6                         l3495 07C0  
                       l3487 079A                         l3479 0768                         l3399 04CA  
                       l2943 115F                         l2951 1455                         l3639 0B32  
                       l3567 1194                         l3671 15F3                         l3663 15C4  
                       l3655 15A5                         l3647 157B                         l2695 00DA  
                       l2687 00C3                         l2679 00A8                         l2783 0F4B  
                       l2775 0EAE                         l2767 0E12                         l2759 0D79  
                       l2791 0FC5                         l2935 1162                         l2927 1413  
                       l2919 13F2                         l3591 1679                         l3583 1651  
                       l3575 163B                         l3727 17FA                         l3719 1796  
                       l3559 085C                         l2871 08D4                         l2863 08B4  
                       l2855 0894                         l2847 0874                         l3497 07CE  
                       l3489 07A5                         l2945 1160                         l2961 1476  
                       l2953 1456                         l3569 119C                         l3681 1627  
                       l3673 15FE                         l3665 15D2                         l3657 15AA  
                       l3649 158B                         l2697 00E2                         l2689 00C9  
                       l2785 0F73                         l2777 0ED5                         l2769 0E39  
                       l2937 116B                         l2929 141D                         l3593 167D  
                       l3585 1656                         l3577 1641                         l2881 08FC  
                       l2873 08DC                         l2865 08BC                         l2857 089C  
                       l2849 087C                         l3729 1172                         l3499 07D2  
                       l2939 1154                         l2963 147A                         l2971 149F  
                       l2955 146B                         l2947 1439                         l3683 1629  
                       l3675 1608                         l3667 15E3                         l3659 15B8  
                       l2699 00EA                         l2787 0F9B                         l2779 0EFC  
                       l3595 167F                         l3587 1657                         l3579 1648  
                       l2891 0924                         l2883 0904                         l2875 08E4  
                       l2867 08C4                         l2859 08A4                         l3691 139D  
                       l2981 14C7                         l2973 14A5                         l2965 1481  
                       l2957 146C                         l2949 144C                         l3685 1632  
                       l3677 161E                         l3669 15EF                         l3861 0FCD  
                       l2789 0FC4                         l2797 0014                         l3597 1686  
                       l3589 1671                         l2893 092C                         l2885 090C  
                       l2877 08EC                         l2869 08CC                         l3693 13A5  
                       l2975 14AE                         l2967 148A                         l2959 1474  
                       l3679 1623                         l3863 016B                         l2799 0016  
                       l2991 12BF                         l2983 12AD                         l3599 1687  
                       l2895 0934                         l2887 0914                         l2879 08F4  
                       l3695 13B0                         l3687 1346                         l2977 14B0  
                       l2969 148C                         l2993 12C4                         l2985 12AF  
                       l3697 1713                         l3857 093D                         l2889 091C  
                       l2897 0935                         l3689 1353                         l2979 14C2  
                       l2995 12CA                         l2987 12B5                         l3859 1669  
                       l3699 1721                         TRISA 0085                         l2997 12DB  
                       l2989 12B8                         TRISD 0088                         l2999 12E1  
                       STR_1 0833                         STR_2 084D                         STR_3 0822  
                       STR_4 0844                         _BRGH 04C2                         _CREN 00C4  
                       _FERR 00C2                         u2110 11B1                         u2111 11B0  
                       u3000 0C71                         u3001 0C70                         u2105 001E  
                       u2130 11C5                         u2210 149D                         u2131 11C4  
                       u2211 149C                         u3100 0CE3                         u3020 0C81  
                       u2220 14A5                         u2060 1308                         u2300 12DB  
                       u3021 0C80                         u2125 11B8                         u2221 14A4  
                       u2205 148D                         u2061 1307                         u2301 12DA  
                       u3110 0D02                         u2150 115C                         u2070 1319  
                       u3111 0D01                         u3015 0C76                         u2151 115B  
                       u2071 1318                         u2400 01D1                         u3120 0D20  
                       u3040 0C97                         u3200 04DA                         u2240 14C0  
                       u2160 144C                         u2080 132F                         u2320 12F0  
                       u2401 01D0                         u3121 0D1F                         u3105 0CDE  
                       u3041 0C96                         u3201 04D9                         u2241 14BF  
                       u2161 144B                         u2081 132E                         u2065 1304  
                       u2145 13C2                         u2321 12EF                         u2305 12D7  
                       u2410 01D6                         u3130 0D37                         u3050 0C9D  
                       u3210 04DF                         u2250 14C7                         u2170 1464  
                       u2090 1344                         u2330 122A                         u2411 01D5  
                       u3131 0D36                         u3115 0CFE                         u3051 0C9C  
                       u3035 0C85                         u3211 04DE                         u2251 14C6  
                       u2235 14B2                         u2091 1343                         u2075 1315  
                       u2315 12E4                         u2331 1229                         u2500 0295  
                       u2420 01F6                         u3060 0CB1                         u3140 0486  
                       u2180 147A                         u2260 12B5                         u2421 01F5  
                       u3125 0D1C                         u3061 0CB0                         u3301 062F  
                       u3221 0532                         u3141 0485                         u2181 1479  
                       u2085 132B                         u2261 12B4                         u2510 02AC  
                       u2430 0202                         u3070 0CB8                         u3302 0636  
                       u3222 0539                         u3150 048D                         u2190 1481  
                       u2350 123D                         u2511 02AB                         u2431 0201  
                       u3071 0CB7                         u3311 065C                         u3303 063D  
                       u3231 054E                         u3223 0540                         u3151 048C  
                       u2191 1480                         u2175 145F                         u2095 1340  
                       u2351 123C                         u2600 0317                         u2520 02BC  
                       u2440 0209                         u3080 0CC2                         u3312 0663  
                       u3232 0555                         u3160 0492                         u2280 12C8  
                       u2360 1249                         u2601 0316                         u2521 02BB  
                       u2441 0208                         u3081 0CC1                         u3321 0689  
                       u3313 066A                         u3241 057A                         u3233 055C  
                       u3161 0491                         u2281 12C7                         u2361 1248  
                       u2345 122E                         u2450 020E                         u3090 0CD4  
                       u3410 072F                         u3330 06B3                         u3322 0690  
                       u3242 0581                         u3170 04B5                         u2451 020D  
                       u3091 0CD3                         u3411 072E                         u3323 0697  
                       u3251 0596                         u3243 0588                         u3171 04B4  
                       u2275 12B9                         u2700 03DC                         u2620 033E  
                       u2540 02D4                         u2460 0228                         u3500 07D2  
                       u3420 0735                         u3252 059D                         u3180 04BC  
                       u2380 125D                         u2701 03DB                         u2621 033D  
                       u2541 02D3                         u2461 0227                         u3501 07D1  
                       u3421 0734                         u3405 071D                         u3341 06BF  
                       u3253 05A4                         u3181 04BB                         u2381 125C  
                       u2365 1245                         u2710 03E7                         u2630 0364  
                       u2550 02D9                         u2470 022C                         u2390 01CA  
                       u3430 0749                         u3350 06DB                         u3342 06C6  
                       u3190 04C1                         u3510 1201                         u2711 03E6  
                       u2631 0365                         u2623 033A                         u2615 031B  
                       u2551 02D8                         u2535 02C0                         u2471 022B  
                       u2391 01C9                         u3431 0748                         u3343 06CD  
                       u3335 06AE                         u3271 05CC                         u3191 04C0  
                       u3511 1200                         u2295 12CB                         u2375 1251  
                       u2800 0448                         u2720 03EF                         u2640 0376  
                       u2632 036A                         u2560 02DE                         u2480 028B  
                       u3440 0750                         u3272 05D3                         u3520 1215  
                       u3600 16AE                         u2801 0447                         u2721 03EE  
                       u2641 0377                         u2633 036B                         u2561 02DD  
                       u2481 028A                         u3441 074F                         u3361 06E7  
                       u3281 05F9                         u3273 05DA                         u3265 05A6  
                       u3521 1214                         u3601 16AD                         u2810 044D  
                       u2730 03F6                         u2650 0394                         u2642 037C  
                       u2490 0294                         u3450 075A                         u3362 06EE  
                       u3282 0600                         u3530 1274                         u3610 16F7  
                       u2811 044C                         u2731 03F5                         u2651 0393  
                       u2643 037D                         u2571 02F1                         u2491 0292  
                       u3451 0759                         u3363 06F5                         u3355 06D6  
                       u3283 0607                         u3611 16F6                         u2820 045B  
                       u2740 03FC                         u2660 03BA                         u2580 0303  
                       u2572 02F8                         u2900 0B96                         u3460 076C  
                       u3540 1299                         u3620 170B                         u2821 045A  
                       u2741 03FB                         u2661 03B9                         u2581 0302  
                       u2573 02FF                         u2485 0287                         u2901 0B95  
                       u3461 076B                         u3621 170A                         u2830 0462  
                       u2750 0403                         u2670 03BF                         u2590 0307  
                       u2910 0BB2                         u3470 077B                         u3390 0719  
                       u3710 15F3                         u3630 1577                         u3550 12AB  
                       u2831 0461                         u2751 0402                         u2671 03BE  
                       u2591 0306                         u2911 0BB1                         u3391 0718  
                       u3375 06F7                         u3295 0609                         u3711 15F2  
                       u3631 1576                         u3551 12AA                         u2840 0473  
                       u2760 040D                         u2920 0BD1                         u3480 079A  
                       u3560 118B                         u3720 15F9                         u3640 157B  
                       u2841 0472                         u2761 040C                         u2921 0BD0  
                       u3481 0799                         u3385 070E                         u3561 118A  
                       u3721 15F8                         u3705 15E7                         u3641 157A  
                       u2770 041F                         u2690 03D7                         u2930 0C19  
                       u2850 0B5A                         u3490 07B4                         u3730 15FE  
                       u3650 159B                         u3570 1641                         u2771 041E  
                       u2691 03D6                         u2931 0C18                         u2851 0B59  
                       u3491 07B3                         u3475 0776                         u3731 15FD  
                       u3651 159A                         u3571 1640                         u2780 042E  
                       u2860 0B61                         u3740 1613                         u3580 1685  
                       u2685 03CC                         u2861 0B60                         u3485 0796  
                       u3581 1684                         u2790 043D                         u2870 0B66  
                       u3750 1623                         u3670 15BE                         u3590 16A2  
                       u2791 043C                         u2871 0B65                         u3495 07B0  
                       u3751 1622                         u3671 15BD                         u3591 16A1  
                       u2960 0C2F                         u2880 0B8A                         u3760 1627  
                       u2785 0429                         u2961 0C2E                         u2945 0C1B  
                       u2881 0B89                         u3761 1626                         u3745 160E  
                       u3665 15AF                         u2890 0B91                         u3690 15E1  
                       u3770 1775                         u2955 0C24                         u2891 0B90  
                       u3691 15E0                         u3595 169E                         u3771 1774  
                       u2980 0C4D                         _RCIF 0065                         u2981 0C4C  
                       u3685 15D3                         u2990 0C68                         u2991 0C67  
                       u2975 0C33                         u2985 0C49                         _OERR 00C1  
                       _TMR0 0001                         _SPEN 00C7                         _TRMT 04C1  
                       _TXEN 04C5                         _TXIF 0064                         _SYNC 04C4  
                       _Last 00A6                 __CFG_WRT$OFF 0000                         _main 1172  
                       _loop 1713                         btemp 007E            ?_WriteInstruction 0070  
                       start 0000              ___fldiv@new_exp 0042           ??_WriteInstruction 0077  
              _AccionControl 098B               ??_ByteByNibble 0074                ___fltol@sign1 0079  
            __end_of___fladd 0475                        ?_main 0070                        _CCP1X 00BD  
            __end_of___fldiv 0D52                        _CCP1Y 00BC                        _CCP2X 00ED  
                      _CCP2Y 00EC              __end_of___flneg 1161                        ?_loop 0070  
              __CFG_WDTE$OFF 0000              __end_of___flmul 07EA              __end_of___fltol 14D3  
                      _T2CON 0012              __end_of___lwdiv 12F8              __end_of___lwmod 1265  
                      _ENPin 00B1                        _RCREG 001A                        _SPBRG 0099  
                      _PORTB 0006                        _PORTC 0007                        _PORTE 0009  
                      _TRISB 0086                        _TRISC 0087                        _TRISE 0089  
                      _TXREG 0019                        _RSPin 00B2                        _RWPin 00B0  
                      _d4Pin 00AF                        _d5Pin 00AE                        _d6Pin 00AD  
                      _d7Pin 00AC                        _dTime 00AA                        _delay 12F8  
            __end_of_dpowers 081A           PIDSetSampleTime@dt 0071               ?_EventCounters 0070  
            __end_of_pinMode 098B                        _setup 1346               __CFG_BOREN$OFF 0000  
                      pclath 000A                        status 0003                        wtemp0 007E  
            __end_of_sprintf 1713         __end_of_digitalWrite 01B9              __initialization 07EA  
             ?_AccionControl 0064                 __end_of_main 1186                 __end_of_loop 1800  
    __size_of_Initialization 002C                       ??_main 007E                       ??_loop 00D5  
       __end_of_lcdSetCursor 1224             _PWMConfiguration 0004           lcdSetCursor@column 007C  
                     ?_delay 0070                       _ADCON0 001F                       _ADCON1 009F  
                     _ADRESH 001E                       _ADRESL 009E                       _CCPR1L 0015  
                     _CCPR2L 001B                       ?_setup 0070                       _TMR0IF 005A  
                     _TRISC6 043E                       _TRISC7 043F             __end_of___xxtofl 1633  
           __end_of_lcdBegin 156F               __CFG_PWRTE$OFF 0000             __end_of_lcdPrint 12AD  
           __end_of_lcdWrite 1172                    ??___fladd 0020                    ??___fldiv 0038  
                  ??___flneg 0074                    ??___flmul 0052                    ??___fltol 0074  
                  ??___lwdiv 0074                    ??___lwmod 007C                       delay@i 0075  
                     delay@j 0073                    ??_pinMode 0071           __size_of__Umul8_16 002A  
            ??_EventCounters 0072                    ??_sprintf 0023                 ___xxtofl@arg 00D1  
               ___xxtofl@exp 00D0                 ___xxtofl@val 00C7      __end_of__initialization 07FC  
       __end_of_ByteByNibble 1000                   ___flneg@f1 0070           __size_of_WriteData 0083  
                 ___fltol@f1 0070              ??_AccionControl 007C                  pinMode@mode 0070  
          WriteData@LSNibble 0079               __pcstackCOMMON 0070            WriteData@MSNibble 007B  
              __end_of_delay 1346                __end_of_setup 13B7                   __end_of_D4 081F  
                 __end_of_D5 081E                   __end_of_D6 081D                   __end_of_D7 081C  
                 __end_of_EN 0821                   __end_of_RS 0822                      ??_delay 0072  
                    ??_setup 0027            ?_PIDSetSampleTime 0070                   __pbssBANK1 00A0  
                 __pbssBANK3 0190        __size_of_digitalWrite 0123           ??_PIDSetSampleTime 0070  
         _AccionControl$1274 00C3            __end_of__Umul8_16 11CC                   __pmaintext 1172  
             _Initialization 11CC                      _CCP1CON 0017                      _CCP2CON 001D  
      __size_of_lcdSetCursor 002C    __size_of_WriteInstruction 0082            __end_of_WriteData 0096  
                  ?___xxtofl 00C7                    ?_lcdBegin 0020                 _digitalWrite 0096  
                  ?_lcdPrint 0020                    ?_lcdWrite 0070                   __stringtab 0800  
                    _Control 00A0                 _lcdSetCursor 11F8              lcdSetCursor@row 0020  
     __end_of_Initialization 11F8     __end_of_PWMConfiguration 0013                      ___fladd 01B9  
                    ___fldiv 0B49                      ___flneg 1154                      ___flmul 0475  
                    ___fltol 1439                      ___lwdiv 12AD                      ___lwmod 1224  
                    __ptext1 1346                      __ptext2 14D3                      __ptext3 086A  
                    __ptext4 0855                      __ptext5 1713                      __ptext6 1633  
                    __ptext7 1224                      __ptext8 12AD                      __ptext9 11F8  
                    _dpowers 0810                   ??___xxtofl 00CB                      _pinMode 086A  
                 delay@milis 0070                   ??_lcdBegin 007C        __size_of_ByteByNibble 02AE  
                 ??_lcdPrint 0022                   ??_lcdWrite 007C                      _sprintf 1633  
   WriteInstruction@LSNibble 0079                      clrloop0 114D                   lcdBegin@EN 0020  
                 lcdBegin@RS 007D                   lcdBegin@d4 0022                   lcdBegin@d5 0023  
                 lcdBegin@d6 0024                   lcdBegin@d7 0025     WriteInstruction@MSNibble 007B  
       end_of_initialization 07FC      ByteByNibble@NibbleValue 0076              ?_Initialization 0070  
                  _PORTAbits 0005                    _PORTBbits 0006                    _PORTCbits 0007  
                  _PORTDbits 0008                    _PORTEbits 0009                 _ByteByNibble 0D52  
                ___fladd@grs 002F                ___xxtofl@sign 00CF                    _TRISAbits 0085  
                  _TRISBbits 0086                    _TRISCbits 0087                    _TRISDbits 0088  
                ___fldiv@grs 0044                  ___fldiv@rem 003D                  ___flmul@grs 0058  
           _WriteInstruction 13B7        AccionControl@Feedback 0068          start_initialization 07EA  
                __end_of_RnW 0820                  __end_of_led 081B        __end_of_EventCounters 11A2  
              WriteData@data 007A        AccionControl@SetPoint 0064                    _ScreenROW 00B3  
      __end_of_AccionControl 0B49    __size_of_PIDSetSampleTime 0015                    __Umul8_16 11A2  
                  ___fladd@a 0078                    ___fladd@b 0074                    ___fldiv@a 0030  
                  ___fldiv@b 0034                    ___flmul@a 004E                    ___flmul@b 004A  
                  ___latbits 0002                __pcstackBANK0 0020                __pcstackBANK1 00C3  
                 pinMode@pin 0073                    _WriteData 0013            __size_of___xxtofl 00C4  
          __size_of_lcdBegin 009C            __size_of_lcdPrint 0048            __size_of_lcdWrite 0011  
                sprintf@flag 0026                  sprintf@prec 002A             ___lwdiv@dividend 0072  
            AccionControl@dt 006C            ?_PWMConfiguration 0070                     ?___fladd 0074  
                   ?___fldiv 0030                     ?___flneg 0070                     ?___flmul 004A  
                   ?___fltol 0070                   ?__Umul8_16 0070                     ?___lwdiv 0070  
                   ?___lwmod 0078           ??_PWMConfiguration 0070                    __pstrings 0800  
       lcdSetCursor@location 0021                     ?_pinMode 0070                   ?_WriteData 0070  
           ___lwdiv@quotient 0075               __size_of_delay 004E                     ?_sprintf 0020  
             __size_of_setup 0071             ??_Initialization 0070                    clear_ram0 114C  
                  lcdPrint@i 0025                   _ADCON0bits 001F                  __stringbase 080F  
   __end_of_WriteInstruction 1439             _PIDSetSampleTime 0855                  ??__Umul8_16 0072  
           __size_of___fladd 02BC             __size_of___fldiv 0209             __size_of___flneg 000D  
           __size_of___flmul 0375             __size_of___fltol 009A             __size_of___lwdiv 004B  
           __size_of___lwmod 0041           __end_of__stringtab 0810                   sprintf@val 0028  
                   ___xxtofl 156F                     _lcdBegin 14D3             __size_of_pinMode 0121  
            ___lwdiv@divisor 0070                  ??_WriteData 0077              ___lwdiv@counter 0077  
                   __ptext10 13B7                     __ptext11 1265                     __ptext20 1439  
                   __ptext12 1161                     __ptext21 1154                     __ptext13 0013  
                   __ptext22 0475                     __ptext14 12F8                     __ptext23 11A2  
                   __ptext15 0D52                     __ptext24 0B49                     __ptext16 0096  
                   __ptext25 01B9                     __ptext17 156F                     __ptext26 11CC  
                   __ptext18 1186                     __ptext27 0004                     __ptext19 098B  
                   _lcdPrint 1265                     _lcdWrite 1161             __size_of_sprintf 00E0  
              __size_of_main 0014                __size_of_loop 00ED               lcdPrint@string 0020  
                lcdBegin@R_W 0021                ?_digitalWrite 0070                    sprintf@ap 0027  
                  sprintf@sp 002B            digitalWrite@value 0070             ___lwmod@dividend 007A  
              ?_lcdSetCursor 007C                    stringcode 080A       __size_of_EventCounters 001C  
     __Umul8_16@multiplicand 0070                   _OPTION_REG 0081                     sprintf@c 002C  
                   sprintf@f 0020              ___lwmod@divisor 0078              ___lwmod@counter 007D  
             ??_digitalWrite 0071                     stringdir 080A                     stringtab 0800  
  __size_of_PWMConfiguration 000F                ___fladd@signs 002C       __size_of_AccionControl 01BE  
            digitalWrite@pin 0073                 ___fladd@aexp 002D                 ___fladd@bexp 002E  
       __Umul8_16@multiplier 0078               ??_lcdSetCursor 007D  WriteInstruction@instruction 007A  
          __Umul8_16@product 0074  
