

Microchip Technology PIC LITE Macro Assembler V2.00 build -1524193055 
                                                                                               Fri Feb 03 14:48:04 2023

Microchip Technology Omniscient Code Generator v2.00 (Free mode) build 20180527130849
     1  0000                     
      + 0000                     
     2                           ; Version 2.00
     3                           ; Generated 27/05/2018 GMT
     4                           
     5                           ; 
     6                           ; Copyright © 2018, Microchip Technology Inc. and its subsidiaries ("Microchip")
     7                           ; All rights reserved.
     8                           ; 
     9                           ; This software is developed by Microchip Technology Inc. and its subsidiaries ("Microch
                                 ip").
    10                           ; 
    11                           ; Redistribution and use in source and binary forms, with or without modification, are
    12                           ; permitted provided that the following conditions are met:
    13                           ; 
    14                           ;     1. Redistributions of source code must retain the above copyright notice, this lis
                                 t of
    15                           ;        conditions and the following disclaimer.
    16                           ; 
    17                           ;     2. Redistributions in binary form must reproduce the above copyright notice, this 
                                 list
    18                           ;        of conditions and the following disclaimer in the documentation and/or other
    19                           ;        materials provided with the distribution.
    20                           ; 
    21                           ;     3. Microchip's name may not be used to endorse or promote products derived from th
                                 is
    22                           ;        software without specific prior written permission.
    23                           ; 
    24                           ; THIS SOFTWARE IS PROVIDED BY MICROCHIP "AS IS" AND ANY EXPRESS OR IMPLIED WARRANTIES,

    25                           ; INCLUDING, BUT NOT LIMITED TO, THE IMPLIED WARRANTIES OF MERCHANTABILITY AND FITNESS F
                                 OR
    26                           ; PURPOSE ARE DISCLAIMED.  IN NO EVENT SHALL MICROCHIP BE LIABLE FOR ANY DIRECT, INDIREC
                                 T,
    27                           ; INCIDENTAL, SPECIAL, EXEMPLARY, OR CONSEQUENTIAL DAMAGES (INCLUDING BUT NOT LIMITED TO
                                 
    28                           ; PROCUREMENT OF SUBSTITUTE GOODS OR SERVICES; LOSS OF USE, DATA OR PROFITS; OR BUSINESS
                                 
    29                           ; INTERRUPTION) HOWSOEVER CAUSED AND ON ANY THEORY OF LIABILITY, WHETHER IN CONTRACT, ST
                                 RICT
    30                           ; LIABILITY, OR TORT (INCLUDING NEGLIGENCE OR OTHERWISE) ARISING IN ANY WAY OUT OF THE U
                                 SE OF
    31                           ; THIS SOFTWARE, EVEN IF ADVISED OF THE POSSIBILITY OF SUCH DAMAGE.
    32                           ; 
    33                           
    34                           
    35                           ; 
    36                           ; Code-generator required, PIC16F877A Definitions
    37                           ; 
    38  0004                     fsr0 equ 04h
    39  0004                     indf equ 00h
    40  0000                     indf0 equ 00h
    41  0000                     pc equ 02h
    42  0002                     pcl equ 02h
    43  0002                     pclath equ 0Ah
    44  000A                     status equ 03h
    45  0003                     
     2                           opt pagewidth 120
     3  0000                     byte0	macro	val
     4                           	(getbyte(val,0))
     5                           endm
     6  0000                     byte1	macro	val
     7                           	(getbyte(val,1))
     8                           endm
     9  0000                     byte2	macro	val
    10                           	(getbyte(val,2))
    11                           endm
    12  0000                     byte3	macro	val
    13                           	(getbyte(val,3))
    14                           endm
    15  0000                     byte4	macro	val
    16                           	(getbyte(val,4))
    17                           endm
    18  0000                     byte5	macro	val
    19                           	(getbyte(val,5))
    20                           endm
    21  0000                     byte6	macro	val
    22                           	(getbyte(val,6))
    23                           endm
    24  0000                     byte7	macro	val
    25                           	(getbyte(val,7))
    26                           endm
    27  0000                     getword	macro	val,pos
    28                           	(((val) >> (8 * pos)) and 0xffff)
    29                           endm
    30  0000                     word0	macro	val
    31                           	(getword(val,0))
    32                           endm
    33  0000                     word1	macro	val
    34                           	(getword(val,2))
    35                           endm
    36  0000                     word2	macro	val
    37                           	(getword(val,4))
    38                           endm
    39  0000                     word3	macro	val
    40                           	(getword(val,6))
    41                           endm
    42  0000                     gettword	macro	val,pos
    43                           	(((val) >> (8 * pos)) and 0xffffff)
    44                           endm
    45  0000                     tword0	macro	val
    46                           	(gettword(val,0))
    47                           endm
    48  0000                     tword1	macro	val
    49                           	(gettword(val,3))
    50                           endm
    51  0000                     tword2	macro	val
    52                           	(gettword(val,6))
    53                           endm
    54  0000                     getdword	macro	val,pos
    55                           	(((val) >> (8 * pos)) and 0xffffffff)
    56                           endm
    57  0000                     dword0	macro	val
    58                           	(getdword(val,0))
    59                           endm
    60  0000                     dword1	macro	val
    61                           	(getdword(val,4))
    62                           endm
    63  0000                     clrc	macro
    64                           	bcf	3,0
    65                           	endm
    66  0000                     clrz	macro
    67                           	bcf	3,2
    68                           	endm
    69  0000                     setc	macro
    70                           	bsf	3,0
    71                           	endm
    72  0000                     setz	macro
    73                           	bsf	3,2
    74                           	endm
    75  0000                     skipc	macro
    76                           	btfss	3,0
    77                           	endm
    78  0000                     skipz	macro
    79                           	btfss	3,2
    80                           	endm
    81  0000                     skipnc	macro
    82                           	btfsc	3,0
    83                           	endm
    84  0000                     skipnz	macro
    85                           	btfsc	3,2
    86                           	endm
    87  0000                     # 54 "C:\Program Files (x86)\Microchip\xc8\v2.00\pic\include\pic16f877a.h"
    88                           INDF equ 00h ;# 
    89  0000                     # 61 "C:\Program Files (x86)\Microchip\xc8\v2.00\pic\include\pic16f877a.h"
    90                           TMR0 equ 01h ;# 
    91  0001                     # 68 "C:\Program Files (x86)\Microchip\xc8\v2.00\pic\include\pic16f877a.h"
    92                           PCL equ 02h ;# 
    93  0002                     # 75 "C:\Program Files (x86)\Microchip\xc8\v2.00\pic\include\pic16f877a.h"
    94                           STATUS equ 03h ;# 
    95  0003                     # 161 "C:\Program Files (x86)\Microchip\xc8\v2.00\pic\include\pic16f877a.h"
    96                           FSR equ 04h ;# 
    97  0004                     # 168 "C:\Program Files (x86)\Microchip\xc8\v2.00\pic\include\pic16f877a.h"
    98                           PORTA equ 05h ;# 
    99  0005                     # 218 "C:\Program Files (x86)\Microchip\xc8\v2.00\pic\include\pic16f877a.h"
   100                           PORTB equ 06h ;# 
   101  0006                     # 280 "C:\Program Files (x86)\Microchip\xc8\v2.00\pic\include\pic16f877a.h"
   102                           PORTC equ 07h ;# 
   103  0007                     # 342 "C:\Program Files (x86)\Microchip\xc8\v2.00\pic\include\pic16f877a.h"
   104                           PORTD equ 08h ;# 
   105  0008                     # 404 "C:\Program Files (x86)\Microchip\xc8\v2.00\pic\include\pic16f877a.h"
   106                           PORTE equ 09h ;# 
   107  0009                     # 436 "C:\Program Files (x86)\Microchip\xc8\v2.00\pic\include\pic16f877a.h"
   108                           PCLATH equ 0Ah ;# 
   109  000A                     # 456 "C:\Program Files (x86)\Microchip\xc8\v2.00\pic\include\pic16f877a.h"
   110                           INTCON equ 0Bh ;# 
   111  000B                     # 534 "C:\Program Files (x86)\Microchip\xc8\v2.00\pic\include\pic16f877a.h"
   112                           PIR1 equ 0Ch ;# 
   113  000C                     # 596 "C:\Program Files (x86)\Microchip\xc8\v2.00\pic\include\pic16f877a.h"
   114                           PIR2 equ 0Dh ;# 
   115  000D                     # 636 "C:\Program Files (x86)\Microchip\xc8\v2.00\pic\include\pic16f877a.h"
   116                           TMR1 equ 0Eh ;# 
   117  000E                     # 643 "C:\Program Files (x86)\Microchip\xc8\v2.00\pic\include\pic16f877a.h"
   118                           TMR1L equ 0Eh ;# 
   119  000E                     # 650 "C:\Program Files (x86)\Microchip\xc8\v2.00\pic\include\pic16f877a.h"
   120                           TMR1H equ 0Fh ;# 
   121  000F                     # 657 "C:\Program Files (x86)\Microchip\xc8\v2.00\pic\include\pic16f877a.h"
   122                           T1CON equ 010h ;# 
   123  0010                     # 732 "C:\Program Files (x86)\Microchip\xc8\v2.00\pic\include\pic16f877a.h"
   124                           TMR2 equ 011h ;# 
   125  0011                     # 739 "C:\Program Files (x86)\Microchip\xc8\v2.00\pic\include\pic16f877a.h"
   126                           T2CON equ 012h ;# 
   127  0012                     # 810 "C:\Program Files (x86)\Microchip\xc8\v2.00\pic\include\pic16f877a.h"
   128                           SSPBUF equ 013h ;# 
   129  0013                     # 817 "C:\Program Files (x86)\Microchip\xc8\v2.00\pic\include\pic16f877a.h"
   130                           SSPCON equ 014h ;# 
   131  0014                     # 887 "C:\Program Files (x86)\Microchip\xc8\v2.00\pic\include\pic16f877a.h"
   132                           CCPR1 equ 015h ;# 
   133  0015                     # 894 "C:\Program Files (x86)\Microchip\xc8\v2.00\pic\include\pic16f877a.h"
   134                           CCPR1L equ 015h ;# 
   135  0015                     # 901 "C:\Program Files (x86)\Microchip\xc8\v2.00\pic\include\pic16f877a.h"
   136                           CCPR1H equ 016h ;# 
   137  0016                     # 908 "C:\Program Files (x86)\Microchip\xc8\v2.00\pic\include\pic16f877a.h"
   138                           CCP1CON equ 017h ;# 
   139  0017                     # 966 "C:\Program Files (x86)\Microchip\xc8\v2.00\pic\include\pic16f877a.h"
   140                           RCSTA equ 018h ;# 
   141  0018                     # 1061 "C:\Program Files (x86)\Microchip\xc8\v2.00\pic\include\pic16f877a.h"
   142                           TXREG equ 019h ;# 
   143  0019                     # 1068 "C:\Program Files (x86)\Microchip\xc8\v2.00\pic\include\pic16f877a.h"
   144                           RCREG equ 01Ah ;# 
   145  001A                     # 1075 "C:\Program Files (x86)\Microchip\xc8\v2.00\pic\include\pic16f877a.h"
   146                           CCPR2 equ 01Bh ;# 
   147  001B                     # 1082 "C:\Program Files (x86)\Microchip\xc8\v2.00\pic\include\pic16f877a.h"
   148                           CCPR2L equ 01Bh ;# 
   149  001B                     # 1089 "C:\Program Files (x86)\Microchip\xc8\v2.00\pic\include\pic16f877a.h"
   150                           CCPR2H equ 01Ch ;# 
   151  001C                     # 1096 "C:\Program Files (x86)\Microchip\xc8\v2.00\pic\include\pic16f877a.h"
   152                           CCP2CON equ 01Dh ;# 
   153  001D                     # 1154 "C:\Program Files (x86)\Microchip\xc8\v2.00\pic\include\pic16f877a.h"
   154                           ADRESH equ 01Eh ;# 
   155  001E                     # 1161 "C:\Program Files (x86)\Microchip\xc8\v2.00\pic\include\pic16f877a.h"
   156                           ADCON0 equ 01Fh ;# 
   157  001F                     # 1257 "C:\Program Files (x86)\Microchip\xc8\v2.00\pic\include\pic16f877a.h"
   158                           OPTION_REG equ 081h ;# 
   159  0081                     # 1327 "C:\Program Files (x86)\Microchip\xc8\v2.00\pic\include\pic16f877a.h"
   160                           TRISA equ 085h ;# 
   161  0085                     # 1377 "C:\Program Files (x86)\Microchip\xc8\v2.00\pic\include\pic16f877a.h"
   162                           TRISB equ 086h ;# 
   163  0086                     # 1439 "C:\Program Files (x86)\Microchip\xc8\v2.00\pic\include\pic16f877a.h"
   164                           TRISC equ 087h ;# 
   165  0087                     # 1501 "C:\Program Files (x86)\Microchip\xc8\v2.00\pic\include\pic16f877a.h"
   166                           TRISD equ 088h ;# 
   167  0088                     # 1563 "C:\Program Files (x86)\Microchip\xc8\v2.00\pic\include\pic16f877a.h"
   168                           TRISE equ 089h ;# 
   169  0089                     # 1620 "C:\Program Files (x86)\Microchip\xc8\v2.00\pic\include\pic16f877a.h"
   170                           PIE1 equ 08Ch ;# 
   171  008C                     # 1682 "C:\Program Files (x86)\Microchip\xc8\v2.00\pic\include\pic16f877a.h"
   172                           PIE2 equ 08Dh ;# 
   173  008D                     # 1722 "C:\Program Files (x86)\Microchip\xc8\v2.00\pic\include\pic16f877a.h"
   174                           PCON equ 08Eh ;# 
   175  008E                     # 1756 "C:\Program Files (x86)\Microchip\xc8\v2.00\pic\include\pic16f877a.h"
   176                           SSPCON2 equ 091h ;# 
   177  0091                     # 1818 "C:\Program Files (x86)\Microchip\xc8\v2.00\pic\include\pic16f877a.h"
   178                           PR2 equ 092h ;# 
   179  0092                     # 1825 "C:\Program Files (x86)\Microchip\xc8\v2.00\pic\include\pic16f877a.h"
   180                           SSPADD equ 093h ;# 
   181  0093                     # 1832 "C:\Program Files (x86)\Microchip\xc8\v2.00\pic\include\pic16f877a.h"
   182                           SSPSTAT equ 094h ;# 
   183  0094                     # 2001 "C:\Program Files (x86)\Microchip\xc8\v2.00\pic\include\pic16f877a.h"
   184                           TXSTA equ 098h ;# 
   185  0098                     # 2082 "C:\Program Files (x86)\Microchip\xc8\v2.00\pic\include\pic16f877a.h"
   186                           SPBRG equ 099h ;# 
   187  0099                     # 2089 "C:\Program Files (x86)\Microchip\xc8\v2.00\pic\include\pic16f877a.h"
   188                           CMCON equ 09Ch ;# 
   189  009C                     # 2159 "C:\Program Files (x86)\Microchip\xc8\v2.00\pic\include\pic16f877a.h"
   190                           CVRCON equ 09Dh ;# 
   191  009D                     # 2224 "C:\Program Files (x86)\Microchip\xc8\v2.00\pic\include\pic16f877a.h"
   192                           ADRESL equ 09Eh ;# 
   193  009E                     # 2231 "C:\Program Files (x86)\Microchip\xc8\v2.00\pic\include\pic16f877a.h"
   194                           ADCON1 equ 09Fh ;# 
   195  009F                     # 2290 "C:\Program Files (x86)\Microchip\xc8\v2.00\pic\include\pic16f877a.h"
   196                           EEDATA equ 010Ch ;# 
   197  010C                     # 2297 "C:\Program Files (x86)\Microchip\xc8\v2.00\pic\include\pic16f877a.h"
   198                           EEADR equ 010Dh ;# 
   199  010D                     # 2304 "C:\Program Files (x86)\Microchip\xc8\v2.00\pic\include\pic16f877a.h"
   200                           EEDATH equ 010Eh ;# 
   201  010E                     # 2311 "C:\Program Files (x86)\Microchip\xc8\v2.00\pic\include\pic16f877a.h"
   202                           EEADRH equ 010Fh ;# 
   203  010F                     # 2318 "C:\Program Files (x86)\Microchip\xc8\v2.00\pic\include\pic16f877a.h"
   204                           EECON1 equ 018Ch ;# 
   205  018C                     # 2363 "C:\Program Files (x86)\Microchip\xc8\v2.00\pic\include\pic16f877a.h"
   206                           EECON2 equ 018Dh ;# 
   207  018D                     # 54 "C:\Program Files (x86)\Microchip\xc8\v2.00\pic\include\pic16f877a.h"
   208                           INDF equ 00h ;# 
   209  0000                     # 61 "C:\Program Files (x86)\Microchip\xc8\v2.00\pic\include\pic16f877a.h"
   210                           TMR0 equ 01h ;# 
   211  0001                     # 68 "C:\Program Files (x86)\Microchip\xc8\v2.00\pic\include\pic16f877a.h"
   212                           PCL equ 02h ;# 
   213  0002                     # 75 "C:\Program Files (x86)\Microchip\xc8\v2.00\pic\include\pic16f877a.h"
   214                           STATUS equ 03h ;# 
   215  0003                     # 161 "C:\Program Files (x86)\Microchip\xc8\v2.00\pic\include\pic16f877a.h"
   216                           FSR equ 04h ;# 
   217  0004                     # 168 "C:\Program Files (x86)\Microchip\xc8\v2.00\pic\include\pic16f877a.h"
   218                           PORTA equ 05h ;# 
   219  0005                     # 218 "C:\Program Files (x86)\Microchip\xc8\v2.00\pic\include\pic16f877a.h"
   220                           PORTB equ 06h ;# 
   221  0006                     # 280 "C:\Program Files (x86)\Microchip\xc8\v2.00\pic\include\pic16f877a.h"
   222                           PORTC equ 07h ;# 
   223  0007                     # 342 "C:\Program Files (x86)\Microchip\xc8\v2.00\pic\include\pic16f877a.h"
   224                           PORTD equ 08h ;# 
   225  0008                     # 404 "C:\Program Files (x86)\Microchip\xc8\v2.00\pic\include\pic16f877a.h"
   226                           PORTE equ 09h ;# 
   227  0009                     # 436 "C:\Program Files (x86)\Microchip\xc8\v2.00\pic\include\pic16f877a.h"
   228                           PCLATH equ 0Ah ;# 
   229  000A                     # 456 "C:\Program Files (x86)\Microchip\xc8\v2.00\pic\include\pic16f877a.h"
   230                           INTCON equ 0Bh ;# 
   231  000B                     # 534 "C:\Program Files (x86)\Microchip\xc8\v2.00\pic\include\pic16f877a.h"
   232                           PIR1 equ 0Ch ;# 
   233  000C                     # 596 "C:\Program Files (x86)\Microchip\xc8\v2.00\pic\include\pic16f877a.h"
   234                           PIR2 equ 0Dh ;# 
   235  000D                     # 636 "C:\Program Files (x86)\Microchip\xc8\v2.00\pic\include\pic16f877a.h"
   236                           TMR1 equ 0Eh ;# 
   237  000E                     # 643 "C:\Program Files (x86)\Microchip\xc8\v2.00\pic\include\pic16f877a.h"
   238                           TMR1L equ 0Eh ;# 
   239  000E                     # 650 "C:\Program Files (x86)\Microchip\xc8\v2.00\pic\include\pic16f877a.h"
   240                           TMR1H equ 0Fh ;# 
   241  000F                     # 657 "C:\Program Files (x86)\Microchip\xc8\v2.00\pic\include\pic16f877a.h"
   242                           T1CON equ 010h ;# 
   243  0010                     # 732 "C:\Program Files (x86)\Microchip\xc8\v2.00\pic\include\pic16f877a.h"
   244                           TMR2 equ 011h ;# 
   245  0011                     # 739 "C:\Program Files (x86)\Microchip\xc8\v2.00\pic\include\pic16f877a.h"
   246                           T2CON equ 012h ;# 
   247  0012                     # 810 "C:\Program Files (x86)\Microchip\xc8\v2.00\pic\include\pic16f877a.h"
   248                           SSPBUF equ 013h ;# 
   249  0013                     # 817 "C:\Program Files (x86)\Microchip\xc8\v2.00\pic\include\pic16f877a.h"
   250                           SSPCON equ 014h ;# 
   251  0014                     # 887 "C:\Program Files (x86)\Microchip\xc8\v2.00\pic\include\pic16f877a.h"
   252                           CCPR1 equ 015h ;# 
   253  0015                     # 894 "C:\Program Files (x86)\Microchip\xc8\v2.00\pic\include\pic16f877a.h"
   254                           CCPR1L equ 015h ;# 
   255  0015                     # 901 "C:\Program Files (x86)\Microchip\xc8\v2.00\pic\include\pic16f877a.h"
   256                           CCPR1H equ 016h ;# 
   257  0016                     # 908 "C:\Program Files (x86)\Microchip\xc8\v2.00\pic\include\pic16f877a.h"
   258                           CCP1CON equ 017h ;# 
   259  0017                     # 966 "C:\Program Files (x86)\Microchip\xc8\v2.00\pic\include\pic16f877a.h"
   260                           RCSTA equ 018h ;# 
   261  0018                     # 1061 "C:\Program Files (x86)\Microchip\xc8\v2.00\pic\include\pic16f877a.h"
   262                           TXREG equ 019h ;# 
   263  0019                     # 1068 "C:\Program Files (x86)\Microchip\xc8\v2.00\pic\include\pic16f877a.h"
   264                           RCREG equ 01Ah ;# 
   265  001A                     # 1075 "C:\Program Files (x86)\Microchip\xc8\v2.00\pic\include\pic16f877a.h"
   266                           CCPR2 equ 01Bh ;# 
   267  001B                     # 1082 "C:\Program Files (x86)\Microchip\xc8\v2.00\pic\include\pic16f877a.h"
   268                           CCPR2L equ 01Bh ;# 
   269  001B                     # 1089 "C:\Program Files (x86)\Microchip\xc8\v2.00\pic\include\pic16f877a.h"
   270                           CCPR2H equ 01Ch ;# 
   271  001C                     # 1096 "C:\Program Files (x86)\Microchip\xc8\v2.00\pic\include\pic16f877a.h"
   272                           CCP2CON equ 01Dh ;# 
   273  001D                     # 1154 "C:\Program Files (x86)\Microchip\xc8\v2.00\pic\include\pic16f877a.h"
   274                           ADRESH equ 01Eh ;# 
   275  001E                     # 1161 "C:\Program Files (x86)\Microchip\xc8\v2.00\pic\include\pic16f877a.h"
   276                           ADCON0 equ 01Fh ;# 
   277  001F                     # 1257 "C:\Program Files (x86)\Microchip\xc8\v2.00\pic\include\pic16f877a.h"
   278                           OPTION_REG equ 081h ;# 
   279  0081                     # 1327 "C:\Program Files (x86)\Microchip\xc8\v2.00\pic\include\pic16f877a.h"
   280                           TRISA equ 085h ;# 
   281  0085                     # 1377 "C:\Program Files (x86)\Microchip\xc8\v2.00\pic\include\pic16f877a.h"
   282                           TRISB equ 086h ;# 
   283  0086                     # 1439 "C:\Program Files (x86)\Microchip\xc8\v2.00\pic\include\pic16f877a.h"
   284                           TRISC equ 087h ;# 
   285  0087                     # 1501 "C:\Program Files (x86)\Microchip\xc8\v2.00\pic\include\pic16f877a.h"
   286                           TRISD equ 088h ;# 
   287  0088                     # 1563 "C:\Program Files (x86)\Microchip\xc8\v2.00\pic\include\pic16f877a.h"
   288                           TRISE equ 089h ;# 
   289  0089                     # 1620 "C:\Program Files (x86)\Microchip\xc8\v2.00\pic\include\pic16f877a.h"
   290                           PIE1 equ 08Ch ;# 
   291  008C                     # 1682 "C:\Program Files (x86)\Microchip\xc8\v2.00\pic\include\pic16f877a.h"
   292                           PIE2 equ 08Dh ;# 
   293  008D                     # 1722 "C:\Program Files (x86)\Microchip\xc8\v2.00\pic\include\pic16f877a.h"
   294                           PCON equ 08Eh ;# 
   295  008E                     # 1756 "C:\Program Files (x86)\Microchip\xc8\v2.00\pic\include\pic16f877a.h"
   296                           SSPCON2 equ 091h ;# 
   297  0091                     # 1818 "C:\Program Files (x86)\Microchip\xc8\v2.00\pic\include\pic16f877a.h"
   298                           PR2 equ 092h ;# 
   299  0092                     # 1825 "C:\Program Files (x86)\Microchip\xc8\v2.00\pic\include\pic16f877a.h"
   300                           SSPADD equ 093h ;# 
   301  0093                     # 1832 "C:\Program Files (x86)\Microchip\xc8\v2.00\pic\include\pic16f877a.h"
   302                           SSPSTAT equ 094h ;# 
   303  0094                     # 2001 "C:\Program Files (x86)\Microchip\xc8\v2.00\pic\include\pic16f877a.h"
   304                           TXSTA equ 098h ;# 
   305  0098                     # 2082 "C:\Program Files (x86)\Microchip\xc8\v2.00\pic\include\pic16f877a.h"
   306                           SPBRG equ 099h ;# 
   307  0099                     # 2089 "C:\Program Files (x86)\Microchip\xc8\v2.00\pic\include\pic16f877a.h"
   308                           CMCON equ 09Ch ;# 
   309  009C                     # 2159 "C:\Program Files (x86)\Microchip\xc8\v2.00\pic\include\pic16f877a.h"
   310                           CVRCON equ 09Dh ;# 
   311  009D                     # 2224 "C:\Program Files (x86)\Microchip\xc8\v2.00\pic\include\pic16f877a.h"
   312                           ADRESL equ 09Eh ;# 
   313  009E                     # 2231 "C:\Program Files (x86)\Microchip\xc8\v2.00\pic\include\pic16f877a.h"
   314                           ADCON1 equ 09Fh ;# 
   315  009F                     # 2290 "C:\Program Files (x86)\Microchip\xc8\v2.00\pic\include\pic16f877a.h"
   316                           EEDATA equ 010Ch ;# 
   317  010C                     # 2297 "C:\Program Files (x86)\Microchip\xc8\v2.00\pic\include\pic16f877a.h"
   318                           EEADR equ 010Dh ;# 
   319  010D                     # 2304 "C:\Program Files (x86)\Microchip\xc8\v2.00\pic\include\pic16f877a.h"
   320                           EEDATH equ 010Eh ;# 
   321  010E                     # 2311 "C:\Program Files (x86)\Microchip\xc8\v2.00\pic\include\pic16f877a.h"
   322                           EEADRH equ 010Fh ;# 
   323  010F                     # 2318 "C:\Program Files (x86)\Microchip\xc8\v2.00\pic\include\pic16f877a.h"
   324                           EECON1 equ 018Ch ;# 
   325  018C                     # 2363 "C:\Program Files (x86)\Microchip\xc8\v2.00\pic\include\pic16f877a.h"
   326                           EECON2 equ 018Dh ;# 
   327  018D                     # 54 "C:\Program Files (x86)\Microchip\xc8\v2.00\pic\include\pic16f877a.h"
   328                           INDF equ 00h ;# 
   329  0000                     # 61 "C:\Program Files (x86)\Microchip\xc8\v2.00\pic\include\pic16f877a.h"
   330                           TMR0 equ 01h ;# 
   331  0001                     # 68 "C:\Program Files (x86)\Microchip\xc8\v2.00\pic\include\pic16f877a.h"
   332                           PCL equ 02h ;# 
   333  0002                     # 75 "C:\Program Files (x86)\Microchip\xc8\v2.00\pic\include\pic16f877a.h"
   334                           STATUS equ 03h ;# 
   335  0003                     # 161 "C:\Program Files (x86)\Microchip\xc8\v2.00\pic\include\pic16f877a.h"
   336                           FSR equ 04h ;# 
   337  0004                     # 168 "C:\Program Files (x86)\Microchip\xc8\v2.00\pic\include\pic16f877a.h"
   338                           PORTA equ 05h ;# 
   339  0005                     # 218 "C:\Program Files (x86)\Microchip\xc8\v2.00\pic\include\pic16f877a.h"
   340                           PORTB equ 06h ;# 
   341  0006                     # 280 "C:\Program Files (x86)\Microchip\xc8\v2.00\pic\include\pic16f877a.h"
   342                           PORTC equ 07h ;# 
   343  0007                     # 342 "C:\Program Files (x86)\Microchip\xc8\v2.00\pic\include\pic16f877a.h"
   344                           PORTD equ 08h ;# 
   345  0008                     # 404 "C:\Program Files (x86)\Microchip\xc8\v2.00\pic\include\pic16f877a.h"
   346                           PORTE equ 09h ;# 
   347  0009                     # 436 "C:\Program Files (x86)\Microchip\xc8\v2.00\pic\include\pic16f877a.h"
   348                           PCLATH equ 0Ah ;# 
   349  000A                     # 456 "C:\Program Files (x86)\Microchip\xc8\v2.00\pic\include\pic16f877a.h"
   350                           INTCON equ 0Bh ;# 
   351  000B                     # 534 "C:\Program Files (x86)\Microchip\xc8\v2.00\pic\include\pic16f877a.h"
   352                           PIR1 equ 0Ch ;# 
   353  000C                     # 596 "C:\Program Files (x86)\Microchip\xc8\v2.00\pic\include\pic16f877a.h"
   354                           PIR2 equ 0Dh ;# 
   355  000D                     # 636 "C:\Program Files (x86)\Microchip\xc8\v2.00\pic\include\pic16f877a.h"
   356                           TMR1 equ 0Eh ;# 
   357  000E                     # 643 "C:\Program Files (x86)\Microchip\xc8\v2.00\pic\include\pic16f877a.h"
   358                           TMR1L equ 0Eh ;# 
   359  000E                     # 650 "C:\Program Files (x86)\Microchip\xc8\v2.00\pic\include\pic16f877a.h"
   360                           TMR1H equ 0Fh ;# 
   361  000F                     # 657 "C:\Program Files (x86)\Microchip\xc8\v2.00\pic\include\pic16f877a.h"
   362                           T1CON equ 010h ;# 
   363  0010                     # 732 "C:\Program Files (x86)\Microchip\xc8\v2.00\pic\include\pic16f877a.h"
   364                           TMR2 equ 011h ;# 
   365  0011                     # 739 "C:\Program Files (x86)\Microchip\xc8\v2.00\pic\include\pic16f877a.h"
   366                           T2CON equ 012h ;# 
   367  0012                     # 810 "C:\Program Files (x86)\Microchip\xc8\v2.00\pic\include\pic16f877a.h"
   368                           SSPBUF equ 013h ;# 
   369  0013                     # 817 "C:\Program Files (x86)\Microchip\xc8\v2.00\pic\include\pic16f877a.h"
   370                           SSPCON equ 014h ;# 
   371  0014                     # 887 "C:\Program Files (x86)\Microchip\xc8\v2.00\pic\include\pic16f877a.h"
   372                           CCPR1 equ 015h ;# 
   373  0015                     # 894 "C:\Program Files (x86)\Microchip\xc8\v2.00\pic\include\pic16f877a.h"
   374                           CCPR1L equ 015h ;# 
   375  0015                     # 901 "C:\Program Files (x86)\Microchip\xc8\v2.00\pic\include\pic16f877a.h"
   376                           CCPR1H equ 016h ;# 
   377  0016                     # 908 "C:\Program Files (x86)\Microchip\xc8\v2.00\pic\include\pic16f877a.h"
   378                           CCP1CON equ 017h ;# 
   379  0017                     # 966 "C:\Program Files (x86)\Microchip\xc8\v2.00\pic\include\pic16f877a.h"
   380                           RCSTA equ 018h ;# 
   381  0018                     # 1061 "C:\Program Files (x86)\Microchip\xc8\v2.00\pic\include\pic16f877a.h"
   382                           TXREG equ 019h ;# 
   383  0019                     # 1068 "C:\Program Files (x86)\Microchip\xc8\v2.00\pic\include\pic16f877a.h"
   384                           RCREG equ 01Ah ;# 
   385  001A                     # 1075 "C:\Program Files (x86)\Microchip\xc8\v2.00\pic\include\pic16f877a.h"
   386                           CCPR2 equ 01Bh ;# 
   387  001B                     # 1082 "C:\Program Files (x86)\Microchip\xc8\v2.00\pic\include\pic16f877a.h"
   388                           CCPR2L equ 01Bh ;# 
   389  001B                     # 1089 "C:\Program Files (x86)\Microchip\xc8\v2.00\pic\include\pic16f877a.h"
   390                           CCPR2H equ 01Ch ;# 
   391  001C                     # 1096 "C:\Program Files (x86)\Microchip\xc8\v2.00\pic\include\pic16f877a.h"
   392                           CCP2CON equ 01Dh ;# 
   393  001D                     # 1154 "C:\Program Files (x86)\Microchip\xc8\v2.00\pic\include\pic16f877a.h"
   394                           ADRESH equ 01Eh ;# 
   395  001E                     # 1161 "C:\Program Files (x86)\Microchip\xc8\v2.00\pic\include\pic16f877a.h"
   396                           ADCON0 equ 01Fh ;# 
   397  001F                     # 1257 "C:\Program Files (x86)\Microchip\xc8\v2.00\pic\include\pic16f877a.h"
   398                           OPTION_REG equ 081h ;# 
   399  0081                     # 1327 "C:\Program Files (x86)\Microchip\xc8\v2.00\pic\include\pic16f877a.h"
   400                           TRISA equ 085h ;# 
   401  0085                     # 1377 "C:\Program Files (x86)\Microchip\xc8\v2.00\pic\include\pic16f877a.h"
   402                           TRISB equ 086h ;# 
   403  0086                     # 1439 "C:\Program Files (x86)\Microchip\xc8\v2.00\pic\include\pic16f877a.h"
   404                           TRISC equ 087h ;# 
   405  0087                     # 1501 "C:\Program Files (x86)\Microchip\xc8\v2.00\pic\include\pic16f877a.h"
   406                           TRISD equ 088h ;# 
   407  0088                     # 1563 "C:\Program Files (x86)\Microchip\xc8\v2.00\pic\include\pic16f877a.h"
   408                           TRISE equ 089h ;# 
   409  0089                     # 1620 "C:\Program Files (x86)\Microchip\xc8\v2.00\pic\include\pic16f877a.h"
   410                           PIE1 equ 08Ch ;# 
   411  008C                     # 1682 "C:\Program Files (x86)\Microchip\xc8\v2.00\pic\include\pic16f877a.h"
   412                           PIE2 equ 08Dh ;# 
   413  008D                     # 1722 "C:\Program Files (x86)\Microchip\xc8\v2.00\pic\include\pic16f877a.h"
   414                           PCON equ 08Eh ;# 
   415  008E                     # 1756 "C:\Program Files (x86)\Microchip\xc8\v2.00\pic\include\pic16f877a.h"
   416                           SSPCON2 equ 091h ;# 
   417  0091                     # 1818 "C:\Program Files (x86)\Microchip\xc8\v2.00\pic\include\pic16f877a.h"
   418                           PR2 equ 092h ;# 
   419  0092                     # 1825 "C:\Program Files (x86)\Microchip\xc8\v2.00\pic\include\pic16f877a.h"
   420                           SSPADD equ 093h ;# 
   421  0093                     # 1832 "C:\Program Files (x86)\Microchip\xc8\v2.00\pic\include\pic16f877a.h"
   422                           SSPSTAT equ 094h ;# 
   423  0094                     # 2001 "C:\Program Files (x86)\Microchip\xc8\v2.00\pic\include\pic16f877a.h"
   424                           TXSTA equ 098h ;# 
   425  0098                     # 2082 "C:\Program Files (x86)\Microchip\xc8\v2.00\pic\include\pic16f877a.h"
   426                           SPBRG equ 099h ;# 
   427  0099                     # 2089 "C:\Program Files (x86)\Microchip\xc8\v2.00\pic\include\pic16f877a.h"
   428                           CMCON equ 09Ch ;# 
   429  009C                     # 2159 "C:\Program Files (x86)\Microchip\xc8\v2.00\pic\include\pic16f877a.h"
   430                           CVRCON equ 09Dh ;# 
   431  009D                     # 2224 "C:\Program Files (x86)\Microchip\xc8\v2.00\pic\include\pic16f877a.h"
   432                           ADRESL equ 09Eh ;# 
   433  009E                     # 2231 "C:\Program Files (x86)\Microchip\xc8\v2.00\pic\include\pic16f877a.h"
   434                           ADCON1 equ 09Fh ;# 
   435  009F                     # 2290 "C:\Program Files (x86)\Microchip\xc8\v2.00\pic\include\pic16f877a.h"
   436                           EEDATA equ 010Ch ;# 
   437  010C                     # 2297 "C:\Program Files (x86)\Microchip\xc8\v2.00\pic\include\pic16f877a.h"
   438                           EEADR equ 010Dh ;# 
   439  010D                     # 2304 "C:\Program Files (x86)\Microchip\xc8\v2.00\pic\include\pic16f877a.h"
   440                           EEDATH equ 010Eh ;# 
   441  010E                     # 2311 "C:\Program Files (x86)\Microchip\xc8\v2.00\pic\include\pic16f877a.h"
   442                           EEADRH equ 010Fh ;# 
   443  010F                     # 2318 "C:\Program Files (x86)\Microchip\xc8\v2.00\pic\include\pic16f877a.h"
   444                           EECON1 equ 018Ch ;# 
   445  018C                     # 2363 "C:\Program Files (x86)\Microchip\xc8\v2.00\pic\include\pic16f877a.h"
   446                           EECON2 equ 018Dh ;# 
   447  018D                     # 54 "C:\Program Files (x86)\Microchip\xc8\v2.00\pic\include\pic16f877a.h"
   448                           INDF equ 00h ;# 
   449  0000                     # 61 "C:\Program Files (x86)\Microchip\xc8\v2.00\pic\include\pic16f877a.h"
   450                           TMR0 equ 01h ;# 
   451  0001                     # 68 "C:\Program Files (x86)\Microchip\xc8\v2.00\pic\include\pic16f877a.h"
   452                           PCL equ 02h ;# 
   453  0002                     # 75 "C:\Program Files (x86)\Microchip\xc8\v2.00\pic\include\pic16f877a.h"
   454                           STATUS equ 03h ;# 
   455  0003                     # 161 "C:\Program Files (x86)\Microchip\xc8\v2.00\pic\include\pic16f877a.h"
   456                           FSR equ 04h ;# 
   457  0004                     # 168 "C:\Program Files (x86)\Microchip\xc8\v2.00\pic\include\pic16f877a.h"
   458                           PORTA equ 05h ;# 
   459  0005                     # 218 "C:\Program Files (x86)\Microchip\xc8\v2.00\pic\include\pic16f877a.h"
   460                           PORTB equ 06h ;# 
   461  0006                     # 280 "C:\Program Files (x86)\Microchip\xc8\v2.00\pic\include\pic16f877a.h"
   462                           PORTC equ 07h ;# 
   463  0007                     # 342 "C:\Program Files (x86)\Microchip\xc8\v2.00\pic\include\pic16f877a.h"
   464                           PORTD equ 08h ;# 
   465  0008                     # 404 "C:\Program Files (x86)\Microchip\xc8\v2.00\pic\include\pic16f877a.h"
   466                           PORTE equ 09h ;# 
   467  0009                     # 436 "C:\Program Files (x86)\Microchip\xc8\v2.00\pic\include\pic16f877a.h"
   468                           PCLATH equ 0Ah ;# 
   469  000A                     # 456 "C:\Program Files (x86)\Microchip\xc8\v2.00\pic\include\pic16f877a.h"
   470                           INTCON equ 0Bh ;# 
   471  000B                     # 534 "C:\Program Files (x86)\Microchip\xc8\v2.00\pic\include\pic16f877a.h"
   472                           PIR1 equ 0Ch ;# 
   473  000C                     # 596 "C:\Program Files (x86)\Microchip\xc8\v2.00\pic\include\pic16f877a.h"
   474                           PIR2 equ 0Dh ;# 
   475  000D                     # 636 "C:\Program Files (x86)\Microchip\xc8\v2.00\pic\include\pic16f877a.h"
   476                           TMR1 equ 0Eh ;# 
   477  000E                     # 643 "C:\Program Files (x86)\Microchip\xc8\v2.00\pic\include\pic16f877a.h"
   478                           TMR1L equ 0Eh ;# 
   479  000E                     # 650 "C:\Program Files (x86)\Microchip\xc8\v2.00\pic\include\pic16f877a.h"
   480                           TMR1H equ 0Fh ;# 
   481  000F                     # 657 "C:\Program Files (x86)\Microchip\xc8\v2.00\pic\include\pic16f877a.h"
   482                           T1CON equ 010h ;# 
   483  0010                     # 732 "C:\Program Files (x86)\Microchip\xc8\v2.00\pic\include\pic16f877a.h"
   484                           TMR2 equ 011h ;# 
   485  0011                     # 739 "C:\Program Files (x86)\Microchip\xc8\v2.00\pic\include\pic16f877a.h"
   486                           T2CON equ 012h ;# 
   487  0012                     # 810 "C:\Program Files (x86)\Microchip\xc8\v2.00\pic\include\pic16f877a.h"
   488                           SSPBUF equ 013h ;# 
   489  0013                     # 817 "C:\Program Files (x86)\Microchip\xc8\v2.00\pic\include\pic16f877a.h"
   490                           SSPCON equ 014h ;# 
   491  0014                     # 887 "C:\Program Files (x86)\Microchip\xc8\v2.00\pic\include\pic16f877a.h"
   492                           CCPR1 equ 015h ;# 
   493  0015                     # 894 "C:\Program Files (x86)\Microchip\xc8\v2.00\pic\include\pic16f877a.h"
   494                           CCPR1L equ 015h ;# 
   495  0015                     # 901 "C:\Program Files (x86)\Microchip\xc8\v2.00\pic\include\pic16f877a.h"
   496                           CCPR1H equ 016h ;# 
   497  0016                     # 908 "C:\Program Files (x86)\Microchip\xc8\v2.00\pic\include\pic16f877a.h"
   498                           CCP1CON equ 017h ;# 
   499  0017                     # 966 "C:\Program Files (x86)\Microchip\xc8\v2.00\pic\include\pic16f877a.h"
   500                           RCSTA equ 018h ;# 
   501  0018                     # 1061 "C:\Program Files (x86)\Microchip\xc8\v2.00\pic\include\pic16f877a.h"
   502                           TXREG equ 019h ;# 
   503  0019                     # 1068 "C:\Program Files (x86)\Microchip\xc8\v2.00\pic\include\pic16f877a.h"
   504                           RCREG equ 01Ah ;# 
   505  001A                     # 1075 "C:\Program Files (x86)\Microchip\xc8\v2.00\pic\include\pic16f877a.h"
   506                           CCPR2 equ 01Bh ;# 
   507  001B                     # 1082 "C:\Program Files (x86)\Microchip\xc8\v2.00\pic\include\pic16f877a.h"
   508                           CCPR2L equ 01Bh ;# 
   509  001B                     # 1089 "C:\Program Files (x86)\Microchip\xc8\v2.00\pic\include\pic16f877a.h"
   510                           CCPR2H equ 01Ch ;# 
   511  001C                     # 1096 "C:\Program Files (x86)\Microchip\xc8\v2.00\pic\include\pic16f877a.h"
   512                           CCP2CON equ 01Dh ;# 
   513  001D                     # 1154 "C:\Program Files (x86)\Microchip\xc8\v2.00\pic\include\pic16f877a.h"
   514                           ADRESH equ 01Eh ;# 
   515  001E                     # 1161 "C:\Program Files (x86)\Microchip\xc8\v2.00\pic\include\pic16f877a.h"
   516                           ADCON0 equ 01Fh ;# 
   517  001F                     # 1257 "C:\Program Files (x86)\Microchip\xc8\v2.00\pic\include\pic16f877a.h"
   518                           OPTION_REG equ 081h ;# 
   519  0081                     # 1327 "C:\Program Files (x86)\Microchip\xc8\v2.00\pic\include\pic16f877a.h"
   520                           TRISA equ 085h ;# 
   521  0085                     # 1377 "C:\Program Files (x86)\Microchip\xc8\v2.00\pic\include\pic16f877a.h"
   522                           TRISB equ 086h ;# 
   523  0086                     # 1439 "C:\Program Files (x86)\Microchip\xc8\v2.00\pic\include\pic16f877a.h"
   524                           TRISC equ 087h ;# 
   525  0087                     # 1501 "C:\Program Files (x86)\Microchip\xc8\v2.00\pic\include\pic16f877a.h"
   526                           TRISD equ 088h ;# 
   527  0088                     # 1563 "C:\Program Files (x86)\Microchip\xc8\v2.00\pic\include\pic16f877a.h"
   528                           TRISE equ 089h ;# 
   529  0089                     # 1620 "C:\Program Files (x86)\Microchip\xc8\v2.00\pic\include\pic16f877a.h"
   530                           PIE1 equ 08Ch ;# 
   531  008C                     # 1682 "C:\Program Files (x86)\Microchip\xc8\v2.00\pic\include\pic16f877a.h"
   532                           PIE2 equ 08Dh ;# 
   533  008D                     # 1722 "C:\Program Files (x86)\Microchip\xc8\v2.00\pic\include\pic16f877a.h"
   534                           PCON equ 08Eh ;# 
   535  008E                     # 1756 "C:\Program Files (x86)\Microchip\xc8\v2.00\pic\include\pic16f877a.h"
   536                           SSPCON2 equ 091h ;# 
   537  0091                     # 1818 "C:\Program Files (x86)\Microchip\xc8\v2.00\pic\include\pic16f877a.h"
   538                           PR2 equ 092h ;# 
   539  0092                     # 1825 "C:\Program Files (x86)\Microchip\xc8\v2.00\pic\include\pic16f877a.h"
   540                           SSPADD equ 093h ;# 
   541  0093                     # 1832 "C:\Program Files (x86)\Microchip\xc8\v2.00\pic\include\pic16f877a.h"
   542                           SSPSTAT equ 094h ;# 
   543  0094                     # 2001 "C:\Program Files (x86)\Microchip\xc8\v2.00\pic\include\pic16f877a.h"
   544                           TXSTA equ 098h ;# 
   545  0098                     # 2082 "C:\Program Files (x86)\Microchip\xc8\v2.00\pic\include\pic16f877a.h"
   546                           SPBRG equ 099h ;# 
   547  0099                     # 2089 "C:\Program Files (x86)\Microchip\xc8\v2.00\pic\include\pic16f877a.h"
   548                           CMCON equ 09Ch ;# 
   549  009C                     # 2159 "C:\Program Files (x86)\Microchip\xc8\v2.00\pic\include\pic16f877a.h"
   550                           CVRCON equ 09Dh ;# 
   551  009D                     # 2224 "C:\Program Files (x86)\Microchip\xc8\v2.00\pic\include\pic16f877a.h"
   552                           ADRESL equ 09Eh ;# 
   553  009E                     # 2231 "C:\Program Files (x86)\Microchip\xc8\v2.00\pic\include\pic16f877a.h"
   554                           ADCON1 equ 09Fh ;# 
   555  009F                     # 2290 "C:\Program Files (x86)\Microchip\xc8\v2.00\pic\include\pic16f877a.h"
   556                           EEDATA equ 010Ch ;# 
   557  010C                     # 2297 "C:\Program Files (x86)\Microchip\xc8\v2.00\pic\include\pic16f877a.h"
   558                           EEADR equ 010Dh ;# 
   559  010D                     # 2304 "C:\Program Files (x86)\Microchip\xc8\v2.00\pic\include\pic16f877a.h"
   560                           EEDATH equ 010Eh ;# 
   561  010E                     # 2311 "C:\Program Files (x86)\Microchip\xc8\v2.00\pic\include\pic16f877a.h"
   562                           EEADRH equ 010Fh ;# 
   563  010F                     # 2318 "C:\Program Files (x86)\Microchip\xc8\v2.00\pic\include\pic16f877a.h"
   564                           EECON1 equ 018Ch ;# 
   565  018C                     # 2363 "C:\Program Files (x86)\Microchip\xc8\v2.00\pic\include\pic16f877a.h"
   566                           EECON2 equ 018Dh ;# 
   567  018D                     # 54 "C:\Program Files (x86)\Microchip\xc8\v2.00\pic\include\pic16f877a.h"
   568                           INDF equ 00h ;# 
   569  0000                     # 61 "C:\Program Files (x86)\Microchip\xc8\v2.00\pic\include\pic16f877a.h"
   570                           TMR0 equ 01h ;# 
   571  0001                     # 68 "C:\Program Files (x86)\Microchip\xc8\v2.00\pic\include\pic16f877a.h"
   572                           PCL equ 02h ;# 
   573  0002                     # 75 "C:\Program Files (x86)\Microchip\xc8\v2.00\pic\include\pic16f877a.h"
   574                           STATUS equ 03h ;# 
   575  0003                     # 161 "C:\Program Files (x86)\Microchip\xc8\v2.00\pic\include\pic16f877a.h"
   576                           FSR equ 04h ;# 
   577  0004                     # 168 "C:\Program Files (x86)\Microchip\xc8\v2.00\pic\include\pic16f877a.h"
   578                           PORTA equ 05h ;# 
   579  0005                     # 218 "C:\Program Files (x86)\Microchip\xc8\v2.00\pic\include\pic16f877a.h"
   580                           PORTB equ 06h ;# 
   581  0006                     # 280 "C:\Program Files (x86)\Microchip\xc8\v2.00\pic\include\pic16f877a.h"
   582                           PORTC equ 07h ;# 
   583  0007                     # 342 "C:\Program Files (x86)\Microchip\xc8\v2.00\pic\include\pic16f877a.h"
   584                           PORTD equ 08h ;# 
   585  0008                     # 404 "C:\Program Files (x86)\Microchip\xc8\v2.00\pic\include\pic16f877a.h"
   586                           PORTE equ 09h ;# 
   587  0009                     # 436 "C:\Program Files (x86)\Microchip\xc8\v2.00\pic\include\pic16f877a.h"
   588                           PCLATH equ 0Ah ;# 
   589  000A                     # 456 "C:\Program Files (x86)\Microchip\xc8\v2.00\pic\include\pic16f877a.h"
   590                           INTCON equ 0Bh ;# 
   591  000B                     # 534 "C:\Program Files (x86)\Microchip\xc8\v2.00\pic\include\pic16f877a.h"
   592                           PIR1 equ 0Ch ;# 
   593  000C                     # 596 "C:\Program Files (x86)\Microchip\xc8\v2.00\pic\include\pic16f877a.h"
   594                           PIR2 equ 0Dh ;# 
   595  000D                     # 636 "C:\Program Files (x86)\Microchip\xc8\v2.00\pic\include\pic16f877a.h"
   596                           TMR1 equ 0Eh ;# 
   597  000E                     # 643 "C:\Program Files (x86)\Microchip\xc8\v2.00\pic\include\pic16f877a.h"
   598                           TMR1L equ 0Eh ;# 
   599  000E                     # 650 "C:\Program Files (x86)\Microchip\xc8\v2.00\pic\include\pic16f877a.h"
   600                           TMR1H equ 0Fh ;# 
   601  000F                     # 657 "C:\Program Files (x86)\Microchip\xc8\v2.00\pic\include\pic16f877a.h"
   602                           T1CON equ 010h ;# 
   603  0010                     # 732 "C:\Program Files (x86)\Microchip\xc8\v2.00\pic\include\pic16f877a.h"
   604                           TMR2 equ 011h ;# 
   605  0011                     # 739 "C:\Program Files (x86)\Microchip\xc8\v2.00\pic\include\pic16f877a.h"
   606                           T2CON equ 012h ;# 
   607  0012                     # 810 "C:\Program Files (x86)\Microchip\xc8\v2.00\pic\include\pic16f877a.h"
   608                           SSPBUF equ 013h ;# 
   609  0013                     # 817 "C:\Program Files (x86)\Microchip\xc8\v2.00\pic\include\pic16f877a.h"
   610                           SSPCON equ 014h ;# 
   611  0014                     # 887 "C:\Program Files (x86)\Microchip\xc8\v2.00\pic\include\pic16f877a.h"
   612                           CCPR1 equ 015h ;# 
   613  0015                     # 894 "C:\Program Files (x86)\Microchip\xc8\v2.00\pic\include\pic16f877a.h"
   614                           CCPR1L equ 015h ;# 
   615  0015                     # 901 "C:\Program Files (x86)\Microchip\xc8\v2.00\pic\include\pic16f877a.h"
   616                           CCPR1H equ 016h ;# 
   617  0016                     # 908 "C:\Program Files (x86)\Microchip\xc8\v2.00\pic\include\pic16f877a.h"
   618                           CCP1CON equ 017h ;# 
   619  0017                     # 966 "C:\Program Files (x86)\Microchip\xc8\v2.00\pic\include\pic16f877a.h"
   620                           RCSTA equ 018h ;# 
   621  0018                     # 1061 "C:\Program Files (x86)\Microchip\xc8\v2.00\pic\include\pic16f877a.h"
   622                           TXREG equ 019h ;# 
   623  0019                     # 1068 "C:\Program Files (x86)\Microchip\xc8\v2.00\pic\include\pic16f877a.h"
   624                           RCREG equ 01Ah ;# 
   625  001A                     # 1075 "C:\Program Files (x86)\Microchip\xc8\v2.00\pic\include\pic16f877a.h"
   626                           CCPR2 equ 01Bh ;# 
   627  001B                     # 1082 "C:\Program Files (x86)\Microchip\xc8\v2.00\pic\include\pic16f877a.h"
   628                           CCPR2L equ 01Bh ;# 
   629  001B                     # 1089 "C:\Program Files (x86)\Microchip\xc8\v2.00\pic\include\pic16f877a.h"
   630                           CCPR2H equ 01Ch ;# 
   631  001C                     # 1096 "C:\Program Files (x86)\Microchip\xc8\v2.00\pic\include\pic16f877a.h"
   632                           CCP2CON equ 01Dh ;# 
   633  001D                     # 1154 "C:\Program Files (x86)\Microchip\xc8\v2.00\pic\include\pic16f877a.h"
   634                           ADRESH equ 01Eh ;# 
   635  001E                     # 1161 "C:\Program Files (x86)\Microchip\xc8\v2.00\pic\include\pic16f877a.h"
   636                           ADCON0 equ 01Fh ;# 
   637  001F                     # 1257 "C:\Program Files (x86)\Microchip\xc8\v2.00\pic\include\pic16f877a.h"
   638                           OPTION_REG equ 081h ;# 
   639  0081                     # 1327 "C:\Program Files (x86)\Microchip\xc8\v2.00\pic\include\pic16f877a.h"
   640                           TRISA equ 085h ;# 
   641  0085                     # 1377 "C:\Program Files (x86)\Microchip\xc8\v2.00\pic\include\pic16f877a.h"
   642                           TRISB equ 086h ;# 
   643  0086                     # 1439 "C:\Program Files (x86)\Microchip\xc8\v2.00\pic\include\pic16f877a.h"
   644                           TRISC equ 087h ;# 
   645  0087                     # 1501 "C:\Program Files (x86)\Microchip\xc8\v2.00\pic\include\pic16f877a.h"
   646                           TRISD equ 088h ;# 
   647  0088                     # 1563 "C:\Program Files (x86)\Microchip\xc8\v2.00\pic\include\pic16f877a.h"
   648                           TRISE equ 089h ;# 
   649  0089                     # 1620 "C:\Program Files (x86)\Microchip\xc8\v2.00\pic\include\pic16f877a.h"
   650                           PIE1 equ 08Ch ;# 
   651  008C                     # 1682 "C:\Program Files (x86)\Microchip\xc8\v2.00\pic\include\pic16f877a.h"
   652                           PIE2 equ 08Dh ;# 
   653  008D                     # 1722 "C:\Program Files (x86)\Microchip\xc8\v2.00\pic\include\pic16f877a.h"
   654                           PCON equ 08Eh ;# 
   655  008E                     # 1756 "C:\Program Files (x86)\Microchip\xc8\v2.00\pic\include\pic16f877a.h"
   656                           SSPCON2 equ 091h ;# 
   657  0091                     # 1818 "C:\Program Files (x86)\Microchip\xc8\v2.00\pic\include\pic16f877a.h"
   658                           PR2 equ 092h ;# 
   659  0092                     # 1825 "C:\Program Files (x86)\Microchip\xc8\v2.00\pic\include\pic16f877a.h"
   660                           SSPADD equ 093h ;# 
   661  0093                     # 1832 "C:\Program Files (x86)\Microchip\xc8\v2.00\pic\include\pic16f877a.h"
   662                           SSPSTAT equ 094h ;# 
   663  0094                     # 2001 "C:\Program Files (x86)\Microchip\xc8\v2.00\pic\include\pic16f877a.h"
   664                           TXSTA equ 098h ;# 
   665  0098                     # 2082 "C:\Program Files (x86)\Microchip\xc8\v2.00\pic\include\pic16f877a.h"
   666                           SPBRG equ 099h ;# 
   667  0099                     # 2089 "C:\Program Files (x86)\Microchip\xc8\v2.00\pic\include\pic16f877a.h"
   668                           CMCON equ 09Ch ;# 
   669  009C                     # 2159 "C:\Program Files (x86)\Microchip\xc8\v2.00\pic\include\pic16f877a.h"
   670                           CVRCON equ 09Dh ;# 
   671  009D                     # 2224 "C:\Program Files (x86)\Microchip\xc8\v2.00\pic\include\pic16f877a.h"
   672                           ADRESL equ 09Eh ;# 
   673  009E                     # 2231 "C:\Program Files (x86)\Microchip\xc8\v2.00\pic\include\pic16f877a.h"
   674                           ADCON1 equ 09Fh ;# 
   675  009F                     # 2290 "C:\Program Files (x86)\Microchip\xc8\v2.00\pic\include\pic16f877a.h"
   676                           EEDATA equ 010Ch ;# 
   677  010C                     # 2297 "C:\Program Files (x86)\Microchip\xc8\v2.00\pic\include\pic16f877a.h"
   678                           EEADR equ 010Dh ;# 
   679  010D                     # 2304 "C:\Program Files (x86)\Microchip\xc8\v2.00\pic\include\pic16f877a.h"
   680                           EEDATH equ 010Eh ;# 
   681  010E                     # 2311 "C:\Program Files (x86)\Microchip\xc8\v2.00\pic\include\pic16f877a.h"
   682                           EEADRH equ 010Fh ;# 
   683  010F                     # 2318 "C:\Program Files (x86)\Microchip\xc8\v2.00\pic\include\pic16f877a.h"
   684                           EECON1 equ 018Ch ;# 
   685  018C                     # 2363 "C:\Program Files (x86)\Microchip\xc8\v2.00\pic\include\pic16f877a.h"
   686                           EECON2 equ 018Dh ;# 
   687  018D                     	FNCALL	_main,_Initialization
   688                           	FNCALL	_main,_loop
   689                           	FNCALL	_main,_setup
   690                           	FNCALL	_setup,_PIDSetSampleTime
   691                           	FNCALL	_setup,_lcdBegin
   692                           	FNCALL	_setup,_lcdPrint
   693                           	FNCALL	_setup,_lcdSetCursor
   694                           	FNCALL	_lcdBegin,_WriteInstruction
   695                           	FNCALL	_lcdBegin,_delay
   696                           	FNCALL	_lcdBegin,_pinMode
   697                           	FNCALL	_loop,_EventCounter
   698                           	FNCALL	_loop,_lcdPrint
   699                           	FNCALL	_loop,_lcdSetCursor
   700                           	FNCALL	_loop,_sprintf
   701                           	FNCALL	_sprintf,___lwdiv
   702                           	FNCALL	_sprintf,___lwmod
   703                           	FNCALL	_lcdSetCursor,_WriteInstruction
   704                           	FNCALL	_WriteInstruction,_ByteByNibble
   705                           	FNCALL	_WriteInstruction,_delay
   706                           	FNCALL	_WriteInstruction,_digitalWrite
   707                           	FNCALL	_lcdPrint,_lcdWrite
   708                           	FNCALL	_lcdWrite,_WriteData
   709                           	FNCALL	_lcdWrite,_delay
   710                           	FNCALL	_WriteData,_ByteByNibble
   711                           	FNCALL	_WriteData,_delay
   712                           	FNCALL	_WriteData,_digitalWrite
   713                           	FNCALL	_ByteByNibble,_digitalWrite
   714                           	FNCALL	_Initialization,_PWMConfiguration
   715                           	FNROOT	_main
   716                           	global	_dpowers
   717                           psect	strings,class=STRING,delta=2,noexec
   718                           global __pstrings
   719                           __pstrings:
   720  0800                     stringtab:
   721  0800                     	global    __stringtab
   722                           __stringtab:
   723  0800                     ;	String table - string pointers are 1 byte each
   724                           	btfsc	(btemp+1),7
   725  0800  1BFF               	ljmp	stringcode
   726  0801  280A               	bcf	status,7
   727  0802  1383               	btfsc	(btemp+1),0
   728  0803  187F               	bsf	status,7
   729  0804  1783               	movf	indf,w
   730  0805  0800               	incf fsr
   731  0806  0A84               skipnz
   732  0807  1903               incf btemp+1
   733  0808  0AFF               	return
   734  0809  0008               stringcode:stringdir:
   735  080A                     movlw high(stringdir)
      + 080A                     stringdir:	
   736  080A  3008               movwf pclath
   737  080B  008A               movf fsr,w
   738  080C  0804               incf fsr
   739  080D  0A84               	addwf pc
   740  080E  0782               	global __stringbase
   741                           __stringbase:
   742  080F                     	retlw	0
   743  080F  3400               psect	strings
   744                           	global    __end_of__stringtab
   745                           __end_of__stringtab:
   746  0810                     	file	"C:\Program Files (x86)\Microchip\xc8\v2.00\pic\sources\c90\common\doprnt.c"
   747                           	line	358
   748                           _dpowers:
   749  0810                     	retlw	01h
   750  0810  3401               	retlw	0
   751  0811  3400               
   752                           	retlw	0Ah
   753  0812  340A               	retlw	0
   754  0813  3400               
   755                           	retlw	064h
   756  0814  3464               	retlw	0
   757  0815  3400               
   758                           	retlw	0E8h
   759  0816  34E8               	retlw	03h
   760  0817  3403               
   761                           	retlw	010h
   762  0818  3410               	retlw	027h
   763  0819  3427               
   764                           	global __end_of_dpowers
   765                           __end_of_dpowers:
   766  081A                     	global	_D7
   767                           psect	strings
   768                           	file	"application.c"
   769                           	line	12
   770                           _D7:
   771  081A                     	retlw	013h
   772  081A  3413               	global __end_of_D7
   773                           __end_of_D7:
   774  081B                     	global	_D6
   775                           psect	strings
   776                           	file	"application.c"
   777                           	line	11
   778                           _D6:
   779  081B                     	retlw	012h
   780  081B  3412               	global __end_of_D6
   781                           __end_of_D6:
   782  081C                     	global	_D5
   783                           psect	strings
   784                           	file	"application.c"
   785                           	line	10
   786                           _D5:
   787  081C                     	retlw	011h
   788  081C  3411               	global __end_of_D5
   789                           __end_of_D5:
   790  081D                     	global	_D4
   791                           psect	strings
   792                           	file	"application.c"
   793                           	line	9
   794                           _D4:
   795  081D                     	retlw	010h
   796  081D  3410               	global __end_of_D4
   797                           __end_of_D4:
   798  081E                     	global	_RnW
   799                           psect	strings
   800                           	file	"application.c"
   801                           	line	8
   802                           _RnW:
   803  081E                     	retlw	019h
   804  081E  3419               	global __end_of_RnW
   805                           __end_of_RnW:
   806  081F                     	global	_EN
   807                           psect	strings
   808                           	file	"application.c"
   809                           	line	7
   810                           _EN:
   811  081F                     	retlw	015h
   812  081F  3415               	global __end_of_EN
   813                           __end_of_EN:
   814  0820                     	global	_RS
   815                           psect	strings
   816                           	file	"application.c"
   817                           	line	6
   818                           _RS:
   819  0820                     	retlw	014h
   820  0820  3414               	global __end_of_RS
   821                           __end_of_RS:
   822  0821                     	global	_dpowers
   823                           	global	_D7
   824                           	global	_D6
   825                           	global	_D5
   826                           	global	_D4
   827                           	global	_RnW
   828                           	global	_EN
   829                           	global	_RS
   830                           	global	_PID
   831                           	global	_dt
   832                           	global	_Last
   833                           	global	_Now
   834                           	global	_dTime
   835                           	global	_ScreenROW
   836                           	global	_d7Pin
   837                           psect	nvBANK0,class=BANK0,space=1,noexec
   838                           global __pnvBANK0
   839                           __pnvBANK0:
   840  0056                     _d7Pin:
   841  0056                            ds      1
   842  0056                     
   843                           	global	_d6Pin
   844                           _d6Pin:
   845  0057                            ds      1
   846  0057                     
   847                           	global	_d5Pin
   848                           _d5Pin:
   849  0058                            ds      1
   850  0058                     
   851                           	global	_d4Pin
   852                           _d4Pin:
   853  0059                            ds      1
   854  0059                     
   855                           	global	_RWPin
   856                           _RWPin:
   857  005A                            ds      1
   858  005A                     
   859                           	global	_ENPin
   860                           _ENPin:
   861  005B                            ds      1
   862  005B                     
   863                           	global	_RSPin
   864                           _RSPin:
   865  005C                            ds      1
   866  005C                     
   867                           	global	_TMR0
   868                           _TMR0	set	0x1
   869  0001                     	global	_RCREG
   870                           _RCREG	set	0x1A
   871  001A                     	global	_TXREG
   872                           _TXREG	set	0x19
   873  0019                     	global	_PORTEbits
   874                           _PORTEbits	set	0x9
   875  0009                     	global	_ADRESH
   876                           _ADRESH	set	0x1E
   877  001E                     	global	_ADCON0bits
   878                           _ADCON0bits	set	0x1F
   879  001F                     	global	_PORTAbits
   880                           _PORTAbits	set	0x5
   881  0005                     	global	_PORTDbits
   882                           _PORTDbits	set	0x8
   883  0008                     	global	_PORTBbits
   884                           _PORTBbits	set	0x6
   885  0006                     	global	_PORTCbits
   886                           _PORTCbits	set	0x7
   887  0007                     	global	_CCP2CON
   888                           _CCP2CON	set	0x1D
   889  001D                     	global	_CCP1CON
   890                           _CCP1CON	set	0x17
   891  0017                     	global	_CCPR1L
   892                           _CCPR1L	set	0x15
   893  0015                     	global	_CCPR2L
   894                           _CCPR2L	set	0x1B
   895  001B                     	global	_T2CON
   896                           _T2CON	set	0x12
   897  0012                     	global	_PORTE
   898                           _PORTE	set	0x9
   899  0009                     	global	_PORTC
   900                           _PORTC	set	0x7
   901  0007                     	global	_PORTB
   902                           _PORTB	set	0x6
   903  0006                     	global	_ADCON0
   904                           _ADCON0	set	0x1F
   905  001F                     	global	_TMR0IF
   906                           _TMR0IF	set	0x5A
   907  005A                     	global	_RCIF
   908                           _RCIF	set	0x65
   909  0065                     	global	_TXIF
   910                           _TXIF	set	0x64
   911  0064                     	global	_OERR
   912                           _OERR	set	0xC1
   913  00C1                     	global	_FERR
   914                           _FERR	set	0xC2
   915  00C2                     	global	_CREN
   916                           _CREN	set	0xC4
   917  00C4                     	global	_SPEN
   918                           _SPEN	set	0xC7
   919  00C7                     	global	_CCP1Y
   920                           _CCP1Y	set	0xBC
   921  00BC                     	global	_CCP1X
   922                           _CCP1X	set	0xBD
   923  00BD                     	global	_CCP2Y
   924                           _CCP2Y	set	0xEC
   925  00EC                     	global	_CCP2X
   926                           _CCP2X	set	0xED
   927  00ED                     	global	_OPTION_REG
   928                           _OPTION_REG	set	0x81
   929  0081                     	global	_SPBRG
   930                           _SPBRG	set	0x99
   931  0099                     	global	_ADRESL
   932                           _ADRESL	set	0x9E
   933  009E                     	global	_TRISAbits
   934                           _TRISAbits	set	0x85
   935  0085                     	global	_TRISDbits
   936                           _TRISDbits	set	0x88
   937  0088                     	global	_TRISBbits
   938                           _TRISBbits	set	0x86
   939  0086                     	global	_TRISCbits
   940                           _TRISCbits	set	0x87
   941  0087                     	global	_PR2
   942                           _PR2	set	0x92
   943  0092                     	global	_TRISE
   944                           _TRISE	set	0x89
   945  0089                     	global	_TRISC
   946                           _TRISC	set	0x87
   947  0087                     	global	_TRISB
   948                           _TRISB	set	0x86
   949  0086                     	global	_ADCON1
   950                           _ADCON1	set	0x9F
   951  009F                     	global	_TRMT
   952                           _TRMT	set	0x4C1
   953  04C1                     	global	_TXEN
   954                           _TXEN	set	0x4C5
   955  04C5                     	global	_TRISC6
   956                           _TRISC6	set	0x43E
   957  043E                     	global	_TRISC7
   958                           _TRISC7	set	0x43F
   959  043F                     	global	_SYNC
   960                           _SYNC	set	0x4C4
   961  04C4                     	global	_BRGH
   962                           _BRGH	set	0x4C2
   963  04C2                     psect	strings
   964                           	
   965                           STR_3:	
   966  0821                     	retlw	32	;' '
   967  0821  3420               	retlw	32	;' '
   968  0822  3420               	retlw	32	;' '
   969  0823  3420               	retlw	32	;' '
   970  0824  3420               	retlw	32	;' '
   971  0825  3420               	retlw	32	;' '
   972  0826  3420               	retlw	32	;' '
   973  0827  3420               	retlw	32	;' '
   974  0828  3420               	retlw	32	;' '
   975  0829  3420               	retlw	32	;' '
   976  082A  3420               	retlw	32	;' '
   977  082B  3420               	retlw	32	;' '
   978  082C  3420               	retlw	32	;' '
   979  082D  3420               	retlw	32	;' '
   980  082E  3420               	retlw	32	;' '
   981  082F  3420               	retlw	32	;' '
   982  0830  3420               	retlw	0
   983  0831  3400               psect	strings
   984                           	
   985                           STR_1:	
   986  0832                     	retlw	80	;'P'
   987  0832  3450               	retlw	73	;'I'
   988  0833  3449               	retlw	68	;'D'
   989  0834  3444               	retlw	32	;' '
   990  0835  3420               	retlw	67	;'C'
   991  0836  3443               	retlw	111	;'o'
   992  0837  346F               	retlw	110	;'n'
   993  0838  346E               	retlw	116	;'t'
   994  0839  3474               	retlw	114	;'r'
   995  083A  3472               	retlw	111	;'o'
   996  083B  346F               	retlw	108	;'l'
   997  083C  346C               	retlw	32	;' '
   998  083D  3420               	retlw	84	;'T'
   999  083E  3454               	retlw	101	;'e'
  1000  083F  3465               	retlw	115	;'s'
  1001  0840  3473               	retlw	116	;'t'
  1002  0841  3474               	retlw	0
  1003  0842  3400               psect	strings
  1004                           	
  1005                           STR_4:	
  1006  0843                     	retlw	84	;'T'
  1007  0843  3454               	retlw	105	;'i'
  1008  0844  3469               	retlw	109	;'m'
  1009  0845  346D               	retlw	101	;'e'
  1010  0846  3465               	retlw	61	;'='
  1011  0847  343D               	retlw	37	;'%'
  1012  0848  3425               	retlw	117	;'u'
  1013  0849  3475               	retlw	32	;' '
  1014  084A  3420               	retlw	0
  1015  084B  3400               psect	strings
  1016                           	
  1017                           STR_2:	
  1018  084C                     	retlw	78	;'N'
  1019  084C  344E               	retlw	79	;'O'
  1020  084D  344F               	retlw	87	;'W'
  1021  084E  3457               	retlw	61	;'='
  1022  084F  343D               	retlw	37	;'%'
  1023  0850  3425               	retlw	117	;'u'
  1024  0851  3475               	retlw	0
  1025  0852  3400               psect	strings
  1026                           ; #config settings
  1027                           global __CFG_FOSC$HS
  1028                           __CFG_FOSC$HS equ 0x0
  1029  0000                     global __CFG_WDTE$OFF
  1030                           __CFG_WDTE$OFF equ 0x0
  1031  0000                     global __CFG_PWRTE$OFF
  1032                           __CFG_PWRTE$OFF equ 0x0
  1033  0000                     global __CFG_BOREN$OFF
  1034                           __CFG_BOREN$OFF equ 0x0
  1035  0000                     global __CFG_LVP$ON
  1036                           __CFG_LVP$ON equ 0x0
  1037  0000                     global __CFG_CPD$OFF
  1038                           __CFG_CPD$OFF equ 0x0
  1039  0000                     global __CFG_WRT$OFF
  1040                           __CFG_WRT$OFF equ 0x0
  1041  0000                     global __CFG_CP$OFF
  1042                           __CFG_CP$OFF equ 0x0
  1043  0000                     	file	"C:\Users\c4810\AppData\Local\Temp\sk6s."
  1044                           	line	#
  1045                           psect cinit,class=CODE,delta=2
  1046                           global start_initialization
  1047                           start_initialization:
  1048  07F3                     
  1049                           global __initialization
  1050                           __initialization:
  1051  07F3                     psect	bssBANK0,class=BANK0,space=1,noexec
  1052                           global __pbssBANK0
  1053                           __pbssBANK0:
  1054  0020                     _PID:
  1055  0020                            ds      15
  1056  0020                     
  1057                           _dt:
  1058  002F                            ds      2
  1059  002F                     
  1060                           _Last:
  1061  0031                            ds      2
  1062  0031                     
  1063                           _Now:
  1064  0033                            ds      2
  1065  0033                     
  1066                           _dTime:
  1067  0035                            ds      2
  1068  0035                     
  1069                           _ScreenROW:
  1070  0037                            ds      16
  1071  0037                     
  1072                           	file	"C:\Users\c4810\AppData\Local\Temp\sk6s."
  1073                           	line	#
  1074                           psect clrtext,class=CODE,delta=2
  1075                           global clear_ram0
  1076                           ;	Called with FSR containing the base address, and
  1077                           ;	W with the last address+1
  1078                           clear_ram0:
  1079  0DBB                     	clrwdt			;clear the watchdog before getting into this loop
  1080  0DBB  0064               clrloop0:
  1081  0DBC                     	clrf	indf		;clear RAM location pointed to by FSR
  1082  0DBC  0180               	incf	fsr,f		;increment pointer
  1083  0DBD  0A84               	xorwf	fsr,w		;XOR with final address
  1084  0DBE  0604               	btfsc	status,2	;have we reached the end yet?
  1085  0DBF  1903               	retlw	0		;all done for this memory range, return
  1086  0DC0  3400               	xorwf	fsr,w		;XOR again to restore value
  1087  0DC1  0604               	goto	clrloop0		;do the next byte
  1088  0DC2  2DBC               
  1089                           ; Clear objects allocated to BANK0
  1090                           psect cinit,class=CODE,delta=2,merge=1
  1091                           	bcf	status, 7	;select IRP bank0
  1092  07F3  1383               	movlw	low(__pbssBANK0)
  1093  07F4  3020               	movwf	fsr
  1094  07F5  0084               	movlw	low((__pbssBANK0)+027h)
  1095  07F6  3047               	fcall	clear_ram0
  1096  07F7  120A  158A  25BB  120A  118A  psect cinit,class=CODE,delta=2,merge=1
  1097                           global end_of_initialization,__end_of__initialization
  1098                           
  1099                           ;End of C runtime variable initialization code
  1100                           
  1101                           end_of_initialization:
  1102  07FC                     __end_of__initialization:
  1103  07FC                     clrf status
  1104  07FC  0183               ljmp _main	;jump to C main() function
  1105  07FD  120A  158A  2DF6   psect	cstackCOMMON,class=COMMON,space=1,noexec
  1106                           global __pcstackCOMMON
  1107                           __pcstackCOMMON:
  1108  0070                     ?_PIDSetSampleTime:	; 1 bytes @ 0x0
  1109  0070                     ??_PIDSetSampleTime:	; 1 bytes @ 0x0
  1110  0070                     ?_Initialization:	; 1 bytes @ 0x0
  1111  0070                     ??_Initialization:	; 1 bytes @ 0x0
  1112  0070                     ?_PWMConfiguration:	; 1 bytes @ 0x0
  1113  0070                     ??_PWMConfiguration:	; 1 bytes @ 0x0
  1114  0070                     ?_delay:	; 1 bytes @ 0x0
  1115  0070                     ?_WriteInstruction:	; 1 bytes @ 0x0
  1116  0070                     ?_WriteData:	; 1 bytes @ 0x0
  1117  0070                     ?_ByteByNibble:	; 1 bytes @ 0x0
  1118  0070                     ?_setup:	; 1 bytes @ 0x0
  1119  0070                     ?_loop:	; 1 bytes @ 0x0
  1120  0070                     ?_pinMode:	; 1 bytes @ 0x0
  1121  0070                     ?_digitalWrite:	; 1 bytes @ 0x0
  1122  0070                     ?_lcdWrite:	; 1 bytes @ 0x0
  1123  0070                     	global	?_EventCounter
  1124                           ?_EventCounter:	; 2 bytes @ 0x0
  1125  0070                     ?_main:	; 2 bytes @ 0x0
  1126  0070                     	global	?___lwdiv
  1127                           ?___lwdiv:	; 2 bytes @ 0x0
  1128  0070                     	global	pinMode@mode
  1129                           pinMode@mode:	; 1 bytes @ 0x0
  1130  0070                     	global	digitalWrite@value
  1131                           digitalWrite@value:	; 1 bytes @ 0x0
  1132  0070                     	global	delay@milis
  1133                           delay@milis:	; 2 bytes @ 0x0
  1134  0070                     	global	___lwdiv@divisor
  1135                           ___lwdiv@divisor:	; 2 bytes @ 0x0
  1136  0070                     	ds	1
  1137  0070                     ??_pinMode:	; 1 bytes @ 0x1
  1138  0071                     ??_digitalWrite:	; 1 bytes @ 0x1
  1139  0071                     	global	PIDSetSampleTime@dt
  1140                           PIDSetSampleTime@dt:	; 1 bytes @ 0x1
  1141  0071                     	ds	1
  1142  0071                     ??_EventCounter:	; 1 bytes @ 0x2
  1143  0072                     ??_delay:	; 1 bytes @ 0x2
  1144  0072                     	global	___lwdiv@dividend
  1145                           ___lwdiv@dividend:	; 2 bytes @ 0x2
  1146  0072                     	ds	1
  1147  0072                     	global	pinMode@pin
  1148                           pinMode@pin:	; 1 bytes @ 0x3
  1149  0073                     	global	digitalWrite@pin
  1150                           digitalWrite@pin:	; 1 bytes @ 0x3
  1151  0073                     	global	delay@j
  1152                           delay@j:	; 2 bytes @ 0x3
  1153  0073                     	ds	1
  1154  0073                     ??_ByteByNibble:	; 1 bytes @ 0x4
  1155  0074                     ??___lwdiv:	; 1 bytes @ 0x4
  1156  0074                     	ds	1
  1157  0074                     	global	delay@i
  1158                           delay@i:	; 2 bytes @ 0x5
  1159  0075                     	global	___lwdiv@quotient
  1160                           ___lwdiv@quotient:	; 2 bytes @ 0x5
  1161  0075                     	ds	1
  1162  0075                     	global	ByteByNibble@NibbleValue
  1163                           ByteByNibble@NibbleValue:	; 1 bytes @ 0x6
  1164  0076                     	ds	1
  1165  0076                     ??_WriteInstruction:	; 1 bytes @ 0x7
  1166  0077                     ??_WriteData:	; 1 bytes @ 0x7
  1167  0077                     	global	___lwdiv@counter
  1168                           ___lwdiv@counter:	; 1 bytes @ 0x7
  1169  0077                     	ds	1
  1170  0077                     	global	?___lwmod
  1171                           ?___lwmod:	; 2 bytes @ 0x8
  1172  0078                     	global	___lwmod@divisor
  1173                           ___lwmod@divisor:	; 2 bytes @ 0x8
  1174  0078                     	ds	1
  1175  0078                     	global	WriteInstruction@LSNibble
  1176                           WriteInstruction@LSNibble:	; 1 bytes @ 0x9
  1177  0079                     	global	WriteData@LSNibble
  1178                           WriteData@LSNibble:	; 1 bytes @ 0x9
  1179  0079                     	ds	1
  1180  0079                     	global	WriteInstruction@instruction
  1181                           WriteInstruction@instruction:	; 1 bytes @ 0xA
  1182  007A                     	global	WriteData@data
  1183                           WriteData@data:	; 1 bytes @ 0xA
  1184  007A                     	global	___lwmod@dividend
  1185                           ___lwmod@dividend:	; 2 bytes @ 0xA
  1186  007A                     	ds	1
  1187  007A                     	global	WriteInstruction@MSNibble
  1188                           WriteInstruction@MSNibble:	; 1 bytes @ 0xB
  1189  007B                     	global	WriteData@MSNibble
  1190                           WriteData@MSNibble:	; 1 bytes @ 0xB
  1191  007B                     	ds	1
  1192  007B                     ??_lcdBegin:	; 1 bytes @ 0xC
  1193  007C                     ?_lcdSetCursor:	; 1 bytes @ 0xC
  1194  007C                     ??_lcdWrite:	; 1 bytes @ 0xC
  1195  007C                     ??___lwmod:	; 1 bytes @ 0xC
  1196  007C                     	global	lcdSetCursor@column
  1197                           lcdSetCursor@column:	; 1 bytes @ 0xC
  1198  007C                     	global	lcdWrite@data
  1199                           lcdWrite@data:	; 1 bytes @ 0xC
  1200  007C                     	ds	1
  1201  007C                     ??_lcdSetCursor:	; 1 bytes @ 0xD
  1202  007D                     	global	lcdBegin@RS
  1203                           lcdBegin@RS:	; 1 bytes @ 0xD
  1204  007D                     	global	___lwmod@counter
  1205                           ___lwmod@counter:	; 1 bytes @ 0xD
  1206  007D                     	ds	1
  1207  007D                     ??_main:	; 1 bytes @ 0xE
  1208  007E                     psect	cstackBANK0,class=BANK0,space=1,noexec
  1209                           global __pcstackBANK0
  1210                           __pcstackBANK0:
  1211  0047                     ?_lcdBegin:	; 1 bytes @ 0x0
  1212  0047                     ?_lcdPrint:	; 1 bytes @ 0x0
  1213  0047                     	global	?_sprintf
  1214                           ?_sprintf:	; 2 bytes @ 0x0
  1215  0047                     	global	lcdBegin@EN
  1216                           lcdBegin@EN:	; 1 bytes @ 0x0
  1217  0047                     	global	lcdSetCursor@row
  1218                           lcdSetCursor@row:	; 1 bytes @ 0x0
  1219  0047                     	global	sprintf@f
  1220                           sprintf@f:	; 1 bytes @ 0x0
  1221  0047                     	global	lcdPrint@string
  1222                           lcdPrint@string:	; 2 bytes @ 0x0
  1223  0047                     	ds	1
  1224  0047                     	global	lcdBegin@R_W
  1225                           lcdBegin@R_W:	; 1 bytes @ 0x1
  1226  0048                     	global	lcdSetCursor@location
  1227                           lcdSetCursor@location:	; 1 bytes @ 0x1
  1228  0048                     	ds	1
  1229  0048                     ??_lcdPrint:	; 1 bytes @ 0x2
  1230  0049                     	global	lcdBegin@d4
  1231                           lcdBegin@d4:	; 1 bytes @ 0x2
  1232  0049                     	ds	1
  1233  0049                     ??_sprintf:	; 1 bytes @ 0x3
  1234  004A                     	global	lcdBegin@d5
  1235                           lcdBegin@d5:	; 1 bytes @ 0x3
  1236  004A                     	ds	1
  1237  004A                     	global	lcdBegin@d6
  1238                           lcdBegin@d6:	; 1 bytes @ 0x4
  1239  004B                     	ds	1
  1240  004B                     	global	lcdBegin@d7
  1241                           lcdBegin@d7:	; 1 bytes @ 0x5
  1242  004C                     	global	lcdPrint@i
  1243                           lcdPrint@i:	; 2 bytes @ 0x5
  1244  004C                     	ds	1
  1245  004C                     	global	sprintf@flag
  1246                           sprintf@flag:	; 1 bytes @ 0x6
  1247  004D                     	ds	1
  1248  004D                     ??_setup:	; 1 bytes @ 0x7
  1249  004E                     	global	sprintf@ap
  1250                           sprintf@ap:	; 1 bytes @ 0x7
  1251  004E                     	ds	1
  1252  004E                     	global	sprintf@val
  1253                           sprintf@val:	; 2 bytes @ 0x8
  1254  004F                     	ds	2
  1255  004F                     	global	sprintf@prec
  1256                           sprintf@prec:	; 1 bytes @ 0xA
  1257  0051                     	ds	1
  1258  0051                     	global	sprintf@sp
  1259                           sprintf@sp:	; 1 bytes @ 0xB
  1260  0052                     	ds	1
  1261  0052                     	global	sprintf@c
  1262                           sprintf@c:	; 1 bytes @ 0xC
  1263  0053                     	ds	1
  1264  0053                     ??_loop:	; 1 bytes @ 0xD
  1265  0054                     	ds	2
  1266  0054                     ;!
  1267                           ;!Data Sizes:
  1268                           ;!    Strings     50
  1269                           ;!    Constant    17
  1270                           ;!    Data        0
  1271                           ;!    BSS         39
  1272                           ;!    Persistent  7
  1273                           ;!    Stack       0
  1274                           ;!
  1275                           ;!Auto Spaces:
  1276                           ;!    Space          Size  Autos    Used
  1277                           ;!    COMMON           14     14      14
  1278                           ;!    BANK0            80     15      61
  1279                           ;!    BANK1            80      0       0
  1280                           ;!    BANK3            96      0       0
  1281                           ;!    BANK2            96      0       0
  1282                           
  1283                           ;!
  1284                           ;!Pointer List with Targets:
  1285                           ;!
  1286                           ;!    sprintf@f	PTR const unsigned char  size(1) Largest target is 9
  1287                           ;!		 -> STR_4(CODE[9]), STR_2(CODE[7]), 
  1288                           ;!
  1289                           ;!    sprintf@sp	PTR unsigned char  size(1) Largest target is 16
  1290                           ;!		 -> ScreenROW(BANK0[16]), 
  1291                           ;!
  1292                           ;!    sprintf@ap	PTR void [1] size(1) Largest target is 2
  1293                           ;!		 -> ?_sprintf(BANK0[2]), 
  1294                           ;!
  1295                           ;!    lcdPrint@string	PTR unsigned char  size(2) Largest target is 17
  1296                           ;!		 -> STR_3(CODE[17]), ScreenROW(BANK0[16]), STR_1(CODE[17]), 
  1297                           ;!
  1298                           
  1299                           
  1300                           ;!
  1301                           ;!Critical Paths under _main in COMMON
  1302                           ;!
  1303                           ;!    _setup->_lcdBegin
  1304                           ;!    _setup->_lcdSetCursor
  1305                           ;!    _lcdBegin->_WriteInstruction
  1306                           ;!    _loop->_lcdSetCursor
  1307                           ;!    _sprintf->___lwmod
  1308                           ;!    ___lwmod->___lwdiv
  1309                           ;!    _lcdSetCursor->_WriteInstruction
  1310                           ;!    _WriteInstruction->_ByteByNibble
  1311                           ;!    _WriteInstruction->_delay
  1312                           ;!    _lcdPrint->_lcdWrite
  1313                           ;!    _lcdWrite->_WriteData
  1314                           ;!    _WriteData->_ByteByNibble
  1315                           ;!    _WriteData->_delay
  1316                           ;!    _ByteByNibble->_digitalWrite
  1317                           ;!
  1318                           ;!Critical Paths under _main in BANK0
  1319                           ;!
  1320                           ;!    _main->_loop
  1321                           ;!    _setup->_lcdPrint
  1322                           ;!    _loop->_sprintf
  1323                           ;!
  1324                           ;!Critical Paths under _main in BANK1
  1325                           ;!
  1326                           ;!    None.
  1327                           ;!
  1328                           ;!Critical Paths under _main in BANK3
  1329                           ;!
  1330                           ;!    None.
  1331                           ;!
  1332                           ;!Critical Paths under _main in BANK2
  1333                           ;!
  1334                           ;!    None.
  1335                           
  1336 ;;
  1337 ;;Main: autosize = 0, tempsize = 0, incstack = 0, save=0
  1338 ;;
  1339                           
  1340                           ;!
  1341                           ;!Call Graph Tables:
  1342                           ;!
  1343                           ;! ---------------------------------------------------------------------------------
  1344                           ;! (Depth) Function   	        Calls       Base Space   Used Autos Params    Refs
  1345                           ;! ---------------------------------------------------------------------------------
  1346                           ;! (0) _main                                                 0     0      0   77995
  1347                           ;!                     _Initialization
  1348                           ;!                               _loop
  1349                           ;!                              _setup
  1350                           ;! ---------------------------------------------------------------------------------
  1351                           ;! (1) _setup                                                6     6      0   46872
  1352                           ;!                                              7 BANK0      6     6      0
  1353                           ;!                   _PIDSetSampleTime
  1354                           ;!                           _lcdBegin
  1355                           ;!                           _lcdPrint
  1356                           ;!                       _lcdSetCursor
  1357                           ;! ---------------------------------------------------------------------------------
  1358                           ;! (2) _lcdBegin                                             8     2      6   16949
  1359                           ;!                                             12 COMMON     2     2      0
  1360                           ;!                                              0 BANK0      6     0      6
  1361                           ;!                   _WriteInstruction
  1362                           ;!                              _delay
  1363                           ;!                            _pinMode
  1364                           ;! ---------------------------------------------------------------------------------
  1365                           ;! (3) _pinMode                                              4     3      1    1104
  1366                           ;!                                              0 COMMON     4     3      1
  1367                           ;! ---------------------------------------------------------------------------------
  1368                           ;! (2) _PIDSetSampleTime                                     2     2      0      30
  1369                           ;!                                              0 COMMON     2     2      0
  1370                           ;! ---------------------------------------------------------------------------------
  1371                           ;! (1) _loop                                                 2     2      0   31123
  1372                           ;!                                             13 BANK0      2     2      0
  1373                           ;!                       _EventCounter
  1374                           ;!                           _lcdPrint
  1375                           ;!                       _lcdSetCursor
  1376                           ;!                            _sprintf
  1377                           ;! ---------------------------------------------------------------------------------
  1378                           ;! (2) _sprintf                                             21    18      3    1230
  1379                           ;!                                              0 BANK0     13    10      3
  1380                           ;!                            ___lwdiv
  1381                           ;!                            ___lwmod
  1382                           ;! ---------------------------------------------------------------------------------
  1383                           ;! (3) ___lwmod                                              6     2      4     311
  1384                           ;!                                              8 COMMON     6     2      4
  1385                           ;!                            ___lwdiv (ARG)
  1386                           ;! ---------------------------------------------------------------------------------
  1387                           ;! (3) ___lwdiv                                              8     4      4     314
  1388                           ;!                                              0 COMMON     8     4      4
  1389                           ;! ---------------------------------------------------------------------------------
  1390                           ;! (2) _lcdSetCursor                                         4     3      1   14396
  1391                           ;!                                             12 COMMON     2     1      1
  1392                           ;!                                              0 BANK0      2     2      0
  1393                           ;!                   _WriteInstruction
  1394                           ;! ---------------------------------------------------------------------------------
  1395                           ;! (3) _WriteInstruction                                     5     5      0   13957
  1396                           ;!                                              7 COMMON     5     5      0
  1397                           ;!                       _ByteByNibble
  1398                           ;!                              _delay
  1399                           ;!                       _digitalWrite
  1400                           ;! ---------------------------------------------------------------------------------
  1401                           ;! (2) _lcdPrint                                             7     5      2   15497
  1402                           ;!                                              0 BANK0      7     5      2
  1403                           ;!                           _lcdWrite
  1404                           ;! ---------------------------------------------------------------------------------
  1405                           ;! (3) _lcdWrite                                             1     1      0   15103
  1406                           ;!                                             12 COMMON     1     1      0
  1407                           ;!                          _WriteData
  1408                           ;!                              _delay
  1409                           ;! ---------------------------------------------------------------------------------
  1410                           ;! (4) _WriteData                                            5     5      0   13957
  1411                           ;!                                              7 COMMON     5     5      0
  1412                           ;!                       _ByteByNibble
  1413                           ;!                              _delay
  1414                           ;!                       _digitalWrite
  1415                           ;! ---------------------------------------------------------------------------------
  1416                           ;! (4) _delay                                                7     5      2    1124
  1417                           ;!                                              0 COMMON     7     5      2
  1418                           ;! ---------------------------------------------------------------------------------
  1419                           ;! (4) _ByteByNibble                                         3     3      0    6370
  1420                           ;!                                              4 COMMON     3     3      0
  1421                           ;!                       _digitalWrite
  1422                           ;! ---------------------------------------------------------------------------------
  1423                           ;! (4) _digitalWrite                                         4     3      1    6348
  1424                           ;!                                              0 COMMON     4     3      1
  1425                           ;! ---------------------------------------------------------------------------------
  1426                           ;! (2) _EventCounter                                         2     0      2       0
  1427                           ;!                                              0 COMMON     2     0      2
  1428                           ;! ---------------------------------------------------------------------------------
  1429                           ;! (1) _Initialization                                       0     0      0       0
  1430                           ;!                   _PWMConfiguration
  1431                           ;! ---------------------------------------------------------------------------------
  1432                           ;! (2) _PWMConfiguration                                     0     0      0       0
  1433                           ;! ---------------------------------------------------------------------------------
  1434                           ;! Estimated maximum stack depth 4
  1435                           ;! ---------------------------------------------------------------------------------
  1436                           ;!
  1437                           ;! Call Graph Graphs:
  1438                           ;!
  1439                           ;! _main (ROOT)
  1440                           ;!   _Initialization
  1441                           ;!     _PWMConfiguration
  1442                           ;!   _loop
  1443                           ;!     _EventCounter
  1444                           ;!     _lcdPrint
  1445                           ;!       _lcdWrite
  1446                           ;!         _WriteData
  1447                           ;!           _ByteByNibble
  1448                           ;!             _digitalWrite
  1449                           ;!           _delay
  1450                           ;!           _digitalWrite
  1451                           ;!         _delay
  1452                           ;!     _lcdSetCursor
  1453                           ;!       _WriteInstruction
  1454                           ;!         _ByteByNibble
  1455                           ;!           _digitalWrite
  1456                           ;!         _delay
  1457                           ;!         _digitalWrite
  1458                           ;!     _sprintf
  1459                           ;!       ___lwdiv
  1460                           ;!       ___lwmod
  1461                           ;!         ___lwdiv (ARG)
  1462                           ;!   _setup
  1463                           ;!     _PIDSetSampleTime
  1464                           ;!     _lcdBegin
  1465                           ;!       _WriteInstruction
  1466                           ;!         _ByteByNibble
  1467                           ;!           _digitalWrite
  1468                           ;!         _delay
  1469                           ;!         _digitalWrite
  1470                           ;!       _delay
  1471                           ;!       _pinMode
  1472                           ;!     _lcdPrint
  1473                           ;!       _lcdWrite
  1474                           ;!         _WriteData
  1475                           ;!           _ByteByNibble
  1476                           ;!             _digitalWrite
  1477                           ;!           _delay
  1478                           ;!           _digitalWrite
  1479                           ;!         _delay
  1480                           ;!     _lcdSetCursor
  1481                           ;!       _WriteInstruction
  1482                           ;!         _ByteByNibble
  1483                           ;!           _digitalWrite
  1484                           ;!         _delay
  1485                           ;!         _digitalWrite
  1486                           ;!
  1487                           
  1488                           ;! Address spaces:
  1489                           
  1490                           ;!Name               Size   Autos  Total    Cost      Usage
  1491                           ;!BITCOMMON            E      0       0       0        0.0%
  1492                           ;!EEDATA             100      0       0       0        0.0%
  1493                           ;!NULL                 0      0       0       0        0.0%
  1494                           ;!CODE                 0      0       0       0        0.0%
  1495                           ;!COMMON               E      E       E       1      100.0%
  1496                           ;!BITSFR0              0      0       0       1        0.0%
  1497                           ;!SFR0                 0      0       0       1        0.0%
  1498                           ;!BITSFR1              0      0       0       2        0.0%
  1499                           ;!SFR1                 0      0       0       2        0.0%
  1500                           ;!STACK                0      0       0       2        0.0%
  1501                           ;!ABS                  0      0      4B       3        0.0%
  1502                           ;!BITBANK0            50      0       0       4        0.0%
  1503                           ;!BITSFR3              0      0       0       4        0.0%
  1504                           ;!SFR3                 0      0       0       4        0.0%
  1505                           ;!BANK0               50      F      3D       5       76.3%
  1506                           ;!BITSFR2              0      0       0       5        0.0%
  1507                           ;!SFR2                 0      0       0       5        0.0%
  1508                           ;!BITBANK1            50      0       0       6        0.0%
  1509                           ;!BANK1               50      0       0       7        0.0%
  1510                           ;!BITBANK3            60      0       0       8        0.0%
  1511                           ;!BANK3               60      0       0       9        0.0%
  1512                           ;!BITBANK2            60      0       0      10        0.0%
  1513                           ;!BANK2               60      0       0      11        0.0%
  1514                           ;!DATA                 0      0      4B      12        0.0%
  1515                           
  1516                           	global	_main
  1517                           
  1518 ;; *************** function _main *****************
  1519 ;; Defined at:
  1520 ;;		line 3 in file "Hormiga877.c"
  1521 ;; Parameters:    Size  Location     Type
  1522 ;;		None
  1523 ;; Auto vars:     Size  Location     Type
  1524 ;;		None
  1525 ;; Return value:  Size  Location     Type
  1526 ;;                  2  147[None  ] int 
  1527 ;; Registers used:
  1528 ;;		wreg, fsr0l, fsr0h, status,2, status,0, btemp+1, pclath, cstack
  1529 ;; Tracked objects:
  1530 ;;		On entry : B00/0
  1531 ;;		On exit  : 0/0
  1532 ;;		Unchanged: 0/0
  1533 ;; Data sizes:     COMMON   BANK0   BANK1   BANK3   BANK2
  1534 ;;      Params:         0       0       0       0       0
  1535 ;;      Locals:         0       0       0       0       0
  1536 ;;      Temps:          0       0       0       0       0
  1537 ;;      Totals:         0       0       0       0       0
  1538 ;;Total ram usage:        0 bytes
  1539 ;; Hardware stack levels required when called:    6
  1540 ;; This function calls:
  1541 ;;		_Initialization
  1542 ;;		_loop
  1543 ;;		_setup
  1544 ;; This function is called by:
  1545 ;;		Startup code after reset
  1546 ;; This function uses a non-reentrant model
  1547 ;;
  1548                           psect	maintext,global,class=CODE,delta=2,split=1,group=0
  1549                           	file	"Hormiga877.c"
  1550                           	line	3
  1551                           global __pmaintext
  1552                           __pmaintext:	;psect for function _main
  1553  0DF6                     psect	maintext
  1554                           	file	"Hormiga877.c"
  1555                           	line	3
  1556                           	global	__size_of_main
  1557                           	__size_of_main	equ	__end_of_main-_main
  1558  0014                     	
  1559                           _main:	
  1560  0DF6                     ;incstack = 0
  1561                           	opt	stack 2
  1562                           ; Regs used in _main: [wreg-fsr0h+status,2+status,0+btemp+1+pclath+cstack]
  1563                           	line	5
  1564                           	
  1565                           l2483:	
  1566  0DF6                     ;Hormiga877.c: 5:     Initialization();
  1567                           	fcall	_Initialization
  1568  0DF6  120A  158A  2622  120A  158A  	line	6
  1569                           	
  1570                           l2485:	
  1571  0DFB                     ;Hormiga877.c: 6:     setup();
  1572                           	fcall	_setup
  1573  0DFB  120A  158A  279C  120A  158A  	goto	l2487
  1574  0E00  2E01               	line	7
  1575                           ;Hormiga877.c: 7:     for(;;)
  1576                           	
  1577                           l148:	
  1578  0E01                     	line	9
  1579                           	
  1580                           l2487:	
  1581  0E01                     ;Hormiga877.c: 8:     {;Hormiga877.c: 9:         loop();
  1582                           	fcall	_loop
  1583  0E01  120A  118A  2191  120A  158A  	line	10
  1584                           ;Hormiga877.c: 10:     }
  1585                           	goto	l2487
  1586  0E06  2E01               	
  1587                           l149:	
  1588  0E07                     	line	12
  1589                           ;Hormiga877.c: 11:     return 0;;	Return value of _main is never used
  1590                           	
  1591                           l150:	
  1592  0E07                     	global	start
  1593                           	ljmp	start
  1594  0E07  120A  118A  2800   	opt stack 0
  1595                           GLOBAL	__end_of_main
  1596                           	__end_of_main:
  1597  0E0A                     	signat	_main,90
  1598                           	global	_setup
  1599                           
  1600 ;; *************** function _setup *****************
  1601 ;; Defined at:
  1602 ;;		line 19 in file "application.c"
  1603 ;; Parameters:    Size  Location     Type
  1604 ;;		None
  1605 ;; Auto vars:     Size  Location     Type
  1606 ;;		None
  1607 ;; Return value:  Size  Location     Type
  1608 ;;                  1    wreg      void 
  1609 ;; Registers used:
  1610 ;;		wreg, fsr0l, fsr0h, status,2, status,0, btemp+1, pclath, cstack
  1611 ;; Tracked objects:
  1612 ;;		On entry : 0/0
  1613 ;;		On exit  : 0/0
  1614 ;;		Unchanged: 0/0
  1615 ;; Data sizes:     COMMON   BANK0   BANK1   BANK3   BANK2
  1616 ;;      Params:         0       0       0       0       0
  1617 ;;      Locals:         0       0       0       0       0
  1618 ;;      Temps:          0       6       0       0       0
  1619 ;;      Totals:         0       6       0       0       0
  1620 ;;Total ram usage:        6 bytes
  1621 ;; Hardware stack levels used:    1
  1622 ;; Hardware stack levels required when called:    5
  1623 ;; This function calls:
  1624 ;;		_PIDSetSampleTime
  1625 ;;		_lcdBegin
  1626 ;;		_lcdPrint
  1627 ;;		_lcdSetCursor
  1628 ;; This function is called by:
  1629 ;;		_main
  1630 ;; This function uses a non-reentrant model
  1631 ;;
  1632                           psect	text1,local,class=CODE,delta=2,merge=1,group=0
  1633                           	file	"application.c"
  1634                           	line	19
  1635                           global __ptext1
  1636                           __ptext1:	;psect for function _setup
  1637  0F9C                     psect	text1
  1638                           	file	"application.c"
  1639                           	line	19
  1640                           	global	__size_of_setup
  1641                           	__size_of_setup	equ	__end_of_setup-_setup
  1642  0064                     	
  1643                           _setup:	
  1644  0F9C                     ;incstack = 0
  1645                           	opt	stack 2
  1646                           ; Regs used in _setup: [wreg-fsr0h+status,2+status,0+btemp+1+pclath+cstack]
  1647                           	line	21
  1648                           	
  1649                           l2451:	
  1650  0F9C                     ;application.c: 21:     lcdBegin(RS,EN,RnW,D4,D5,D6,D7);
  1651                           	movlw	low((_EN-__stringbase))
  1652  0F9C  3010               	movwf	fsr0
  1653  0F9D  0084               	fcall	stringdir
  1654  0F9E  120A  158A  200A  120A  158A  	bcf	status, 5	;RP0=0, select bank0
  1655  0FA3  1283               	bcf	status, 6	;RP1=0, select bank0
  1656  0FA4  1303               	movwf	(??_setup+0)+0
  1657  0FA5  00CE               	movf	(??_setup+0)+0,w
  1658  0FA6  084E               	movwf	(lcdBegin@EN)
  1659  0FA7  00C7               	movlw	low((_RnW-__stringbase))
  1660  0FA8  300F               	movwf	fsr0
  1661  0FA9  0084               	fcall	stringdir
  1662  0FAA  120A  158A  200A  120A  158A  	movwf	(??_setup+1)+0
  1663  0FAF  00CF               	movf	(??_setup+1)+0,w
  1664  0FB0  084F               	movwf	(lcdBegin@R_W)
  1665  0FB1  00C8               	movlw	low((_D4-__stringbase))
  1666  0FB2  300E               	movwf	fsr0
  1667  0FB3  0084               	fcall	stringdir
  1668  0FB4  120A  158A  200A  120A  158A  	movwf	(??_setup+2)+0
  1669  0FB9  00D0               	movf	(??_setup+2)+0,w
  1670  0FBA  0850               	movwf	(lcdBegin@d4)
  1671  0FBB  00C9               	movlw	low((_D5-__stringbase))
  1672  0FBC  300D               	movwf	fsr0
  1673  0FBD  0084               	fcall	stringdir
  1674  0FBE  120A  158A  200A  120A  158A  	movwf	(??_setup+3)+0
  1675  0FC3  00D1               	movf	(??_setup+3)+0,w
  1676  0FC4  0851               	movwf	(lcdBegin@d5)
  1677  0FC5  00CA               	movlw	low((_D6-__stringbase))
  1678  0FC6  300C               	movwf	fsr0
  1679  0FC7  0084               	fcall	stringdir
  1680  0FC8  120A  158A  200A  120A  158A  	movwf	(??_setup+4)+0
  1681  0FCD  00D2               	movf	(??_setup+4)+0,w
  1682  0FCE  0852               	movwf	(lcdBegin@d6)
  1683  0FCF  00CB               	movlw	low((_D7-__stringbase))
  1684  0FD0  300B               	movwf	fsr0
  1685  0FD1  0084               	fcall	stringdir
  1686  0FD2  120A  158A  200A  120A  158A  	movwf	(??_setup+5)+0
  1687  0FD7  00D3               	movf	(??_setup+5)+0,w
  1688  0FD8  0853               	movwf	(lcdBegin@d7)
  1689  0FD9  00CC               	movlw	low((_RS-__stringbase))
  1690  0FDA  3011               	movwf	fsr0
  1691  0FDB  0084               	fcall	stringdir
  1692  0FDC  120A  158A  200A  120A  158A  	fcall	_lcdBegin
  1693  0FE1  120A  118A  210D  120A  158A  	line	22
  1694                           ;application.c: 22:     lcdSetCursor(1,1);
  1695                           	clrf	(lcdSetCursor@column)
  1696  0FE6  01FC               	incf	(lcdSetCursor@column),f
  1697  0FE7  0AFC               	movlw	low(01h)
  1698  0FE8  3001               	fcall	_lcdSetCursor
  1699  0FE9  120A  158A  264E  120A  158A  	line	23
  1700                           ;application.c: 23:     lcdPrint("PID Control Test");
  1701                           	movlw	(low((((STR_1)-__stringbase)|8000h)))&0ffh
  1702  0FEE  3023               	bcf	status, 5	;RP0=0, select bank0
  1703  0FEF  1283               	bcf	status, 6	;RP1=0, select bank0
  1704  0FF0  1303               	movwf	(lcdPrint@string)
  1705  0FF1  00C7               	movlw	80h
  1706  0FF2  3080               	movwf	(lcdPrint@string+1)
  1707  0FF3  00C8               	fcall	_lcdPrint
  1708  0FF4  120A  158A  26BB  120A  158A  	line	24
  1709                           	
  1710                           l2453:	
  1711  0FF9                     ;application.c: 24:     PIDSetSampleTime(64);
  1712                           	movlw	low(040h)
  1713  0FF9  3040               	fcall	_PIDSetSampleTime
  1714  0FFA  120A  158A  25E3  120A  158A  	line	25
  1715                           	
  1716                           l39:	
  1717  0FFF                     	return
  1718  0FFF  0008               	opt stack 0
  1719                           GLOBAL	__end_of_setup
  1720                           	__end_of_setup:
  1721  1000                     	signat	_setup,89
  1722                           	global	_lcdBegin
  1723                           
  1724 ;; *************** function _lcdBegin *****************
  1725 ;; Defined at:
  1726 ;;		line 18 in file "LCD16x2.c"
  1727 ;; Parameters:    Size  Location     Type
  1728 ;;  RS              1    wreg     unsigned char 
  1729 ;;  EN              1    0[BANK0 ] unsigned char 
  1730 ;;  R_W             1    1[BANK0 ] unsigned char 
  1731 ;;  d4              1    2[BANK0 ] unsigned char 
  1732 ;;  d5              1    3[BANK0 ] unsigned char 
  1733 ;;  d6              1    4[BANK0 ] unsigned char 
  1734 ;;  d7              1    5[BANK0 ] unsigned char 
  1735 ;; Auto vars:     Size  Location     Type
  1736 ;;  RS              1   13[COMMON] unsigned char 
  1737 ;; Return value:  Size  Location     Type
  1738 ;;                  1    wreg      void 
  1739 ;; Registers used:
  1740 ;;		wreg, fsr0l, fsr0h, status,2, status,0, btemp+1, pclath, cstack
  1741 ;; Tracked objects:
  1742 ;;		On entry : 0/0
  1743 ;;		On exit  : 0/0
  1744 ;;		Unchanged: 0/0
  1745 ;; Data sizes:     COMMON   BANK0   BANK1   BANK3   BANK2
  1746 ;;      Params:         0       6       0       0       0
  1747 ;;      Locals:         1       0       0       0       0
  1748 ;;      Temps:          1       0       0       0       0
  1749 ;;      Totals:         2       6       0       0       0
  1750 ;;Total ram usage:        8 bytes
  1751 ;; Hardware stack levels used:    1
  1752 ;; Hardware stack levels required when called:    3
  1753 ;; This function calls:
  1754 ;;		_WriteInstruction
  1755 ;;		_delay
  1756 ;;		_pinMode
  1757 ;; This function is called by:
  1758 ;;		_setup
  1759 ;; This function uses a non-reentrant model
  1760 ;;
  1761                           psect	text2,local,class=CODE,delta=2,merge=1,group=0
  1762                           	file	"LCD16x2.c"
  1763                           	line	18
  1764                           global __ptext2
  1765                           __ptext2:	;psect for function _lcdBegin
  1766  010D                     psect	text2
  1767                           	file	"LCD16x2.c"
  1768                           	line	18
  1769                           	global	__size_of_lcdBegin
  1770                           	__size_of_lcdBegin	equ	__end_of_lcdBegin-_lcdBegin
  1771  0084                     	
  1772                           _lcdBegin:	
  1773  010D                     ;incstack = 0
  1774                           	opt	stack 3
  1775                           ; Regs used in _lcdBegin: [wreg-fsr0h+status,2+status,0+btemp+1+pclath+cstack]
  1776                           ;lcdBegin@RS stored from wreg
  1777                           	movwf	(lcdBegin@RS)
  1778  010D  00FD               	line	20
  1779                           	
  1780                           l2339:	
  1781  010E                     ;LCD16x2.c: 18: void lcdBegin(char RS, char EN, char R_W, char d4, char d5, char d6,char
                                  d7);LCD16x2.c: 19: {;LCD16x2.c: 20:     RSPin = RS;
  1782                           	movf	(lcdBegin@RS),w
  1783  010E  087D               	movwf	(??_lcdBegin+0)+0
  1784  010F  00FC               	movf	(??_lcdBegin+0)+0,w
  1785  0110  087C               	bcf	status, 5	;RP0=0, select bank0
  1786  0111  1283               	bcf	status, 6	;RP1=0, select bank0
  1787  0112  1303               	movwf	(_RSPin)
  1788  0113  00DC               	line	21
  1789                           ;LCD16x2.c: 21:     ENPin = EN;
  1790                           	movf	(lcdBegin@EN),w
  1791  0114  0847               	movwf	(??_lcdBegin+0)+0
  1792  0115  00FC               	movf	(??_lcdBegin+0)+0,w
  1793  0116  087C               	movwf	(_ENPin)
  1794  0117  00DB               	line	22
  1795                           ;LCD16x2.c: 22:     RWPin = R_W;
  1796                           	movf	(lcdBegin@R_W),w
  1797  0118  0848               	movwf	(??_lcdBegin+0)+0
  1798  0119  00FC               	movf	(??_lcdBegin+0)+0,w
  1799  011A  087C               	movwf	(_RWPin)
  1800  011B  00DA               	line	23
  1801                           ;LCD16x2.c: 23:     d4Pin = d4;
  1802                           	movf	(lcdBegin@d4),w
  1803  011C  0849               	movwf	(??_lcdBegin+0)+0
  1804  011D  00FC               	movf	(??_lcdBegin+0)+0,w
  1805  011E  087C               	movwf	(_d4Pin)
  1806  011F  00D9               	line	24
  1807                           ;LCD16x2.c: 24:     d5Pin = d5;
  1808                           	movf	(lcdBegin@d5),w
  1809  0120  084A               	movwf	(??_lcdBegin+0)+0
  1810  0121  00FC               	movf	(??_lcdBegin+0)+0,w
  1811  0122  087C               	movwf	(_d5Pin)
  1812  0123  00D8               	line	25
  1813                           ;LCD16x2.c: 25:     d6Pin = d6;
  1814                           	movf	(lcdBegin@d6),w
  1815  0124  084B               	movwf	(??_lcdBegin+0)+0
  1816  0125  00FC               	movf	(??_lcdBegin+0)+0,w
  1817  0126  087C               	movwf	(_d6Pin)
  1818  0127  00D7               	line	26
  1819                           ;LCD16x2.c: 26:     d7Pin = d7;
  1820                           	movf	(lcdBegin@d7),w
  1821  0128  084C               	movwf	(??_lcdBegin+0)+0
  1822  0129  00FC               	movf	(??_lcdBegin+0)+0,w
  1823  012A  087C               	movwf	(_d7Pin)
  1824  012B  00D6               	line	27
  1825                           	
  1826                           l2341:	
  1827  012C                     ;LCD16x2.c: 27:     pinMode(RS,0);
  1828                           	clrf	(pinMode@mode)
  1829  012C  01F0               	movf	(lcdBegin@RS),w
  1830  012D  087D               	fcall	_pinMode
  1831  012E  120A  118A  2301  120A  118A  	line	28
  1832                           	
  1833                           l2343:	
  1834  0133                     ;LCD16x2.c: 28:     pinMode(EN,0);
  1835                           	clrf	(pinMode@mode)
  1836  0133  01F0               	bcf	status, 5	;RP0=0, select bank0
  1837  0134  1283               	bcf	status, 6	;RP1=0, select bank0
  1838  0135  1303               	movf	(lcdBegin@EN),w
  1839  0136  0847               	fcall	_pinMode
  1840  0137  120A  118A  2301  120A  118A  	line	29
  1841                           	
  1842                           l2345:	
  1843  013C                     ;LCD16x2.c: 29:     pinMode(R_W,0);
  1844                           	clrf	(pinMode@mode)
  1845  013C  01F0               	bcf	status, 5	;RP0=0, select bank0
  1846  013D  1283               	bcf	status, 6	;RP1=0, select bank0
  1847  013E  1303               	movf	(lcdBegin@R_W),w
  1848  013F  0848               	fcall	_pinMode
  1849  0140  120A  118A  2301  120A  118A  	line	30
  1850                           	
  1851                           l2347:	
  1852  0145                     ;LCD16x2.c: 30:     pinMode(d4,0);
  1853                           	clrf	(pinMode@mode)
  1854  0145  01F0               	bcf	status, 5	;RP0=0, select bank0
  1855  0146  1283               	bcf	status, 6	;RP1=0, select bank0
  1856  0147  1303               	movf	(lcdBegin@d4),w
  1857  0148  0849               	fcall	_pinMode
  1858  0149  120A  118A  2301  120A  118A  	line	31
  1859                           	
  1860                           l2349:	
  1861  014E                     ;LCD16x2.c: 31:     pinMode(d5,0);
  1862                           	clrf	(pinMode@mode)
  1863  014E  01F0               	bcf	status, 5	;RP0=0, select bank0
  1864  014F  1283               	bcf	status, 6	;RP1=0, select bank0
  1865  0150  1303               	movf	(lcdBegin@d5),w
  1866  0151  084A               	fcall	_pinMode
  1867  0152  120A  118A  2301  120A  118A  	line	32
  1868                           	
  1869                           l2351:	
  1870  0157                     ;LCD16x2.c: 32:     pinMode(d6,0);
  1871                           	clrf	(pinMode@mode)
  1872  0157  01F0               	bcf	status, 5	;RP0=0, select bank0
  1873  0158  1283               	bcf	status, 6	;RP1=0, select bank0
  1874  0159  1303               	movf	(lcdBegin@d6),w
  1875  015A  084B               	fcall	_pinMode
  1876  015B  120A  118A  2301  120A  118A  	line	33
  1877                           	
  1878                           l2353:	
  1879  0160                     ;LCD16x2.c: 33:     pinMode(d7,0);
  1880                           	clrf	(pinMode@mode)
  1881  0160  01F0               	bcf	status, 5	;RP0=0, select bank0
  1882  0161  1283               	bcf	status, 6	;RP1=0, select bank0
  1883  0162  1303               	movf	(lcdBegin@d7),w
  1884  0163  084C               	fcall	_pinMode
  1885  0164  120A  118A  2301  120A  118A  	line	34
  1886                           	
  1887                           l2355:	
  1888  0169                     ;LCD16x2.c: 34:     delay(15);
  1889                           	movlw	0Fh
  1890  0169  300F               	movwf	(delay@milis)
  1891  016A  00F0               	movlw	0
  1892  016B  3000               	movwf	((delay@milis))+1
  1893  016C  00F1               	fcall	_delay
  1894  016D  120A  158A  274E  120A  118A  	line	35
  1895                           	
  1896                           l2357:	
  1897  0172                     ;LCD16x2.c: 35:     WriteInstruction(0x02);
  1898                           	movlw	low(02h)
  1899  0172  3002               	fcall	_WriteInstruction
  1900  0173  120A  118A  2008  120A  118A  	line	36
  1901                           	
  1902                           l2359:	
  1903  0178                     ;LCD16x2.c: 36:     WriteInstruction(0x28);
  1904                           	movlw	low(028h)
  1905  0178  3028               	fcall	_WriteInstruction
  1906  0179  120A  118A  2008  120A  118A  	line	37
  1907                           	
  1908                           l2361:	
  1909  017E                     ;LCD16x2.c: 37:     WriteInstruction(0x01);
  1910                           	movlw	low(01h)
  1911  017E  3001               	fcall	_WriteInstruction
  1912  017F  120A  118A  2008  120A  118A  	line	38
  1913                           	
  1914                           l2363:	
  1915  0184                     ;LCD16x2.c: 38:     WriteInstruction(0x0C);
  1916                           	movlw	low(0Ch)
  1917  0184  300C               	fcall	_WriteInstruction
  1918  0185  120A  118A  2008  120A  118A  	line	39
  1919                           	
  1920                           l2365:	
  1921  018A                     ;LCD16x2.c: 39:     WriteInstruction(0x06);
  1922                           	movlw	low(06h)
  1923  018A  3006               	fcall	_WriteInstruction
  1924  018B  120A  118A  2008  120A  118A  	line	40
  1925                           	
  1926                           l415:	
  1927  0190                     	return
  1928  0190  0008               	opt stack 0
  1929                           GLOBAL	__end_of_lcdBegin
  1930                           	__end_of_lcdBegin:
  1931  0191                     	signat	_lcdBegin,28793
  1932                           	global	_pinMode
  1933                           
  1934 ;; *************** function _pinMode *****************
  1935 ;; Defined at:
  1936 ;;		line 60 in file "Hormiga877.c"
  1937 ;; Parameters:    Size  Location     Type
  1938 ;;  pin             1    wreg     unsigned char 
  1939 ;;  mode            1    0[COMMON] unsigned char 
  1940 ;; Auto vars:     Size  Location     Type
  1941 ;;  pin             1    3[COMMON] unsigned char 
  1942 ;; Return value:  Size  Location     Type
  1943 ;;                  1    wreg      void 
  1944 ;; Registers used:
  1945 ;;		wreg, fsr0l, fsr0h, status,2, status,0
  1946 ;; Tracked objects:
  1947 ;;		On entry : 0/0
  1948 ;;		On exit  : 0/0
  1949 ;;		Unchanged: 0/0
  1950 ;; Data sizes:     COMMON   BANK0   BANK1   BANK3   BANK2
  1951 ;;      Params:         1       0       0       0       0
  1952 ;;      Locals:         1       0       0       0       0
  1953 ;;      Temps:          2       0       0       0       0
  1954 ;;      Totals:         4       0       0       0       0
  1955 ;;Total ram usage:        4 bytes
  1956 ;; Hardware stack levels used:    1
  1957 ;; This function calls:
  1958 ;;		Nothing
  1959 ;; This function is called by:
  1960 ;;		_lcdBegin
  1961 ;; This function uses a non-reentrant model
  1962 ;;
  1963                           psect	text3,local,class=CODE,delta=2,merge=1,group=0
  1964                           	file	"Hormiga877.c"
  1965                           	line	60
  1966                           global __ptext3
  1967                           __ptext3:	;psect for function _pinMode
  1968  0301                     psect	text3
  1969                           	file	"Hormiga877.c"
  1970                           	line	60
  1971                           	global	__size_of_pinMode
  1972                           	__size_of_pinMode	equ	__end_of_pinMode-_pinMode
  1973  0121                     	
  1974                           _pinMode:	
  1975  0301                     ;incstack = 0
  1976                           	opt	stack 5
  1977                           ; Regs used in _pinMode: [wreg-fsr0h+status,2+status,0]
  1978                           ;pinMode@pin stored from wreg
  1979                           	movwf	(pinMode@pin)
  1980  0301  00F3               	line	62
  1981                           	
  1982                           l2195:	
  1983  0302                     ;Hormiga877.c: 60: void pinMode(char pin, char mode);Hormiga877.c: 61: {;Hormiga877.c: 6
                                 2:     switch(pin)
  1984                           	goto	l2249
  1985  0302  2BCC               	line	64
  1986                           ;Hormiga877.c: 63:     {;Hormiga877.c: 64:         case 0:
  1987                           	
  1988                           l163:	
  1989  0303                     	line	65
  1990                           	
  1991                           l2197:	
  1992  0303                     ;Hormiga877.c: 65:             TRISCbits.TRISC7 = mode;
  1993                           	rrf	(pinMode@mode),w
  1994  0303  0C70               	bsf	status, 5	;RP0=1, select bank1
  1995  0304  1683               	bcf	status, 6	;RP1=0, select bank1
  1996  0305  1303               	skipc
  1997  0306  1C03               	bcf	(135)^080h,7	;volatile
  1998  0307  1387               	skipnc
  1999  0308  1803               	bsf	(135)^080h,7	;volatile
  2000  0309  1787               	line	66
  2001                           ;Hormiga877.c: 66:             break;
  2002                           	goto	l189
  2003  030A  2C21               	line	67
  2004                           ;Hormiga877.c: 67:         case 1:
  2005                           	
  2006                           l165:	
  2007  030B                     	line	68
  2008                           	
  2009                           l2199:	
  2010  030B                     ;Hormiga877.c: 68:             TRISCbits.TRISC6 = mode;
  2011                           	rrf	(pinMode@mode),w
  2012  030B  0C70               	bsf	status, 5	;RP0=1, select bank1
  2013  030C  1683               	bcf	status, 6	;RP1=0, select bank1
  2014  030D  1303               	skipc
  2015  030E  1C03               	bcf	(135)^080h,6	;volatile
  2016  030F  1307               	skipnc
  2017  0310  1803               	bsf	(135)^080h,6	;volatile
  2018  0311  1707               	line	69
  2019                           ;Hormiga877.c: 69:             break;
  2020                           	goto	l189
  2021  0312  2C21               	line	70
  2022                           ;Hormiga877.c: 70:         case 2:
  2023                           	
  2024                           l166:	
  2025  0313                     	line	71
  2026                           	
  2027                           l2201:	
  2028  0313                     ;Hormiga877.c: 71:             TRISCbits.TRISC5 = mode;
  2029                           	rrf	(pinMode@mode),w
  2030  0313  0C70               	bsf	status, 5	;RP0=1, select bank1
  2031  0314  1683               	bcf	status, 6	;RP1=0, select bank1
  2032  0315  1303               	skipc
  2033  0316  1C03               	bcf	(135)^080h,5	;volatile
  2034  0317  1287               	skipnc
  2035  0318  1803               	bsf	(135)^080h,5	;volatile
  2036  0319  1687               	line	72
  2037                           ;Hormiga877.c: 72:             break;
  2038                           	goto	l189
  2039  031A  2C21               	line	73
  2040                           ;Hormiga877.c: 73:         case 3:
  2041                           	
  2042                           l167:	
  2043  031B                     	line	74
  2044                           	
  2045                           l2203:	
  2046  031B                     ;Hormiga877.c: 74:             TRISCbits.TRISC4 = mode;
  2047                           	rrf	(pinMode@mode),w
  2048  031B  0C70               	bsf	status, 5	;RP0=1, select bank1
  2049  031C  1683               	bcf	status, 6	;RP1=0, select bank1
  2050  031D  1303               	skipc
  2051  031E  1C03               	bcf	(135)^080h,4	;volatile
  2052  031F  1207               	skipnc
  2053  0320  1803               	bsf	(135)^080h,4	;volatile
  2054  0321  1607               	line	75
  2055                           ;Hormiga877.c: 75:             break;
  2056                           	goto	l189
  2057  0322  2C21               	line	76
  2058                           ;Hormiga877.c: 76:         case 4:
  2059                           	
  2060                           l168:	
  2061  0323                     	line	77
  2062                           	
  2063                           l2205:	
  2064  0323                     ;Hormiga877.c: 77:             TRISCbits.TRISC3 = mode;
  2065                           	rrf	(pinMode@mode),w
  2066  0323  0C70               	bsf	status, 5	;RP0=1, select bank1
  2067  0324  1683               	bcf	status, 6	;RP1=0, select bank1
  2068  0325  1303               	skipc
  2069  0326  1C03               	bcf	(135)^080h,3	;volatile
  2070  0327  1187               	skipnc
  2071  0328  1803               	bsf	(135)^080h,3	;volatile
  2072  0329  1587               	line	78
  2073                           ;Hormiga877.c: 78:             break;
  2074                           	goto	l189
  2075  032A  2C21               	line	79
  2076                           ;Hormiga877.c: 79:         case 5:
  2077                           	
  2078                           l169:	
  2079  032B                     	line	80
  2080                           	
  2081                           l2207:	
  2082  032B                     ;Hormiga877.c: 80:             TRISCbits.TRISC2 = mode;
  2083                           	rrf	(pinMode@mode),w
  2084  032B  0C70               	bsf	status, 5	;RP0=1, select bank1
  2085  032C  1683               	bcf	status, 6	;RP1=0, select bank1
  2086  032D  1303               	skipc
  2087  032E  1C03               	bcf	(135)^080h,2	;volatile
  2088  032F  1107               	skipnc
  2089  0330  1803               	bsf	(135)^080h,2	;volatile
  2090  0331  1507               	line	82
  2091                           ;Hormiga877.c: 82:             break;
  2092                           	goto	l189
  2093  0332  2C21               	line	83
  2094                           ;Hormiga877.c: 83:         case 6:
  2095                           	
  2096                           l170:	
  2097  0333                     	line	84
  2098                           	
  2099                           l2209:	
  2100  0333                     ;Hormiga877.c: 84:             TRISCbits.TRISC1 = mode;
  2101                           	rrf	(pinMode@mode),w
  2102  0333  0C70               	bsf	status, 5	;RP0=1, select bank1
  2103  0334  1683               	bcf	status, 6	;RP1=0, select bank1
  2104  0335  1303               	skipc
  2105  0336  1C03               	bcf	(135)^080h,1	;volatile
  2106  0337  1087               	skipnc
  2107  0338  1803               	bsf	(135)^080h,1	;volatile
  2108  0339  1487               	line	86
  2109                           ;Hormiga877.c: 86:             break;
  2110                           	goto	l189
  2111  033A  2C21               	line	87
  2112                           ;Hormiga877.c: 87:         case 7:
  2113                           	
  2114                           l171:	
  2115  033B                     	line	88
  2116                           	
  2117                           l2211:	
  2118  033B                     ;Hormiga877.c: 88:             TRISCbits.TRISC0 = mode;
  2119                           	rrf	(pinMode@mode),w
  2120  033B  0C70               	bsf	status, 5	;RP0=1, select bank1
  2121  033C  1683               	bcf	status, 6	;RP1=0, select bank1
  2122  033D  1303               	skipc
  2123  033E  1C03               	bcf	(135)^080h,0	;volatile
  2124  033F  1007               	skipnc
  2125  0340  1803               	bsf	(135)^080h,0	;volatile
  2126  0341  1407               	line	89
  2127                           ;Hormiga877.c: 89:             break;
  2128                           	goto	l189
  2129  0342  2C21               	line	90
  2130                           ;Hormiga877.c: 90:         case 8:
  2131                           	
  2132                           l172:	
  2133  0343                     	line	91
  2134                           	
  2135                           l2213:	
  2136  0343                     ;Hormiga877.c: 91:             TRISBbits.TRISB0 = mode;
  2137                           	rrf	(pinMode@mode),w
  2138  0343  0C70               	bsf	status, 5	;RP0=1, select bank1
  2139  0344  1683               	bcf	status, 6	;RP1=0, select bank1
  2140  0345  1303               	skipc
  2141  0346  1C03               	bcf	(134)^080h,0	;volatile
  2142  0347  1006               	skipnc
  2143  0348  1803               	bsf	(134)^080h,0	;volatile
  2144  0349  1406               	line	92
  2145                           ;Hormiga877.c: 92:             break;
  2146                           	goto	l189
  2147  034A  2C21               	line	93
  2148                           ;Hormiga877.c: 93:         case 9:
  2149                           	
  2150                           l173:	
  2151  034B                     	line	94
  2152                           	
  2153                           l2215:	
  2154  034B                     ;Hormiga877.c: 94:             TRISBbits.TRISB1 = mode;
  2155                           	rrf	(pinMode@mode),w
  2156  034B  0C70               	bsf	status, 5	;RP0=1, select bank1
  2157  034C  1683               	bcf	status, 6	;RP1=0, select bank1
  2158  034D  1303               	skipc
  2159  034E  1C03               	bcf	(134)^080h,1	;volatile
  2160  034F  1086               	skipnc
  2161  0350  1803               	bsf	(134)^080h,1	;volatile
  2162  0351  1486               	line	95
  2163                           ;Hormiga877.c: 95:             break;
  2164                           	goto	l189
  2165  0352  2C21               	line	96
  2166                           ;Hormiga877.c: 96:         case 10:
  2167                           	
  2168                           l174:	
  2169  0353                     	line	97
  2170                           	
  2171                           l2217:	
  2172  0353                     ;Hormiga877.c: 97:             TRISBbits.TRISB2 = mode;
  2173                           	rrf	(pinMode@mode),w
  2174  0353  0C70               	bsf	status, 5	;RP0=1, select bank1
  2175  0354  1683               	bcf	status, 6	;RP1=0, select bank1
  2176  0355  1303               	skipc
  2177  0356  1C03               	bcf	(134)^080h,2	;volatile
  2178  0357  1106               	skipnc
  2179  0358  1803               	bsf	(134)^080h,2	;volatile
  2180  0359  1506               	line	98
  2181                           ;Hormiga877.c: 98:             break;
  2182                           	goto	l189
  2183  035A  2C21               	line	99
  2184                           ;Hormiga877.c: 99:         case 11:
  2185                           	
  2186                           l175:	
  2187  035B                     	line	100
  2188                           	
  2189                           l2219:	
  2190  035B                     ;Hormiga877.c: 100:             TRISBbits.TRISB3 = mode;
  2191                           	rrf	(pinMode@mode),w
  2192  035B  0C70               	bsf	status, 5	;RP0=1, select bank1
  2193  035C  1683               	bcf	status, 6	;RP1=0, select bank1
  2194  035D  1303               	skipc
  2195  035E  1C03               	bcf	(134)^080h,3	;volatile
  2196  035F  1186               	skipnc
  2197  0360  1803               	bsf	(134)^080h,3	;volatile
  2198  0361  1586               	line	101
  2199                           ;Hormiga877.c: 101:             break;
  2200                           	goto	l189
  2201  0362  2C21               	line	102
  2202                           ;Hormiga877.c: 102:         case 12:
  2203                           	
  2204                           l176:	
  2205  0363                     	line	103
  2206                           	
  2207                           l2221:	
  2208  0363                     ;Hormiga877.c: 103:             TRISBbits.TRISB4 = mode;
  2209                           	rrf	(pinMode@mode),w
  2210  0363  0C70               	bsf	status, 5	;RP0=1, select bank1
  2211  0364  1683               	bcf	status, 6	;RP1=0, select bank1
  2212  0365  1303               	skipc
  2213  0366  1C03               	bcf	(134)^080h,4	;volatile
  2214  0367  1206               	skipnc
  2215  0368  1803               	bsf	(134)^080h,4	;volatile
  2216  0369  1606               	line	104
  2217                           ;Hormiga877.c: 104:             break;
  2218                           	goto	l189
  2219  036A  2C21               	line	105
  2220                           ;Hormiga877.c: 105:         case 13:
  2221                           	
  2222                           l177:	
  2223  036B                     	line	106
  2224                           	
  2225                           l2223:	
  2226  036B                     ;Hormiga877.c: 106:             TRISBbits.TRISB5 = mode;
  2227                           	rrf	(pinMode@mode),w
  2228  036B  0C70               	bsf	status, 5	;RP0=1, select bank1
  2229  036C  1683               	bcf	status, 6	;RP1=0, select bank1
  2230  036D  1303               	skipc
  2231  036E  1C03               	bcf	(134)^080h,5	;volatile
  2232  036F  1286               	skipnc
  2233  0370  1803               	bsf	(134)^080h,5	;volatile
  2234  0371  1686               	line	107
  2235                           ;Hormiga877.c: 107:             break;
  2236                           	goto	l189
  2237  0372  2C21               	line	108
  2238                           ;Hormiga877.c: 108:         case 14:
  2239                           	
  2240                           l178:	
  2241  0373                     	line	109
  2242                           	
  2243                           l2225:	
  2244  0373                     ;Hormiga877.c: 109:             TRISBbits.TRISB6 = mode;
  2245                           	rrf	(pinMode@mode),w
  2246  0373  0C70               	bsf	status, 5	;RP0=1, select bank1
  2247  0374  1683               	bcf	status, 6	;RP1=0, select bank1
  2248  0375  1303               	skipc
  2249  0376  1C03               	bcf	(134)^080h,6	;volatile
  2250  0377  1306               	skipnc
  2251  0378  1803               	bsf	(134)^080h,6	;volatile
  2252  0379  1706               	line	110
  2253                           ;Hormiga877.c: 110:             break;
  2254                           	goto	l189
  2255  037A  2C21               	line	111
  2256                           ;Hormiga877.c: 111:         case 15:
  2257                           	
  2258                           l179:	
  2259  037B                     	line	112
  2260                           	
  2261                           l2227:	
  2262  037B                     ;Hormiga877.c: 112:             TRISBbits.TRISB7 = mode;
  2263                           	rrf	(pinMode@mode),w
  2264  037B  0C70               	bsf	status, 5	;RP0=1, select bank1
  2265  037C  1683               	bcf	status, 6	;RP1=0, select bank1
  2266  037D  1303               	skipc
  2267  037E  1C03               	bcf	(134)^080h,7	;volatile
  2268  037F  1386               	skipnc
  2269  0380  1803               	bsf	(134)^080h,7	;volatile
  2270  0381  1786               	line	113
  2271                           ;Hormiga877.c: 113:             break;
  2272                           	goto	l189
  2273  0382  2C21               	line	114
  2274                           ;Hormiga877.c: 114:         case 16:
  2275                           	
  2276                           l180:	
  2277  0383                     	line	115
  2278                           	
  2279                           l2229:	
  2280  0383                     ;Hormiga877.c: 115:             TRISDbits.TRISD0 = mode;
  2281                           	rrf	(pinMode@mode),w
  2282  0383  0C70               	bsf	status, 5	;RP0=1, select bank1
  2283  0384  1683               	bcf	status, 6	;RP1=0, select bank1
  2284  0385  1303               	skipc
  2285  0386  1C03               	bcf	(136)^080h,0	;volatile
  2286  0387  1008               	skipnc
  2287  0388  1803               	bsf	(136)^080h,0	;volatile
  2288  0389  1408               	line	116
  2289                           ;Hormiga877.c: 116:             break;
  2290                           	goto	l189
  2291  038A  2C21               	line	117
  2292                           ;Hormiga877.c: 117:         case 17:
  2293                           	
  2294                           l181:	
  2295  038B                     	line	118
  2296                           	
  2297                           l2231:	
  2298  038B                     ;Hormiga877.c: 118:             TRISDbits.TRISD1 = mode;
  2299                           	rrf	(pinMode@mode),w
  2300  038B  0C70               	bsf	status, 5	;RP0=1, select bank1
  2301  038C  1683               	bcf	status, 6	;RP1=0, select bank1
  2302  038D  1303               	skipc
  2303  038E  1C03               	bcf	(136)^080h,1	;volatile
  2304  038F  1088               	skipnc
  2305  0390  1803               	bsf	(136)^080h,1	;volatile
  2306  0391  1488               	line	119
  2307                           ;Hormiga877.c: 119:             break;
  2308                           	goto	l189
  2309  0392  2C21               	line	120
  2310                           ;Hormiga877.c: 120:         case 18:
  2311                           	
  2312                           l182:	
  2313  0393                     	line	121
  2314                           	
  2315                           l2233:	
  2316  0393                     ;Hormiga877.c: 121:             TRISDbits.TRISD2 = mode;
  2317                           	rrf	(pinMode@mode),w
  2318  0393  0C70               	bsf	status, 5	;RP0=1, select bank1
  2319  0394  1683               	bcf	status, 6	;RP1=0, select bank1
  2320  0395  1303               	skipc
  2321  0396  1C03               	bcf	(136)^080h,2	;volatile
  2322  0397  1108               	skipnc
  2323  0398  1803               	bsf	(136)^080h,2	;volatile
  2324  0399  1508               	line	122
  2325                           ;Hormiga877.c: 122:             break;
  2326                           	goto	l189
  2327  039A  2C21               	line	123
  2328                           ;Hormiga877.c: 123:         case 19:
  2329                           	
  2330                           l183:	
  2331  039B                     	line	124
  2332                           	
  2333                           l2235:	
  2334  039B                     ;Hormiga877.c: 124:             TRISDbits.TRISD3 = mode;
  2335                           	rrf	(pinMode@mode),w
  2336  039B  0C70               	bsf	status, 5	;RP0=1, select bank1
  2337  039C  1683               	bcf	status, 6	;RP1=0, select bank1
  2338  039D  1303               	skipc
  2339  039E  1C03               	bcf	(136)^080h,3	;volatile
  2340  039F  1188               	skipnc
  2341  03A0  1803               	bsf	(136)^080h,3	;volatile
  2342  03A1  1588               	line	125
  2343                           ;Hormiga877.c: 125:             break;
  2344                           	goto	l189
  2345  03A2  2C21               	line	126
  2346                           ;Hormiga877.c: 126:         case 20:
  2347                           	
  2348                           l184:	
  2349  03A3                     	line	127
  2350                           	
  2351                           l2237:	
  2352  03A3                     ;Hormiga877.c: 127:    TRISDbits.TRISD4 = mode;
  2353                           	rrf	(pinMode@mode),w
  2354  03A3  0C70               	bsf	status, 5	;RP0=1, select bank1
  2355  03A4  1683               	bcf	status, 6	;RP1=0, select bank1
  2356  03A5  1303               	skipc
  2357  03A6  1C03               	bcf	(136)^080h,4	;volatile
  2358  03A7  1208               	skipnc
  2359  03A8  1803               	bsf	(136)^080h,4	;volatile
  2360  03A9  1608               	line	137
  2361                           ;Hormiga877.c: 137:    break;
  2362                           	goto	l189
  2363  03AA  2C21               	line	138
  2364                           ;Hormiga877.c: 138:         case 21:
  2365                           	
  2366                           l185:	
  2367  03AB                     	line	139
  2368                           	
  2369                           l2239:	
  2370  03AB                     ;Hormiga877.c: 139:             TRISDbits.TRISD5 = mode;
  2371                           	rrf	(pinMode@mode),w
  2372  03AB  0C70               	bsf	status, 5	;RP0=1, select bank1
  2373  03AC  1683               	bcf	status, 6	;RP1=0, select bank1
  2374  03AD  1303               	skipc
  2375  03AE  1C03               	bcf	(136)^080h,5	;volatile
  2376  03AF  1288               	skipnc
  2377  03B0  1803               	bsf	(136)^080h,5	;volatile
  2378  03B1  1688               	line	140
  2379                           ;Hormiga877.c: 140:             break;
  2380                           	goto	l189
  2381  03B2  2C21               	line	141
  2382                           ;Hormiga877.c: 141:         case 22:
  2383                           	
  2384                           l186:	
  2385  03B3                     	line	142
  2386                           	
  2387                           l2241:	
  2388  03B3                     ;Hormiga877.c: 142:             TRISDbits.TRISD6 = mode;
  2389                           	rrf	(pinMode@mode),w
  2390  03B3  0C70               	bsf	status, 5	;RP0=1, select bank1
  2391  03B4  1683               	bcf	status, 6	;RP1=0, select bank1
  2392  03B5  1303               	skipc
  2393  03B6  1C03               	bcf	(136)^080h,6	;volatile
  2394  03B7  1308               	skipnc
  2395  03B8  1803               	bsf	(136)^080h,6	;volatile
  2396  03B9  1708               	line	143
  2397                           ;Hormiga877.c: 143:             break;
  2398                           	goto	l189
  2399  03BA  2C21               	line	144
  2400                           ;Hormiga877.c: 144:         case 23:
  2401                           	
  2402                           l187:	
  2403  03BB                     	line	145
  2404                           	
  2405                           l2243:	
  2406  03BB                     ;Hormiga877.c: 145:             TRISDbits.TRISD7 = mode;
  2407                           	rrf	(pinMode@mode),w
  2408  03BB  0C70               	bsf	status, 5	;RP0=1, select bank1
  2409  03BC  1683               	bcf	status, 6	;RP1=0, select bank1
  2410  03BD  1303               	skipc
  2411  03BE  1C03               	bcf	(136)^080h,7	;volatile
  2412  03BF  1388               	skipnc
  2413  03C0  1803               	bsf	(136)^080h,7	;volatile
  2414  03C1  1788               	line	146
  2415                           ;Hormiga877.c: 146:             break;
  2416                           	goto	l189
  2417  03C2  2C21               	line	147
  2418                           ;Hormiga877.c: 147:         case 24:
  2419                           	
  2420                           l188:	
  2421  03C3                     	line	148
  2422                           	
  2423                           l2245:	
  2424  03C3                     ;Hormiga877.c: 148:             TRISAbits.TRISA4 = mode;
  2425                           	rrf	(pinMode@mode),w
  2426  03C3  0C70               	bsf	status, 5	;RP0=1, select bank1
  2427  03C4  1683               	bcf	status, 6	;RP1=0, select bank1
  2428  03C5  1303               	skipc
  2429  03C6  1C03               	bcf	(133)^080h,4	;volatile
  2430  03C7  1205               	skipnc
  2431  03C8  1803               	bsf	(133)^080h,4	;volatile
  2432  03C9  1605               	line	149
  2433                           ;Hormiga877.c: 149:             break;
  2434                           	goto	l189
  2435  03CA  2C21               	line	164
  2436                           	
  2437                           l2247:	
  2438  03CB                     ;Hormiga877.c: 164:     }
  2439                           	goto	l189
  2440  03CB  2C21               	
  2441                           l162:	
  2442  03CC                     	
  2443                           l2249:	
  2444  03CC                     	movf	(pinMode@pin),w
  2445  03CC  0873               	movwf	(??_pinMode+0)+0
  2446  03CD  00F1               	clrf	(??_pinMode+0)+0+1
  2447  03CE  01F2               	; Switch on 2 bytes has been partitioned into a top level switch of size 1, and 1 sub-s
                                 witches
  2448                           ; Switch size 1, requested type "space"
  2449                           ; Number of cases is 1, Range of values is 0 to 0
  2450                           ; switch strategies available:
  2451                           ; Name         Instructions Cycles
  2452                           ; simple_byte            4     3 (average)
  2453                           ; direct_byte           11     8 (fixed)
  2454                           ; jumptable            260     6 (fixed)
  2455                           ;	Chosen strategy is simple_byte
  2456                           
  2457                           	movf 1+(??_pinMode+0)+0,w
  2458  03CF  0872               	opt asmopt_push
  2459                           	opt asmopt_off
  2460                           	xorlw	0^0	; case 0
  2461  03D0  3A00               	skipnz
  2462  03D1  1903               	goto	l2605
  2463  03D2  2BD4               	goto	l189
  2464  03D3  2C21               	opt asmopt_pop
  2465                           	
  2466                           l2605:	
  2467  03D4                     ; Switch size 1, requested type "space"
  2468                           ; Number of cases is 25, Range of values is 0 to 24
  2469                           ; switch strategies available:
  2470                           ; Name         Instructions Cycles
  2471                           ; simple_byte           76    39 (average)
  2472                           ; direct_byte           83     8 (fixed)
  2473                           ; jumptable            260     6 (fixed)
  2474                           ;	Chosen strategy is simple_byte
  2475                           
  2476                           	movf 0+(??_pinMode+0)+0,w
  2477  03D4  0871               	opt asmopt_push
  2478                           	opt asmopt_off
  2479                           	xorlw	0^0	; case 0
  2480  03D5  3A00               	skipnz
  2481  03D6  1903               	goto	l2197
  2482  03D7  2B03               	xorlw	1^0	; case 1
  2483  03D8  3A01               	skipnz
  2484  03D9  1903               	goto	l2199
  2485  03DA  2B0B               	xorlw	2^1	; case 2
  2486  03DB  3A03               	skipnz
  2487  03DC  1903               	goto	l2201
  2488  03DD  2B13               	xorlw	3^2	; case 3
  2489  03DE  3A01               	skipnz
  2490  03DF  1903               	goto	l2203
  2491  03E0  2B1B               	xorlw	4^3	; case 4
  2492  03E1  3A07               	skipnz
  2493  03E2  1903               	goto	l2205
  2494  03E3  2B23               	xorlw	5^4	; case 5
  2495  03E4  3A01               	skipnz
  2496  03E5  1903               	goto	l2207
  2497  03E6  2B2B               	xorlw	6^5	; case 6
  2498  03E7  3A03               	skipnz
  2499  03E8  1903               	goto	l2209
  2500  03E9  2B33               	xorlw	7^6	; case 7
  2501  03EA  3A01               	skipnz
  2502  03EB  1903               	goto	l2211
  2503  03EC  2B3B               	xorlw	8^7	; case 8
  2504  03ED  3A0F               	skipnz
  2505  03EE  1903               	goto	l2213
  2506  03EF  2B43               	xorlw	9^8	; case 9
  2507  03F0  3A01               	skipnz
  2508  03F1  1903               	goto	l2215
  2509  03F2  2B4B               	xorlw	10^9	; case 10
  2510  03F3  3A03               	skipnz
  2511  03F4  1903               	goto	l2217
  2512  03F5  2B53               	xorlw	11^10	; case 11
  2513  03F6  3A01               	skipnz
  2514  03F7  1903               	goto	l2219
  2515  03F8  2B5B               	xorlw	12^11	; case 12
  2516  03F9  3A07               	skipnz
  2517  03FA  1903               	goto	l2221
  2518  03FB  2B63               	xorlw	13^12	; case 13
  2519  03FC  3A01               	skipnz
  2520  03FD  1903               	goto	l2223
  2521  03FE  2B6B               	xorlw	14^13	; case 14
  2522  03FF  3A03               	skipnz
  2523  0400  1903               	goto	l2225
  2524  0401  2B73               	xorlw	15^14	; case 15
  2525  0402  3A01               	skipnz
  2526  0403  1903               	goto	l2227
  2527  0404  2B7B               	xorlw	16^15	; case 16
  2528  0405  3A1F               	skipnz
  2529  0406  1903               	goto	l2229
  2530  0407  2B83               	xorlw	17^16	; case 17
  2531  0408  3A01               	skipnz
  2532  0409  1903               	goto	l2231
  2533  040A  2B8B               	xorlw	18^17	; case 18
  2534  040B  3A03               	skipnz
  2535  040C  1903               	goto	l2233
  2536  040D  2B93               	xorlw	19^18	; case 19
  2537  040E  3A01               	skipnz
  2538  040F  1903               	goto	l2235
  2539  0410  2B9B               	xorlw	20^19	; case 20
  2540  0411  3A07               	skipnz
  2541  0412  1903               	goto	l2237
  2542  0413  2BA3               	xorlw	21^20	; case 21
  2543  0414  3A01               	skipnz
  2544  0415  1903               	goto	l2239
  2545  0416  2BAB               	xorlw	22^21	; case 22
  2546  0417  3A03               	skipnz
  2547  0418  1903               	goto	l2241
  2548  0419  2BB3               	xorlw	23^22	; case 23
  2549  041A  3A01               	skipnz
  2550  041B  1903               	goto	l2243
  2551  041C  2BBB               	xorlw	24^23	; case 24
  2552  041D  3A0F               	skipnz
  2553  041E  1903               	goto	l2245
  2554  041F  2BC3               	goto	l189
  2555  0420  2C21               	opt asmopt_pop
  2556                           
  2557                           	
  2558                           l164:	
  2559  0421                     	line	165
  2560                           	
  2561                           l189:	
  2562  0421                     	return
  2563  0421  0008               	opt stack 0
  2564                           GLOBAL	__end_of_pinMode
  2565                           	__end_of_pinMode:
  2566  0422                     	signat	_pinMode,8313
  2567                           	global	_PIDSetSampleTime
  2568                           
  2569 ;; *************** function _PIDSetSampleTime *****************
  2570 ;; Defined at:
  2571 ;;		line 13 in file "PIDController.c"
  2572 ;; Parameters:    Size  Location     Type
  2573 ;;  dt              1    wreg     unsigned char 
  2574 ;; Auto vars:     Size  Location     Type
  2575 ;;  dt              1    1[COMMON] unsigned char 
  2576 ;; Return value:  Size  Location     Type
  2577 ;;                  1    wreg      void 
  2578 ;; Registers used:
  2579 ;;		wreg, status,2, status,0
  2580 ;; Tracked objects:
  2581 ;;		On entry : 0/0
  2582 ;;		On exit  : 0/0
  2583 ;;		Unchanged: 0/0
  2584 ;; Data sizes:     COMMON   BANK0   BANK1   BANK3   BANK2
  2585 ;;      Params:         0       0       0       0       0
  2586 ;;      Locals:         1       0       0       0       0
  2587 ;;      Temps:          1       0       0       0       0
  2588 ;;      Totals:         2       0       0       0       0
  2589 ;;Total ram usage:        2 bytes
  2590 ;; Hardware stack levels used:    1
  2591 ;; This function calls:
  2592 ;;		Nothing
  2593 ;; This function is called by:
  2594 ;;		_setup
  2595 ;; This function uses a non-reentrant model
  2596 ;;
  2597                           psect	text4,local,class=CODE,delta=2,merge=1,group=0
  2598                           	file	"PIDController.c"
  2599                           	line	13
  2600                           global __ptext4
  2601                           __ptext4:	;psect for function _PIDSetSampleTime
  2602  0DE3                     psect	text4
  2603                           	file	"PIDController.c"
  2604                           	line	13
  2605                           	global	__size_of_PIDSetSampleTime
  2606                           	__size_of_PIDSetSampleTime	equ	__end_of_PIDSetSampleTime-_PIDSetSampleTime
  2607  0013                     	
  2608                           _PIDSetSampleTime:	
  2609  0DE3                     ;incstack = 0
  2610                           	opt	stack 6
  2611                           ; Regs used in _PIDSetSampleTime: [wreg+status,2+status,0]
  2612                           ;PIDSetSampleTime@dt stored from wreg
  2613                           	movwf	(PIDSetSampleTime@dt)
  2614  0DE3  00F1               	line	15
  2615                           	
  2616                           l1429:	
  2617  0DE4                     ;PIDController.c: 13: void PIDSetSampleTime(char dt);PIDController.c: 14: {;PIDControlle
                                 r.c: 15:     OPTION_REG &= 0xD7;
  2618                           	movlw	low(0D7h)
  2619  0DE4  30D7               	movwf	(??_PIDSetSampleTime+0)+0
  2620  0DE5  00F0               	movf	(??_PIDSetSampleTime+0)+0,w
  2621  0DE6  0870               	bsf	status, 5	;RP0=1, select bank1
  2622  0DE7  1683               	bcf	status, 6	;RP1=0, select bank1
  2623  0DE8  1303               	andwf	(129)^080h,f	;volatile
  2624  0DE9  0581               	line	16
  2625                           	
  2626                           l1431:	
  2627  0DEA                     ;PIDController.c: 16:     TMR0IF = 0;
  2628                           	bcf	(90/8),(90)&7	;volatile
  2629  0DEA  110B               	line	17
  2630                           ;PIDController.c: 17:     TMR0 = 0xFF - dt;
  2631                           	decf	(PIDSetSampleTime@dt),w
  2632  0DEB  0371               	xorlw	0ffh
  2633  0DEC  3AFF               	addlw	0FFh
  2634  0DED  3EFF               	bcf	status, 5	;RP0=0, select bank0
  2635  0DEE  1283               	bcf	status, 6	;RP1=0, select bank0
  2636  0DEF  1303               	movwf	(1)	;volatile
  2637  0DF0  0081               	line	18
  2638                           	
  2639                           l1433:	
  2640  0DF1                     ;PIDController.c: 18:     PID.SampleT = dt;
  2641                           	movf	(PIDSetSampleTime@dt),w
  2642  0DF1  0871               	movwf	(??_PIDSetSampleTime+0)+0
  2643  0DF2  00F0               	movf	(??_PIDSetSampleTime+0)+0,w
  2644  0DF3  0870               	movwf	0+(_PID)+0Ch
  2645  0DF4  00AC               	line	19
  2646                           	
  2647                           l380:	
  2648  0DF5                     	return
  2649  0DF5  0008               	opt stack 0
  2650                           GLOBAL	__end_of_PIDSetSampleTime
  2651                           	__end_of_PIDSetSampleTime:
  2652  0DF6                     	signat	_PIDSetSampleTime,4217
  2653                           	global	_loop
  2654                           
  2655 ;; *************** function _loop *****************
  2656 ;; Defined at:
  2657 ;;		line 28 in file "application.c"
  2658 ;; Parameters:    Size  Location     Type
  2659 ;;		None
  2660 ;; Auto vars:     Size  Location     Type
  2661 ;;		None
  2662 ;; Return value:  Size  Location     Type
  2663 ;;                  1    wreg      void 
  2664 ;; Registers used:
  2665 ;;		wreg, fsr0l, fsr0h, status,2, status,0, btemp+1, pclath, cstack
  2666 ;; Tracked objects:
  2667 ;;		On entry : 0/0
  2668 ;;		On exit  : 0/0
  2669 ;;		Unchanged: 0/0
  2670 ;; Data sizes:     COMMON   BANK0   BANK1   BANK3   BANK2
  2671 ;;      Params:         0       0       0       0       0
  2672 ;;      Locals:         0       0       0       0       0
  2673 ;;      Temps:          0       2       0       0       0
  2674 ;;      Totals:         0       2       0       0       0
  2675 ;;Total ram usage:        2 bytes
  2676 ;; Hardware stack levels used:    1
  2677 ;; Hardware stack levels required when called:    5
  2678 ;; This function calls:
  2679 ;;		_EventCounter
  2680 ;;		_lcdPrint
  2681 ;;		_lcdSetCursor
  2682 ;;		_sprintf
  2683 ;; This function is called by:
  2684 ;;		_main
  2685 ;; This function uses a non-reentrant model
  2686 ;;
  2687                           psect	text5,local,class=CODE,delta=2,merge=1,group=0
  2688                           	file	"application.c"
  2689                           	line	28
  2690                           global __ptext5
  2691                           __ptext5:	;psect for function _loop
  2692  0191                     psect	text5
  2693                           	file	"application.c"
  2694                           	line	28
  2695                           	global	__size_of_loop
  2696                           	__size_of_loop	equ	__end_of_loop-_loop
  2697  0090                     	
  2698                           _loop:	
  2699  0191                     ;incstack = 0
  2700                           	opt	stack 2
  2701                           ; Regs used in _loop: [wreg-fsr0h+status,2+status,0+btemp+1+pclath+cstack]
  2702                           	line	30
  2703                           	
  2704                           l2455:	
  2705  0191                     ;application.c: 30:     Now = EventCounter();
  2706                           	fcall	_EventCounter
  2707  0191  120A  158A  260A  120A  118A  	movf	(1+(?_EventCounter)),w
  2708  0196  0871               	bcf	status, 5	;RP0=0, select bank0
  2709  0197  1283               	bcf	status, 6	;RP1=0, select bank0
  2710  0198  1303               	movwf	(_Now+1)
  2711  0199  00B4               	movf	(0+(?_EventCounter)),w
  2712  019A  0870               	movwf	(_Now)
  2713  019B  00B3               	line	31
  2714                           	
  2715                           l2457:	
  2716  019C                     ;application.c: 31:     sprintf(ScreenROW,"NOW=%u",dTime);
  2717                           	movlw	(low((((STR_2)-__stringbase)|8000h)))&0ffh
  2718  019C  303D               	movwf	(??_loop+0)+0
  2719  019D  00D4               	movf	(??_loop+0)+0,w
  2720  019E  0854               	movwf	(sprintf@f)
  2721  019F  00C7               	movf	(_dTime+1),w
  2722  01A0  0836               	movwf	1+(?_sprintf)+01h
  2723  01A1  00C9               	movf	(_dTime),w
  2724  01A2  0835               	movwf	0+(?_sprintf)+01h
  2725  01A3  00C8               	movlw	(low(_ScreenROW|((0x0)<<8)))&0ffh
  2726  01A4  3037               	fcall	_sprintf
  2727  01A5  120A  118A  2221  120A  118A  	line	32
  2728                           	
  2729                           l2459:	
  2730  01AA                     ;application.c: 32:     lcdPrint(ScreenROW);
  2731                           	movlw	(low(_ScreenROW|((0x0)<<8))&0ffh)
  2732  01AA  3037               	bcf	status, 5	;RP0=0, select bank0
  2733  01AB  1283               	bcf	status, 6	;RP1=0, select bank0
  2734  01AC  1303               	movwf	(lcdPrint@string)
  2735  01AD  00C7               	movlw	(0x0)
  2736  01AE  3000               	movwf	(lcdPrint@string+1)
  2737  01AF  00C8               	fcall	_lcdPrint
  2738  01B0  120A  158A  26BB  120A  118A  	line	33
  2739                           	
  2740                           l2461:	
  2741  01B5                     ;application.c: 33:     lcdSetCursor(2,8);
  2742                           	movlw	low(08h)
  2743  01B5  3008               	bcf	status, 5	;RP0=0, select bank0
  2744  01B6  1283               	bcf	status, 6	;RP1=0, select bank0
  2745  01B7  1303               	movwf	(??_loop+0)+0
  2746  01B8  00D4               	movf	(??_loop+0)+0,w
  2747  01B9  0854               	movwf	(lcdSetCursor@column)
  2748  01BA  00FC               	movlw	low(02h)
  2749  01BB  3002               	fcall	_lcdSetCursor
  2750  01BC  120A  158A  264E  120A  118A  	line	34
  2751                           	
  2752                           l2463:	
  2753  01C1                     ;application.c: 34:     dTime = Now - Last;
  2754                           	bcf	status, 5	;RP0=0, select bank0
  2755  01C1  1283               	bcf	status, 6	;RP1=0, select bank0
  2756  01C2  1303               	comf	(_Last),w
  2757  01C3  0931               	movwf	(??_loop+0)+0
  2758  01C4  00D4               	comf	(_Last+1),w
  2759  01C5  0932               	movwf	((??_loop+0)+0+1)
  2760  01C6  00D5               	incf	(??_loop+0)+0,f
  2761  01C7  0AD4               	skipnz
  2762  01C8  1903               	incf	((??_loop+0)+0+1),f
  2763  01C9  0AD5               	movf	(_Now),w
  2764  01CA  0833               	addwf	0+(??_loop+0)+0,w
  2765  01CB  0754               	movwf	(_dTime)
  2766  01CC  00B5               	movf	(_Now+1),w
  2767  01CD  0834               	skipnc
  2768  01CE  1803               	incf	(_Now+1),w
  2769  01CF  0A34               	addwf	1+(??_loop+0)+0,w
  2770  01D0  0755               	movwf	1+(_dTime)
  2771  01D1  00B6               	line	35
  2772                           	
  2773                           l2465:	
  2774  01D2                     ;application.c: 35:     if(dTime >= 20)
  2775                           	movlw	0
  2776  01D2  3000               	subwf	(_dTime+1),w
  2777  01D3  0236               	movlw	014h
  2778  01D4  3014               	skipnz
  2779  01D5  1903               	subwf	(_dTime),w
  2780  01D6  0235               	skipc
  2781  01D7  1C03               	goto	u971
  2782  01D8  29DA               	goto	u970
  2783  01D9  29DB               u971:
  2784  01DA                     	goto	l43
  2785  01DA  2A20               u970:
  2786  01DB                     	line	37
  2787                           	
  2788                           l2467:	
  2789  01DB                     ;application.c: 36:     {;application.c: 37:         dt++;
  2790                           	movlw	01h
  2791  01DB  3001               	addwf	(_dt),f
  2792  01DC  07AF               	skipnc
  2793  01DD  1803               	incf	(_dt+1),f
  2794  01DE  0AB0               	movlw	0
  2795  01DF  3000               	addwf	(_dt+1),f
  2796  01E0  07B0               	line	38
  2797                           	
  2798                           l2469:	
  2799  01E1                     ;application.c: 38:         lcdSetCursor(2,1);
  2800                           	clrf	(lcdSetCursor@column)
  2801  01E1  01FC               	incf	(lcdSetCursor@column),f
  2802  01E2  0AFC               	movlw	low(02h)
  2803  01E3  3002               	fcall	_lcdSetCursor
  2804  01E4  120A  158A  264E  120A  118A  	line	39
  2805                           	
  2806                           l2471:	
  2807  01E9                     ;application.c: 39:         lcdPrint("                ");
  2808                           	movlw	(low((((STR_3)-__stringbase)|8000h)))&0ffh
  2809  01E9  3012               	bcf	status, 5	;RP0=0, select bank0
  2810  01EA  1283               	bcf	status, 6	;RP1=0, select bank0
  2811  01EB  1303               	movwf	(lcdPrint@string)
  2812  01EC  00C7               	movlw	80h
  2813  01ED  3080               	movwf	(lcdPrint@string+1)
  2814  01EE  00C8               	fcall	_lcdPrint
  2815  01EF  120A  158A  26BB  120A  118A  	line	40
  2816                           	
  2817                           l2473:	
  2818  01F4                     ;application.c: 40:         lcdSetCursor(2,1);
  2819                           	clrf	(lcdSetCursor@column)
  2820  01F4  01FC               	incf	(lcdSetCursor@column),f
  2821  01F5  0AFC               	movlw	low(02h)
  2822  01F6  3002               	fcall	_lcdSetCursor
  2823  01F7  120A  158A  264E  120A  118A  	line	41
  2824                           	
  2825                           l2475:	
  2826  01FC                     ;application.c: 41:         sprintf(ScreenROW,"Time=%u ",dt);
  2827                           	movlw	(low((((STR_4)-__stringbase)|8000h)))&0ffh
  2828  01FC  3034               	bcf	status, 5	;RP0=0, select bank0
  2829  01FD  1283               	bcf	status, 6	;RP1=0, select bank0
  2830  01FE  1303               	movwf	(??_loop+0)+0
  2831  01FF  00D4               	movf	(??_loop+0)+0,w
  2832  0200  0854               	movwf	(sprintf@f)
  2833  0201  00C7               	movf	(_dt+1),w
  2834  0202  0830               	movwf	1+(?_sprintf)+01h
  2835  0203  00C9               	movf	(_dt),w
  2836  0204  082F               	movwf	0+(?_sprintf)+01h
  2837  0205  00C8               	movlw	(low(_ScreenROW|((0x0)<<8)))&0ffh
  2838  0206  3037               	fcall	_sprintf
  2839  0207  120A  118A  2221  120A  118A  	line	42
  2840                           	
  2841                           l2477:	
  2842  020C                     ;application.c: 42:         lcdPrint(ScreenROW);
  2843                           	movlw	(low(_ScreenROW|((0x0)<<8))&0ffh)
  2844  020C  3037               	bcf	status, 5	;RP0=0, select bank0
  2845  020D  1283               	bcf	status, 6	;RP1=0, select bank0
  2846  020E  1303               	movwf	(lcdPrint@string)
  2847  020F  00C7               	movlw	(0x0)
  2848  0210  3000               	movwf	(lcdPrint@string+1)
  2849  0211  00C8               	fcall	_lcdPrint
  2850  0212  120A  158A  26BB  120A  118A  	line	43
  2851                           	
  2852                           l2479:	
  2853  0217                     ;application.c: 43:         dTime = 0;
  2854                           	bcf	status, 5	;RP0=0, select bank0
  2855  0217  1283               	bcf	status, 6	;RP1=0, select bank0
  2856  0218  1303               	clrf	(_dTime)
  2857  0219  01B5               	clrf	(_dTime+1)
  2858  021A  01B6               	line	44
  2859                           	
  2860                           l2481:	
  2861  021B                     ;application.c: 44:         Last = Now;
  2862                           	movf	(_Now+1),w
  2863  021B  0834               	movwf	(_Last+1)
  2864  021C  00B2               	movf	(_Now),w
  2865  021D  0833               	movwf	(_Last)
  2866  021E  00B1               	goto	l43
  2867  021F  2A20               	line	45
  2868                           ;application.c: 45:     }
  2869                           	
  2870                           l42:	
  2871  0220                     	line	46
  2872                           	
  2873                           l43:	
  2874  0220                     	return
  2875  0220  0008               	opt stack 0
  2876                           GLOBAL	__end_of_loop
  2877                           	__end_of_loop:
  2878  0221                     	signat	_loop,89
  2879                           	global	_sprintf
  2880                           
  2881 ;; *************** function _sprintf *****************
  2882 ;; Defined at:
  2883 ;;		line 500 in file "C:\Program Files (x86)\Microchip\xc8\v2.00\pic\sources\c90\common\doprnt.c"
  2884 ;; Parameters:    Size  Location     Type
  2885 ;;  sp              1    wreg     PTR unsigned char 
  2886 ;;		 -> ScreenROW(16), 
  2887 ;;  f               1    0[BANK0 ] PTR const unsigned char 
  2888 ;;		 -> STR_4(9), STR_2(7), 
  2889 ;; Auto vars:     Size  Location     Type
  2890 ;;  sp              1   11[BANK0 ] PTR unsigned char 
  2891 ;;		 -> ScreenROW(16), 
  2892 ;;  tmpval          4    0        struct .
  2893 ;;  val             2    8[BANK0 ] unsigned int 
  2894 ;;  cp              2    0        PTR const unsigned char 
  2895 ;;  len             2    0        unsigned int 
  2896 ;;  c               1   12[BANK0 ] unsigned char 
  2897 ;;  prec            1   10[BANK0 ] char 
  2898 ;;  ap              1    7[BANK0 ] PTR void [1]
  2899 ;;		 -> ?_sprintf(2), 
  2900 ;;  flag            1    6[BANK0 ] unsigned char 
  2901 ;; Return value:  Size  Location     Type
  2902 ;;                  2    0[BANK0 ] int 
  2903 ;; Registers used:
  2904 ;;		wreg, fsr0l, fsr0h, status,2, status,0, btemp+1, pclath, cstack
  2905 ;; Tracked objects:
  2906 ;;		On entry : 0/0
  2907 ;;		On exit  : 0/0
  2908 ;;		Unchanged: 0/0
  2909 ;; Data sizes:     COMMON   BANK0   BANK1   BANK3   BANK2
  2910 ;;      Params:         0       3       0       0       0
  2911 ;;      Locals:         0       7       0       0       0
  2912 ;;      Temps:          0       3       0       0       0
  2913 ;;      Totals:         0      13       0       0       0
  2914 ;;Total ram usage:       13 bytes
  2915 ;; Hardware stack levels used:    1
  2916 ;; Hardware stack levels required when called:    1
  2917 ;; This function calls:
  2918 ;;		___lwdiv
  2919 ;;		___lwmod
  2920 ;; This function is called by:
  2921 ;;		_loop
  2922 ;; This function uses a non-reentrant model
  2923 ;;
  2924                           psect	text6,local,class=CODE,delta=2,merge=1,group=0
  2925                           	file	"C:\Program Files (x86)\Microchip\xc8\v2.00\pic\sources\c90\common\doprnt.c"
  2926                           	line	500
  2927                           global __ptext6
  2928                           __ptext6:	;psect for function _sprintf
  2929  0221                     psect	text6
  2930                           	file	"C:\Program Files (x86)\Microchip\xc8\v2.00\pic\sources\c90\common\doprnt.c"
  2931                           	line	500
  2932                           	global	__size_of_sprintf
  2933                           	__size_of_sprintf	equ	__end_of_sprintf-_sprintf
  2934  00E0                     	
  2935                           _sprintf:	
  2936  0221                     ;incstack = 0
  2937                           	opt	stack 5
  2938                           ; Regs used in _sprintf: [wreg-fsr0h+status,2+status,0+btemp+1+pclath+cstack]
  2939                           ;sprintf@sp stored from wreg
  2940                           	bcf	status, 5	;RP0=0, select bank0
  2941  0221  1283               	bcf	status, 6	;RP1=0, select bank0
  2942  0222  1303               	movwf	(sprintf@sp)
  2943  0223  00D2               	line	545
  2944                           	
  2945                           l2399:	
  2946  0224                     ;C:\Program Files (x86)\Microchip\xc8\v2.00\pic\sources\c90\common\doprnt.c: 500: sprint
                                 f(char * sp, const char * f, ...);C:\Program Files (x86)\Microchip\xc8\v2.00\pic\sources
                                 \c90\common\doprnt.c: 501: {;C:\Program Files (x86)\Microchip\xc8\v2.00\pic\sources\c90\
                                 common\doprnt.c: 502:  va_list ap;;C:\Program Files (x86)\Microchip\xc8\v2.00\pic\source
                                 s\c90\common\doprnt.c: 507:  char c;;C:\Program Files (x86)\Microchip\xc8\v2.00\pic\sour
                                 ces\c90\common\doprnt.c: 516:  signed char prec;;C:\Program Files (x86)\Microchip\xc8\v2
                                 .00\pic\sources\c90\common\doprnt.c: 520:  unsigned char flag;
  2947                           	movlw	(low(?_sprintf|((0x0)<<8)+01h))&0ffh
  2948  0224  3048               	movwf	(??_sprintf+0)+0
  2949  0225  00CA               	movf	(??_sprintf+0)+0,w
  2950  0226  084A               	movwf	(sprintf@ap)
  2951  0227  00CE               	line	548
  2952                           ;C:\Program Files (x86)\Microchip\xc8\v2.00\pic\sources\c90\common\doprnt.c: 548:  while
                                 ((c = *f++)) {
  2953                           	goto	l2441
  2954  0228  2AE7               	
  2955                           l553:	
  2956  0229                     	line	550
  2957                           	
  2958                           l2401:	
  2959  0229                     ;C:\Program Files (x86)\Microchip\xc8\v2.00\pic\sources\c90\common\doprnt.c: 550:   if(c
                                  != '%')
  2960                           		movlw	37
  2961  0229  3025               	xorwf	((sprintf@c)),w
  2962  022A  0653               	btfsc	status,2
  2963  022B  1903               	goto	u911
  2964  022C  2A2E               	goto	u910
  2965  022D  2A2F               u911:
  2966  022E                     	goto	l2407
  2967  022E  2A3B               u910:
  2968  022F                     	line	553
  2969                           	
  2970                           l2403:	
  2971  022F                     ;C:\Program Files (x86)\Microchip\xc8\v2.00\pic\sources\c90\common\doprnt.c: 552:   {;C:
                                 \Program Files (x86)\Microchip\xc8\v2.00\pic\sources\c90\common\doprnt.c: 553:    ((*sp+
                                 + = (c)));
  2972                           	movf	(sprintf@c),w
  2973  022F  0853               	movwf	(??_sprintf+0)+0
  2974  0230  00CA               	movf	(sprintf@sp),w
  2975  0231  0852               	movwf	fsr0
  2976  0232  0084               	movf	(??_sprintf+0)+0,w
  2977  0233  084A               	bcf	status, 7	;select IRP bank0
  2978  0234  1383               	movwf	indf
  2979  0235  0080               	
  2980                           l2405:	
  2981  0236                     	movlw	low(01h)
  2982  0236  3001               	movwf	(??_sprintf+0)+0
  2983  0237  00CA               	movf	(??_sprintf+0)+0,w
  2984  0238  084A               	addwf	(sprintf@sp),f
  2985  0239  07D2               	line	554
  2986                           ;C:\Program Files (x86)\Microchip\xc8\v2.00\pic\sources\c90\common\doprnt.c: 554:    con
                                 tinue;
  2987                           	goto	l2441
  2988  023A  2AE7               	line	555
  2989                           ;C:\Program Files (x86)\Microchip\xc8\v2.00\pic\sources\c90\common\doprnt.c: 555:   }
  2990                           	
  2991                           l554:	
  2992  023B                     	line	560
  2993                           	
  2994                           l2407:	
  2995  023B                     ;C:\Program Files (x86)\Microchip\xc8\v2.00\pic\sources\c90\common\doprnt.c: 560:   flag
                                  = 0;
  2996                           	clrf	(sprintf@flag)
  2997  023B  01CD               	line	654
  2998                           ;C:\Program Files (x86)\Microchip\xc8\v2.00\pic\sources\c90\common\doprnt.c: 654:   swit
                                 ch(c = *f++) {
  2999                           	goto	l2413
  3000  023C  2A45               	line	656
  3001                           ;C:\Program Files (x86)\Microchip\xc8\v2.00\pic\sources\c90\common\doprnt.c: 656:   case
                                  0:
  3002                           	
  3003                           l556:	
  3004  023D                     	line	657
  3005                           ;C:\Program Files (x86)\Microchip\xc8\v2.00\pic\sources\c90\common\doprnt.c: 657:    got
                                 o alldone;
  3006                           	goto	l2443
  3007  023D  2AFB               	line	821
  3008                           ;C:\Program Files (x86)\Microchip\xc8\v2.00\pic\sources\c90\common\doprnt.c: 821:   defa
                                 ult:
  3009                           	
  3010                           l558:	
  3011  023E                     	line	832
  3012                           ;C:\Program Files (x86)\Microchip\xc8\v2.00\pic\sources\c90\common\doprnt.c: 832:    con
                                 tinue;
  3013                           	goto	l2441
  3014  023E  2AE7               	line	836
  3015                           ;C:\Program Files (x86)\Microchip\xc8\v2.00\pic\sources\c90\common\doprnt.c: 836:   case
                                  'u':
  3016                           	
  3017                           l559:	
  3018  023F                     	line	837
  3019                           	
  3020                           l2409:	
  3021  023F                     ;C:\Program Files (x86)\Microchip\xc8\v2.00\pic\sources\c90\common\doprnt.c: 837:    fla
                                 g |= 0xC0;
  3022                           	movlw	low(0C0h)
  3023  023F  30C0               	movwf	(??_sprintf+0)+0
  3024  0240  00CA               	movf	(??_sprintf+0)+0,w
  3025  0241  084A               	iorwf	(sprintf@flag),f
  3026  0242  04CD               	line	838
  3027                           ;C:\Program Files (x86)\Microchip\xc8\v2.00\pic\sources\c90\common\doprnt.c: 838:    bre
                                 ak;
  3028                           	goto	l2415
  3029  0243  2A5F               	line	841
  3030                           	
  3031                           l2411:	
  3032  0244                     ;C:\Program Files (x86)\Microchip\xc8\v2.00\pic\sources\c90\common\doprnt.c: 841:   }
  3033                           	goto	l2415
  3034  0244  2A5F               	
  3035                           l555:	
  3036  0245                     	
  3037                           l2413:	
  3038  0245                     	movlw	01h
  3039  0245  3001               	addwf	(sprintf@f),f
  3040  0246  07C7               	movlw	-01h
  3041  0247  30FF               	addwf	(sprintf@f),w
  3042  0248  0747               	movwf	fsr0
  3043  0249  0084               	fcall	stringdir
  3044  024A  120A  158A  200A  120A  118A  	movwf	(sprintf@c)
  3045  024F  00D3               	movwf	(??_sprintf+0)+0
  3046  0250  00CA               	clrf	(??_sprintf+0)+0+1
  3047  0251  01CB               	; Switch on 2 bytes has been partitioned into a top level switch of size 1, and 1 sub-s
                                 witches
  3048                           ; Switch size 1, requested type "space"
  3049                           ; Number of cases is 1, Range of values is 0 to 0
  3050                           ; switch strategies available:
  3051                           ; Name         Instructions Cycles
  3052                           ; simple_byte            4     3 (average)
  3053                           ; direct_byte           11     8 (fixed)
  3054                           ; jumptable            260     6 (fixed)
  3055                           ;	Chosen strategy is simple_byte
  3056                           
  3057                           	movf 1+(??_sprintf+0)+0,w
  3058  0252  084B               	opt asmopt_push
  3059                           	opt asmopt_off
  3060                           	xorlw	0^0	; case 0
  3061  0253  3A00               	skipnz
  3062  0254  1903               	goto	l2607
  3063  0255  2A57               	goto	l2441
  3064  0256  2AE7               	opt asmopt_pop
  3065                           	
  3066                           l2607:	
  3067  0257                     ; Switch size 1, requested type "space"
  3068                           ; Number of cases is 2, Range of values is 0 to 117
  3069                           ; switch strategies available:
  3070                           ; Name         Instructions Cycles
  3071                           ; simple_byte            7     4 (average)
  3072                           ; jumptable            260     6 (fixed)
  3073                           ;	Chosen strategy is simple_byte
  3074                           
  3075                           	movf 0+(??_sprintf+0)+0,w
  3076  0257  084A               	opt asmopt_push
  3077                           	opt asmopt_off
  3078                           	xorlw	0^0	; case 0
  3079  0258  3A00               	skipnz
  3080  0259  1903               	goto	l2443
  3081  025A  2AFB               	xorlw	117^0	; case 117
  3082  025B  3A75               	skipnz
  3083  025C  1903               	goto	l2409
  3084  025D  2A3F               	goto	l2441
  3085  025E  2AE7               	opt asmopt_pop
  3086                           
  3087                           	
  3088                           l560:	
  3089  025F                     	line	1305
  3090                           	
  3091                           l2415:	
  3092  025F                     ;C:\Program Files (x86)\Microchip\xc8\v2.00\pic\sources\c90\common\doprnt.c: 1292:   {;C
                                 :\Program Files (x86)\Microchip\xc8\v2.00\pic\sources\c90\common\doprnt.c: 1305:     val
                                  = (*(unsigned *)__va_arg((*(unsigned **)ap), (unsigned)0));
  3093                           	movf	(sprintf@ap),w
  3094  025F  084E               	movwf	fsr0
  3095  0260  0084               	bcf	status, 7	;select IRP bank0
  3096  0261  1383               	movf	indf,w
  3097  0262  0800               	movwf	(sprintf@val)
  3098  0263  00CF               	incf	fsr0,f
  3099  0264  0A84               	movf	indf,w
  3100  0265  0800               	movwf	(sprintf@val+1)
  3101  0266  00D0               	
  3102                           l2417:	
  3103  0267                     	movlw	low(02h)
  3104  0267  3002               	movwf	(??_sprintf+0)+0
  3105  0268  00CA               	movf	(??_sprintf+0)+0,w
  3106  0269  084A               	addwf	(sprintf@ap),f
  3107  026A  07CE               	line	1324
  3108                           	
  3109                           l2419:	
  3110  026B                     ;C:\Program Files (x86)\Microchip\xc8\v2.00\pic\sources\c90\common\doprnt.c: 1306:   };C
                                 :\Program Files (x86)\Microchip\xc8\v2.00\pic\sources\c90\common\doprnt.c: 1324:    for(
                                 c = 1 ; c != sizeof dpowers/sizeof dpowers[0] ; c++)
  3111                           	clrf	(sprintf@c)
  3112  026B  01D3               	incf	(sprintf@c),f
  3113  026C  0AD3               	
  3114                           l2421:	
  3115  026D                     		movlw	5
  3116  026D  3005               	xorwf	((sprintf@c)),w
  3117  026E  0653               	btfss	status,2
  3118  026F  1D03               	goto	u921
  3119  0270  2A72               	goto	u920
  3120  0271  2A73               u921:
  3121  0272                     	goto	l2425
  3122  0272  2A75               u920:
  3123  0273                     	goto	l2431
  3124  0273  2A9D               	
  3125                           l2423:	
  3126  0274                     	goto	l2431
  3127  0274  2A9D               	
  3128                           l561:	
  3129  0275                     	line	1325
  3130                           	
  3131                           l2425:	
  3132  0275                     ;C:\Program Files (x86)\Microchip\xc8\v2.00\pic\sources\c90\common\doprnt.c: 1325:     i
                                 f(val < dpowers[c])
  3133                           	movf	(sprintf@c),w
  3134  0275  0853               	movwf	(??_sprintf+0)+0
  3135  0276  00CA               	addwf	(??_sprintf+0)+0,w
  3136  0277  074A               	addlw	low((((_dpowers)-__stringbase)|8000h))
  3137  0278  3E01               	movwf	fsr0
  3138  0279  0084               	fcall	stringdir
  3139  027A  120A  158A  200A  120A  118A  	movwf	(??_sprintf+1)+0
  3140  027F  00CB               	fcall	stringdir
  3141  0280  120A  158A  200A  120A  118A  	movwf	(??_sprintf+1)+0+1
  3142  0285  00CC               	movf	1+(??_sprintf+1)+0,w
  3143  0286  084C               	subwf	(sprintf@val+1),w
  3144  0287  0250               	skipz
  3145  0288  1D03               	goto	u935
  3146  0289  2A8C               	movf	0+(??_sprintf+1)+0,w
  3147  028A  084B               	subwf	(sprintf@val),w
  3148  028B  024F               u935:
  3149  028C                     	skipnc
  3150  028C  1803               	goto	u931
  3151  028D  2A8F               	goto	u930
  3152  028E  2A90               u931:
  3153  028F                     	goto	l2429
  3154  028F  2A92               u930:
  3155  0290                     	goto	l2431
  3156  0290  2A9D               	line	1326
  3157                           	
  3158                           l2427:	
  3159  0291                     ;C:\Program Files (x86)\Microchip\xc8\v2.00\pic\sources\c90\common\doprnt.c: 1326:      
                                 break;
  3160                           	goto	l2431
  3161  0291  2A9D               	
  3162                           l563:	
  3163  0292                     	
  3164                           l2429:	
  3165  0292                     	movlw	low(01h)
  3166  0292  3001               	movwf	(??_sprintf+0)+0
  3167  0293  00CA               	movf	(??_sprintf+0)+0,w
  3168  0294  084A               	addwf	(sprintf@c),f
  3169  0295  07D3               		movlw	5
  3170  0296  3005               	xorwf	((sprintf@c)),w
  3171  0297  0653               	btfss	status,2
  3172  0298  1D03               	goto	u941
  3173  0299  2A9B               	goto	u940
  3174  029A  2A9C               u941:
  3175  029B                     	goto	l2425
  3176  029B  2A75               u940:
  3177  029C                     	goto	l2431
  3178  029C  2A9D               	
  3179                           l562:	
  3180  029D                     	line	1491
  3181                           	
  3182                           l2431:	
  3183  029D                     ;C:\Program Files (x86)\Microchip\xc8\v2.00\pic\sources\c90\common\doprnt.c: 1441:   {;C
                                 :\Program Files (x86)\Microchip\xc8\v2.00\pic\sources\c90\common\doprnt.c: 1488:   };C:\
                                 Program Files (x86)\Microchip\xc8\v2.00\pic\sources\c90\common\doprnt.c: 1491:   prec = 
                                 c;
  3184                           	movf	(sprintf@c),w
  3185  029D  0853               	movwf	(??_sprintf+0)+0
  3186  029E  00CA               	movf	(??_sprintf+0)+0,w
  3187  029F  084A               	movwf	(sprintf@prec)
  3188  02A0  00D1               	line	1493
  3189                           ;C:\Program Files (x86)\Microchip\xc8\v2.00\pic\sources\c90\common\doprnt.c: 1493:   whi
                                 le(prec--) {
  3190                           	goto	l2439
  3191  02A1  2ADC               	
  3192                           l565:	
  3193  02A2                     	line	1508
  3194                           	
  3195                           l2433:	
  3196  02A2                     ;C:\Program Files (x86)\Microchip\xc8\v2.00\pic\sources\c90\common\doprnt.c: 1497:    {;
                                 C:\Program Files (x86)\Microchip\xc8\v2.00\pic\sources\c90\common\doprnt.c: 1508:     c 
                                 = (val / dpowers[prec]) % 10 + '0';
  3197                           	movlw	0Ah
  3198  02A2  300A               	movwf	(___lwmod@divisor)
  3199  02A3  00F8               	movlw	0
  3200  02A4  3000               	movwf	((___lwmod@divisor))+1
  3201  02A5  00F9               	movf	(sprintf@prec),w
  3202  02A6  0851               	movwf	(??_sprintf+0)+0
  3203  02A7  00CA               	addwf	(??_sprintf+0)+0,w
  3204  02A8  074A               	addlw	low((((_dpowers)-__stringbase)|8000h))
  3205  02A9  3E01               	movwf	fsr0
  3206  02AA  0084               	fcall	stringdir
  3207  02AB  120A  158A  200A  120A  118A  	movwf	(___lwdiv@divisor)
  3208  02B0  00F0               	fcall	stringdir
  3209  02B1  120A  158A  200A  120A  118A  	movwf	(___lwdiv@divisor+1)
  3210  02B6  00F1               	movf	(sprintf@val+1),w
  3211  02B7  0850               	movwf	(___lwdiv@dividend+1)
  3212  02B8  00F3               	movf	(sprintf@val),w
  3213  02B9  084F               	movwf	(___lwdiv@dividend)
  3214  02BA  00F2               	fcall	___lwdiv
  3215  02BB  120A  158A  2703  120A  118A  	movf	(1+(?___lwdiv)),w
  3216  02C0  0871               	movwf	(___lwmod@dividend+1)
  3217  02C1  00FB               	movf	(0+(?___lwdiv)),w
  3218  02C2  0870               	movwf	(___lwmod@dividend)
  3219  02C3  00FA               	fcall	___lwmod
  3220  02C4  120A  158A  267A  120A  118A  	movf	(0+(?___lwmod)),w
  3221  02C9  0878               	addlw	030h
  3222  02CA  3E30               	bcf	status, 5	;RP0=0, select bank0
  3223  02CB  1283               	bcf	status, 6	;RP1=0, select bank0
  3224  02CC  1303               	movwf	(??_sprintf+1)+0
  3225  02CD  00CB               	movf	(??_sprintf+1)+0,w
  3226  02CE  084B               	movwf	(sprintf@c)
  3227  02CF  00D3               	line	1543
  3228                           	
  3229                           l2435:	
  3230  02D0                     ;C:\Program Files (x86)\Microchip\xc8\v2.00\pic\sources\c90\common\doprnt.c: 1542:    };
                                 C:\Program Files (x86)\Microchip\xc8\v2.00\pic\sources\c90\common\doprnt.c: 1543:    ((*
                                 sp++ = (c)));
  3231                           	movf	(sprintf@c),w
  3232  02D0  0853               	movwf	(??_sprintf+0)+0
  3233  02D1  00CA               	movf	(sprintf@sp),w
  3234  02D2  0852               	movwf	fsr0
  3235  02D3  0084               	movf	(??_sprintf+0)+0,w
  3236  02D4  084A               	bcf	status, 7	;select IRP bank0
  3237  02D5  1383               	movwf	indf
  3238  02D6  0080               	
  3239                           l2437:	
  3240  02D7                     	movlw	low(01h)
  3241  02D7  3001               	movwf	(??_sprintf+0)+0
  3242  02D8  00CA               	movf	(??_sprintf+0)+0,w
  3243  02D9  084A               	addwf	(sprintf@sp),f
  3244  02DA  07D2               	goto	l2439
  3245  02DB  2ADC               	line	1544
  3246                           ;C:\Program Files (x86)\Microchip\xc8\v2.00\pic\sources\c90\common\doprnt.c: 1544:   }
  3247                           	
  3248                           l564:	
  3249  02DC                     	line	1493
  3250                           	
  3251                           l2439:	
  3252  02DC                     ;C:\Program Files (x86)\Microchip\xc8\v2.00\pic\sources\c90\common\doprnt.c: 1493:   whi
                                 le(prec--) {
  3253                           	movlw	low(-1)
  3254  02DC  30FF               	movwf	(??_sprintf+0)+0
  3255  02DD  00CA               	movf	(??_sprintf+0)+0,w
  3256  02DE  084A               	addwf	(sprintf@prec),f
  3257  02DF  07D1               		incf	(((sprintf@prec))),w
  3258  02E0  0A51               	btfss	status,2
  3259  02E1  1D03               	goto	u951
  3260  02E2  2AE4               	goto	u950
  3261  02E3  2AE5               u951:
  3262  02E4                     	goto	l2433
  3263  02E4  2AA2               u950:
  3264  02E5                     	goto	l2441
  3265  02E5  2AE7               	
  3266                           l566:	
  3267  02E6                     	goto	l2441
  3268  02E6  2AE7               	line	1552
  3269                           ;C:\Program Files (x86)\Microchip\xc8\v2.00\pic\sources\c90\common\doprnt.c: 1552:  }
  3270                           	
  3271                           l552:	
  3272  02E7                     	line	548
  3273                           	
  3274                           l2441:	
  3275  02E7                     ;C:\Program Files (x86)\Microchip\xc8\v2.00\pic\sources\c90\common\doprnt.c: 548:  while
                                 ((c = *f++)) {
  3276                           	movlw	01h
  3277  02E7  3001               	addwf	(sprintf@f),f
  3278  02E8  07C7               	movlw	-01h
  3279  02E9  30FF               	addwf	(sprintf@f),w
  3280  02EA  0747               	movwf	fsr0
  3281  02EB  0084               	fcall	stringdir
  3282  02EC  120A  158A  200A  120A  118A  	movwf	(??_sprintf+0)+0
  3283  02F1  00CA               	movf	(??_sprintf+0)+0,w
  3284  02F2  084A               	movwf	(sprintf@c)
  3285  02F3  00D3               	movf	(((sprintf@c))),w
  3286  02F4  0853               	btfss	status,2
  3287  02F5  1D03               	goto	u961
  3288  02F6  2AF8               	goto	u960
  3289  02F7  2AF9               u961:
  3290  02F8                     	goto	l2401
  3291  02F8  2A29               u960:
  3292  02F9                     	goto	l2443
  3293  02F9  2AFB               	
  3294                           l567:	
  3295  02FA                     	goto	l2443
  3296  02FA  2AFB               	line	1554
  3297                           ;C:\Program Files (x86)\Microchip\xc8\v2.00\pic\sources\c90\common\doprnt.c: 1554: alldo
                                 ne:
  3298                           	
  3299                           l557:	
  3300  02FB                     	line	1557
  3301                           	
  3302                           l2443:	
  3303  02FB                     ;C:\Program Files (x86)\Microchip\xc8\v2.00\pic\sources\c90\common\doprnt.c: 1557:  *sp 
                                 = 0;
  3304                           	movf	(sprintf@sp),w
  3305  02FB  0852               	movwf	fsr0
  3306  02FC  0084               	bcf	status, 7	;select IRP bank0
  3307  02FD  1383               	clrf	indf
  3308  02FE  0180               	goto	l568
  3309  02FF  2B00               	line	1559
  3310                           	
  3311                           l2445:	
  3312  0300                     	line	1560
  3313                           ;C:\Program Files (x86)\Microchip\xc8\v2.00\pic\sources\c90\common\doprnt.c: 1559:  retu
                                 rn 0;;	Return value of _sprintf is never used
  3314                           	
  3315                           l568:	
  3316  0300                     	return
  3317  0300  0008               	opt stack 0
  3318                           GLOBAL	__end_of_sprintf
  3319                           	__end_of_sprintf:
  3320  0301                     	signat	_sprintf,4698
  3321                           	global	___lwmod
  3322                           
  3323 ;; *************** function ___lwmod *****************
  3324 ;; Defined at:
  3325 ;;		line 5 in file "C:\Program Files (x86)\Microchip\xc8\v2.00\pic\sources\c90\common\lwmod.c"
  3326 ;; Parameters:    Size  Location     Type
  3327 ;;  divisor         2    8[COMMON] unsigned int 
  3328 ;;  dividend        2   10[COMMON] unsigned int 
  3329 ;; Auto vars:     Size  Location     Type
  3330 ;;  counter         1   13[COMMON] unsigned char 
  3331 ;; Return value:  Size  Location     Type
  3332 ;;                  2    8[COMMON] unsigned int 
  3333 ;; Registers used:
  3334 ;;		wreg, status,2, status,0
  3335 ;; Tracked objects:
  3336 ;;		On entry : 0/0
  3337 ;;		On exit  : 0/0
  3338 ;;		Unchanged: 0/0
  3339 ;; Data sizes:     COMMON   BANK0   BANK1   BANK3   BANK2
  3340 ;;      Params:         4       0       0       0       0
  3341 ;;      Locals:         1       0       0       0       0
  3342 ;;      Temps:          1       0       0       0       0
  3343 ;;      Totals:         6       0       0       0       0
  3344 ;;Total ram usage:        6 bytes
  3345 ;; Hardware stack levels used:    1
  3346 ;; This function calls:
  3347 ;;		Nothing
  3348 ;; This function is called by:
  3349 ;;		_sprintf
  3350 ;; This function uses a non-reentrant model
  3351 ;;
  3352                           psect	text7,local,class=CODE,delta=2,merge=1,group=1
  3353                           	file	"C:\Program Files (x86)\Microchip\xc8\v2.00\pic\sources\c90\common\lwmod.c"
  3354                           	line	5
  3355                           global __ptext7
  3356                           __ptext7:	;psect for function ___lwmod
  3357  0E7A                     psect	text7
  3358                           	file	"C:\Program Files (x86)\Microchip\xc8\v2.00\pic\sources\c90\common\lwmod.c"
  3359                           	line	5
  3360                           	global	__size_of___lwmod
  3361                           	__size_of___lwmod	equ	__end_of___lwmod-___lwmod
  3362  0041                     	
  3363                           ___lwmod:	
  3364  0E7A                     ;incstack = 0
  3365                           	opt	stack 5
  3366                           ; Regs used in ___lwmod: [wreg+status,2+status,0]
  3367                           	line	12
  3368                           	
  3369                           l2317:	
  3370  0E7A                     	movf	((___lwmod@divisor)),w
  3371  0E7A  0878               iorwf	((___lwmod@divisor+1)),w
  3372  0E7B  0479               	btfsc	status,2
  3373  0E7C  1903               	goto	u791
  3374  0E7D  2E7F               	goto	u790
  3375  0E7E  2E80               u791:
  3376  0E7F                     	goto	l2335
  3377  0E7F  2EB5               u790:
  3378  0E80                     	line	13
  3379                           	
  3380                           l2319:	
  3381  0E80                     	clrf	(___lwmod@counter)
  3382  0E80  01FD               	incf	(___lwmod@counter),f
  3383  0E81  0AFD               	line	14
  3384                           	goto	l2325
  3385  0E82  2E8F               	
  3386                           l849:	
  3387  0E83                     	line	15
  3388                           	
  3389                           l2321:	
  3390  0E83                     	movlw	01h
  3391  0E83  3001               	
  3392                           u805:
  3393  0E84                     	clrc
  3394  0E84  1003               	rlf	(___lwmod@divisor),f
  3395  0E85  0DF8               	rlf	(___lwmod@divisor+1),f
  3396  0E86  0DF9               	addlw	-1
  3397  0E87  3EFF               	skipz
  3398  0E88  1D03               	goto	u805
  3399  0E89  2E84               	line	16
  3400                           	
  3401                           l2323:	
  3402  0E8A                     	movlw	low(01h)
  3403  0E8A  3001               	movwf	(??___lwmod+0)+0
  3404  0E8B  00FC               	movf	(??___lwmod+0)+0,w
  3405  0E8C  087C               	addwf	(___lwmod@counter),f
  3406  0E8D  07FD               	goto	l2325
  3407  0E8E  2E8F               	line	17
  3408                           	
  3409                           l848:	
  3410  0E8F                     	line	14
  3411                           	
  3412                           l2325:	
  3413  0E8F                     	btfss	(___lwmod@divisor+1),(15)&7
  3414  0E8F  1FF9               	goto	u811
  3415  0E90  2E92               	goto	u810
  3416  0E91  2E93               u811:
  3417  0E92                     	goto	l2321
  3418  0E92  2E83               u810:
  3419  0E93                     	goto	l2327
  3420  0E93  2E95               	
  3421                           l850:	
  3422  0E94                     	goto	l2327
  3423  0E94  2E95               	line	18
  3424                           	
  3425                           l851:	
  3426  0E95                     	line	19
  3427                           	
  3428                           l2327:	
  3429  0E95                     	movf	(___lwmod@divisor+1),w
  3430  0E95  0879               	subwf	(___lwmod@dividend+1),w
  3431  0E96  027B               	skipz
  3432  0E97  1D03               	goto	u825
  3433  0E98  2E9B               	movf	(___lwmod@divisor),w
  3434  0E99  0878               	subwf	(___lwmod@dividend),w
  3435  0E9A  027A               u825:
  3436  0E9B                     	skipc
  3437  0E9B  1C03               	goto	u821
  3438  0E9C  2E9E               	goto	u820
  3439  0E9D  2E9F               u821:
  3440  0E9E                     	goto	l2331
  3441  0E9E  2EA6               u820:
  3442  0E9F                     	line	20
  3443                           	
  3444                           l2329:	
  3445  0E9F                     	movf	(___lwmod@divisor),w
  3446  0E9F  0878               	subwf	(___lwmod@dividend),f
  3447  0EA0  02FA               	movf	(___lwmod@divisor+1),w
  3448  0EA1  0879               	skipc
  3449  0EA2  1C03               	decf	(___lwmod@dividend+1),f
  3450  0EA3  03FB               	subwf	(___lwmod@dividend+1),f
  3451  0EA4  02FB               	goto	l2331
  3452  0EA5  2EA6               	
  3453                           l852:	
  3454  0EA6                     	line	21
  3455                           	
  3456                           l2331:	
  3457  0EA6                     	movlw	01h
  3458  0EA6  3001               	
  3459                           u835:
  3460  0EA7                     	clrc
  3461  0EA7  1003               	rrf	(___lwmod@divisor+1),f
  3462  0EA8  0CF9               	rrf	(___lwmod@divisor),f
  3463  0EA9  0CF8               	addlw	-1
  3464  0EAA  3EFF               	skipz
  3465  0EAB  1D03               	goto	u835
  3466  0EAC  2EA7               	line	22
  3467                           	
  3468                           l2333:	
  3469  0EAD                     	movlw	01h
  3470  0EAD  3001               	subwf	(___lwmod@counter),f
  3471  0EAE  02FD               	btfss	status,2
  3472  0EAF  1D03               	goto	u841
  3473  0EB0  2EB2               	goto	u840
  3474  0EB1  2EB3               u841:
  3475  0EB2                     	goto	l2327
  3476  0EB2  2E95               u840:
  3477  0EB3                     	goto	l2335
  3478  0EB3  2EB5               	
  3479                           l853:	
  3480  0EB4                     	goto	l2335
  3481  0EB4  2EB5               	line	23
  3482                           	
  3483                           l847:	
  3484  0EB5                     	line	24
  3485                           	
  3486                           l2335:	
  3487  0EB5                     	movf	(___lwmod@dividend+1),w
  3488  0EB5  087B               	movwf	(?___lwmod+1)
  3489  0EB6  00F9               	movf	(___lwmod@dividend),w
  3490  0EB7  087A               	movwf	(?___lwmod)
  3491  0EB8  00F8               	goto	l854
  3492  0EB9  2EBA               	
  3493                           l2337:	
  3494  0EBA                     	line	25
  3495                           	
  3496                           l854:	
  3497  0EBA                     	return
  3498  0EBA  0008               	opt stack 0
  3499                           GLOBAL	__end_of___lwmod
  3500                           	__end_of___lwmod:
  3501  0EBB                     	signat	___lwmod,8314
  3502                           	global	___lwdiv
  3503                           
  3504 ;; *************** function ___lwdiv *****************
  3505 ;; Defined at:
  3506 ;;		line 5 in file "C:\Program Files (x86)\Microchip\xc8\v2.00\pic\sources\c90\common\lwdiv.c"
  3507 ;; Parameters:    Size  Location     Type
  3508 ;;  divisor         2    0[COMMON] unsigned int 
  3509 ;;  dividend        2    2[COMMON] unsigned int 
  3510 ;; Auto vars:     Size  Location     Type
  3511 ;;  quotient        2    5[COMMON] unsigned int 
  3512 ;;  counter         1    7[COMMON] unsigned char 
  3513 ;; Return value:  Size  Location     Type
  3514 ;;                  2    0[COMMON] unsigned int 
  3515 ;; Registers used:
  3516 ;;		wreg, status,2, status,0
  3517 ;; Tracked objects:
  3518 ;;		On entry : 0/0
  3519 ;;		On exit  : 0/0
  3520 ;;		Unchanged: 0/0
  3521 ;; Data sizes:     COMMON   BANK0   BANK1   BANK3   BANK2
  3522 ;;      Params:         4       0       0       0       0
  3523 ;;      Locals:         3       0       0       0       0
  3524 ;;      Temps:          1       0       0       0       0
  3525 ;;      Totals:         8       0       0       0       0
  3526 ;;Total ram usage:        8 bytes
  3527 ;; Hardware stack levels used:    1
  3528 ;; This function calls:
  3529 ;;		Nothing
  3530 ;; This function is called by:
  3531 ;;		_sprintf
  3532 ;; This function uses a non-reentrant model
  3533 ;;
  3534                           psect	text8,local,class=CODE,delta=2,merge=1,group=1
  3535                           	file	"C:\Program Files (x86)\Microchip\xc8\v2.00\pic\sources\c90\common\lwdiv.c"
  3536                           	line	5
  3537                           global __ptext8
  3538                           __ptext8:	;psect for function ___lwdiv
  3539  0F03                     psect	text8
  3540                           	file	"C:\Program Files (x86)\Microchip\xc8\v2.00\pic\sources\c90\common\lwdiv.c"
  3541                           	line	5
  3542                           	global	__size_of___lwdiv
  3543                           	__size_of___lwdiv	equ	__end_of___lwdiv-___lwdiv
  3544  004B                     	
  3545                           ___lwdiv:	
  3546  0F03                     ;incstack = 0
  3547                           	opt	stack 5
  3548                           ; Regs used in ___lwdiv: [wreg+status,2+status,0]
  3549                           	line	13
  3550                           	
  3551                           l2291:	
  3552  0F03                     	clrf	(___lwdiv@quotient)
  3553  0F03  01F5               	clrf	(___lwdiv@quotient+1)
  3554  0F04  01F6               	line	14
  3555                           	
  3556                           l2293:	
  3557  0F05                     	movf	((___lwdiv@divisor)),w
  3558  0F05  0870               iorwf	((___lwdiv@divisor+1)),w
  3559  0F06  0471               	btfsc	status,2
  3560  0F07  1903               	goto	u721
  3561  0F08  2F0A               	goto	u720
  3562  0F09  2F0B               u721:
  3563  0F0A                     	goto	l2313
  3564  0F0A  2F48               u720:
  3565  0F0B                     	line	15
  3566                           	
  3567                           l2295:	
  3568  0F0B                     	clrf	(___lwdiv@counter)
  3569  0F0B  01F7               	incf	(___lwdiv@counter),f
  3570  0F0C  0AF7               	line	16
  3571                           	goto	l2301
  3572  0F0D  2F1A               	
  3573                           l839:	
  3574  0F0E                     	line	17
  3575                           	
  3576                           l2297:	
  3577  0F0E                     	movlw	01h
  3578  0F0E  3001               	
  3579                           u735:
  3580  0F0F                     	clrc
  3581  0F0F  1003               	rlf	(___lwdiv@divisor),f
  3582  0F10  0DF0               	rlf	(___lwdiv@divisor+1),f
  3583  0F11  0DF1               	addlw	-1
  3584  0F12  3EFF               	skipz
  3585  0F13  1D03               	goto	u735
  3586  0F14  2F0F               	line	18
  3587                           	
  3588                           l2299:	
  3589  0F15                     	movlw	low(01h)
  3590  0F15  3001               	movwf	(??___lwdiv+0)+0
  3591  0F16  00F4               	movf	(??___lwdiv+0)+0,w
  3592  0F17  0874               	addwf	(___lwdiv@counter),f
  3593  0F18  07F7               	goto	l2301
  3594  0F19  2F1A               	line	19
  3595                           	
  3596                           l838:	
  3597  0F1A                     	line	16
  3598                           	
  3599                           l2301:	
  3600  0F1A                     	btfss	(___lwdiv@divisor+1),(15)&7
  3601  0F1A  1FF1               	goto	u741
  3602  0F1B  2F1D               	goto	u740
  3603  0F1C  2F1E               u741:
  3604  0F1D                     	goto	l2297
  3605  0F1D  2F0E               u740:
  3606  0F1E                     	goto	l2303
  3607  0F1E  2F20               	
  3608                           l840:	
  3609  0F1F                     	goto	l2303
  3610  0F1F  2F20               	line	20
  3611                           	
  3612                           l841:	
  3613  0F20                     	line	21
  3614                           	
  3615                           l2303:	
  3616  0F20                     	movlw	01h
  3617  0F20  3001               	
  3618                           u755:
  3619  0F21                     	clrc
  3620  0F21  1003               	rlf	(___lwdiv@quotient),f
  3621  0F22  0DF5               	rlf	(___lwdiv@quotient+1),f
  3622  0F23  0DF6               	addlw	-1
  3623  0F24  3EFF               	skipz
  3624  0F25  1D03               	goto	u755
  3625  0F26  2F21               	line	22
  3626                           	movf	(___lwdiv@divisor+1),w
  3627  0F27  0871               	subwf	(___lwdiv@dividend+1),w
  3628  0F28  0273               	skipz
  3629  0F29  1D03               	goto	u765
  3630  0F2A  2F2D               	movf	(___lwdiv@divisor),w
  3631  0F2B  0870               	subwf	(___lwdiv@dividend),w
  3632  0F2C  0272               u765:
  3633  0F2D                     	skipc
  3634  0F2D  1C03               	goto	u761
  3635  0F2E  2F30               	goto	u760
  3636  0F2F  2F31               u761:
  3637  0F30                     	goto	l2309
  3638  0F30  2F39               u760:
  3639  0F31                     	line	23
  3640                           	
  3641                           l2305:	
  3642  0F31                     	movf	(___lwdiv@divisor),w
  3643  0F31  0870               	subwf	(___lwdiv@dividend),f
  3644  0F32  02F2               	movf	(___lwdiv@divisor+1),w
  3645  0F33  0871               	skipc
  3646  0F34  1C03               	decf	(___lwdiv@dividend+1),f
  3647  0F35  03F3               	subwf	(___lwdiv@dividend+1),f
  3648  0F36  02F3               	line	24
  3649                           	
  3650                           l2307:	
  3651  0F37                     	bsf	(___lwdiv@quotient)+(0/8),(0)&7
  3652  0F37  1475               	goto	l2309
  3653  0F38  2F39               	line	25
  3654                           	
  3655                           l842:	
  3656  0F39                     	line	26
  3657                           	
  3658                           l2309:	
  3659  0F39                     	movlw	01h
  3660  0F39  3001               	
  3661                           u775:
  3662  0F3A                     	clrc
  3663  0F3A  1003               	rrf	(___lwdiv@divisor+1),f
  3664  0F3B  0CF1               	rrf	(___lwdiv@divisor),f
  3665  0F3C  0CF0               	addlw	-1
  3666  0F3D  3EFF               	skipz
  3667  0F3E  1D03               	goto	u775
  3668  0F3F  2F3A               	line	27
  3669                           	
  3670                           l2311:	
  3671  0F40                     	movlw	01h
  3672  0F40  3001               	subwf	(___lwdiv@counter),f
  3673  0F41  02F7               	btfss	status,2
  3674  0F42  1D03               	goto	u781
  3675  0F43  2F45               	goto	u780
  3676  0F44  2F46               u781:
  3677  0F45                     	goto	l2303
  3678  0F45  2F20               u780:
  3679  0F46                     	goto	l2313
  3680  0F46  2F48               	
  3681                           l843:	
  3682  0F47                     	goto	l2313
  3683  0F47  2F48               	line	28
  3684                           	
  3685                           l837:	
  3686  0F48                     	line	29
  3687                           	
  3688                           l2313:	
  3689  0F48                     	movf	(___lwdiv@quotient+1),w
  3690  0F48  0876               	movwf	(?___lwdiv+1)
  3691  0F49  00F1               	movf	(___lwdiv@quotient),w
  3692  0F4A  0875               	movwf	(?___lwdiv)
  3693  0F4B  00F0               	goto	l844
  3694  0F4C  2F4D               	
  3695                           l2315:	
  3696  0F4D                     	line	30
  3697                           	
  3698                           l844:	
  3699  0F4D                     	return
  3700  0F4D  0008               	opt stack 0
  3701                           GLOBAL	__end_of___lwdiv
  3702                           	__end_of___lwdiv:
  3703  0F4E                     	signat	___lwdiv,8314
  3704                           	global	_lcdSetCursor
  3705                           
  3706 ;; *************** function _lcdSetCursor *****************
  3707 ;; Defined at:
  3708 ;;		line 45 in file "LCD16x2.c"
  3709 ;; Parameters:    Size  Location     Type
  3710 ;;  row             1    wreg     unsigned char 
  3711 ;;  column          1   12[COMMON] unsigned char 
  3712 ;; Auto vars:     Size  Location     Type
  3713 ;;  row             1    0[BANK0 ] unsigned char 
  3714 ;;  location        1    1[BANK0 ] unsigned char 
  3715 ;; Return value:  Size  Location     Type
  3716 ;;                  1    wreg      void 
  3717 ;; Registers used:
  3718 ;;		wreg, fsr0l, fsr0h, status,2, status,0, btemp+1, pclath, cstack
  3719 ;; Tracked objects:
  3720 ;;		On entry : 0/0
  3721 ;;		On exit  : 0/0
  3722 ;;		Unchanged: 0/0
  3723 ;; Data sizes:     COMMON   BANK0   BANK1   BANK3   BANK2
  3724 ;;      Params:         1       0       0       0       0
  3725 ;;      Locals:         0       2       0       0       0
  3726 ;;      Temps:          1       0       0       0       0
  3727 ;;      Totals:         2       2       0       0       0
  3728 ;;Total ram usage:        4 bytes
  3729 ;; Hardware stack levels used:    1
  3730 ;; Hardware stack levels required when called:    3
  3731 ;; This function calls:
  3732 ;;		_WriteInstruction
  3733 ;; This function is called by:
  3734 ;;		_setup
  3735 ;;		_loop
  3736 ;; This function uses a non-reentrant model
  3737 ;;
  3738                           psect	text9,local,class=CODE,delta=2,merge=1,group=0
  3739                           	file	"LCD16x2.c"
  3740                           	line	45
  3741                           global __ptext9
  3742                           __ptext9:	;psect for function _lcdSetCursor
  3743  0E4E                     psect	text9
  3744                           	file	"LCD16x2.c"
  3745                           	line	45
  3746                           	global	__size_of_lcdSetCursor
  3747                           	__size_of_lcdSetCursor	equ	__end_of_lcdSetCursor-_lcdSetCursor
  3748  002C                     	
  3749                           _lcdSetCursor:	
  3750  0E4E                     ;incstack = 0
  3751                           	opt	stack 3
  3752                           ; Regs used in _lcdSetCursor: [wreg-fsr0h+status,2+status,0+btemp+1+pclath+cstack]
  3753                           ;lcdSetCursor@row stored from wreg
  3754                           	bcf	status, 5	;RP0=0, select bank0
  3755  0E4E  1283               	bcf	status, 6	;RP1=0, select bank0
  3756  0E4F  1303               	movwf	(lcdSetCursor@row)
  3757  0E50  00C7               	line	47
  3758                           	
  3759                           l2367:	
  3760  0E51                     ;LCD16x2.c: 45: void lcdSetCursor(char row, char column);LCD16x2.c: 46: {;LCD16x2.c: 47:
                                      char location = 0;
  3761                           	clrf	(lcdSetCursor@location)
  3762  0E51  01C8               	line	48
  3763                           	
  3764                           l2369:	
  3765  0E52                     ;LCD16x2.c: 48:     if(row == 1)
  3766                           		decf	((lcdSetCursor@row)),w
  3767  0E52  0347               	btfss	status,2
  3768  0E53  1D03               	goto	u851
  3769  0E54  2E56               	goto	u850
  3770  0E55  2E57               u851:
  3771  0E56                     	goto	l2375
  3772  0E56  2E63               u850:
  3773  0E57                     	line	50
  3774                           	
  3775                           l2371:	
  3776  0E57                     ;LCD16x2.c: 49:     {;LCD16x2.c: 50:         location = (0x80) + (column - 1);
  3777                           	movf	(lcdSetCursor@column),w
  3778  0E57  087C               	addlw	07Fh
  3779  0E58  3E7F               	movwf	(??_lcdSetCursor+0)+0
  3780  0E59  00FD               	movf	(??_lcdSetCursor+0)+0,w
  3781  0E5A  087D               	movwf	(lcdSetCursor@location)
  3782  0E5B  00C8               	line	51
  3783                           	
  3784                           l2373:	
  3785  0E5C                     ;LCD16x2.c: 51:         WriteInstruction(location);
  3786                           	movf	(lcdSetCursor@location),w
  3787  0E5C  0848               	fcall	_WriteInstruction
  3788  0E5D  120A  118A  2008  120A  158A  	line	52
  3789                           ;LCD16x2.c: 52:     }
  3790                           	goto	l425
  3791  0E62  2E79               	line	53
  3792                           ;LCD16x2.c: 53:     else if(row == 2)
  3793                           	
  3794                           l421:	
  3795  0E63                     	
  3796                           l2375:	
  3797  0E63                     		movlw	2
  3798  0E63  3002               	bcf	status, 5	;RP0=0, select bank0
  3799  0E64  1283               	bcf	status, 6	;RP1=0, select bank0
  3800  0E65  1303               	xorwf	((lcdSetCursor@row)),w
  3801  0E66  0647               	btfss	status,2
  3802  0E67  1D03               	goto	u861
  3803  0E68  2E6A               	goto	u860
  3804  0E69  2E6B               u861:
  3805  0E6A                     	goto	l425
  3806  0E6A  2E79               u860:
  3807  0E6B                     	line	55
  3808                           	
  3809                           l2377:	
  3810  0E6B                     ;LCD16x2.c: 54:     {;LCD16x2.c: 55:         location = 0xC0 + (column - 1);
  3811                           	movf	(lcdSetCursor@column),w
  3812  0E6B  087C               	addlw	0BFh
  3813  0E6C  3EBF               	movwf	(??_lcdSetCursor+0)+0
  3814  0E6D  00FD               	movf	(??_lcdSetCursor+0)+0,w
  3815  0E6E  087D               	movwf	(lcdSetCursor@location)
  3816  0E6F  00C8               	line	56
  3817                           	
  3818                           l2379:	
  3819  0E70                     ;LCD16x2.c: 56:         WriteInstruction(location);
  3820                           	movf	(lcdSetCursor@location),w
  3821  0E70  0848               	fcall	_WriteInstruction
  3822  0E71  120A  118A  2008  120A  158A  	line	57
  3823                           ;LCD16x2.c: 57:     }
  3824                           	goto	l425
  3825  0E76  2E79               	line	58
  3826                           ;LCD16x2.c: 58:     else
  3827                           	
  3828                           l423:	
  3829  0E77                     	line	60
  3830                           ;LCD16x2.c: 59:     {;LCD16x2.c: 60:         return;
  3831                           	goto	l425
  3832  0E77  2E79               	line	61
  3833                           ;LCD16x2.c: 61:     }
  3834                           	
  3835                           l424:	
  3836  0E78                     	goto	l425
  3837  0E78  2E79               	
  3838                           l422:	
  3839  0E79                     	line	62
  3840                           	
  3841                           l425:	
  3842  0E79                     	return
  3843  0E79  0008               	opt stack 0
  3844                           GLOBAL	__end_of_lcdSetCursor
  3845                           	__end_of_lcdSetCursor:
  3846  0E7A                     	signat	_lcdSetCursor,8313
  3847                           	global	_WriteInstruction
  3848                           
  3849 ;; *************** function _WriteInstruction *****************
  3850 ;; Defined at:
  3851 ;;		line 78 in file "LCD16x2.c"
  3852 ;; Parameters:    Size  Location     Type
  3853 ;;  instruction     1    wreg     unsigned char 
  3854 ;; Auto vars:     Size  Location     Type
  3855 ;;  instruction     1   10[COMMON] unsigned char 
  3856 ;;  MSNibble        1   11[COMMON] unsigned char 
  3857 ;;  LSNibble        1    9[COMMON] unsigned char 
  3858 ;; Return value:  Size  Location     Type
  3859 ;;                  1    wreg      void 
  3860 ;; Registers used:
  3861 ;;		wreg, fsr0l, fsr0h, status,2, status,0, btemp+1, pclath, cstack
  3862 ;; Tracked objects:
  3863 ;;		On entry : 0/0
  3864 ;;		On exit  : 0/0
  3865 ;;		Unchanged: 0/0
  3866 ;; Data sizes:     COMMON   BANK0   BANK1   BANK3   BANK2
  3867 ;;      Params:         0       0       0       0       0
  3868 ;;      Locals:         3       0       0       0       0
  3869 ;;      Temps:          2       0       0       0       0
  3870 ;;      Totals:         5       0       0       0       0
  3871 ;;Total ram usage:        5 bytes
  3872 ;; Hardware stack levels used:    1
  3873 ;; Hardware stack levels required when called:    2
  3874 ;; This function calls:
  3875 ;;		_ByteByNibble
  3876 ;;		_delay
  3877 ;;		_digitalWrite
  3878 ;; This function is called by:
  3879 ;;		_lcdBegin
  3880 ;;		_lcdSetCursor
  3881 ;;		_lcdClear
  3882 ;; This function uses a non-reentrant model
  3883 ;;
  3884                           psect	text10,local,class=CODE,delta=2,merge=1,group=0
  3885                           	line	78
  3886                           global __ptext10
  3887                           __ptext10:	;psect for function _WriteInstruction
  3888  0008                     psect	text10
  3889                           	file	"LCD16x2.c"
  3890                           	line	78
  3891                           	global	__size_of_WriteInstruction
  3892                           	__size_of_WriteInstruction	equ	__end_of_WriteInstruction-_WriteInstruction
  3893  0082                     	
  3894                           _WriteInstruction:	
  3895  0008                     ;incstack = 0
  3896                           	opt	stack 3
  3897                           ; Regs used in _WriteInstruction: [wreg-fsr0h+status,2+status,0+btemp+1+pclath+cstack]
  3898                           ;WriteInstruction@instruction stored from wreg
  3899                           	movwf	(WriteInstruction@instruction)
  3900  0008  00FA               	line	80
  3901                           	
  3902                           l2255:	
  3903  0009                     ;LCD16x2.c: 78: void WriteInstruction(char instruction);LCD16x2.c: 79: {;LCD16x2.c: 80: 
                                     char MSNibble = 0;
  3904                           	clrf	(WriteInstruction@MSNibble)
  3905  0009  01FB               	line	81
  3906                           ;LCD16x2.c: 81:     char LSNibble = 0;
  3907                           	clrf	(WriteInstruction@LSNibble)
  3908  000A  01F9               	line	82
  3909                           	
  3910                           l2257:	
  3911  000B                     ;LCD16x2.c: 82:     MSNibble = instruction & 0xF0;
  3912                           	movf	(WriteInstruction@instruction),w
  3913  000B  087A               	andlw	0F0h
  3914  000C  39F0               	movwf	(??_WriteInstruction+0)+0
  3915  000D  00F7               	movf	(??_WriteInstruction+0)+0,w
  3916  000E  0877               	movwf	(WriteInstruction@MSNibble)
  3917  000F  00FB               	line	83
  3918                           	
  3919                           l2259:	
  3920  0010                     ;LCD16x2.c: 83:     MSNibble = (MSNibble >> 4);
  3921                           	movf	(WriteInstruction@MSNibble),w
  3922  0010  087B               	movwf	(??_WriteInstruction+0)+0
  3923  0011  00F7               	movlw	04h
  3924  0012  3004               u715:
  3925  0013                     	clrc
  3926  0013  1003               	rrf	(??_WriteInstruction+0)+0,f
  3927  0014  0CF7               	addlw	-1
  3928  0015  3EFF               	skipz
  3929  0016  1D03               	goto	u715
  3930  0017  2813               	movf	0+(??_WriteInstruction+0)+0,w
  3931  0018  0877               	movwf	(??_WriteInstruction+1)+0
  3932  0019  00F8               	movf	(??_WriteInstruction+1)+0,w
  3933  001A  0878               	movwf	(WriteInstruction@MSNibble)
  3934  001B  00FB               	line	84
  3935                           	
  3936                           l2261:	
  3937  001C                     ;LCD16x2.c: 84:     LSNibble = instruction & 0x0F;
  3938                           	movf	(WriteInstruction@instruction),w
  3939  001C  087A               	andlw	0Fh
  3940  001D  390F               	movwf	(??_WriteInstruction+0)+0
  3941  001E  00F7               	movf	(??_WriteInstruction+0)+0,w
  3942  001F  0877               	movwf	(WriteInstruction@LSNibble)
  3943  0020  00F9               	line	85
  3944                           	
  3945                           l2263:	
  3946  0021                     ;LCD16x2.c: 85:     ByteByNibble(MSNibble);
  3947                           	movf	(WriteInstruction@MSNibble),w
  3948  0021  087B               	fcall	_ByteByNibble
  3949  0022  120A  118A  2545  120A  118A  	line	86
  3950                           	
  3951                           l2265:	
  3952  0027                     ;LCD16x2.c: 86:     digitalWrite(RSPin,0);
  3953                           	clrf	(digitalWrite@value)
  3954  0027  01F0               	bcf	status, 5	;RP0=0, select bank0
  3955  0028  1283               	bcf	status, 6	;RP1=0, select bank0
  3956  0029  1303               	movf	(_RSPin),w
  3957  002A  085C               	fcall	_digitalWrite
  3958  002B  120A  118A  2422  120A  118A  	line	87
  3959                           	
  3960                           l2267:	
  3961  0030                     ;LCD16x2.c: 87:     digitalWrite(RWPin,0);
  3962                           	clrf	(digitalWrite@value)
  3963  0030  01F0               	bcf	status, 5	;RP0=0, select bank0
  3964  0031  1283               	bcf	status, 6	;RP1=0, select bank0
  3965  0032  1303               	movf	(_RWPin),w
  3966  0033  085A               	fcall	_digitalWrite
  3967  0034  120A  118A  2422  120A  118A  	line	88
  3968                           	
  3969                           l2269:	
  3970  0039                     ;LCD16x2.c: 88:     digitalWrite(ENPin,1);
  3971                           	clrf	(digitalWrite@value)
  3972  0039  01F0               	incf	(digitalWrite@value),f
  3973  003A  0AF0               	bcf	status, 5	;RP0=0, select bank0
  3974  003B  1283               	bcf	status, 6	;RP1=0, select bank0
  3975  003C  1303               	movf	(_ENPin),w
  3976  003D  085B               	fcall	_digitalWrite
  3977  003E  120A  118A  2422  120A  118A  	line	89
  3978                           	
  3979                           l2271:	
  3980  0043                     ;LCD16x2.c: 89:     delay(5);
  3981                           	movlw	05h
  3982  0043  3005               	movwf	(delay@milis)
  3983  0044  00F0               	movlw	0
  3984  0045  3000               	movwf	((delay@milis))+1
  3985  0046  00F1               	fcall	_delay
  3986  0047  120A  158A  274E  120A  118A  	line	91
  3987                           	
  3988                           l2273:	
  3989  004C                     ;LCD16x2.c: 91:     digitalWrite(ENPin,0);
  3990                           	clrf	(digitalWrite@value)
  3991  004C  01F0               	bcf	status, 5	;RP0=0, select bank0
  3992  004D  1283               	bcf	status, 6	;RP1=0, select bank0
  3993  004E  1303               	movf	(_ENPin),w
  3994  004F  085B               	fcall	_digitalWrite
  3995  0050  120A  118A  2422  120A  118A  	line	92
  3996                           	
  3997                           l2275:	
  3998  0055                     ;LCD16x2.c: 92:     delay(5);
  3999                           	movlw	05h
  4000  0055  3005               	movwf	(delay@milis)
  4001  0056  00F0               	movlw	0
  4002  0057  3000               	movwf	((delay@milis))+1
  4003  0058  00F1               	fcall	_delay
  4004  0059  120A  158A  274E  120A  118A  	line	93
  4005                           	
  4006                           l2277:	
  4007  005E                     ;LCD16x2.c: 93:     ByteByNibble(LSNibble);
  4008                           	movf	(WriteInstruction@LSNibble),w
  4009  005E  0879               	fcall	_ByteByNibble
  4010  005F  120A  118A  2545  120A  118A  	line	94
  4011                           	
  4012                           l2279:	
  4013  0064                     ;LCD16x2.c: 94:     digitalWrite(ENPin,1);
  4014                           	clrf	(digitalWrite@value)
  4015  0064  01F0               	incf	(digitalWrite@value),f
  4016  0065  0AF0               	bcf	status, 5	;RP0=0, select bank0
  4017  0066  1283               	bcf	status, 6	;RP1=0, select bank0
  4018  0067  1303               	movf	(_ENPin),w
  4019  0068  085B               	fcall	_digitalWrite
  4020  0069  120A  118A  2422  120A  118A  	line	95
  4021                           	
  4022                           l2281:	
  4023  006E                     ;LCD16x2.c: 95:     delay(5);
  4024                           	movlw	05h
  4025  006E  3005               	movwf	(delay@milis)
  4026  006F  00F0               	movlw	0
  4027  0070  3000               	movwf	((delay@milis))+1
  4028  0071  00F1               	fcall	_delay
  4029  0072  120A  158A  274E  120A  118A  	line	97
  4030                           	
  4031                           l2283:	
  4032  0077                     ;LCD16x2.c: 97:     digitalWrite(ENPin,0);
  4033                           	clrf	(digitalWrite@value)
  4034  0077  01F0               	bcf	status, 5	;RP0=0, select bank0
  4035  0078  1283               	bcf	status, 6	;RP1=0, select bank0
  4036  0079  1303               	movf	(_ENPin),w
  4037  007A  085B               	fcall	_digitalWrite
  4038  007B  120A  118A  2422  120A  118A  	line	98
  4039                           	
  4040                           l2285:	
  4041  0080                     ;LCD16x2.c: 98:     delay(3);
  4042                           	movlw	03h
  4043  0080  3003               	movwf	(delay@milis)
  4044  0081  00F0               	movlw	0
  4045  0082  3000               	movwf	((delay@milis))+1
  4046  0083  00F1               	fcall	_delay
  4047  0084  120A  158A  274E  120A  118A  	line	99
  4048                           	
  4049                           l437:	
  4050  0089                     	return
  4051  0089  0008               	opt stack 0
  4052                           GLOBAL	__end_of_WriteInstruction
  4053                           	__end_of_WriteInstruction:
  4054  008A                     	signat	_WriteInstruction,4217
  4055                           	global	_lcdPrint
  4056                           
  4057 ;; *************** function _lcdPrint *****************
  4058 ;; Defined at:
  4059 ;;		line 69 in file "LCD16x2.c"
  4060 ;; Parameters:    Size  Location     Type
  4061 ;;  string          2    0[BANK0 ] PTR unsigned char 
  4062 ;;		 -> STR_3(17), ScreenROW(16), STR_1(17), 
  4063 ;; Auto vars:     Size  Location     Type
  4064 ;;  i               2    5[BANK0 ] int 
  4065 ;; Return value:  Size  Location     Type
  4066 ;;                  1    wreg      void 
  4067 ;; Registers used:
  4068 ;;		wreg, fsr0l, fsr0h, status,2, status,0, btemp+1, pclath, cstack
  4069 ;; Tracked objects:
  4070 ;;		On entry : 0/0
  4071 ;;		On exit  : 0/0
  4072 ;;		Unchanged: 0/0
  4073 ;; Data sizes:     COMMON   BANK0   BANK1   BANK3   BANK2
  4074 ;;      Params:         0       2       0       0       0
  4075 ;;      Locals:         0       2       0       0       0
  4076 ;;      Temps:          0       3       0       0       0
  4077 ;;      Totals:         0       7       0       0       0
  4078 ;;Total ram usage:        7 bytes
  4079 ;; Hardware stack levels used:    1
  4080 ;; Hardware stack levels required when called:    4
  4081 ;; This function calls:
  4082 ;;		_lcdWrite
  4083 ;; This function is called by:
  4084 ;;		_setup
  4085 ;;		_loop
  4086 ;; This function uses a non-reentrant model
  4087 ;;
  4088                           psect	text11,local,class=CODE,delta=2,merge=1,group=0
  4089                           	line	69
  4090                           global __ptext11
  4091                           __ptext11:	;psect for function _lcdPrint
  4092  0EBB                     psect	text11
  4093                           	file	"LCD16x2.c"
  4094                           	line	69
  4095                           	global	__size_of_lcdPrint
  4096                           	__size_of_lcdPrint	equ	__end_of_lcdPrint-_lcdPrint
  4097  0048                     	
  4098                           _lcdPrint:	
  4099  0EBB                     ;incstack = 0
  4100                           	opt	stack 2
  4101                           ; Regs used in _lcdPrint: [wreg-fsr0h+status,2+status,0+btemp+1+pclath+cstack]
  4102                           	line	71
  4103                           	
  4104                           l2381:	
  4105  0EBB                     ;LCD16x2.c: 69: void lcdPrint(char *string);LCD16x2.c: 70: {;LCD16x2.c: 71:     for(int 
                                 i=0;string[i] != '\0';i++)
  4106                           	bcf	status, 5	;RP0=0, select bank0
  4107  0EBB  1283               	bcf	status, 6	;RP1=0, select bank0
  4108  0EBC  1303               	clrf	(lcdPrint@i)
  4109  0EBD  01CC               	clrf	(lcdPrint@i+1)
  4110  0EBE  01CD               	goto	l2387
  4111  0EBF  2EE5               	
  4112                           l432:	
  4113  0EC0                     	line	73
  4114                           	
  4115                           l2383:	
  4116  0EC0                     ;LCD16x2.c: 72:     {;LCD16x2.c: 73:         lcdWrite(string[i]);
  4117                           	movf	(lcdPrint@i),w
  4118  0EC0  084C               	addwf	(lcdPrint@string),w
  4119  0EC1  0747               	movwf	(??_lcdPrint+1)+0
  4120  0EC2  00CA               	movf	(lcdPrint@string+1),w
  4121  0EC3  0848               	movwf	(??_lcdPrint+0)+0
  4122  0EC4  00C9               	skipnc
  4123  0EC5  1803               	incf	(??_lcdPrint+0)+0,f
  4124  0EC6  0AC9               	btfss	(lcdPrint@i),7
  4125  0EC7  1FCC               	goto	u870
  4126  0EC8  2ECA               	decf	(??_lcdPrint+0)+0,f
  4127  0EC9  03C9               u870:
  4128  0ECA                     	bcf	status, 5	;RP0=0, select bank0
  4129  0ECA  1283               	bcf	status, 6	;RP1=0, select bank0
  4130  0ECB  1303               	movf	(??_lcdPrint+0)+0,w
  4131  0ECC  0849               	movwf	0+((??_lcdPrint+1)+0)+1
  4132  0ECD  00CB               	movf	1+(??_lcdPrint+1)+0,w
  4133  0ECE  084B               	movwf	btemp+1
  4134  0ECF  00FF               	movf	0+(??_lcdPrint+1)+0,w
  4135  0ED0  084A               	movwf	fsr0
  4136  0ED1  0084               	fcall	stringtab
  4137  0ED2  120A  158A  2000  120A  158A  	fcall	_lcdWrite
  4138  0ED7  120A  158A  25D2  120A  158A  	line	74
  4139                           	
  4140                           l2385:	
  4141  0EDC                     ;LCD16x2.c: 74:     }
  4142                           	movlw	01h
  4143  0EDC  3001               	bcf	status, 5	;RP0=0, select bank0
  4144  0EDD  1283               	bcf	status, 6	;RP1=0, select bank0
  4145  0EDE  1303               	addwf	(lcdPrint@i),f
  4146  0EDF  07CC               	skipnc
  4147  0EE0  1803               	incf	(lcdPrint@i+1),f
  4148  0EE1  0ACD               	movlw	0
  4149  0EE2  3000               	addwf	(lcdPrint@i+1),f
  4150  0EE3  07CD               	goto	l2387
  4151  0EE4  2EE5               	
  4152                           l431:	
  4153  0EE5                     	
  4154                           l2387:	
  4155  0EE5                     	movf	(lcdPrint@i),w
  4156  0EE5  084C               	addwf	(lcdPrint@string),w
  4157  0EE6  0747               	movwf	(??_lcdPrint+1)+0
  4158  0EE7  00CA               	movf	(lcdPrint@string+1),w
  4159  0EE8  0848               	movwf	(??_lcdPrint+0)+0
  4160  0EE9  00C9               	skipnc
  4161  0EEA  1803               	incf	(??_lcdPrint+0)+0,f
  4162  0EEB  0AC9               	btfss	(lcdPrint@i),7
  4163  0EEC  1FCC               	goto	u880
  4164  0EED  2EEF               	decf	(??_lcdPrint+0)+0,f
  4165  0EEE  03C9               u880:
  4166  0EEF                     	bcf	status, 5	;RP0=0, select bank0
  4167  0EEF  1283               	bcf	status, 6	;RP1=0, select bank0
  4168  0EF0  1303               	movf	(??_lcdPrint+0)+0,w
  4169  0EF1  0849               	movwf	0+((??_lcdPrint+1)+0)+1
  4170  0EF2  00CB               	movf	1+(??_lcdPrint+1)+0,w
  4171  0EF3  084B               	movwf	btemp+1
  4172  0EF4  00FF               	movf	0+(??_lcdPrint+1)+0,w
  4173  0EF5  084A               	movwf	fsr0
  4174  0EF6  0084               	fcall	stringtab
  4175  0EF7  120A  158A  2000  120A  158A  	xorlw	0
  4176  0EFC  3A00               	skipz
  4177  0EFD  1D03               	goto	u891
  4178  0EFE  2F00               	goto	u890
  4179  0EFF  2F01               u891:
  4180  0F00                     	goto	l2383
  4181  0F00  2EC0               u890:
  4182  0F01                     	goto	l434
  4183  0F01  2F02               	
  4184                           l433:	
  4185  0F02                     	line	75
  4186                           	
  4187                           l434:	
  4188  0F02                     	return
  4189  0F02  0008               	opt stack 0
  4190                           GLOBAL	__end_of_lcdPrint
  4191                           	__end_of_lcdPrint:
  4192  0F03                     	signat	_lcdPrint,4217
  4193                           	global	_lcdWrite
  4194                           
  4195 ;; *************** function _lcdWrite *****************
  4196 ;; Defined at:
  4197 ;;		line 63 in file "LCD16x2.c"
  4198 ;; Parameters:    Size  Location     Type
  4199 ;;  data            1    wreg     unsigned char 
  4200 ;; Auto vars:     Size  Location     Type
  4201 ;;  data            1   12[COMMON] unsigned char 
  4202 ;; Return value:  Size  Location     Type
  4203 ;;                  1    wreg      void 
  4204 ;; Registers used:
  4205 ;;		wreg, fsr0l, fsr0h, status,2, status,0, btemp+1, pclath, cstack
  4206 ;; Tracked objects:
  4207 ;;		On entry : 0/0
  4208 ;;		On exit  : 0/0
  4209 ;;		Unchanged: 0/0
  4210 ;; Data sizes:     COMMON   BANK0   BANK1   BANK3   BANK2
  4211 ;;      Params:         0       0       0       0       0
  4212 ;;      Locals:         1       0       0       0       0
  4213 ;;      Temps:          0       0       0       0       0
  4214 ;;      Totals:         1       0       0       0       0
  4215 ;;Total ram usage:        1 bytes
  4216 ;; Hardware stack levels used:    1
  4217 ;; Hardware stack levels required when called:    3
  4218 ;; This function calls:
  4219 ;;		_WriteData
  4220 ;;		_delay
  4221 ;; This function is called by:
  4222 ;;		_lcdPrint
  4223 ;; This function uses a non-reentrant model
  4224 ;;
  4225                           psect	text12,local,class=CODE,delta=2,merge=1,group=0
  4226                           	line	63
  4227                           global __ptext12
  4228                           __ptext12:	;psect for function _lcdWrite
  4229  0DD2                     psect	text12
  4230                           	file	"LCD16x2.c"
  4231                           	line	63
  4232                           	global	__size_of_lcdWrite
  4233                           	__size_of_lcdWrite	equ	__end_of_lcdWrite-_lcdWrite
  4234  0011                     	
  4235                           _lcdWrite:	
  4236  0DD2                     ;incstack = 0
  4237                           	opt	stack 2
  4238                           ; Regs used in _lcdWrite: [wreg-fsr0h+status,2+status,0+btemp+1+pclath+cstack]
  4239                           ;lcdWrite@data stored from wreg
  4240                           	movwf	(lcdWrite@data)
  4241  0DD2  00FC               	line	65
  4242                           	
  4243                           l2287:	
  4244  0DD3                     ;LCD16x2.c: 63: void lcdWrite(char data);LCD16x2.c: 64: {;LCD16x2.c: 65:     delay(8);
  4245                           	movlw	08h
  4246  0DD3  3008               	movwf	(delay@milis)
  4247  0DD4  00F0               	movlw	0
  4248  0DD5  3000               	movwf	((delay@milis))+1
  4249  0DD6  00F1               	fcall	_delay
  4250  0DD7  120A  158A  274E  120A  158A  	line	66
  4251                           	
  4252                           l2289:	
  4253  0DDC                     ;LCD16x2.c: 66:     WriteData(data);
  4254                           	movf	(lcdWrite@data),w
  4255  0DDC  087C               	fcall	_WriteData
  4256  0DDD  120A  118A  208A  120A  158A  	line	67
  4257                           	
  4258                           l428:	
  4259  0DE2                     	return
  4260  0DE2  0008               	opt stack 0
  4261                           GLOBAL	__end_of_lcdWrite
  4262                           	__end_of_lcdWrite:
  4263  0DE3                     	signat	_lcdWrite,4217
  4264                           	global	_WriteData
  4265                           
  4266 ;; *************** function _WriteData *****************
  4267 ;; Defined at:
  4268 ;;		line 101 in file "LCD16x2.c"
  4269 ;; Parameters:    Size  Location     Type
  4270 ;;  data            1    wreg     unsigned char 
  4271 ;; Auto vars:     Size  Location     Type
  4272 ;;  data            1   10[COMMON] unsigned char 
  4273 ;;  MSNibble        1   11[COMMON] unsigned char 
  4274 ;;  LSNibble        1    9[COMMON] unsigned char 
  4275 ;; Return value:  Size  Location     Type
  4276 ;;                  1    wreg      void 
  4277 ;; Registers used:
  4278 ;;		wreg, fsr0l, fsr0h, status,2, status,0, btemp+1, pclath, cstack
  4279 ;; Tracked objects:
  4280 ;;		On entry : 0/0
  4281 ;;		On exit  : 0/0
  4282 ;;		Unchanged: 0/0
  4283 ;; Data sizes:     COMMON   BANK0   BANK1   BANK3   BANK2
  4284 ;;      Params:         0       0       0       0       0
  4285 ;;      Locals:         3       0       0       0       0
  4286 ;;      Temps:          2       0       0       0       0
  4287 ;;      Totals:         5       0       0       0       0
  4288 ;;Total ram usage:        5 bytes
  4289 ;; Hardware stack levels used:    1
  4290 ;; Hardware stack levels required when called:    2
  4291 ;; This function calls:
  4292 ;;		_ByteByNibble
  4293 ;;		_delay
  4294 ;;		_digitalWrite
  4295 ;; This function is called by:
  4296 ;;		_lcdWrite
  4297 ;; This function uses a non-reentrant model
  4298 ;;
  4299                           psect	text13,local,class=CODE,delta=2,merge=1,group=0
  4300                           	line	101
  4301                           global __ptext13
  4302                           __ptext13:	;psect for function _WriteData
  4303  008A                     psect	text13
  4304                           	file	"LCD16x2.c"
  4305                           	line	101
  4306                           	global	__size_of_WriteData
  4307                           	__size_of_WriteData	equ	__end_of_WriteData-_WriteData
  4308  0083                     	
  4309                           _WriteData:	
  4310  008A                     ;incstack = 0
  4311                           	opt	stack 2
  4312                           ; Regs used in _WriteData: [wreg-fsr0h+status,2+status,0+btemp+1+pclath+cstack]
  4313                           ;WriteData@data stored from wreg
  4314                           	movwf	(WriteData@data)
  4315  008A  00FA               	line	103
  4316                           	
  4317                           l2163:	
  4318  008B                     ;LCD16x2.c: 101: void WriteData(char data);LCD16x2.c: 102: {;LCD16x2.c: 103:     char MS
                                 Nibble = 0;
  4319                           	clrf	(WriteData@MSNibble)
  4320  008B  01FB               	line	104
  4321                           ;LCD16x2.c: 104:     char LSNibble = 0;
  4322                           	clrf	(WriteData@LSNibble)
  4323  008C  01F9               	line	105
  4324                           	
  4325                           l2165:	
  4326  008D                     ;LCD16x2.c: 105:     MSNibble = data & 0xF0;
  4327                           	movf	(WriteData@data),w
  4328  008D  087A               	andlw	0F0h
  4329  008E  39F0               	movwf	(??_WriteData+0)+0
  4330  008F  00F7               	movf	(??_WriteData+0)+0,w
  4331  0090  0877               	movwf	(WriteData@MSNibble)
  4332  0091  00FB               	line	106
  4333                           	
  4334                           l2167:	
  4335  0092                     ;LCD16x2.c: 106:     MSNibble = (MSNibble >> 4);
  4336                           	movf	(WriteData@MSNibble),w
  4337  0092  087B               	movwf	(??_WriteData+0)+0
  4338  0093  00F7               	movlw	04h
  4339  0094  3004               u705:
  4340  0095                     	clrc
  4341  0095  1003               	rrf	(??_WriteData+0)+0,f
  4342  0096  0CF7               	addlw	-1
  4343  0097  3EFF               	skipz
  4344  0098  1D03               	goto	u705
  4345  0099  2895               	movf	0+(??_WriteData+0)+0,w
  4346  009A  0877               	movwf	(??_WriteData+1)+0
  4347  009B  00F8               	movf	(??_WriteData+1)+0,w
  4348  009C  0878               	movwf	(WriteData@MSNibble)
  4349  009D  00FB               	line	107
  4350                           	
  4351                           l2169:	
  4352  009E                     ;LCD16x2.c: 107:     LSNibble = data & 0x0F;
  4353                           	movf	(WriteData@data),w
  4354  009E  087A               	andlw	0Fh
  4355  009F  390F               	movwf	(??_WriteData+0)+0
  4356  00A0  00F7               	movf	(??_WriteData+0)+0,w
  4357  00A1  0877               	movwf	(WriteData@LSNibble)
  4358  00A2  00F9               	line	108
  4359                           	
  4360                           l2171:	
  4361  00A3                     ;LCD16x2.c: 108:     ByteByNibble(MSNibble);
  4362                           	movf	(WriteData@MSNibble),w
  4363  00A3  087B               	fcall	_ByteByNibble
  4364  00A4  120A  118A  2545  120A  118A  	line	109
  4365                           	
  4366                           l2173:	
  4367  00A9                     ;LCD16x2.c: 109:     digitalWrite(RSPin,1);
  4368                           	clrf	(digitalWrite@value)
  4369  00A9  01F0               	incf	(digitalWrite@value),f
  4370  00AA  0AF0               	bcf	status, 5	;RP0=0, select bank0
  4371  00AB  1283               	bcf	status, 6	;RP1=0, select bank0
  4372  00AC  1303               	movf	(_RSPin),w
  4373  00AD  085C               	fcall	_digitalWrite
  4374  00AE  120A  118A  2422  120A  118A  	line	110
  4375                           	
  4376                           l2175:	
  4377  00B3                     ;LCD16x2.c: 110:     digitalWrite(RWPin,0);
  4378                           	clrf	(digitalWrite@value)
  4379  00B3  01F0               	bcf	status, 5	;RP0=0, select bank0
  4380  00B4  1283               	bcf	status, 6	;RP1=0, select bank0
  4381  00B5  1303               	movf	(_RWPin),w
  4382  00B6  085A               	fcall	_digitalWrite
  4383  00B7  120A  118A  2422  120A  118A  	line	111
  4384                           	
  4385                           l2177:	
  4386  00BC                     ;LCD16x2.c: 111:     digitalWrite(ENPin,1);
  4387                           	clrf	(digitalWrite@value)
  4388  00BC  01F0               	incf	(digitalWrite@value),f
  4389  00BD  0AF0               	bcf	status, 5	;RP0=0, select bank0
  4390  00BE  1283               	bcf	status, 6	;RP1=0, select bank0
  4391  00BF  1303               	movf	(_ENPin),w
  4392  00C0  085B               	fcall	_digitalWrite
  4393  00C1  120A  118A  2422  120A  118A  	line	112
  4394                           	
  4395                           l2179:	
  4396  00C6                     ;LCD16x2.c: 112:     delay(5);
  4397                           	movlw	05h
  4398  00C6  3005               	movwf	(delay@milis)
  4399  00C7  00F0               	movlw	0
  4400  00C8  3000               	movwf	((delay@milis))+1
  4401  00C9  00F1               	fcall	_delay
  4402  00CA  120A  158A  274E  120A  118A  	line	114
  4403                           	
  4404                           l2181:	
  4405  00CF                     ;LCD16x2.c: 114:     digitalWrite(ENPin,0);
  4406                           	clrf	(digitalWrite@value)
  4407  00CF  01F0               	bcf	status, 5	;RP0=0, select bank0
  4408  00D0  1283               	bcf	status, 6	;RP1=0, select bank0
  4409  00D1  1303               	movf	(_ENPin),w
  4410  00D2  085B               	fcall	_digitalWrite
  4411  00D3  120A  118A  2422  120A  118A  	line	115
  4412                           	
  4413                           l2183:	
  4414  00D8                     ;LCD16x2.c: 115:     delay(5);
  4415                           	movlw	05h
  4416  00D8  3005               	movwf	(delay@milis)
  4417  00D9  00F0               	movlw	0
  4418  00DA  3000               	movwf	((delay@milis))+1
  4419  00DB  00F1               	fcall	_delay
  4420  00DC  120A  158A  274E  120A  118A  	line	116
  4421                           	
  4422                           l2185:	
  4423  00E1                     ;LCD16x2.c: 116:     ByteByNibble(LSNibble);
  4424                           	movf	(WriteData@LSNibble),w
  4425  00E1  0879               	fcall	_ByteByNibble
  4426  00E2  120A  118A  2545  120A  118A  	line	117
  4427                           	
  4428                           l2187:	
  4429  00E7                     ;LCD16x2.c: 117:     digitalWrite(ENPin,1);
  4430                           	clrf	(digitalWrite@value)
  4431  00E7  01F0               	incf	(digitalWrite@value),f
  4432  00E8  0AF0               	bcf	status, 5	;RP0=0, select bank0
  4433  00E9  1283               	bcf	status, 6	;RP1=0, select bank0
  4434  00EA  1303               	movf	(_ENPin),w
  4435  00EB  085B               	fcall	_digitalWrite
  4436  00EC  120A  118A  2422  120A  118A  	line	118
  4437                           	
  4438                           l2189:	
  4439  00F1                     ;LCD16x2.c: 118:     delay(5);
  4440                           	movlw	05h
  4441  00F1  3005               	movwf	(delay@milis)
  4442  00F2  00F0               	movlw	0
  4443  00F3  3000               	movwf	((delay@milis))+1
  4444  00F4  00F1               	fcall	_delay
  4445  00F5  120A  158A  274E  120A  118A  	line	120
  4446                           	
  4447                           l2191:	
  4448  00FA                     ;LCD16x2.c: 120:     digitalWrite(ENPin,0);
  4449                           	clrf	(digitalWrite@value)
  4450  00FA  01F0               	bcf	status, 5	;RP0=0, select bank0
  4451  00FB  1283               	bcf	status, 6	;RP1=0, select bank0
  4452  00FC  1303               	movf	(_ENPin),w
  4453  00FD  085B               	fcall	_digitalWrite
  4454  00FE  120A  118A  2422  120A  118A  	line	121
  4455                           	
  4456                           l2193:	
  4457  0103                     ;LCD16x2.c: 121:     delay(3);
  4458                           	movlw	03h
  4459  0103  3003               	movwf	(delay@milis)
  4460  0104  00F0               	movlw	0
  4461  0105  3000               	movwf	((delay@milis))+1
  4462  0106  00F1               	fcall	_delay
  4463  0107  120A  158A  274E  120A  118A  	line	122
  4464                           	
  4465                           l440:	
  4466  010C                     	return
  4467  010C  0008               	opt stack 0
  4468                           GLOBAL	__end_of_WriteData
  4469                           	__end_of_WriteData:
  4470  010D                     	signat	_WriteData,4217
  4471                           	global	_delay
  4472                           
  4473 ;; *************** function _delay *****************
  4474 ;; Defined at:
  4475 ;;		line 576 in file "Hormiga877.c"
  4476 ;; Parameters:    Size  Location     Type
  4477 ;;  milis           2    0[COMMON] const int 
  4478 ;; Auto vars:     Size  Location     Type
  4479 ;;  i               2    5[COMMON] int 
  4480 ;;  j               2    3[COMMON] int 
  4481 ;; Return value:  Size  Location     Type
  4482 ;;                  1    wreg      void 
  4483 ;; Registers used:
  4484 ;;		wreg, status,2, btemp+1
  4485 ;; Tracked objects:
  4486 ;;		On entry : 0/0
  4487 ;;		On exit  : 0/0
  4488 ;;		Unchanged: 0/0
  4489 ;; Data sizes:     COMMON   BANK0   BANK1   BANK3   BANK2
  4490 ;;      Params:         2       0       0       0       0
  4491 ;;      Locals:         4       0       0       0       0
  4492 ;;      Temps:          1       0       0       0       0
  4493 ;;      Totals:         7       0       0       0       0
  4494 ;;Total ram usage:        7 bytes
  4495 ;; Hardware stack levels used:    1
  4496 ;; This function calls:
  4497 ;;		Nothing
  4498 ;; This function is called by:
  4499 ;;		_lcdBegin
  4500 ;;		_lcdWrite
  4501 ;;		_WriteInstruction
  4502 ;;		_WriteData
  4503 ;;		_PBRead
  4504 ;; This function uses a non-reentrant model
  4505 ;;
  4506                           psect	text14,local,class=CODE,delta=2,merge=1,group=0
  4507                           	file	"Hormiga877.c"
  4508                           	line	576
  4509                           global __ptext14
  4510                           __ptext14:	;psect for function _delay
  4511  0F4E                     psect	text14
  4512                           	file	"Hormiga877.c"
  4513                           	line	576
  4514                           	global	__size_of_delay
  4515                           	__size_of_delay	equ	__end_of_delay-_delay
  4516  004E                     	
  4517                           _delay:	
  4518  0F4E                     ;incstack = 0
  4519                           	opt	stack 4
  4520                           ; Regs used in _delay: [wreg+status,2+btemp+1]
  4521                           	line	578
  4522                           	
  4523                           l2103:	
  4524  0F4E                     ;Hormiga877.c: 576: void delay(const int milis);Hormiga877.c: 577: {;Hormiga877.c: 578: 
                                     for(int j=0;j<milis;j++)
  4525                           	clrf	(delay@j)
  4526  0F4E  01F3               	clrf	(delay@j+1)
  4527  0F4F  01F4               	
  4528                           l2105:	
  4529  0F50                     	movf	(delay@j+1),w
  4530  0F50  0874               	xorlw	80h
  4531  0F51  3A80               	movwf	(??_delay+0)+0
  4532  0F52  00F2               	movf	(delay@milis+1),w
  4533  0F53  0871               	xorlw	80h
  4534  0F54  3A80               	subwf	(??_delay+0)+0,w
  4535  0F55  0272               	skipz
  4536  0F56  1D03               	goto	u665
  4537  0F57  2F5A               	movf	(delay@milis),w
  4538  0F58  0870               	subwf	(delay@j),w
  4539  0F59  0273               u665:
  4540  0F5A                     
  4541                           	skipc
  4542  0F5A  1C03               	goto	u661
  4543  0F5B  2F5D               	goto	u660
  4544  0F5C  2F5E               u661:
  4545  0F5D                     	goto	l2109
  4546  0F5D  2F60               u660:
  4547  0F5E                     	goto	l364
  4548  0F5E  2F9B               	
  4549                           l2107:	
  4550  0F5F                     	goto	l364
  4551  0F5F  2F9B               	
  4552                           l360:	
  4553  0F60                     	line	581
  4554                           	
  4555                           l2109:	
  4556  0F60                     ;Hormiga877.c: 579:     {;Hormiga877.c: 581:         for(int i=0;i<235;i++)
  4557                           	clrf	(delay@i)
  4558  0F60  01F5               	clrf	(delay@i+1)
  4559  0F61  01F6               	
  4560                           l2111:	
  4561  0F62                     	movf	(delay@i+1),w
  4562  0F62  0876               	xorlw	80h
  4563  0F63  3A80               	movwf	btemp+1
  4564  0F64  00FF               	movlw	(0)^80h
  4565  0F65  3080               	subwf	btemp+1,w
  4566  0F66  027F               	skipz
  4567  0F67  1D03               	goto	u675
  4568  0F68  2F6B               	movlw	0EBh
  4569  0F69  30EB               	subwf	(delay@i),w
  4570  0F6A  0275               u675:
  4571  0F6B                     
  4572                           	skipc
  4573  0F6B  1C03               	goto	u671
  4574  0F6C  2F6E               	goto	u670
  4575  0F6D  2F6F               u671:
  4576  0F6E                     	goto	l362
  4577  0F6E  2F71               u670:
  4578  0F6F                     	goto	l2119
  4579  0F6F  2F86               	
  4580                           l2113:	
  4581  0F70                     	goto	l2119
  4582  0F70  2F86               	
  4583                           l362:	
  4584  0F71                     	line	583
  4585                           # 583 "Hormiga877.c"
  4586                           NOP ;# 
  4587  0F71  0000               psect	text14
  4588                           	line	584
  4589                           	
  4590                           l2115:	
  4591  0F72                     ;Hormiga877.c: 584:         }
  4592                           	movlw	01h
  4593  0F72  3001               	addwf	(delay@i),f
  4594  0F73  07F5               	skipnc
  4595  0F74  1803               	incf	(delay@i+1),f
  4596  0F75  0AF6               	movlw	0
  4597  0F76  3000               	addwf	(delay@i+1),f
  4598  0F77  07F6               	
  4599                           l2117:	
  4600  0F78                     	movf	(delay@i+1),w
  4601  0F78  0876               	xorlw	80h
  4602  0F79  3A80               	movwf	btemp+1
  4603  0F7A  00FF               	movlw	(0)^80h
  4604  0F7B  3080               	subwf	btemp+1,w
  4605  0F7C  027F               	skipz
  4606  0F7D  1D03               	goto	u685
  4607  0F7E  2F81               	movlw	0EBh
  4608  0F7F  30EB               	subwf	(delay@i),w
  4609  0F80  0275               u685:
  4610  0F81                     
  4611                           	skipc
  4612  0F81  1C03               	goto	u681
  4613  0F82  2F84               	goto	u680
  4614  0F83  2F85               u681:
  4615  0F84                     	goto	l362
  4616  0F84  2F71               u680:
  4617  0F85                     	goto	l2119
  4618  0F85  2F86               	
  4619                           l363:	
  4620  0F86                     	line	585
  4621                           	
  4622                           l2119:	
  4623  0F86                     ;Hormiga877.c: 585:     }
  4624                           	movlw	01h
  4625  0F86  3001               	addwf	(delay@j),f
  4626  0F87  07F3               	skipnc
  4627  0F88  1803               	incf	(delay@j+1),f
  4628  0F89  0AF4               	movlw	0
  4629  0F8A  3000               	addwf	(delay@j+1),f
  4630  0F8B  07F4               	movf	(delay@j+1),w
  4631  0F8C  0874               	xorlw	80h
  4632  0F8D  3A80               	movwf	(??_delay+0)+0
  4633  0F8E  00F2               	movf	(delay@milis+1),w
  4634  0F8F  0871               	xorlw	80h
  4635  0F90  3A80               	subwf	(??_delay+0)+0,w
  4636  0F91  0272               	skipz
  4637  0F92  1D03               	goto	u695
  4638  0F93  2F96               	movf	(delay@milis),w
  4639  0F94  0870               	subwf	(delay@j),w
  4640  0F95  0273               u695:
  4641  0F96                     
  4642                           	skipc
  4643  0F96  1C03               	goto	u691
  4644  0F97  2F99               	goto	u690
  4645  0F98  2F9A               u691:
  4646  0F99                     	goto	l2109
  4647  0F99  2F60               u690:
  4648  0F9A                     	goto	l364
  4649  0F9A  2F9B               	
  4650                           l361:	
  4651  0F9B                     	line	586
  4652                           	
  4653                           l364:	
  4654  0F9B                     	return
  4655  0F9B  0008               	opt stack 0
  4656                           GLOBAL	__end_of_delay
  4657                           	__end_of_delay:
  4658  0F9C                     	signat	_delay,4217
  4659                           	global	_ByteByNibble
  4660                           
  4661 ;; *************** function _ByteByNibble *****************
  4662 ;; Defined at:
  4663 ;;		line 124 in file "LCD16x2.c"
  4664 ;; Parameters:    Size  Location     Type
  4665 ;;  NibbleValue     1    wreg     unsigned char 
  4666 ;; Auto vars:     Size  Location     Type
  4667 ;;  NibbleValue     1    6[COMMON] unsigned char 
  4668 ;; Return value:  Size  Location     Type
  4669 ;;                  1    wreg      void 
  4670 ;; Registers used:
  4671 ;;		wreg, fsr0l, fsr0h, status,2, status,0, pclath, cstack
  4672 ;; Tracked objects:
  4673 ;;		On entry : 0/0
  4674 ;;		On exit  : 0/0
  4675 ;;		Unchanged: 0/0
  4676 ;; Data sizes:     COMMON   BANK0   BANK1   BANK3   BANK2
  4677 ;;      Params:         0       0       0       0       0
  4678 ;;      Locals:         1       0       0       0       0
  4679 ;;      Temps:          2       0       0       0       0
  4680 ;;      Totals:         3       0       0       0       0
  4681 ;;Total ram usage:        3 bytes
  4682 ;; Hardware stack levels used:    1
  4683 ;; Hardware stack levels required when called:    1
  4684 ;; This function calls:
  4685 ;;		_digitalWrite
  4686 ;; This function is called by:
  4687 ;;		_WriteInstruction
  4688 ;;		_WriteData
  4689 ;; This function uses a non-reentrant model
  4690 ;;
  4691                           psect	text15,local,class=CODE,delta=2,merge=1,group=0
  4692                           	file	"LCD16x2.c"
  4693                           	line	124
  4694                           global __ptext15
  4695                           __ptext15:	;psect for function _ByteByNibble
  4696  0545                     psect	text15
  4697                           	file	"LCD16x2.c"
  4698                           	line	124
  4699                           	global	__size_of_ByteByNibble
  4700                           	__size_of_ByteByNibble	equ	__end_of_ByteByNibble-_ByteByNibble
  4701  02AE                     	
  4702                           _ByteByNibble:	
  4703  0545                     ;incstack = 0
  4704                           	opt	stack 3
  4705                           ; Regs used in _ByteByNibble: [wreg-fsr0h+status,2+status,0+pclath+cstack]
  4706                           ;ByteByNibble@NibbleValue stored from wreg
  4707                           	movwf	(ByteByNibble@NibbleValue)
  4708  0545  00F6               	line	126
  4709                           	
  4710                           l2121:	
  4711  0546                     ;LCD16x2.c: 124: void ByteByNibble(char NibbleValue);LCD16x2.c: 125: {;LCD16x2.c: 126:  
                                    switch(NibbleValue)
  4712                           	goto	l2157
  4713  0546  2FB8               	line	128
  4714                           ;LCD16x2.c: 127:     {;LCD16x2.c: 128:         case 0x00:
  4715                           	
  4716                           l444:	
  4717  0547                     	line	129
  4718                           	
  4719                           l2123:	
  4720  0547                     ;LCD16x2.c: 129:             digitalWrite(d7Pin,0);
  4721                           	clrf	(digitalWrite@value)
  4722  0547  01F0               	bcf	status, 5	;RP0=0, select bank0
  4723  0548  1283               	bcf	status, 6	;RP1=0, select bank0
  4724  0549  1303               	movf	(_d7Pin),w
  4725  054A  0856               	fcall	_digitalWrite
  4726  054B  120A  118A  2422  120A  118A  	line	130
  4727                           ;LCD16x2.c: 130:             digitalWrite(d6Pin,0);
  4728                           	clrf	(digitalWrite@value)
  4729  0550  01F0               	bcf	status, 5	;RP0=0, select bank0
  4730  0551  1283               	bcf	status, 6	;RP1=0, select bank0
  4731  0552  1303               	movf	(_d6Pin),w
  4732  0553  0857               	fcall	_digitalWrite
  4733  0554  120A  118A  2422  120A  118A  	line	131
  4734                           ;LCD16x2.c: 131:             digitalWrite(d5Pin,0);
  4735                           	clrf	(digitalWrite@value)
  4736  0559  01F0               	bcf	status, 5	;RP0=0, select bank0
  4737  055A  1283               	bcf	status, 6	;RP1=0, select bank0
  4738  055B  1303               	movf	(_d5Pin),w
  4739  055C  0858               	fcall	_digitalWrite
  4740  055D  120A  118A  2422  120A  118A  	line	132
  4741                           ;LCD16x2.c: 132:             digitalWrite(d4Pin,0);
  4742                           	clrf	(digitalWrite@value)
  4743  0562  01F0               	bcf	status, 5	;RP0=0, select bank0
  4744  0563  1283               	bcf	status, 6	;RP1=0, select bank0
  4745  0564  1303               	movf	(_d4Pin),w
  4746  0565  0859               	fcall	_digitalWrite
  4747  0566  120A  118A  2422  120A  118A  	line	133
  4748                           ;LCD16x2.c: 133:             break;
  4749                           	goto	l461
  4750  056B  2FF2               	line	134
  4751                           ;LCD16x2.c: 134:         case 0x01:
  4752                           	
  4753                           l446:	
  4754  056C                     	line	135
  4755                           	
  4756                           l2125:	
  4757  056C                     ;LCD16x2.c: 135:             digitalWrite(d7Pin,0);
  4758                           	clrf	(digitalWrite@value)
  4759  056C  01F0               	bcf	status, 5	;RP0=0, select bank0
  4760  056D  1283               	bcf	status, 6	;RP1=0, select bank0
  4761  056E  1303               	movf	(_d7Pin),w
  4762  056F  0856               	fcall	_digitalWrite
  4763  0570  120A  118A  2422  120A  118A  	line	136
  4764                           ;LCD16x2.c: 136:             digitalWrite(d6Pin,0);
  4765                           	clrf	(digitalWrite@value)
  4766  0575  01F0               	bcf	status, 5	;RP0=0, select bank0
  4767  0576  1283               	bcf	status, 6	;RP1=0, select bank0
  4768  0577  1303               	movf	(_d6Pin),w
  4769  0578  0857               	fcall	_digitalWrite
  4770  0579  120A  118A  2422  120A  118A  	line	137
  4771                           ;LCD16x2.c: 137:             digitalWrite(d5Pin,0);
  4772                           	clrf	(digitalWrite@value)
  4773  057E  01F0               	bcf	status, 5	;RP0=0, select bank0
  4774  057F  1283               	bcf	status, 6	;RP1=0, select bank0
  4775  0580  1303               	movf	(_d5Pin),w
  4776  0581  0858               	fcall	_digitalWrite
  4777  0582  120A  118A  2422  120A  118A  	line	138
  4778                           ;LCD16x2.c: 138:             digitalWrite(d4Pin,1);
  4779                           	clrf	(digitalWrite@value)
  4780  0587  01F0               	incf	(digitalWrite@value),f
  4781  0588  0AF0               	bcf	status, 5	;RP0=0, select bank0
  4782  0589  1283               	bcf	status, 6	;RP1=0, select bank0
  4783  058A  1303               	movf	(_d4Pin),w
  4784  058B  0859               	fcall	_digitalWrite
  4785  058C  120A  118A  2422  120A  118A  	line	139
  4786                           ;LCD16x2.c: 139:             break;
  4787                           	goto	l461
  4788  0591  2FF2               	line	140
  4789                           ;LCD16x2.c: 140:         case 0x02:
  4790                           	
  4791                           l447:	
  4792  0592                     	line	141
  4793                           	
  4794                           l2127:	
  4795  0592                     ;LCD16x2.c: 141:             digitalWrite(d7Pin,0);
  4796                           	clrf	(digitalWrite@value)
  4797  0592  01F0               	bcf	status, 5	;RP0=0, select bank0
  4798  0593  1283               	bcf	status, 6	;RP1=0, select bank0
  4799  0594  1303               	movf	(_d7Pin),w
  4800  0595  0856               	fcall	_digitalWrite
  4801  0596  120A  118A  2422  120A  118A  	line	142
  4802                           ;LCD16x2.c: 142:             digitalWrite(d6Pin,0);
  4803                           	clrf	(digitalWrite@value)
  4804  059B  01F0               	bcf	status, 5	;RP0=0, select bank0
  4805  059C  1283               	bcf	status, 6	;RP1=0, select bank0
  4806  059D  1303               	movf	(_d6Pin),w
  4807  059E  0857               	fcall	_digitalWrite
  4808  059F  120A  118A  2422  120A  118A  	line	143
  4809                           ;LCD16x2.c: 143:             digitalWrite(d5Pin,1);
  4810                           	clrf	(digitalWrite@value)
  4811  05A4  01F0               	incf	(digitalWrite@value),f
  4812  05A5  0AF0               	bcf	status, 5	;RP0=0, select bank0
  4813  05A6  1283               	bcf	status, 6	;RP1=0, select bank0
  4814  05A7  1303               	movf	(_d5Pin),w
  4815  05A8  0858               	fcall	_digitalWrite
  4816  05A9  120A  118A  2422  120A  118A  	line	144
  4817                           ;LCD16x2.c: 144:             digitalWrite(d4Pin,0);
  4818                           	clrf	(digitalWrite@value)
  4819  05AE  01F0               	bcf	status, 5	;RP0=0, select bank0
  4820  05AF  1283               	bcf	status, 6	;RP1=0, select bank0
  4821  05B0  1303               	movf	(_d4Pin),w
  4822  05B1  0859               	fcall	_digitalWrite
  4823  05B2  120A  118A  2422  120A  118A  	line	145
  4824                           ;LCD16x2.c: 145:             break;
  4825                           	goto	l461
  4826  05B7  2FF2               	line	146
  4827                           ;LCD16x2.c: 146:         case 0x03:
  4828                           	
  4829                           l448:	
  4830  05B8                     	line	147
  4831                           	
  4832                           l2129:	
  4833  05B8                     ;LCD16x2.c: 147:             digitalWrite(d7Pin,0);
  4834                           	clrf	(digitalWrite@value)
  4835  05B8  01F0               	bcf	status, 5	;RP0=0, select bank0
  4836  05B9  1283               	bcf	status, 6	;RP1=0, select bank0
  4837  05BA  1303               	movf	(_d7Pin),w
  4838  05BB  0856               	fcall	_digitalWrite
  4839  05BC  120A  118A  2422  120A  118A  	line	148
  4840                           ;LCD16x2.c: 148:             digitalWrite(d6Pin,0);
  4841                           	clrf	(digitalWrite@value)
  4842  05C1  01F0               	bcf	status, 5	;RP0=0, select bank0
  4843  05C2  1283               	bcf	status, 6	;RP1=0, select bank0
  4844  05C3  1303               	movf	(_d6Pin),w
  4845  05C4  0857               	fcall	_digitalWrite
  4846  05C5  120A  118A  2422  120A  118A  	line	149
  4847                           ;LCD16x2.c: 149:             digitalWrite(d5Pin,1);
  4848                           	clrf	(digitalWrite@value)
  4849  05CA  01F0               	incf	(digitalWrite@value),f
  4850  05CB  0AF0               	bcf	status, 5	;RP0=0, select bank0
  4851  05CC  1283               	bcf	status, 6	;RP1=0, select bank0
  4852  05CD  1303               	movf	(_d5Pin),w
  4853  05CE  0858               	fcall	_digitalWrite
  4854  05CF  120A  118A  2422  120A  118A  	line	150
  4855                           ;LCD16x2.c: 150:             digitalWrite(d4Pin,1);
  4856                           	clrf	(digitalWrite@value)
  4857  05D4  01F0               	incf	(digitalWrite@value),f
  4858  05D5  0AF0               	bcf	status, 5	;RP0=0, select bank0
  4859  05D6  1283               	bcf	status, 6	;RP1=0, select bank0
  4860  05D7  1303               	movf	(_d4Pin),w
  4861  05D8  0859               	fcall	_digitalWrite
  4862  05D9  120A  118A  2422  120A  118A  	line	151
  4863                           ;LCD16x2.c: 151:             break;
  4864                           	goto	l461
  4865  05DE  2FF2               	line	152
  4866                           ;LCD16x2.c: 152:         case 0x04:
  4867                           	
  4868                           l449:	
  4869  05DF                     	line	153
  4870                           	
  4871                           l2131:	
  4872  05DF                     ;LCD16x2.c: 153:             digitalWrite(d7Pin,0);
  4873                           	clrf	(digitalWrite@value)
  4874  05DF  01F0               	bcf	status, 5	;RP0=0, select bank0
  4875  05E0  1283               	bcf	status, 6	;RP1=0, select bank0
  4876  05E1  1303               	movf	(_d7Pin),w
  4877  05E2  0856               	fcall	_digitalWrite
  4878  05E3  120A  118A  2422  120A  118A  	line	154
  4879                           ;LCD16x2.c: 154:             digitalWrite(d6Pin,1);
  4880                           	clrf	(digitalWrite@value)
  4881  05E8  01F0               	incf	(digitalWrite@value),f
  4882  05E9  0AF0               	bcf	status, 5	;RP0=0, select bank0
  4883  05EA  1283               	bcf	status, 6	;RP1=0, select bank0
  4884  05EB  1303               	movf	(_d6Pin),w
  4885  05EC  0857               	fcall	_digitalWrite
  4886  05ED  120A  118A  2422  120A  118A  	line	155
  4887                           ;LCD16x2.c: 155:             digitalWrite(d5Pin,0);
  4888                           	clrf	(digitalWrite@value)
  4889  05F2  01F0               	bcf	status, 5	;RP0=0, select bank0
  4890  05F3  1283               	bcf	status, 6	;RP1=0, select bank0
  4891  05F4  1303               	movf	(_d5Pin),w
  4892  05F5  0858               	fcall	_digitalWrite
  4893  05F6  120A  118A  2422  120A  118A  	line	156
  4894                           ;LCD16x2.c: 156:             digitalWrite(d4Pin,0);
  4895                           	clrf	(digitalWrite@value)
  4896  05FB  01F0               	bcf	status, 5	;RP0=0, select bank0
  4897  05FC  1283               	bcf	status, 6	;RP1=0, select bank0
  4898  05FD  1303               	movf	(_d4Pin),w
  4899  05FE  0859               	fcall	_digitalWrite
  4900  05FF  120A  118A  2422  120A  118A  	line	157
  4901                           ;LCD16x2.c: 157:             break;
  4902                           	goto	l461
  4903  0604  2FF2               	line	158
  4904                           ;LCD16x2.c: 158:         case 0x05:
  4905                           	
  4906                           l450:	
  4907  0605                     	line	159
  4908                           	
  4909                           l2133:	
  4910  0605                     ;LCD16x2.c: 159:             digitalWrite(d7Pin,0);
  4911                           	clrf	(digitalWrite@value)
  4912  0605  01F0               	bcf	status, 5	;RP0=0, select bank0
  4913  0606  1283               	bcf	status, 6	;RP1=0, select bank0
  4914  0607  1303               	movf	(_d7Pin),w
  4915  0608  0856               	fcall	_digitalWrite
  4916  0609  120A  118A  2422  120A  118A  	line	160
  4917                           ;LCD16x2.c: 160:             digitalWrite(d6Pin,1);
  4918                           	clrf	(digitalWrite@value)
  4919  060E  01F0               	incf	(digitalWrite@value),f
  4920  060F  0AF0               	bcf	status, 5	;RP0=0, select bank0
  4921  0610  1283               	bcf	status, 6	;RP1=0, select bank0
  4922  0611  1303               	movf	(_d6Pin),w
  4923  0612  0857               	fcall	_digitalWrite
  4924  0613  120A  118A  2422  120A  118A  	line	161
  4925                           ;LCD16x2.c: 161:             digitalWrite(d5Pin,0);
  4926                           	clrf	(digitalWrite@value)
  4927  0618  01F0               	bcf	status, 5	;RP0=0, select bank0
  4928  0619  1283               	bcf	status, 6	;RP1=0, select bank0
  4929  061A  1303               	movf	(_d5Pin),w
  4930  061B  0858               	fcall	_digitalWrite
  4931  061C  120A  118A  2422  120A  118A  	line	162
  4932                           ;LCD16x2.c: 162:             digitalWrite(d4Pin,1);
  4933                           	clrf	(digitalWrite@value)
  4934  0621  01F0               	incf	(digitalWrite@value),f
  4935  0622  0AF0               	bcf	status, 5	;RP0=0, select bank0
  4936  0623  1283               	bcf	status, 6	;RP1=0, select bank0
  4937  0624  1303               	movf	(_d4Pin),w
  4938  0625  0859               	fcall	_digitalWrite
  4939  0626  120A  118A  2422  120A  118A  	line	163
  4940                           ;LCD16x2.c: 163:             break;
  4941                           	goto	l461
  4942  062B  2FF2               	line	164
  4943                           ;LCD16x2.c: 164:         case 0x06:
  4944                           	
  4945                           l451:	
  4946  062C                     	line	165
  4947                           	
  4948                           l2135:	
  4949  062C                     ;LCD16x2.c: 165:             digitalWrite(d7Pin,0);
  4950                           	clrf	(digitalWrite@value)
  4951  062C  01F0               	bcf	status, 5	;RP0=0, select bank0
  4952  062D  1283               	bcf	status, 6	;RP1=0, select bank0
  4953  062E  1303               	movf	(_d7Pin),w
  4954  062F  0856               	fcall	_digitalWrite
  4955  0630  120A  118A  2422  120A  118A  	line	166
  4956                           ;LCD16x2.c: 166:             digitalWrite(d6Pin,1);
  4957                           	clrf	(digitalWrite@value)
  4958  0635  01F0               	incf	(digitalWrite@value),f
  4959  0636  0AF0               	bcf	status, 5	;RP0=0, select bank0
  4960  0637  1283               	bcf	status, 6	;RP1=0, select bank0
  4961  0638  1303               	movf	(_d6Pin),w
  4962  0639  0857               	fcall	_digitalWrite
  4963  063A  120A  118A  2422  120A  118A  	line	167
  4964                           ;LCD16x2.c: 167:             digitalWrite(d5Pin,1);
  4965                           	clrf	(digitalWrite@value)
  4966  063F  01F0               	incf	(digitalWrite@value),f
  4967  0640  0AF0               	bcf	status, 5	;RP0=0, select bank0
  4968  0641  1283               	bcf	status, 6	;RP1=0, select bank0
  4969  0642  1303               	movf	(_d5Pin),w
  4970  0643  0858               	fcall	_digitalWrite
  4971  0644  120A  118A  2422  120A  118A  	line	168
  4972                           ;LCD16x2.c: 168:             digitalWrite(d4Pin,0);
  4973                           	clrf	(digitalWrite@value)
  4974  0649  01F0               	bcf	status, 5	;RP0=0, select bank0
  4975  064A  1283               	bcf	status, 6	;RP1=0, select bank0
  4976  064B  1303               	movf	(_d4Pin),w
  4977  064C  0859               	fcall	_digitalWrite
  4978  064D  120A  118A  2422  120A  118A  	line	169
  4979                           ;LCD16x2.c: 169:             break;
  4980                           	goto	l461
  4981  0652  2FF2               	line	170
  4982                           ;LCD16x2.c: 170:         case 0x07:
  4983                           	
  4984                           l452:	
  4985  0653                     	line	171
  4986                           	
  4987                           l2137:	
  4988  0653                     ;LCD16x2.c: 171:             digitalWrite(d7Pin,0);
  4989                           	clrf	(digitalWrite@value)
  4990  0653  01F0               	bcf	status, 5	;RP0=0, select bank0
  4991  0654  1283               	bcf	status, 6	;RP1=0, select bank0
  4992  0655  1303               	movf	(_d7Pin),w
  4993  0656  0856               	fcall	_digitalWrite
  4994  0657  120A  118A  2422  120A  118A  	line	172
  4995                           ;LCD16x2.c: 172:             digitalWrite(d6Pin,1);
  4996                           	clrf	(digitalWrite@value)
  4997  065C  01F0               	incf	(digitalWrite@value),f
  4998  065D  0AF0               	bcf	status, 5	;RP0=0, select bank0
  4999  065E  1283               	bcf	status, 6	;RP1=0, select bank0
  5000  065F  1303               	movf	(_d6Pin),w
  5001  0660  0857               	fcall	_digitalWrite
  5002  0661  120A  118A  2422  120A  118A  	line	173
  5003                           ;LCD16x2.c: 173:             digitalWrite(d5Pin,1);
  5004                           	clrf	(digitalWrite@value)
  5005  0666  01F0               	incf	(digitalWrite@value),f
  5006  0667  0AF0               	bcf	status, 5	;RP0=0, select bank0
  5007  0668  1283               	bcf	status, 6	;RP1=0, select bank0
  5008  0669  1303               	movf	(_d5Pin),w
  5009  066A  0858               	fcall	_digitalWrite
  5010  066B  120A  118A  2422  120A  118A  	line	174
  5011                           ;LCD16x2.c: 174:             digitalWrite(d4Pin,1);
  5012                           	clrf	(digitalWrite@value)
  5013  0670  01F0               	incf	(digitalWrite@value),f
  5014  0671  0AF0               	bcf	status, 5	;RP0=0, select bank0
  5015  0672  1283               	bcf	status, 6	;RP1=0, select bank0
  5016  0673  1303               	movf	(_d4Pin),w
  5017  0674  0859               	fcall	_digitalWrite
  5018  0675  120A  118A  2422  120A  118A  	line	175
  5019                           ;LCD16x2.c: 175:             break;
  5020                           	goto	l461
  5021  067A  2FF2               	line	176
  5022                           ;LCD16x2.c: 176:         case 0x08:
  5023                           	
  5024                           l453:	
  5025  067B                     	line	177
  5026                           	
  5027                           l2139:	
  5028  067B                     ;LCD16x2.c: 177:             digitalWrite(d7Pin,1);
  5029                           	clrf	(digitalWrite@value)
  5030  067B  01F0               	incf	(digitalWrite@value),f
  5031  067C  0AF0               	bcf	status, 5	;RP0=0, select bank0
  5032  067D  1283               	bcf	status, 6	;RP1=0, select bank0
  5033  067E  1303               	movf	(_d7Pin),w
  5034  067F  0856               	fcall	_digitalWrite
  5035  0680  120A  118A  2422  120A  118A  	line	178
  5036                           ;LCD16x2.c: 178:             digitalWrite(d6Pin,0);
  5037                           	clrf	(digitalWrite@value)
  5038  0685  01F0               	bcf	status, 5	;RP0=0, select bank0
  5039  0686  1283               	bcf	status, 6	;RP1=0, select bank0
  5040  0687  1303               	movf	(_d6Pin),w
  5041  0688  0857               	fcall	_digitalWrite
  5042  0689  120A  118A  2422  120A  118A  	line	179
  5043                           ;LCD16x2.c: 179:             digitalWrite(d5Pin,0);
  5044                           	clrf	(digitalWrite@value)
  5045  068E  01F0               	bcf	status, 5	;RP0=0, select bank0
  5046  068F  1283               	bcf	status, 6	;RP1=0, select bank0
  5047  0690  1303               	movf	(_d5Pin),w
  5048  0691  0858               	fcall	_digitalWrite
  5049  0692  120A  118A  2422  120A  118A  	line	180
  5050                           ;LCD16x2.c: 180:             digitalWrite(d4Pin,0);
  5051                           	clrf	(digitalWrite@value)
  5052  0697  01F0               	bcf	status, 5	;RP0=0, select bank0
  5053  0698  1283               	bcf	status, 6	;RP1=0, select bank0
  5054  0699  1303               	movf	(_d4Pin),w
  5055  069A  0859               	fcall	_digitalWrite
  5056  069B  120A  118A  2422  120A  118A  	line	181
  5057                           ;LCD16x2.c: 181:             break;
  5058                           	goto	l461
  5059  06A0  2FF2               	line	182
  5060                           ;LCD16x2.c: 182:         case 0x09:
  5061                           	
  5062                           l454:	
  5063  06A1                     	line	183
  5064                           	
  5065                           l2141:	
  5066  06A1                     ;LCD16x2.c: 183:             digitalWrite(d7Pin,1);
  5067                           	clrf	(digitalWrite@value)
  5068  06A1  01F0               	incf	(digitalWrite@value),f
  5069  06A2  0AF0               	bcf	status, 5	;RP0=0, select bank0
  5070  06A3  1283               	bcf	status, 6	;RP1=0, select bank0
  5071  06A4  1303               	movf	(_d7Pin),w
  5072  06A5  0856               	fcall	_digitalWrite
  5073  06A6  120A  118A  2422  120A  118A  	line	184
  5074                           ;LCD16x2.c: 184:             digitalWrite(d6Pin,0);
  5075                           	clrf	(digitalWrite@value)
  5076  06AB  01F0               	bcf	status, 5	;RP0=0, select bank0
  5077  06AC  1283               	bcf	status, 6	;RP1=0, select bank0
  5078  06AD  1303               	movf	(_d6Pin),w
  5079  06AE  0857               	fcall	_digitalWrite
  5080  06AF  120A  118A  2422  120A  118A  	line	185
  5081                           ;LCD16x2.c: 185:             digitalWrite(d5Pin,0);
  5082                           	clrf	(digitalWrite@value)
  5083  06B4  01F0               	bcf	status, 5	;RP0=0, select bank0
  5084  06B5  1283               	bcf	status, 6	;RP1=0, select bank0
  5085  06B6  1303               	movf	(_d5Pin),w
  5086  06B7  0858               	fcall	_digitalWrite
  5087  06B8  120A  118A  2422  120A  118A  	line	186
  5088                           ;LCD16x2.c: 186:             digitalWrite(d4Pin,1);
  5089                           	clrf	(digitalWrite@value)
  5090  06BD  01F0               	incf	(digitalWrite@value),f
  5091  06BE  0AF0               	bcf	status, 5	;RP0=0, select bank0
  5092  06BF  1283               	bcf	status, 6	;RP1=0, select bank0
  5093  06C0  1303               	movf	(_d4Pin),w
  5094  06C1  0859               	fcall	_digitalWrite
  5095  06C2  120A  118A  2422  120A  118A  	line	187
  5096                           ;LCD16x2.c: 187:             break;
  5097                           	goto	l461
  5098  06C7  2FF2               	line	188
  5099                           ;LCD16x2.c: 188:         case 0x0A:
  5100                           	
  5101                           l455:	
  5102  06C8                     	line	189
  5103                           	
  5104                           l2143:	
  5105  06C8                     ;LCD16x2.c: 189:             digitalWrite(d7Pin,1);
  5106                           	clrf	(digitalWrite@value)
  5107  06C8  01F0               	incf	(digitalWrite@value),f
  5108  06C9  0AF0               	bcf	status, 5	;RP0=0, select bank0
  5109  06CA  1283               	bcf	status, 6	;RP1=0, select bank0
  5110  06CB  1303               	movf	(_d7Pin),w
  5111  06CC  0856               	fcall	_digitalWrite
  5112  06CD  120A  118A  2422  120A  118A  	line	190
  5113                           ;LCD16x2.c: 190:             digitalWrite(d6Pin,0);
  5114                           	clrf	(digitalWrite@value)
  5115  06D2  01F0               	bcf	status, 5	;RP0=0, select bank0
  5116  06D3  1283               	bcf	status, 6	;RP1=0, select bank0
  5117  06D4  1303               	movf	(_d6Pin),w
  5118  06D5  0857               	fcall	_digitalWrite
  5119  06D6  120A  118A  2422  120A  118A  	line	191
  5120                           ;LCD16x2.c: 191:             digitalWrite(d5Pin,1);
  5121                           	clrf	(digitalWrite@value)
  5122  06DB  01F0               	incf	(digitalWrite@value),f
  5123  06DC  0AF0               	bcf	status, 5	;RP0=0, select bank0
  5124  06DD  1283               	bcf	status, 6	;RP1=0, select bank0
  5125  06DE  1303               	movf	(_d5Pin),w
  5126  06DF  0858               	fcall	_digitalWrite
  5127  06E0  120A  118A  2422  120A  118A  	line	192
  5128                           ;LCD16x2.c: 192:             digitalWrite(d4Pin,0);
  5129                           	clrf	(digitalWrite@value)
  5130  06E5  01F0               	bcf	status, 5	;RP0=0, select bank0
  5131  06E6  1283               	bcf	status, 6	;RP1=0, select bank0
  5132  06E7  1303               	movf	(_d4Pin),w
  5133  06E8  0859               	fcall	_digitalWrite
  5134  06E9  120A  118A  2422  120A  118A  	line	193
  5135                           ;LCD16x2.c: 193:             break;
  5136                           	goto	l461
  5137  06EE  2FF2               	line	194
  5138                           ;LCD16x2.c: 194:         case 0x0B:
  5139                           	
  5140                           l456:	
  5141  06EF                     	line	195
  5142                           	
  5143                           l2145:	
  5144  06EF                     ;LCD16x2.c: 195:             digitalWrite(d7Pin,1);
  5145                           	clrf	(digitalWrite@value)
  5146  06EF  01F0               	incf	(digitalWrite@value),f
  5147  06F0  0AF0               	bcf	status, 5	;RP0=0, select bank0
  5148  06F1  1283               	bcf	status, 6	;RP1=0, select bank0
  5149  06F2  1303               	movf	(_d7Pin),w
  5150  06F3  0856               	fcall	_digitalWrite
  5151  06F4  120A  118A  2422  120A  118A  	line	196
  5152                           ;LCD16x2.c: 196:             digitalWrite(d6Pin,0);
  5153                           	clrf	(digitalWrite@value)
  5154  06F9  01F0               	bcf	status, 5	;RP0=0, select bank0
  5155  06FA  1283               	bcf	status, 6	;RP1=0, select bank0
  5156  06FB  1303               	movf	(_d6Pin),w
  5157  06FC  0857               	fcall	_digitalWrite
  5158  06FD  120A  118A  2422  120A  118A  	line	197
  5159                           ;LCD16x2.c: 197:             digitalWrite(d5Pin,1);
  5160                           	clrf	(digitalWrite@value)
  5161  0702  01F0               	incf	(digitalWrite@value),f
  5162  0703  0AF0               	bcf	status, 5	;RP0=0, select bank0
  5163  0704  1283               	bcf	status, 6	;RP1=0, select bank0
  5164  0705  1303               	movf	(_d5Pin),w
  5165  0706  0858               	fcall	_digitalWrite
  5166  0707  120A  118A  2422  120A  118A  	line	198
  5167                           ;LCD16x2.c: 198:             digitalWrite(d4Pin,1);
  5168                           	clrf	(digitalWrite@value)
  5169  070C  01F0               	incf	(digitalWrite@value),f
  5170  070D  0AF0               	bcf	status, 5	;RP0=0, select bank0
  5171  070E  1283               	bcf	status, 6	;RP1=0, select bank0
  5172  070F  1303               	movf	(_d4Pin),w
  5173  0710  0859               	fcall	_digitalWrite
  5174  0711  120A  118A  2422  120A  118A  	line	199
  5175                           ;LCD16x2.c: 199:             break;
  5176                           	goto	l461
  5177  0716  2FF2               	line	200
  5178                           ;LCD16x2.c: 200:         case 0x0C:
  5179                           	
  5180                           l457:	
  5181  0717                     	line	201
  5182                           	
  5183                           l2147:	
  5184  0717                     ;LCD16x2.c: 201:             digitalWrite(d7Pin,1);
  5185                           	clrf	(digitalWrite@value)
  5186  0717  01F0               	incf	(digitalWrite@value),f
  5187  0718  0AF0               	bcf	status, 5	;RP0=0, select bank0
  5188  0719  1283               	bcf	status, 6	;RP1=0, select bank0
  5189  071A  1303               	movf	(_d7Pin),w
  5190  071B  0856               	fcall	_digitalWrite
  5191  071C  120A  118A  2422  120A  118A  	line	202
  5192                           ;LCD16x2.c: 202:             digitalWrite(d6Pin,1);
  5193                           	clrf	(digitalWrite@value)
  5194  0721  01F0               	incf	(digitalWrite@value),f
  5195  0722  0AF0               	bcf	status, 5	;RP0=0, select bank0
  5196  0723  1283               	bcf	status, 6	;RP1=0, select bank0
  5197  0724  1303               	movf	(_d6Pin),w
  5198  0725  0857               	fcall	_digitalWrite
  5199  0726  120A  118A  2422  120A  118A  	line	203
  5200                           ;LCD16x2.c: 203:             digitalWrite(d5Pin,0);
  5201                           	clrf	(digitalWrite@value)
  5202  072B  01F0               	bcf	status, 5	;RP0=0, select bank0
  5203  072C  1283               	bcf	status, 6	;RP1=0, select bank0
  5204  072D  1303               	movf	(_d5Pin),w
  5205  072E  0858               	fcall	_digitalWrite
  5206  072F  120A  118A  2422  120A  118A  	line	204
  5207                           ;LCD16x2.c: 204:             digitalWrite(d4Pin,0);
  5208                           	clrf	(digitalWrite@value)
  5209  0734  01F0               	bcf	status, 5	;RP0=0, select bank0
  5210  0735  1283               	bcf	status, 6	;RP1=0, select bank0
  5211  0736  1303               	movf	(_d4Pin),w
  5212  0737  0859               	fcall	_digitalWrite
  5213  0738  120A  118A  2422  120A  118A  	line	205
  5214                           ;LCD16x2.c: 205:             break;
  5215                           	goto	l461
  5216  073D  2FF2               	line	206
  5217                           ;LCD16x2.c: 206:         case 0x0D:
  5218                           	
  5219                           l458:	
  5220  073E                     	line	207
  5221                           	
  5222                           l2149:	
  5223  073E                     ;LCD16x2.c: 207:             digitalWrite(d7Pin,1);
  5224                           	clrf	(digitalWrite@value)
  5225  073E  01F0               	incf	(digitalWrite@value),f
  5226  073F  0AF0               	bcf	status, 5	;RP0=0, select bank0
  5227  0740  1283               	bcf	status, 6	;RP1=0, select bank0
  5228  0741  1303               	movf	(_d7Pin),w
  5229  0742  0856               	fcall	_digitalWrite
  5230  0743  120A  118A  2422  120A  118A  	line	208
  5231                           ;LCD16x2.c: 208:             digitalWrite(d6Pin,1);
  5232                           	clrf	(digitalWrite@value)
  5233  0748  01F0               	incf	(digitalWrite@value),f
  5234  0749  0AF0               	bcf	status, 5	;RP0=0, select bank0
  5235  074A  1283               	bcf	status, 6	;RP1=0, select bank0
  5236  074B  1303               	movf	(_d6Pin),w
  5237  074C  0857               	fcall	_digitalWrite
  5238  074D  120A  118A  2422  120A  118A  	line	209
  5239                           ;LCD16x2.c: 209:             digitalWrite(d5Pin,0);
  5240                           	clrf	(digitalWrite@value)
  5241  0752  01F0               	bcf	status, 5	;RP0=0, select bank0
  5242  0753  1283               	bcf	status, 6	;RP1=0, select bank0
  5243  0754  1303               	movf	(_d5Pin),w
  5244  0755  0858               	fcall	_digitalWrite
  5245  0756  120A  118A  2422  120A  118A  	line	210
  5246                           ;LCD16x2.c: 210:             digitalWrite(d4Pin,1);
  5247                           	clrf	(digitalWrite@value)
  5248  075B  01F0               	incf	(digitalWrite@value),f
  5249  075C  0AF0               	bcf	status, 5	;RP0=0, select bank0
  5250  075D  1283               	bcf	status, 6	;RP1=0, select bank0
  5251  075E  1303               	movf	(_d4Pin),w
  5252  075F  0859               	fcall	_digitalWrite
  5253  0760  120A  118A  2422  120A  118A  	line	211
  5254                           ;LCD16x2.c: 211:             break;
  5255                           	goto	l461
  5256  0765  2FF2               	line	212
  5257                           ;LCD16x2.c: 212:         case 0x0E:
  5258                           	
  5259                           l459:	
  5260  0766                     	line	213
  5261                           	
  5262                           l2151:	
  5263  0766                     ;LCD16x2.c: 213:             digitalWrite(d7Pin,1);
  5264                           	clrf	(digitalWrite@value)
  5265  0766  01F0               	incf	(digitalWrite@value),f
  5266  0767  0AF0               	bcf	status, 5	;RP0=0, select bank0
  5267  0768  1283               	bcf	status, 6	;RP1=0, select bank0
  5268  0769  1303               	movf	(_d7Pin),w
  5269  076A  0856               	fcall	_digitalWrite
  5270  076B  120A  118A  2422  120A  118A  	line	214
  5271                           ;LCD16x2.c: 214:             digitalWrite(d6Pin,1);
  5272                           	clrf	(digitalWrite@value)
  5273  0770  01F0               	incf	(digitalWrite@value),f
  5274  0771  0AF0               	bcf	status, 5	;RP0=0, select bank0
  5275  0772  1283               	bcf	status, 6	;RP1=0, select bank0
  5276  0773  1303               	movf	(_d6Pin),w
  5277  0774  0857               	fcall	_digitalWrite
  5278  0775  120A  118A  2422  120A  118A  	line	215
  5279                           ;LCD16x2.c: 215:             digitalWrite(d5Pin,1);
  5280                           	clrf	(digitalWrite@value)
  5281  077A  01F0               	incf	(digitalWrite@value),f
  5282  077B  0AF0               	bcf	status, 5	;RP0=0, select bank0
  5283  077C  1283               	bcf	status, 6	;RP1=0, select bank0
  5284  077D  1303               	movf	(_d5Pin),w
  5285  077E  0858               	fcall	_digitalWrite
  5286  077F  120A  118A  2422  120A  118A  	line	216
  5287                           ;LCD16x2.c: 216:             digitalWrite(d4Pin,0);
  5288                           	clrf	(digitalWrite@value)
  5289  0784  01F0               	bcf	status, 5	;RP0=0, select bank0
  5290  0785  1283               	bcf	status, 6	;RP1=0, select bank0
  5291  0786  1303               	movf	(_d4Pin),w
  5292  0787  0859               	fcall	_digitalWrite
  5293  0788  120A  118A  2422  120A  118A  	line	217
  5294                           ;LCD16x2.c: 217:             break;
  5295                           	goto	l461
  5296  078D  2FF2               	line	218
  5297                           ;LCD16x2.c: 218:         case 0x0F:
  5298                           	
  5299                           l460:	
  5300  078E                     	line	219
  5301                           	
  5302                           l2153:	
  5303  078E                     ;LCD16x2.c: 219:             digitalWrite(d7Pin,1);
  5304                           	clrf	(digitalWrite@value)
  5305  078E  01F0               	incf	(digitalWrite@value),f
  5306  078F  0AF0               	bcf	status, 5	;RP0=0, select bank0
  5307  0790  1283               	bcf	status, 6	;RP1=0, select bank0
  5308  0791  1303               	movf	(_d7Pin),w
  5309  0792  0856               	fcall	_digitalWrite
  5310  0793  120A  118A  2422  120A  118A  	line	220
  5311                           ;LCD16x2.c: 220:             digitalWrite(d6Pin,1);
  5312                           	clrf	(digitalWrite@value)
  5313  0798  01F0               	incf	(digitalWrite@value),f
  5314  0799  0AF0               	bcf	status, 5	;RP0=0, select bank0
  5315  079A  1283               	bcf	status, 6	;RP1=0, select bank0
  5316  079B  1303               	movf	(_d6Pin),w
  5317  079C  0857               	fcall	_digitalWrite
  5318  079D  120A  118A  2422  120A  118A  	line	221
  5319                           ;LCD16x2.c: 221:             digitalWrite(d5Pin,1);
  5320                           	clrf	(digitalWrite@value)
  5321  07A2  01F0               	incf	(digitalWrite@value),f
  5322  07A3  0AF0               	bcf	status, 5	;RP0=0, select bank0
  5323  07A4  1283               	bcf	status, 6	;RP1=0, select bank0
  5324  07A5  1303               	movf	(_d5Pin),w
  5325  07A6  0858               	fcall	_digitalWrite
  5326  07A7  120A  118A  2422  120A  118A  	line	222
  5327                           ;LCD16x2.c: 222:             digitalWrite(d4Pin,1);
  5328                           	clrf	(digitalWrite@value)
  5329  07AC  01F0               	incf	(digitalWrite@value),f
  5330  07AD  0AF0               	bcf	status, 5	;RP0=0, select bank0
  5331  07AE  1283               	bcf	status, 6	;RP1=0, select bank0
  5332  07AF  1303               	movf	(_d4Pin),w
  5333  07B0  0859               	fcall	_digitalWrite
  5334  07B1  120A  118A  2422  120A  118A  	line	223
  5335                           ;LCD16x2.c: 223:             break;
  5336                           	goto	l461
  5337  07B6  2FF2               	line	224
  5338                           	
  5339                           l2155:	
  5340  07B7                     ;LCD16x2.c: 224:     }
  5341                           	goto	l461
  5342  07B7  2FF2               	
  5343                           l443:	
  5344  07B8                     	
  5345                           l2157:	
  5346  07B8                     	movf	(ByteByNibble@NibbleValue),w
  5347  07B8  0876               	movwf	(??_ByteByNibble+0)+0
  5348  07B9  00F4               	clrf	(??_ByteByNibble+0)+0+1
  5349  07BA  01F5               	; Switch on 2 bytes has been partitioned into a top level switch of size 1, and 1 sub-s
                                 witches
  5350                           ; Switch size 1, requested type "space"
  5351                           ; Number of cases is 1, Range of values is 0 to 0
  5352                           ; switch strategies available:
  5353                           ; Name         Instructions Cycles
  5354                           ; simple_byte            4     3 (average)
  5355                           ; direct_byte           11     8 (fixed)
  5356                           ; jumptable            260     6 (fixed)
  5357                           ;	Chosen strategy is simple_byte
  5358                           
  5359                           	movf 1+(??_ByteByNibble+0)+0,w
  5360  07BB  0875               	opt asmopt_push
  5361                           	opt asmopt_off
  5362                           	xorlw	0^0	; case 0
  5363  07BC  3A00               	skipnz
  5364  07BD  1903               	goto	l2609
  5365  07BE  2FC0               	goto	l461
  5366  07BF  2FF2               	opt asmopt_pop
  5367                           	
  5368                           l2609:	
  5369  07C0                     ; Switch size 1, requested type "space"
  5370                           ; Number of cases is 16, Range of values is 0 to 15
  5371                           ; switch strategies available:
  5372                           ; Name         Instructions Cycles
  5373                           ; simple_byte           49    25 (average)
  5374                           ; direct_byte           56     8 (fixed)
  5375                           ; jumptable            260     6 (fixed)
  5376                           ;	Chosen strategy is simple_byte
  5377                           
  5378                           	movf 0+(??_ByteByNibble+0)+0,w
  5379  07C0  0874               	opt asmopt_push
  5380                           	opt asmopt_off
  5381                           	xorlw	0^0	; case 0
  5382  07C1  3A00               	skipnz
  5383  07C2  1903               	goto	l2123
  5384  07C3  2D47               	xorlw	1^0	; case 1
  5385  07C4  3A01               	skipnz
  5386  07C5  1903               	goto	l2125
  5387  07C6  2D6C               	xorlw	2^1	; case 2
  5388  07C7  3A03               	skipnz
  5389  07C8  1903               	goto	l2127
  5390  07C9  2D92               	xorlw	3^2	; case 3
  5391  07CA  3A01               	skipnz
  5392  07CB  1903               	goto	l2129
  5393  07CC  2DB8               	xorlw	4^3	; case 4
  5394  07CD  3A07               	skipnz
  5395  07CE  1903               	goto	l2131
  5396  07CF  2DDF               	xorlw	5^4	; case 5
  5397  07D0  3A01               	skipnz
  5398  07D1  1903               	goto	l2133
  5399  07D2  2E05               	xorlw	6^5	; case 6
  5400  07D3  3A03               	skipnz
  5401  07D4  1903               	goto	l2135
  5402  07D5  2E2C               	xorlw	7^6	; case 7
  5403  07D6  3A01               	skipnz
  5404  07D7  1903               	goto	l2137
  5405  07D8  2E53               	xorlw	8^7	; case 8
  5406  07D9  3A0F               	skipnz
  5407  07DA  1903               	goto	l2139
  5408  07DB  2E7B               	xorlw	9^8	; case 9
  5409  07DC  3A01               	skipnz
  5410  07DD  1903               	goto	l2141
  5411  07DE  2EA1               	xorlw	10^9	; case 10
  5412  07DF  3A03               	skipnz
  5413  07E0  1903               	goto	l2143
  5414  07E1  2EC8               	xorlw	11^10	; case 11
  5415  07E2  3A01               	skipnz
  5416  07E3  1903               	goto	l2145
  5417  07E4  2EEF               	xorlw	12^11	; case 12
  5418  07E5  3A07               	skipnz
  5419  07E6  1903               	goto	l2147
  5420  07E7  2F17               	xorlw	13^12	; case 13
  5421  07E8  3A01               	skipnz
  5422  07E9  1903               	goto	l2149
  5423  07EA  2F3E               	xorlw	14^13	; case 14
  5424  07EB  3A03               	skipnz
  5425  07EC  1903               	goto	l2151
  5426  07ED  2F66               	xorlw	15^14	; case 15
  5427  07EE  3A01               	skipnz
  5428  07EF  1903               	goto	l2153
  5429  07F0  2F8E               	goto	l461
  5430  07F1  2FF2               	opt asmopt_pop
  5431                           
  5432                           	
  5433                           l445:	
  5434  07F2                     	line	225
  5435                           	
  5436                           l461:	
  5437  07F2                     	return
  5438  07F2  0008               	opt stack 0
  5439                           GLOBAL	__end_of_ByteByNibble
  5440                           	__end_of_ByteByNibble:
  5441  07F3                     	signat	_ByteByNibble,4217
  5442                           	global	_digitalWrite
  5443                           
  5444 ;; *************** function _digitalWrite *****************
  5445 ;; Defined at:
  5446 ;;		line 166 in file "Hormiga877.c"
  5447 ;; Parameters:    Size  Location     Type
  5448 ;;  pin             1    wreg     unsigned char 
  5449 ;;  value           1    0[COMMON] unsigned char 
  5450 ;; Auto vars:     Size  Location     Type
  5451 ;;  pin             1    3[COMMON] unsigned char 
  5452 ;; Return value:  Size  Location     Type
  5453 ;;                  1    wreg      void 
  5454 ;; Registers used:
  5455 ;;		wreg, fsr0l, fsr0h, status,2, status,0
  5456 ;; Tracked objects:
  5457 ;;		On entry : 0/0
  5458 ;;		On exit  : 0/0
  5459 ;;		Unchanged: 0/0
  5460 ;; Data sizes:     COMMON   BANK0   BANK1   BANK3   BANK2
  5461 ;;      Params:         1       0       0       0       0
  5462 ;;      Locals:         1       0       0       0       0
  5463 ;;      Temps:          2       0       0       0       0
  5464 ;;      Totals:         4       0       0       0       0
  5465 ;;Total ram usage:        4 bytes
  5466 ;; Hardware stack levels used:    1
  5467 ;; This function calls:
  5468 ;;		Nothing
  5469 ;; This function is called by:
  5470 ;;		_WriteInstruction
  5471 ;;		_WriteData
  5472 ;;		_ByteByNibble
  5473 ;; This function uses a non-reentrant model
  5474 ;;
  5475                           psect	text16,local,class=CODE,delta=2,merge=1,group=0
  5476                           	file	"Hormiga877.c"
  5477                           	line	166
  5478                           global __ptext16
  5479                           __ptext16:	;psect for function _digitalWrite
  5480  0422                     psect	text16
  5481                           	file	"Hormiga877.c"
  5482                           	line	166
  5483                           	global	__size_of_digitalWrite
  5484                           	__size_of_digitalWrite	equ	__end_of_digitalWrite-_digitalWrite
  5485  0123                     	
  5486                           _digitalWrite:	
  5487  0422                     ;incstack = 0
  5488                           	opt	stack 4
  5489                           ; Regs used in _digitalWrite: [wreg-fsr0h+status,2+status,0]
  5490                           ;digitalWrite@pin stored from wreg
  5491                           	movwf	(digitalWrite@pin)
  5492  0422  00F3               	line	168
  5493                           	
  5494                           l2039:	
  5495  0423                     ;Hormiga877.c: 166: void digitalWrite(char pin, char value);Hormiga877.c: 167: {;Hormiga
                                 877.c: 168:     switch(pin)
  5496                           	goto	l2097
  5497  0423  2CEF               	line	170
  5498                           ;Hormiga877.c: 169:     {;Hormiga877.c: 170:         case 0:
  5499                           	
  5500                           l193:	
  5501  0424                     	line	171
  5502                           	
  5503                           l2041:	
  5504  0424                     ;Hormiga877.c: 171:             PORTCbits.RC7 = value;
  5505                           	rrf	(digitalWrite@value),w
  5506  0424  0C70               	bcf	status, 5	;RP0=0, select bank0
  5507  0425  1283               	bcf	status, 6	;RP1=0, select bank0
  5508  0426  1303               	skipc
  5509  0427  1C03               	bcf	(7),7	;volatile
  5510  0428  1387               	skipnc
  5511  0429  1803               	bsf	(7),7	;volatile
  5512  042A  1787               	line	172
  5513                           ;Hormiga877.c: 172:             break;
  5514                           	goto	l219
  5515  042B  2D44               	line	173
  5516                           ;Hormiga877.c: 173:         case 1:
  5517                           	
  5518                           l195:	
  5519  042C                     	line	174
  5520                           	
  5521                           l2043:	
  5522  042C                     ;Hormiga877.c: 174:             PORTCbits.RC6 = value;
  5523                           	rrf	(digitalWrite@value),w
  5524  042C  0C70               	bcf	status, 5	;RP0=0, select bank0
  5525  042D  1283               	bcf	status, 6	;RP1=0, select bank0
  5526  042E  1303               	skipc
  5527  042F  1C03               	bcf	(7),6	;volatile
  5528  0430  1307               	skipnc
  5529  0431  1803               	bsf	(7),6	;volatile
  5530  0432  1707               	line	175
  5531                           ;Hormiga877.c: 175:             break;
  5532                           	goto	l219
  5533  0433  2D44               	line	176
  5534                           ;Hormiga877.c: 176:         case 2:
  5535                           	
  5536                           l196:	
  5537  0434                     	line	177
  5538                           	
  5539                           l2045:	
  5540  0434                     ;Hormiga877.c: 177:             PORTCbits.RC5 = value;
  5541                           	rrf	(digitalWrite@value),w
  5542  0434  0C70               	bcf	status, 5	;RP0=0, select bank0
  5543  0435  1283               	bcf	status, 6	;RP1=0, select bank0
  5544  0436  1303               	skipc
  5545  0437  1C03               	bcf	(7),5	;volatile
  5546  0438  1287               	skipnc
  5547  0439  1803               	bsf	(7),5	;volatile
  5548  043A  1687               	line	178
  5549                           ;Hormiga877.c: 178:             break;
  5550                           	goto	l219
  5551  043B  2D44               	line	179
  5552                           ;Hormiga877.c: 179:         case 3:
  5553                           	
  5554                           l197:	
  5555  043C                     	line	180
  5556                           	
  5557                           l2047:	
  5558  043C                     ;Hormiga877.c: 180:             PORTCbits.RC4 = value;
  5559                           	rrf	(digitalWrite@value),w
  5560  043C  0C70               	bcf	status, 5	;RP0=0, select bank0
  5561  043D  1283               	bcf	status, 6	;RP1=0, select bank0
  5562  043E  1303               	skipc
  5563  043F  1C03               	bcf	(7),4	;volatile
  5564  0440  1207               	skipnc
  5565  0441  1803               	bsf	(7),4	;volatile
  5566  0442  1607               	line	181
  5567                           ;Hormiga877.c: 181:             break;
  5568                           	goto	l219
  5569  0443  2D44               	line	182
  5570                           ;Hormiga877.c: 182:         case 4:
  5571                           	
  5572                           l198:	
  5573  0444                     	line	183
  5574                           	
  5575                           l2049:	
  5576  0444                     ;Hormiga877.c: 183:             PORTCbits.RC3 = value;
  5577                           	rrf	(digitalWrite@value),w
  5578  0444  0C70               	bcf	status, 5	;RP0=0, select bank0
  5579  0445  1283               	bcf	status, 6	;RP1=0, select bank0
  5580  0446  1303               	skipc
  5581  0447  1C03               	bcf	(7),3	;volatile
  5582  0448  1187               	skipnc
  5583  0449  1803               	bsf	(7),3	;volatile
  5584  044A  1587               	line	184
  5585                           ;Hormiga877.c: 184:             break;
  5586                           	goto	l219
  5587  044B  2D44               	line	185
  5588                           ;Hormiga877.c: 185:         case 5:
  5589                           	
  5590                           l199:	
  5591  044C                     	line	186
  5592                           	
  5593                           l2051:	
  5594  044C                     ;Hormiga877.c: 186:             CCP1CON = 0x00;
  5595                           	bcf	status, 5	;RP0=0, select bank0
  5596  044C  1283               	bcf	status, 6	;RP1=0, select bank0
  5597  044D  1303               	clrf	(23)	;volatile
  5598  044E  0197               	line	187
  5599                           	
  5600                           l2053:	
  5601  044F                     ;Hormiga877.c: 187:             PORTCbits.RC2 = value;
  5602                           	rrf	(digitalWrite@value),w
  5603  044F  0C70               	skipc
  5604  0450  1C03               	bcf	(7),2	;volatile
  5605  0451  1107               	skipnc
  5606  0452  1803               	bsf	(7),2	;volatile
  5607  0453  1507               	line	188
  5608                           ;Hormiga877.c: 188:             break;
  5609                           	goto	l219
  5610  0454  2D44               	line	189
  5611                           ;Hormiga877.c: 189:         case 6:
  5612                           	
  5613                           l200:	
  5614  0455                     	line	190
  5615                           	
  5616                           l2055:	
  5617  0455                     ;Hormiga877.c: 190:             CCP2CON = 0x00;
  5618                           	bcf	status, 5	;RP0=0, select bank0
  5619  0455  1283               	bcf	status, 6	;RP1=0, select bank0
  5620  0456  1303               	clrf	(29)	;volatile
  5621  0457  019D               	line	191
  5622                           	
  5623                           l2057:	
  5624  0458                     ;Hormiga877.c: 191:             PORTCbits.RC1 = value;
  5625                           	rrf	(digitalWrite@value),w
  5626  0458  0C70               	skipc
  5627  0459  1C03               	bcf	(7),1	;volatile
  5628  045A  1087               	skipnc
  5629  045B  1803               	bsf	(7),1	;volatile
  5630  045C  1487               	line	192
  5631                           ;Hormiga877.c: 192:             break;
  5632                           	goto	l219
  5633  045D  2D44               	line	193
  5634                           ;Hormiga877.c: 193:         case 7:
  5635                           	
  5636                           l201:	
  5637  045E                     	line	194
  5638                           	
  5639                           l2059:	
  5640  045E                     ;Hormiga877.c: 194:             PORTCbits.RC0 = value;
  5641                           	rrf	(digitalWrite@value),w
  5642  045E  0C70               	bcf	status, 5	;RP0=0, select bank0
  5643  045F  1283               	bcf	status, 6	;RP1=0, select bank0
  5644  0460  1303               	skipc
  5645  0461  1C03               	bcf	(7),0	;volatile
  5646  0462  1007               	skipnc
  5647  0463  1803               	bsf	(7),0	;volatile
  5648  0464  1407               	line	195
  5649                           ;Hormiga877.c: 195:             break;
  5650                           	goto	l219
  5651  0465  2D44               	line	196
  5652                           ;Hormiga877.c: 196:         case 8:
  5653                           	
  5654                           l202:	
  5655  0466                     	line	197
  5656                           	
  5657                           l2061:	
  5658  0466                     ;Hormiga877.c: 197:             PORTBbits.RB0 = value;
  5659                           	rrf	(digitalWrite@value),w
  5660  0466  0C70               	bcf	status, 5	;RP0=0, select bank0
  5661  0467  1283               	bcf	status, 6	;RP1=0, select bank0
  5662  0468  1303               	skipc
  5663  0469  1C03               	bcf	(6),0	;volatile
  5664  046A  1006               	skipnc
  5665  046B  1803               	bsf	(6),0	;volatile
  5666  046C  1406               	line	198
  5667                           ;Hormiga877.c: 198:             break;
  5668                           	goto	l219
  5669  046D  2D44               	line	199
  5670                           ;Hormiga877.c: 199:         case 9:
  5671                           	
  5672                           l203:	
  5673  046E                     	line	200
  5674                           	
  5675                           l2063:	
  5676  046E                     ;Hormiga877.c: 200:             PORTBbits.RB1 = value;
  5677                           	rrf	(digitalWrite@value),w
  5678  046E  0C70               	bcf	status, 5	;RP0=0, select bank0
  5679  046F  1283               	bcf	status, 6	;RP1=0, select bank0
  5680  0470  1303               	skipc
  5681  0471  1C03               	bcf	(6),1	;volatile
  5682  0472  1086               	skipnc
  5683  0473  1803               	bsf	(6),1	;volatile
  5684  0474  1486               	line	201
  5685                           ;Hormiga877.c: 201:             break;
  5686                           	goto	l219
  5687  0475  2D44               	line	202
  5688                           ;Hormiga877.c: 202:         case 10:
  5689                           	
  5690                           l204:	
  5691  0476                     	line	203
  5692                           	
  5693                           l2065:	
  5694  0476                     ;Hormiga877.c: 203:             PORTBbits.RB2 = value;
  5695                           	rrf	(digitalWrite@value),w
  5696  0476  0C70               	bcf	status, 5	;RP0=0, select bank0
  5697  0477  1283               	bcf	status, 6	;RP1=0, select bank0
  5698  0478  1303               	skipc
  5699  0479  1C03               	bcf	(6),2	;volatile
  5700  047A  1106               	skipnc
  5701  047B  1803               	bsf	(6),2	;volatile
  5702  047C  1506               	line	204
  5703                           ;Hormiga877.c: 204:             break;
  5704                           	goto	l219
  5705  047D  2D44               	line	205
  5706                           ;Hormiga877.c: 205:         case 11:
  5707                           	
  5708                           l205:	
  5709  047E                     	line	206
  5710                           	
  5711                           l2067:	
  5712  047E                     ;Hormiga877.c: 206:             PORTBbits.RB3 = value;
  5713                           	rrf	(digitalWrite@value),w
  5714  047E  0C70               	bcf	status, 5	;RP0=0, select bank0
  5715  047F  1283               	bcf	status, 6	;RP1=0, select bank0
  5716  0480  1303               	skipc
  5717  0481  1C03               	bcf	(6),3	;volatile
  5718  0482  1186               	skipnc
  5719  0483  1803               	bsf	(6),3	;volatile
  5720  0484  1586               	line	207
  5721                           ;Hormiga877.c: 207:             break;
  5722                           	goto	l219
  5723  0485  2D44               	line	208
  5724                           ;Hormiga877.c: 208:         case 12:
  5725                           	
  5726                           l206:	
  5727  0486                     	line	209
  5728                           	
  5729                           l2069:	
  5730  0486                     ;Hormiga877.c: 209:             PORTBbits.RB4 = value;
  5731                           	rrf	(digitalWrite@value),w
  5732  0486  0C70               	bcf	status, 5	;RP0=0, select bank0
  5733  0487  1283               	bcf	status, 6	;RP1=0, select bank0
  5734  0488  1303               	skipc
  5735  0489  1C03               	bcf	(6),4	;volatile
  5736  048A  1206               	skipnc
  5737  048B  1803               	bsf	(6),4	;volatile
  5738  048C  1606               	line	210
  5739                           ;Hormiga877.c: 210:             break;
  5740                           	goto	l219
  5741  048D  2D44               	line	211
  5742                           ;Hormiga877.c: 211:         case 13:
  5743                           	
  5744                           l207:	
  5745  048E                     	line	212
  5746                           	
  5747                           l2071:	
  5748  048E                     ;Hormiga877.c: 212:             PORTBbits.RB5 = value;
  5749                           	rrf	(digitalWrite@value),w
  5750  048E  0C70               	bcf	status, 5	;RP0=0, select bank0
  5751  048F  1283               	bcf	status, 6	;RP1=0, select bank0
  5752  0490  1303               	skipc
  5753  0491  1C03               	bcf	(6),5	;volatile
  5754  0492  1286               	skipnc
  5755  0493  1803               	bsf	(6),5	;volatile
  5756  0494  1686               	line	213
  5757                           ;Hormiga877.c: 213:             break;
  5758                           	goto	l219
  5759  0495  2D44               	line	214
  5760                           ;Hormiga877.c: 214:         case 14:
  5761                           	
  5762                           l208:	
  5763  0496                     	line	215
  5764                           	
  5765                           l2073:	
  5766  0496                     ;Hormiga877.c: 215:             PORTBbits.RB6 = value;
  5767                           	rrf	(digitalWrite@value),w
  5768  0496  0C70               	bcf	status, 5	;RP0=0, select bank0
  5769  0497  1283               	bcf	status, 6	;RP1=0, select bank0
  5770  0498  1303               	skipc
  5771  0499  1C03               	bcf	(6),6	;volatile
  5772  049A  1306               	skipnc
  5773  049B  1803               	bsf	(6),6	;volatile
  5774  049C  1706               	line	216
  5775                           ;Hormiga877.c: 216:             break;
  5776                           	goto	l219
  5777  049D  2D44               	line	217
  5778                           ;Hormiga877.c: 217:         case 15:
  5779                           	
  5780                           l209:	
  5781  049E                     	line	218
  5782                           	
  5783                           l2075:	
  5784  049E                     ;Hormiga877.c: 218:             PORTBbits.RB7 = value;
  5785                           	rrf	(digitalWrite@value),w
  5786  049E  0C70               	bcf	status, 5	;RP0=0, select bank0
  5787  049F  1283               	bcf	status, 6	;RP1=0, select bank0
  5788  04A0  1303               	skipc
  5789  04A1  1C03               	bcf	(6),7	;volatile
  5790  04A2  1386               	skipnc
  5791  04A3  1803               	bsf	(6),7	;volatile
  5792  04A4  1786               	line	219
  5793                           ;Hormiga877.c: 219:             break;
  5794                           	goto	l219
  5795  04A5  2D44               	line	220
  5796                           ;Hormiga877.c: 220:         case 16:
  5797                           	
  5798                           l210:	
  5799  04A6                     	line	221
  5800                           	
  5801                           l2077:	
  5802  04A6                     ;Hormiga877.c: 221:             PORTDbits.RD0 = value;
  5803                           	rrf	(digitalWrite@value),w
  5804  04A6  0C70               	bcf	status, 5	;RP0=0, select bank0
  5805  04A7  1283               	bcf	status, 6	;RP1=0, select bank0
  5806  04A8  1303               	skipc
  5807  04A9  1C03               	bcf	(8),0	;volatile
  5808  04AA  1008               	skipnc
  5809  04AB  1803               	bsf	(8),0	;volatile
  5810  04AC  1408               	line	222
  5811                           ;Hormiga877.c: 222:             break;
  5812                           	goto	l219
  5813  04AD  2D44               	line	223
  5814                           ;Hormiga877.c: 223:         case 17:
  5815                           	
  5816                           l211:	
  5817  04AE                     	line	224
  5818                           	
  5819                           l2079:	
  5820  04AE                     ;Hormiga877.c: 224:             PORTDbits.RD1 = value;
  5821                           	rrf	(digitalWrite@value),w
  5822  04AE  0C70               	bcf	status, 5	;RP0=0, select bank0
  5823  04AF  1283               	bcf	status, 6	;RP1=0, select bank0
  5824  04B0  1303               	skipc
  5825  04B1  1C03               	bcf	(8),1	;volatile
  5826  04B2  1088               	skipnc
  5827  04B3  1803               	bsf	(8),1	;volatile
  5828  04B4  1488               	line	225
  5829                           ;Hormiga877.c: 225:             break;
  5830                           	goto	l219
  5831  04B5  2D44               	line	226
  5832                           ;Hormiga877.c: 226:         case 18:
  5833                           	
  5834                           l212:	
  5835  04B6                     	line	227
  5836                           	
  5837                           l2081:	
  5838  04B6                     ;Hormiga877.c: 227:             PORTDbits.RD2 = value;
  5839                           	rrf	(digitalWrite@value),w
  5840  04B6  0C70               	bcf	status, 5	;RP0=0, select bank0
  5841  04B7  1283               	bcf	status, 6	;RP1=0, select bank0
  5842  04B8  1303               	skipc
  5843  04B9  1C03               	bcf	(8),2	;volatile
  5844  04BA  1108               	skipnc
  5845  04BB  1803               	bsf	(8),2	;volatile
  5846  04BC  1508               	line	228
  5847                           ;Hormiga877.c: 228:             break;
  5848                           	goto	l219
  5849  04BD  2D44               	line	229
  5850                           ;Hormiga877.c: 229:         case 19:
  5851                           	
  5852                           l213:	
  5853  04BE                     	line	230
  5854                           	
  5855                           l2083:	
  5856  04BE                     ;Hormiga877.c: 230:             PORTDbits.RD3 = value;
  5857                           	rrf	(digitalWrite@value),w
  5858  04BE  0C70               	bcf	status, 5	;RP0=0, select bank0
  5859  04BF  1283               	bcf	status, 6	;RP1=0, select bank0
  5860  04C0  1303               	skipc
  5861  04C1  1C03               	bcf	(8),3	;volatile
  5862  04C2  1188               	skipnc
  5863  04C3  1803               	bsf	(8),3	;volatile
  5864  04C4  1588               	line	231
  5865                           ;Hormiga877.c: 231:             break;
  5866                           	goto	l219
  5867  04C5  2D44               	line	232
  5868                           ;Hormiga877.c: 232:         case 20:
  5869                           	
  5870                           l214:	
  5871  04C6                     	line	233
  5872                           	
  5873                           l2085:	
  5874  04C6                     ;Hormiga877.c: 233:             PORTDbits.RD4 = value;
  5875                           	rrf	(digitalWrite@value),w
  5876  04C6  0C70               	bcf	status, 5	;RP0=0, select bank0
  5877  04C7  1283               	bcf	status, 6	;RP1=0, select bank0
  5878  04C8  1303               	skipc
  5879  04C9  1C03               	bcf	(8),4	;volatile
  5880  04CA  1208               	skipnc
  5881  04CB  1803               	bsf	(8),4	;volatile
  5882  04CC  1608               	line	234
  5883                           ;Hormiga877.c: 234:             break;
  5884                           	goto	l219
  5885  04CD  2D44               	line	235
  5886                           ;Hormiga877.c: 235:         case 21:
  5887                           	
  5888                           l215:	
  5889  04CE                     	line	236
  5890                           	
  5891                           l2087:	
  5892  04CE                     ;Hormiga877.c: 236:             PORTDbits.RD5 = value;
  5893                           	rrf	(digitalWrite@value),w
  5894  04CE  0C70               	bcf	status, 5	;RP0=0, select bank0
  5895  04CF  1283               	bcf	status, 6	;RP1=0, select bank0
  5896  04D0  1303               	skipc
  5897  04D1  1C03               	bcf	(8),5	;volatile
  5898  04D2  1288               	skipnc
  5899  04D3  1803               	bsf	(8),5	;volatile
  5900  04D4  1688               	line	237
  5901                           ;Hormiga877.c: 237:             break;
  5902                           	goto	l219
  5903  04D5  2D44               	line	238
  5904                           ;Hormiga877.c: 238:         case 22:
  5905                           	
  5906                           l216:	
  5907  04D6                     	line	239
  5908                           	
  5909                           l2089:	
  5910  04D6                     ;Hormiga877.c: 239:             PORTDbits.RD6 = value;
  5911                           	rrf	(digitalWrite@value),w
  5912  04D6  0C70               	bcf	status, 5	;RP0=0, select bank0
  5913  04D7  1283               	bcf	status, 6	;RP1=0, select bank0
  5914  04D8  1303               	skipc
  5915  04D9  1C03               	bcf	(8),6	;volatile
  5916  04DA  1308               	skipnc
  5917  04DB  1803               	bsf	(8),6	;volatile
  5918  04DC  1708               	line	240
  5919                           ;Hormiga877.c: 240:             break;
  5920                           	goto	l219
  5921  04DD  2D44               	line	241
  5922                           ;Hormiga877.c: 241:         case 23:
  5923                           	
  5924                           l217:	
  5925  04DE                     	line	242
  5926                           	
  5927                           l2091:	
  5928  04DE                     ;Hormiga877.c: 242:             PORTDbits.RD7 = value;
  5929                           	rrf	(digitalWrite@value),w
  5930  04DE  0C70               	bcf	status, 5	;RP0=0, select bank0
  5931  04DF  1283               	bcf	status, 6	;RP1=0, select bank0
  5932  04E0  1303               	skipc
  5933  04E1  1C03               	bcf	(8),7	;volatile
  5934  04E2  1388               	skipnc
  5935  04E3  1803               	bsf	(8),7	;volatile
  5936  04E4  1788               	line	243
  5937                           ;Hormiga877.c: 243:             break;
  5938                           	goto	l219
  5939  04E5  2D44               	line	244
  5940                           ;Hormiga877.c: 244:         case 24:
  5941                           	
  5942                           l218:	
  5943  04E6                     	line	245
  5944                           	
  5945                           l2093:	
  5946  04E6                     ;Hormiga877.c: 245:             PORTAbits.RA4 = value;
  5947                           	rrf	(digitalWrite@value),w
  5948  04E6  0C70               	bcf	status, 5	;RP0=0, select bank0
  5949  04E7  1283               	bcf	status, 6	;RP1=0, select bank0
  5950  04E8  1303               	skipc
  5951  04E9  1C03               	bcf	(5),4	;volatile
  5952  04EA  1205               	skipnc
  5953  04EB  1803               	bsf	(5),4	;volatile
  5954  04EC  1605               	line	246
  5955                           ;Hormiga877.c: 246:             break;
  5956                           	goto	l219
  5957  04ED  2D44               	line	255
  5958                           	
  5959                           l2095:	
  5960  04EE                     ;Hormiga877.c: 255:     }
  5961                           	goto	l219
  5962  04EE  2D44               	
  5963                           l192:	
  5964  04EF                     	
  5965                           l2097:	
  5966  04EF                     	movf	(digitalWrite@pin),w
  5967  04EF  0873               	movwf	(??_digitalWrite+0)+0
  5968  04F0  00F1               	clrf	(??_digitalWrite+0)+0+1
  5969  04F1  01F2               	; Switch on 2 bytes has been partitioned into a top level switch of size 1, and 1 sub-s
                                 witches
  5970                           ; Switch size 1, requested type "space"
  5971                           ; Number of cases is 1, Range of values is 0 to 0
  5972                           ; switch strategies available:
  5973                           ; Name         Instructions Cycles
  5974                           ; simple_byte            4     3 (average)
  5975                           ; direct_byte           11     8 (fixed)
  5976                           ; jumptable            260     6 (fixed)
  5977                           ;	Chosen strategy is simple_byte
  5978                           
  5979                           	movf 1+(??_digitalWrite+0)+0,w
  5980  04F2  0872               	opt asmopt_push
  5981                           	opt asmopt_off
  5982                           	xorlw	0^0	; case 0
  5983  04F3  3A00               	skipnz
  5984  04F4  1903               	goto	l2611
  5985  04F5  2CF7               	goto	l219
  5986  04F6  2D44               	opt asmopt_pop
  5987                           	
  5988                           l2611:	
  5989  04F7                     ; Switch size 1, requested type "space"
  5990                           ; Number of cases is 25, Range of values is 0 to 24
  5991                           ; switch strategies available:
  5992                           ; Name         Instructions Cycles
  5993                           ; simple_byte           76    39 (average)
  5994                           ; direct_byte           83     8 (fixed)
  5995                           ; jumptable            260     6 (fixed)
  5996                           ;	Chosen strategy is simple_byte
  5997                           
  5998                           	movf 0+(??_digitalWrite+0)+0,w
  5999  04F7  0871               	opt asmopt_push
  6000                           	opt asmopt_off
  6001                           	xorlw	0^0	; case 0
  6002  04F8  3A00               	skipnz
  6003  04F9  1903               	goto	l2041
  6004  04FA  2C24               	xorlw	1^0	; case 1
  6005  04FB  3A01               	skipnz
  6006  04FC  1903               	goto	l2043
  6007  04FD  2C2C               	xorlw	2^1	; case 2
  6008  04FE  3A03               	skipnz
  6009  04FF  1903               	goto	l2045
  6010  0500  2C34               	xorlw	3^2	; case 3
  6011  0501  3A01               	skipnz
  6012  0502  1903               	goto	l2047
  6013  0503  2C3C               	xorlw	4^3	; case 4
  6014  0504  3A07               	skipnz
  6015  0505  1903               	goto	l2049
  6016  0506  2C44               	xorlw	5^4	; case 5
  6017  0507  3A01               	skipnz
  6018  0508  1903               	goto	l2051
  6019  0509  2C4C               	xorlw	6^5	; case 6
  6020  050A  3A03               	skipnz
  6021  050B  1903               	goto	l2055
  6022  050C  2C55               	xorlw	7^6	; case 7
  6023  050D  3A01               	skipnz
  6024  050E  1903               	goto	l2059
  6025  050F  2C5E               	xorlw	8^7	; case 8
  6026  0510  3A0F               	skipnz
  6027  0511  1903               	goto	l2061
  6028  0512  2C66               	xorlw	9^8	; case 9
  6029  0513  3A01               	skipnz
  6030  0514  1903               	goto	l2063
  6031  0515  2C6E               	xorlw	10^9	; case 10
  6032  0516  3A03               	skipnz
  6033  0517  1903               	goto	l2065
  6034  0518  2C76               	xorlw	11^10	; case 11
  6035  0519  3A01               	skipnz
  6036  051A  1903               	goto	l2067
  6037  051B  2C7E               	xorlw	12^11	; case 12
  6038  051C  3A07               	skipnz
  6039  051D  1903               	goto	l2069
  6040  051E  2C86               	xorlw	13^12	; case 13
  6041  051F  3A01               	skipnz
  6042  0520  1903               	goto	l2071
  6043  0521  2C8E               	xorlw	14^13	; case 14
  6044  0522  3A03               	skipnz
  6045  0523  1903               	goto	l2073
  6046  0524  2C96               	xorlw	15^14	; case 15
  6047  0525  3A01               	skipnz
  6048  0526  1903               	goto	l2075
  6049  0527  2C9E               	xorlw	16^15	; case 16
  6050  0528  3A1F               	skipnz
  6051  0529  1903               	goto	l2077
  6052  052A  2CA6               	xorlw	17^16	; case 17
  6053  052B  3A01               	skipnz
  6054  052C  1903               	goto	l2079
  6055  052D  2CAE               	xorlw	18^17	; case 18
  6056  052E  3A03               	skipnz
  6057  052F  1903               	goto	l2081
  6058  0530  2CB6               	xorlw	19^18	; case 19
  6059  0531  3A01               	skipnz
  6060  0532  1903               	goto	l2083
  6061  0533  2CBE               	xorlw	20^19	; case 20
  6062  0534  3A07               	skipnz
  6063  0535  1903               	goto	l2085
  6064  0536  2CC6               	xorlw	21^20	; case 21
  6065  0537  3A01               	skipnz
  6066  0538  1903               	goto	l2087
  6067  0539  2CCE               	xorlw	22^21	; case 22
  6068  053A  3A03               	skipnz
  6069  053B  1903               	goto	l2089
  6070  053C  2CD6               	xorlw	23^22	; case 23
  6071  053D  3A01               	skipnz
  6072  053E  1903               	goto	l2091
  6073  053F  2CDE               	xorlw	24^23	; case 24
  6074  0540  3A0F               	skipnz
  6075  0541  1903               	goto	l2093
  6076  0542  2CE6               	goto	l219
  6077  0543  2D44               	opt asmopt_pop
  6078                           
  6079                           	
  6080                           l194:	
  6081  0544                     	line	256
  6082                           	
  6083                           l219:	
  6084  0544                     	return
  6085  0544  0008               	opt stack 0
  6086                           GLOBAL	__end_of_digitalWrite
  6087                           	__end_of_digitalWrite:
  6088  0545                     	signat	_digitalWrite,8313
  6089                           	global	_EventCounter
  6090                           
  6091 ;; *************** function _EventCounter *****************
  6092 ;; Defined at:
  6093 ;;		line 21 in file "PIDController.c"
  6094 ;; Parameters:    Size  Location     Type
  6095 ;;		None
  6096 ;; Auto vars:     Size  Location     Type
  6097 ;;		None
  6098 ;; Return value:  Size  Location     Type
  6099 ;;                  2    0[COMMON] unsigned int 
  6100 ;; Registers used:
  6101 ;;		wreg, status,2, status,0
  6102 ;; Tracked objects:
  6103 ;;		On entry : 0/0
  6104 ;;		On exit  : 0/0
  6105 ;;		Unchanged: 0/0
  6106 ;; Data sizes:     COMMON   BANK0   BANK1   BANK3   BANK2
  6107 ;;      Params:         2       0       0       0       0
  6108 ;;      Locals:         0       0       0       0       0
  6109 ;;      Temps:          0       0       0       0       0
  6110 ;;      Totals:         2       0       0       0       0
  6111 ;;Total ram usage:        2 bytes
  6112 ;; Hardware stack levels used:    1
  6113 ;; This function calls:
  6114 ;;		Nothing
  6115 ;; This function is called by:
  6116 ;;		_loop
  6117 ;; This function uses a non-reentrant model
  6118 ;;
  6119                           psect	text17,local,class=CODE,delta=2,merge=1,group=0
  6120                           	file	"PIDController.c"
  6121                           	line	21
  6122                           global __ptext17
  6123                           __ptext17:	;psect for function _EventCounter
  6124  0E0A                     psect	text17
  6125                           	file	"PIDController.c"
  6126                           	line	21
  6127                           	global	__size_of_EventCounter
  6128                           	__size_of_EventCounter	equ	__end_of_EventCounter-_EventCounter
  6129  0018                     	
  6130                           _EventCounter:	
  6131  0E0A                     ;incstack = 0
  6132                           	opt	stack 6
  6133                           ; Regs used in _EventCounter: [wreg+status,2+status,0]
  6134                           	line	23
  6135                           	
  6136                           l2389:	
  6137  0E0A                     ;PIDController.c: 23:     while(!TMR0IF);
  6138                           	goto	l383
  6139  0E0A  2E0B               	
  6140                           l384:	
  6141  0E0B                     	
  6142                           l383:	
  6143  0E0B                     	btfss	(90/8),(90)&7	;volatile
  6144  0E0B  1D0B               	goto	u901
  6145  0E0C  2E0E               	goto	u900
  6146  0E0D  2E0F               u901:
  6147  0E0E                     	goto	l383
  6148  0E0E  2E0B               u900:
  6149  0E0F                     	
  6150                           l385:	
  6151  0E0F                     	line	24
  6152                           ;PIDController.c: 24:     TMR0IF = 0;
  6153                           	bcf	(90/8),(90)&7	;volatile
  6154  0E0F  110B               	line	25
  6155                           	
  6156                           l2391:	
  6157  0E10                     ;PIDController.c: 25:     TMR0 = 0xFF - PID.SampleT;
  6158                           	bcf	status, 5	;RP0=0, select bank0
  6159  0E10  1283               	bcf	status, 6	;RP1=0, select bank0
  6160  0E11  1303               	decf	0+(_PID)+0Ch,w
  6161  0E12  032C               	xorlw	0ffh
  6162  0E13  3AFF               	addlw	0FFh
  6163  0E14  3EFF               	movwf	(1)	;volatile
  6164  0E15  0081               	line	26
  6165                           	
  6166                           l2393:	
  6167  0E16                     ;PIDController.c: 26:     PID.TotalEvents++;
  6168                           	movlw	01h
  6169  0E16  3001               	addwf	0+(_PID)+0Dh,f
  6170  0E17  07AD               	skipnc
  6171  0E18  1803               	incf	1+(_PID)+0Dh,f
  6172  0E19  0AAE               	movlw	0
  6173  0E1A  3000               	addwf	1+(_PID)+0Dh,f
  6174  0E1B  07AE               	line	27
  6175                           	
  6176                           l2395:	
  6177  0E1C                     ;PIDController.c: 27:     return PID.TotalEvents;
  6178                           	movf	1+(_PID)+0Dh,w
  6179  0E1C  082E               	movwf	(?_EventCounter+1)
  6180  0E1D  00F1               	movf	0+(_PID)+0Dh,w
  6181  0E1E  082D               	movwf	(?_EventCounter)
  6182  0E1F  00F0               	goto	l386
  6183  0E20  2E21               	
  6184                           l2397:	
  6185  0E21                     	line	28
  6186                           	
  6187                           l386:	
  6188  0E21                     	return
  6189  0E21  0008               	opt stack 0
  6190                           GLOBAL	__end_of_EventCounter
  6191                           	__end_of_EventCounter:
  6192  0E22                     	signat	_EventCounter,90
  6193                           	global	_Initialization
  6194                           
  6195 ;; *************** function _Initialization *****************
  6196 ;; Defined at:
  6197 ;;		line 14 in file "Hormiga877.c"
  6198 ;; Parameters:    Size  Location     Type
  6199 ;;		None
  6200 ;; Auto vars:     Size  Location     Type
  6201 ;;		None
  6202 ;; Return value:  Size  Location     Type
  6203 ;;                  1    wreg      void 
  6204 ;; Registers used:
  6205 ;;		wreg, status,2, status,0, pclath, cstack
  6206 ;; Tracked objects:
  6207 ;;		On entry : 0/0
  6208 ;;		On exit  : 0/0
  6209 ;;		Unchanged: 0/0
  6210 ;; Data sizes:     COMMON   BANK0   BANK1   BANK3   BANK2
  6211 ;;      Params:         0       0       0       0       0
  6212 ;;      Locals:         0       0       0       0       0
  6213 ;;      Temps:          0       0       0       0       0
  6214 ;;      Totals:         0       0       0       0       0
  6215 ;;Total ram usage:        0 bytes
  6216 ;; Hardware stack levels used:    1
  6217 ;; Hardware stack levels required when called:    1
  6218 ;; This function calls:
  6219 ;;		_PWMConfiguration
  6220 ;; This function is called by:
  6221 ;;		_main
  6222 ;; This function uses a non-reentrant model
  6223 ;;
  6224                           psect	text18,local,class=CODE,delta=2,merge=1,group=0
  6225                           	file	"Hormiga877.c"
  6226                           	line	14
  6227                           global __ptext18
  6228                           __ptext18:	;psect for function _Initialization
  6229  0E22                     psect	text18
  6230                           	file	"Hormiga877.c"
  6231                           	line	14
  6232                           	global	__size_of_Initialization
  6233                           	__size_of_Initialization	equ	__end_of_Initialization-_Initialization
  6234  002C                     	
  6235                           _Initialization:	
  6236  0E22                     ;incstack = 0
  6237                           	opt	stack 6
  6238                           ; Regs used in _Initialization: [wreg+status,2+status,0+pclath+cstack]
  6239                           	line	17
  6240                           	
  6241                           l1535:	
  6242  0E22                     ;Hormiga877.c: 17:     ADCON0 = 0x81;
  6243                           	movlw	low(081h)
  6244  0E22  3081               	bcf	status, 5	;RP0=0, select bank0
  6245  0E23  1283               	bcf	status, 6	;RP1=0, select bank0
  6246  0E24  1303               	movwf	(31)	;volatile
  6247  0E25  009F               	line	18
  6248                           ;Hormiga877.c: 18:     ADCON1 = 0xC2;
  6249                           	movlw	low(0C2h)
  6250  0E26  30C2               	bsf	status, 5	;RP0=1, select bank1
  6251  0E27  1683               	bcf	status, 6	;RP1=0, select bank1
  6252  0E28  1303               	movwf	(159)^080h	;volatile
  6253  0E29  009F               	line	20
  6254                           # 20 "Hormiga877.c"
  6255                           CLRF PORTA ;# 
  6256  0E2A  0185               	line	21
  6257                           # 21 "Hormiga877.c"
  6258                           MOVLW 0x3F ;# 
  6259  0E2B  303F               	line	22
  6260                           # 22 "Hormiga877.c"
  6261                           MOVWF TRISA ;# 
  6262  0E2C  0085               psect	text18
  6263                           	line	23
  6264                           	
  6265                           l1537:	
  6266  0E2D                     ;Hormiga877.c: 23:     PORTB = 0x00;
  6267                           	bcf	status, 5	;RP0=0, select bank0
  6268  0E2D  1283               	bcf	status, 6	;RP1=0, select bank0
  6269  0E2E  1303               	clrf	(6)	;volatile
  6270  0E2F  0186               	line	24
  6271                           	
  6272                           l1539:	
  6273  0E30                     ;Hormiga877.c: 24:     TRISB &= 0x00;
  6274                           	bsf	status, 5	;RP0=1, select bank1
  6275  0E30  1683               	bcf	status, 6	;RP1=0, select bank1
  6276  0E31  1303               	clrf	(134)^080h	;volatile
  6277  0E32  0186               	line	25
  6278                           	
  6279                           l1541:	
  6280  0E33                     ;Hormiga877.c: 25:     PORTB = 0x00;
  6281                           	bcf	status, 5	;RP0=0, select bank0
  6282  0E33  1283               	bcf	status, 6	;RP1=0, select bank0
  6283  0E34  1303               	clrf	(6)	;volatile
  6284  0E35  0186               	line	27
  6285                           	
  6286                           l1543:	
  6287  0E36                     ;Hormiga877.c: 27:     PORTC = 0x00;
  6288                           	clrf	(7)	;volatile
  6289  0E36  0187               	line	28
  6290                           	
  6291                           l1545:	
  6292  0E37                     ;Hormiga877.c: 28:     TRISC = 0x00;
  6293                           	bsf	status, 5	;RP0=1, select bank1
  6294  0E37  1683               	bcf	status, 6	;RP1=0, select bank1
  6295  0E38  1303               	clrf	(135)^080h	;volatile
  6296  0E39  0187               	line	29
  6297                           	
  6298                           l1547:	
  6299  0E3A                     ;Hormiga877.c: 29:     PORTC = 0x00;
  6300                           	bcf	status, 5	;RP0=0, select bank0
  6301  0E3A  1283               	bcf	status, 6	;RP1=0, select bank0
  6302  0E3B  1303               	clrf	(7)	;volatile
  6303  0E3C  0187               	line	34
  6304                           	
  6305                           l1549:	
  6306  0E3D                     ;Hormiga877.c: 34:     PWMConfiguration();
  6307                           	fcall	_PWMConfiguration
  6308  0E3D  120A  158A  25C3  120A  158A  	line	36
  6309                           # 36 "Hormiga877.c"
  6310                           CLRF PORTD ;# 
  6311  0E42  0188               	line	37
  6312                           # 37 "Hormiga877.c"
  6313                           MOVLW 0x00 ;# 
  6314  0E43  3000               	line	38
  6315                           # 38 "Hormiga877.c"
  6316                           MOVF TRISD ;# 
  6317  0E44  0888               	line	39
  6318                           # 39 "Hormiga877.c"
  6319                           CLRF PORTD ;# 
  6320  0E45  0188               psect	text18
  6321                           	line	40
  6322                           	
  6323                           l1551:	
  6324  0E46                     ;Hormiga877.c: 40:     PORTE = 0x00;
  6325                           	bcf	status, 5	;RP0=0, select bank0
  6326  0E46  1283               	bcf	status, 6	;RP1=0, select bank0
  6327  0E47  1303               	clrf	(9)	;volatile
  6328  0E48  0189               	line	41
  6329                           	
  6330                           l1553:	
  6331  0E49                     ;Hormiga877.c: 41:     TRISE = 0x07;
  6332                           	movlw	low(07h)
  6333  0E49  3007               	bsf	status, 5	;RP0=1, select bank1
  6334  0E4A  1683               	bcf	status, 6	;RP1=0, select bank1
  6335  0E4B  1303               	movwf	(137)^080h	;volatile
  6336  0E4C  0089               	line	42
  6337                           	
  6338                           l153:	
  6339  0E4D                     	return
  6340  0E4D  0008               	opt stack 0
  6341                           GLOBAL	__end_of_Initialization
  6342                           	__end_of_Initialization:
  6343  0E4E                     	signat	_Initialization,89
  6344                           	global	_PWMConfiguration
  6345                           
  6346 ;; *************** function _PWMConfiguration *****************
  6347 ;; Defined at:
  6348 ;;		line 44 in file "Hormiga877.c"
  6349 ;; Parameters:    Size  Location     Type
  6350 ;;		None
  6351 ;; Auto vars:     Size  Location     Type
  6352 ;;		None
  6353 ;; Return value:  Size  Location     Type
  6354 ;;                  1    wreg      void 
  6355 ;; Registers used:
  6356 ;;		wreg, status,2
  6357 ;; Tracked objects:
  6358 ;;		On entry : 0/0
  6359 ;;		On exit  : 0/0
  6360 ;;		Unchanged: 0/0
  6361 ;; Data sizes:     COMMON   BANK0   BANK1   BANK3   BANK2
  6362 ;;      Params:         0       0       0       0       0
  6363 ;;      Locals:         0       0       0       0       0
  6364 ;;      Temps:          0       0       0       0       0
  6365 ;;      Totals:         0       0       0       0       0
  6366 ;;Total ram usage:        0 bytes
  6367 ;; Hardware stack levels used:    1
  6368 ;; This function calls:
  6369 ;;		Nothing
  6370 ;; This function is called by:
  6371 ;;		_Initialization
  6372 ;; This function uses a non-reentrant model
  6373 ;;
  6374                           psect	text19,local,class=CODE,delta=2,merge=1,group=0
  6375                           	line	44
  6376                           global __ptext19
  6377                           __ptext19:	;psect for function _PWMConfiguration
  6378  0DC3                     psect	text19
  6379                           	file	"Hormiga877.c"
  6380                           	line	44
  6381                           	global	__size_of_PWMConfiguration
  6382                           	__size_of_PWMConfiguration	equ	__end_of_PWMConfiguration-_PWMConfiguration
  6383  000F                     	
  6384                           _PWMConfiguration:	
  6385  0DC3                     ;incstack = 0
  6386                           	opt	stack 6
  6387                           ; Regs used in _PWMConfiguration: [wreg+status,2]
  6388                           	line	46
  6389                           	
  6390                           l1497:	
  6391  0DC3                     ;Hormiga877.c: 46:     PR2 = 0xFF;
  6392                           	movlw	low(0FFh)
  6393  0DC3  30FF               	bsf	status, 5	;RP0=1, select bank1
  6394  0DC4  1683               	bcf	status, 6	;RP1=0, select bank1
  6395  0DC5  1303               	movwf	(146)^080h	;volatile
  6396  0DC6  0092               	line	47
  6397                           ;Hormiga877.c: 47:     T2CON = 0x05;
  6398                           	movlw	low(05h)
  6399  0DC7  3005               	bcf	status, 5	;RP0=0, select bank0
  6400  0DC8  1283               	bcf	status, 6	;RP1=0, select bank0
  6401  0DC9  1303               	movwf	(18)	;volatile
  6402  0DCA  0092               	line	48
  6403                           	
  6404                           l1499:	
  6405  0DCB                     ;Hormiga877.c: 48:     CCPR2L = 0x00;
  6406                           	clrf	(27)	;volatile
  6407  0DCB  019B               	line	49
  6408                           	
  6409                           l1501:	
  6410  0DCC                     ;Hormiga877.c: 49:     CCPR1L = 0x00;
  6411                           	clrf	(21)	;volatile
  6412  0DCC  0195               	line	50
  6413                           ;Hormiga877.c: 50:     CCP1CON = 0x0C;
  6414                           	movlw	low(0Ch)
  6415  0DCD  300C               	movwf	(23)	;volatile
  6416  0DCE  0097               	line	51
  6417                           ;Hormiga877.c: 51:     CCP2CON = 0x0C;
  6418                           	movlw	low(0Ch)
  6419  0DCF  300C               	movwf	(29)	;volatile
  6420  0DD0  009D               	line	52
  6421                           	
  6422                           l156:	
  6423  0DD1                     	return
  6424  0DD1  0008               	opt stack 0
  6425                           GLOBAL	__end_of_PWMConfiguration
  6426                           	__end_of_PWMConfiguration:
  6427  0DD2                     	signat	_PWMConfiguration,89
  6428                           global	___latbits
  6429                           ___latbits	equ	2
  6430  0002                     	global	btemp
  6431                           	btemp set 07Eh
  6432  007E                     
  6433                           	DABS	1,126,2	;btemp
  6434                           	global	wtemp0
  6435                           	wtemp0 set btemp+0
  6436  007E                     	end


Data Sizes:
    Strings     50
    Constant    17
    Data        0
    BSS         39
    Persistent  7
    Stack       0

Auto Spaces:
    Space          Size  Autos    Used
    COMMON           14     14      14
    BANK0            80     15      61
    BANK1            80      0       0
    BANK3            96      0       0
    BANK2            96      0       0

Pointer List with Targets:

    sprintf@f	PTR const unsigned char  size(1) Largest target is 9
		 -> STR_4(CODE[9]), STR_2(CODE[7]), 

    sprintf@sp	PTR unsigned char  size(1) Largest target is 16
		 -> ScreenROW(BANK0[16]), 

    sprintf@ap	PTR void [1] size(1) Largest target is 2
		 -> ?_sprintf(BANK0[2]), 

    lcdPrint@string	PTR unsigned char  size(2) Largest target is 17
		 -> STR_3(CODE[17]), ScreenROW(BANK0[16]), STR_1(CODE[17]), 


Critical Paths under _main in COMMON

    _setup->_lcdBegin
    _setup->_lcdSetCursor
    _lcdBegin->_WriteInstruction
    _loop->_lcdSetCursor
    _sprintf->___lwmod
    ___lwmod->___lwdiv
    _lcdSetCursor->_WriteInstruction
    _WriteInstruction->_ByteByNibble
    _WriteInstruction->_delay
    _lcdPrint->_lcdWrite
    _lcdWrite->_WriteData
    _WriteData->_ByteByNibble
    _WriteData->_delay
    _ByteByNibble->_digitalWrite

Critical Paths under _main in BANK0

    _main->_loop
    _setup->_lcdPrint
    _loop->_sprintf

Critical Paths under _main in BANK1

    None.

Critical Paths under _main in BANK3

    None.

Critical Paths under _main in BANK2

    None.

Call Graph Tables:

 ---------------------------------------------------------------------------------
 (Depth) Function   	        Calls       Base Space   Used Autos Params    Refs
 ---------------------------------------------------------------------------------
 (0) _main                                                 0     0      0   77995
                     _Initialization
                               _loop
                              _setup
 ---------------------------------------------------------------------------------
 (1) _setup                                                6     6      0   46872
                                              7 BANK0      6     6      0
                   _PIDSetSampleTime
                           _lcdBegin
                           _lcdPrint
                       _lcdSetCursor
 ---------------------------------------------------------------------------------
 (2) _lcdBegin                                             8     2      6   16949
                                             12 COMMON     2     2      0
                                              0 BANK0      6     0      6
                   _WriteInstruction
                              _delay
                            _pinMode
 ---------------------------------------------------------------------------------
 (3) _pinMode                                              4     3      1    1104
                                              0 COMMON     4     3      1
 ---------------------------------------------------------------------------------
 (2) _PIDSetSampleTime                                     2     2      0      30
                                              0 COMMON     2     2      0
 ---------------------------------------------------------------------------------
 (1) _loop                                                 2     2      0   31123
                                             13 BANK0      2     2      0
                       _EventCounter
                           _lcdPrint
                       _lcdSetCursor
                            _sprintf
 ---------------------------------------------------------------------------------
 (2) _sprintf                                             21    18      3    1230
                                              0 BANK0     13    10      3
                            ___lwdiv
                            ___lwmod
 ---------------------------------------------------------------------------------
 (3) ___lwmod                                              6     2      4     311
                                              8 COMMON     6     2      4
                            ___lwdiv (ARG)
 ---------------------------------------------------------------------------------
 (3) ___lwdiv                                              8     4      4     314
                                              0 COMMON     8     4      4
 ---------------------------------------------------------------------------------
 (2) _lcdSetCursor                                         4     3      1   14396
                                             12 COMMON     2     1      1
                                              0 BANK0      2     2      0
                   _WriteInstruction
 ---------------------------------------------------------------------------------
 (3) _WriteInstruction                                     5     5      0   13957
                                              7 COMMON     5     5      0
                       _ByteByNibble
                              _delay
                       _digitalWrite
 ---------------------------------------------------------------------------------
 (2) _lcdPrint                                             7     5      2   15497
                                              0 BANK0      7     5      2
                           _lcdWrite
 ---------------------------------------------------------------------------------
 (3) _lcdWrite                                             1     1      0   15103
                                             12 COMMON     1     1      0
                          _WriteData
                              _delay
 ---------------------------------------------------------------------------------
 (4) _WriteData                                            5     5      0   13957
                                              7 COMMON     5     5      0
                       _ByteByNibble
                              _delay
                       _digitalWrite
 ---------------------------------------------------------------------------------
 (4) _delay                                                7     5      2    1124
                                              0 COMMON     7     5      2
 ---------------------------------------------------------------------------------
 (4) _ByteByNibble                                         3     3      0    6370
                                              4 COMMON     3     3      0
                       _digitalWrite
 ---------------------------------------------------------------------------------
 (4) _digitalWrite                                         4     3      1    6348
                                              0 COMMON     4     3      1
 ---------------------------------------------------------------------------------
 (2) _EventCounter                                         2     0      2       0
                                              0 COMMON     2     0      2
 ---------------------------------------------------------------------------------
 (1) _Initialization                                       0     0      0       0
                   _PWMConfiguration
 ---------------------------------------------------------------------------------
 (2) _PWMConfiguration                                     0     0      0       0
 ---------------------------------------------------------------------------------
 Estimated maximum stack depth 4
 ---------------------------------------------------------------------------------

 Call Graph Graphs:

 _main (ROOT)
   _Initialization
     _PWMConfiguration
   _loop
     _EventCounter
     _lcdPrint
       _lcdWrite
         _WriteData
           _ByteByNibble
             _digitalWrite
           _delay
           _digitalWrite
         _delay
     _lcdSetCursor
       _WriteInstruction
         _ByteByNibble
           _digitalWrite
         _delay
         _digitalWrite
     _sprintf
       ___lwdiv
       ___lwmod
         ___lwdiv (ARG)
   _setup
     _PIDSetSampleTime
     _lcdBegin
       _WriteInstruction
         _ByteByNibble
           _digitalWrite
         _delay
         _digitalWrite
       _delay
       _pinMode
     _lcdPrint
       _lcdWrite
         _WriteData
           _ByteByNibble
             _digitalWrite
           _delay
           _digitalWrite
         _delay
     _lcdSetCursor
       _WriteInstruction
         _ByteByNibble
           _digitalWrite
         _delay
         _digitalWrite

 Address spaces:
Name               Size   Autos  Total    Cost      Usage
BITCOMMON            E      0       0       0        0.0%
EEDATA             100      0       0       0        0.0%
NULL                 0      0       0       0        0.0%
CODE                 0      0       0       0        0.0%
COMMON               E      E       E       1      100.0%
BITSFR0              0      0       0       1        0.0%
SFR0                 0      0       0       1        0.0%
BITSFR1              0      0       0       2        0.0%
SFR1                 0      0       0       2        0.0%
STACK                0      0       0       2        0.0%
ABS                  0      0      4B       3        0.0%
BITBANK0            50      0       0       4        0.0%
BITSFR3              0      0       0       4        0.0%
SFR3                 0      0       0       4        0.0%
BANK0               50      F      3D       5       76.3%
BITSFR2              0      0       0       5        0.0%
SFR2                 0      0       0       5        0.0%
BITBANK1            50      0       0       6        0.0%
BANK1               50      0       0       7        0.0%
BITBANK3            60      0       0       8        0.0%
BANK3               60      0       0       9        0.0%
BITBANK2            60      0       0      10        0.0%
BANK2               60      0       0      11        0.0%
DATA                 0      0      4B      12        0.0%


Microchip Technology PIC Macro Assembler V2.00 build -1524193055 
Symbol Table                                                                                   Fri Feb 03 14:48:04 2023

                          pc 0002                  __CFG_CP$OFF 0000                           _D4 081D  
                         _D5 081C                           _D6 081B                           _D7 081A  
                         l42 0220                           l43 0220                           l39 0FFF  
                         _EN 081F                           _RS 0820                           _dt 002F  
                         fsr 0004                 lcdWrite@data 007C                ?_ByteByNibble 0070  
                __CFG_LVP$ON 0000                          l200 0455                          l201 045E  
                        l210 04A6                          l202 0466                          l211 04AE  
                        l203 046E                          l212 04B6                          l204 0476  
                        l213 04BE                          l205 047E                          l214 04C6  
                        l206 0486                          l150 0E07                          l215 04CE  
                        l207 048E                          l216 04D6                          l208 0496  
                        l153 0E4D                          l217 04DE                          l209 049E  
                        l218 04E6                          l162 03CC                          l170 0333  
                        l219 0544                          l171 033B                          l163 0303  
                        l156 0DD1                          l164 0421                          l180 0383  
                        l172 0343                          l148 0E01                          l421 0E63  
                        l181 038B                          l173 034B                          l165 030B  
                        l149 0E07                          l422 0E79                          l182 0393  
                        l174 0353                          l166 0313                          l431 0EE5  
                        l423 0E77                          l183 039B                          l175 035B  
                        l167 031B                          l415 0190                          l192 04EF  
                        l360 0F60                          l440 010C                          l432 0EC0  
                        l424 0E78                          l184 03A3                          l176 0363  
                        l168 0323                          l193 0424                          l361 0F9B  
                        l433 0F02                          l425 0E79                          l185 03AB  
                        l177 036B                          l169 032B                          l194 0544  
                        l450 0605                          l362 0F71                          l434 0F02  
                        l186 03B3                          l178 0373                          l195 042C  
                        l443 07B8                          l451 062C                          l363 0F86  
                        l187 03BB                          l179 037B                          l196 0434  
                        l460 078E                          l452 0653                          l444 0547  
                        l364 0F9B                          l428 0DE2                          l380 0DF5  
                        l188 03C3                          l197 043C                          l445 07F2  
                        l453 067B                          l461 07F2                          l437 0089  
                        l189 0421                          l198 0444                          l454 06A1  
                        l446 056C                          l383 0E0B                          l199 044C  
                        l455 06C8                          l447 0592                          l384 0E0B  
                        l456 06EF                          l448 05B8                          l552 02E7  
                        l560 025F                          l385 0E0F                          l457 0717  
                        l449 05DF                          l561 0275                          l553 0229  
                        l386 0E21                          l458 073E                          l562 029D  
                        l554 023B                          l459 0766                          l563 0292  
                        l555 0245                          l564 02DC                          l556 023D  
                        l557 02FB                          l565 02A2                          l566 02E6  
                        l558 023E                          l567 02FA                          l559 023F  
                        l840 0F1F                          l568 0300                          l841 0F20  
                        l842 0F39                          l850 0E94                          l843 0F47  
                        l851 0E95                          l844 0F4D                          l852 0EA6  
                        l837 0F48                          l853 0EB4                          l838 0F1A  
                        l854 0EBA                          l839 0F0E                          l847 0EB5  
                        l848 0E8F                          l849 0E83                          _PR2 0092  
                        _PID 0020                 __CFG_CPD$OFF 0000                          u720 0F0B  
                        u705 0095                          u721 0F0A                          u810 0E93  
                        u715 0013                          u811 0E92                          u900 0E0F  
                        u660 0F5E                          u740 0F1E                          u820 0E9F  
                        u901 0E0E                          u661 0F5D                          u741 0F1D  
                        u821 0E9E                          u805 0E84                          u670 0F6F  
                        u910 022F                          u671 0F6E                          u735 0F0F  
                        u911 022E                          u680 0F85                          u760 0F31  
                        u840 0EB3                          u920 0273                          u681 0F84  
                        u665 0F5A                          u761 0F30                          u841 0EB2  
                        u825 0E9B                          u921 0272                          u690 0F9A  
                        u850 0E57                          u930 0290                          u691 0F99  
                        u675 0F6B                          u851 0E56                          u755 0F21  
                        u835 0EA7                          u931 028F                          u860 0E6B  
                        u780 0F46                          u940 029C                          u685 0F81  
                        u861 0E6A                          u781 0F45                          u765 0F2D  
                        u941 029B                          u870 0ECA                          u790 0E80  
                        u950 02E5                          u695 0F96                          u775 0F3A  
                        u791 0E7F                          u951 02E4                          u935 028C  
                        u880 0EEF                          u960 02F9                          u961 02F8  
                        u890 0F01                          u970 01DB                          u891 0F00  
                        u971 01DA                          _RnW 081E                          _Now 0033  
                        fsr0 0004                          indf 0000                 __CFG_FOSC$HS 0000  
   __end_of_PIDSetSampleTime 0DF6                         l2111 0F62                         l2103 0F4E  
                       l2041 0424                         l2121 0546                         l2113 0F70  
                       l2105 0F50                         l2201 0313                         PORTA 0005  
                       l2051 044C                         l2043 042C                         l2131 05DF  
                       l2123 0547                         l2115 0F72                         l2107 0F5F  
                       l2211 033B                         l2203 031B                         PORTD 0008  
                       l1501 0DCC                         l2061 0466                         l2053 044F  
                       l2045 0434                         l2141 06A1                         l2133 0605  
                       l2125 056C                         l2117 0F78                         l2109 0F60  
                       l2301 0F1A                         l2221 0363                         l2213 0343  
                       l2205 0323                         l2071 048E                         l2063 046E  
                       l2055 0455                         l2047 043C                         l2039 0423  
                       l2151 0766                         l2143 06C8                         l2135 062C  
                       l2127 0592                         l2119 0F86                         l2311 0F40  
                       l2303 0F20                         l1431 0DEA                         l2231 038B  
                       l2223 036B                         l2215 034B                         l2207 032B  
                       l2081 04B6                         l2073 0496                         l2065 0476  
                       l2057 0458                         l2049 0444                         l2153 078E  
                       l2145 06EF                         l2137 0653                         l2129 05B8  
                       l2305 0F31                         l2313 0F48                         l2321 0E83  
                       l2401 0229                         l1433 0DF1                         l2241 03B3  
                       l2233 0393                         l2225 0373                         l2217 0353  
                       l2209 0333                         l2091 04DE                         l2083 04BE  
                       l2075 049E                         l2067 047E                         l2059 045E  
                       l2155 07B7                         l2147 0717                         l2139 067B  
                       l2171 00A3                         l2163 008B                         l2315 0F4D  
                       l2307 0F37                         l2331 0EA6                         l2323 0E8A  
                       l2411 0244                         l2403 022F                         l2243 03BB  
                       l2235 039B                         l2227 037B                         l2219 035B  
                       l1541 0E33                         l2093 04E6                         l2085 04C6  
                       l2077 04A6                         l2069 0486                         l2149 073E  
                       l2157 07B8                         l2181 00CF                         l2173 00A9  
                       l2165 008D                         l2261 001C                         l2309 0F39  
                       l2333 0EAD                         l2325 0E8F                         l2317 0E7A  
                       l2421 026D                         l2413 0245                         l2405 0236  
                       l1429 0DE4                         l2245 03C3                         l2237 03A3  
                       l2229 0383                         l2341 012C                         l1551 0E46  
                       l1543 0E36                         l1535 0E22                         l2095 04EE  
                       l2087 04CE                         l2079 04AE                         l2191 00FA  
                       l2183 00D8                         l2175 00B3                         l2167 0092  
                       l2271 0043                         l2263 0021                         l2255 0009  
                       l2327 0E95                         l2319 0E80                         l2335 0EB5  
                       l2423 0274                         l2431 029D                         l2415 025F  
                       l2407 023B                         l2247 03CB                         l2239 03AB  
                       l2351 0157                         l2343 0133                         l1553 0E49  
                       l1545 0E37                         l1537 0E2D                         l2089 04D6  
                       l2097 04EF                         l2193 0103                         l2185 00E1  
                       l2177 00BC                         l2169 009E                         l2281 006E  
                       l2273 004C                         l2265 0027                         l2257 000B  
                       l2337 0EBA                         l2329 0E9F                         l2433 02A2  
                       l2425 0275                         l2417 0267                         l2409 023F  
                       l2441 02E7                         l2249 03CC                         l2361 017E  
                       l2353 0160                         l2345 013C                         l1547 0E3A  
                       l1539 0E30                         l2611 04F7                         l2187 00E7  
                       l2179 00C6                         l2283 0077                         l2275 0055  
                       l2267 0030                         l2259 0010                         l2371 0E57  
                       l2291 0F03                         l2435 02D0                         l2427 0291  
                       l2419 026B                         l2443 02FB                         l2195 0302  
                       l2363 0184                         l2355 0169                         l2347 0145  
                       l2339 010E                         l2451 0F9C                         l1549 0E3D  
                       l2189 00F1                         l2381 0EBB                         l2285 0080  
                       l2277 005E                         l2269 0039                         l2373 0E5C  
                       l2293 0F05                         l2445 0300                         l2437 02D7  
                       l2429 0292                         l2461 01B5                         l2605 03D4  
                       l2197 0303                         l2365 018A                         l2357 0172  
                       l2349 014E                         l2453 0FF9                         l2391 0E10  
                       l2287 0DD3                         l2383 0EC0                         l2279 0064  
                       l2375 0E63                         l2367 0E51                         l2295 0F0B  
                       l2439 02DC                         l2607 0257                         l2471 01E9  
                       l2463 01C1                         l2455 0191                         l2199 030B  
                       l2359 0178                         l1497 0DC3                         l2393 0E16  
                       l2609 07C0                         l2289 0DDC                         l2385 0EDC  
                       l2377 0E6B                         l2369 0E52                         l2297 0F0E  
                       l2481 021B                         l2473 01F4                         l2465 01D2  
                       l2457 019C                         l1499 0DCB                         l2395 0E1C  
                       l2387 0EE5                         l2379 0E70                         l2299 0F15  
                       l2475 01FC                         l2467 01DB                         l2459 01AA  
                       l2483 0DF6                         l2397 0E21                         l2389 0E0A  
                       l2477 020C                         l2469 01E1                         l2485 0DFB  
                       l2399 0224                         l2479 0217                         l2487 0E01  
                       TRISA 0085                         TRISD 0088                         STR_1 0832  
                       STR_2 084C                         STR_3 0821                         STR_4 0843  
                       _BRGH 04C2                         _CREN 00C4                         _FERR 00C2  
                       _RCIF 0065                         _OERR 00C1                         _TMR0 0001  
                       _SPEN 00C7                         _TRMT 04C1                         _TXEN 04C5  
                       _TXIF 0064                         _SYNC 04C4                         _Last 0031  
               __CFG_WRT$OFF 0000                ?_EventCounter 0070                         _main 0DF6  
                       _loop 0191                         btemp 007E            ?_WriteInstruction 0070  
                       start 0000           ??_WriteInstruction 0077               ??_ByteByNibble 0074  
                      ?_main 0070                        _CCP1X 00BD                        _CCP1Y 00BC  
                      _CCP2X 00ED                        _CCP2Y 00EC                        ?_loop 0070  
              __CFG_WDTE$OFF 0000                        _T2CON 0012              __end_of___lwdiv 0F4E  
            __end_of___lwmod 0EBB                        _ENPin 005B                        _RCREG 001A  
                      _SPBRG 0099                        _PORTB 0006                        _PORTC 0007  
                      _PORTE 0009                        _TRISB 0086                        _TRISC 0087  
                      _TRISE 0089                        _TXREG 0019                        _RSPin 005C  
                      _RWPin 005A                        _d4Pin 0059                        _d5Pin 0058  
                      _d6Pin 0057                        _d7Pin 0056                        _dTime 0035  
                      _delay 0F4E              __end_of_dpowers 081A           PIDSetSampleTime@dt 0071  
            __end_of_pinMode 0422                        _setup 0F9C               __CFG_BOREN$OFF 0000  
                      pclath 000A               ??_EventCounter 0072                        status 0003  
                      wtemp0 007E              __end_of_sprintf 0301         __end_of_digitalWrite 0545  
            __initialization 07F3                 __end_of_main 0E0A                 __end_of_loop 0221  
    __size_of_Initialization 002C                       ??_main 007E                       ??_loop 0054  
       __end_of_lcdSetCursor 0E7A             _PWMConfiguration 0DC3           lcdSetCursor@column 007C  
                     ?_delay 0070                       _ADCON0 001F                       _ADCON1 009F  
                     _ADRESH 001E                       _ADRESL 009E                       _CCPR1L 0015  
                     _CCPR2L 001B                       ?_setup 0070                       _TMR0IF 005A  
                     _TRISC6 043E                       _TRISC7 043F             __end_of_lcdBegin 0191  
             __CFG_PWRTE$OFF 0000             __end_of_lcdPrint 0F03             __end_of_lcdWrite 0DE3  
                  ??___lwdiv 0074                    ??___lwmod 007C                       delay@i 0075  
                     delay@j 0073                    ??_pinMode 0071                    ??_sprintf 004A  
    __end_of__initialization 07FC         __end_of_ByteByNibble 07F3           __size_of_WriteData 0083  
                pinMode@mode 0070            WriteData@LSNibble 0079               __pcstackCOMMON 0070  
          WriteData@MSNibble 007B                __end_of_delay 0F9C                __end_of_setup 1000  
                 __end_of_D4 081E                   __end_of_D5 081D                   __end_of_D6 081C  
                 __end_of_D7 081B                   __end_of_EN 0820                   __end_of_RS 0821  
       __end_of_EventCounter 0E22                      ??_delay 0072                      ??_setup 004E  
          ?_PIDSetSampleTime 0070                   __pbssBANK0 0020        __size_of_digitalWrite 0123  
         ??_PIDSetSampleTime 0070                   __pmaintext 0DF6               _Initialization 0E22  
                    _CCP1CON 0017                      _CCP2CON 001D        __size_of_lcdSetCursor 002C  
  __size_of_WriteInstruction 0082            __end_of_WriteData 010D                    ?_lcdBegin 0047  
               _digitalWrite 0422                    ?_lcdPrint 0047                    ?_lcdWrite 0070  
                 __stringtab 0800                 _lcdSetCursor 0E4E              lcdSetCursor@row 0047  
     __end_of_Initialization 0E4E     __end_of_PWMConfiguration 0DD2                      ___lwdiv 0F03  
                    ___lwmod 0E7A                      __ptext1 0F9C                      __ptext2 010D  
                    __ptext3 0301                      __ptext4 0DE3                      __ptext5 0191  
                    __ptext6 0221                      __ptext7 0E7A                      __ptext8 0F03  
                    __ptext9 0E4E                      _dpowers 0810                      _pinMode 0301  
                 delay@milis 0070                   ??_lcdBegin 007C        __size_of_ByteByNibble 02AE  
                 ??_lcdPrint 0049                   ??_lcdWrite 007C                      _sprintf 0221  
   WriteInstruction@LSNibble 0079                      clrloop0 0DBC                   lcdBegin@EN 0047  
                 lcdBegin@RS 007D                   lcdBegin@d4 0049                   lcdBegin@d5 004A  
                 lcdBegin@d6 004B                   lcdBegin@d7 004C     WriteInstruction@MSNibble 007B  
       end_of_initialization 07FC      ByteByNibble@NibbleValue 0076              ?_Initialization 0070  
      __size_of_EventCounter 0018                    _PORTAbits 0005                    _PORTBbits 0006  
                  _PORTCbits 0007                    _PORTDbits 0008                    _PORTEbits 0009  
               _ByteByNibble 0545                    _TRISAbits 0085                    _TRISBbits 0086  
                  _TRISCbits 0087                    _TRISDbits 0088                 _EventCounter 0E0A  
           _WriteInstruction 0008          start_initialization 07F3                  __end_of_RnW 081F  
              WriteData@data 007A                    _ScreenROW 0037    __size_of_PIDSetSampleTime 0013  
                  ___latbits 0002                __pcstackBANK0 0047                   pinMode@pin 0073  
                  _WriteData 008A            __size_of_lcdBegin 0084            __size_of_lcdPrint 0048  
          __size_of_lcdWrite 0011                  sprintf@flag 004D                  sprintf@prec 0051  
                  __pnvBANK0 0056             ___lwdiv@dividend 0072            ?_PWMConfiguration 0070  
                   ?___lwdiv 0070                     ?___lwmod 0078           ??_PWMConfiguration 0070  
                  __pstrings 0800         lcdSetCursor@location 0048                     ?_pinMode 0070  
                 ?_WriteData 0070             ___lwdiv@quotient 0075               __size_of_delay 004E  
                   ?_sprintf 0047               __size_of_setup 0064             ??_Initialization 0070  
                  clear_ram0 0DBB                    lcdPrint@i 004C                   _ADCON0bits 001F  
                __stringbase 080F     __end_of_WriteInstruction 008A             _PIDSetSampleTime 0DE3  
           __size_of___lwdiv 004B             __size_of___lwmod 0041           __end_of__stringtab 0810  
                 sprintf@val 004F                     _lcdBegin 010D             __size_of_pinMode 0121  
            ___lwdiv@divisor 0070                  ??_WriteData 0077              ___lwdiv@counter 0077  
                   __ptext10 0008                     __ptext11 0EBB                     __ptext12 0DD2  
                   __ptext13 008A                     __ptext14 0F4E                     __ptext15 0545  
                   __ptext16 0422                     __ptext17 0E0A                     __ptext18 0E22  
                   __ptext19 0DC3                     _lcdPrint 0EBB                     _lcdWrite 0DD2  
           __size_of_sprintf 00E0                __size_of_main 0014                __size_of_loop 0090  
             lcdPrint@string 0047                  lcdBegin@R_W 0048                ?_digitalWrite 0070  
                  sprintf@ap 004E                    sprintf@sp 0052            digitalWrite@value 0070  
           ___lwmod@dividend 007A                ?_lcdSetCursor 007C                    stringcode 080A  
                 _OPTION_REG 0081                     sprintf@c 0053                     sprintf@f 0047  
            ___lwmod@divisor 0078              ___lwmod@counter 007D               ??_digitalWrite 0071  
                   stringdir 080A                     stringtab 0800    __size_of_PWMConfiguration 000F  
            digitalWrite@pin 0073               ??_lcdSetCursor 007D  WriteInstruction@instruction 007A  
