

Microchip Technology PIC LITE Macro Assembler V2.00 build -1524193055 
                                                                                               Tue Feb 07 16:19:16 2023

Microchip Technology Omniscient Code Generator v2.00 (Free mode) build 20180527130849
     1  0000                     
      + 0000                     
     2                           ; Version 2.00
     3                           ; Generated 27/05/2018 GMT
     4                           
     5                           ; 
     6                           ; Copyright © 2018, Microchip Technology Inc. and its subsidiaries ("Microchip")
     7                           ; All rights reserved.
     8                           ; 
     9                           ; This software is developed by Microchip Technology Inc. and its subsidiaries ("Microch
                                 ip").
    10                           ; 
    11                           ; Redistribution and use in source and binary forms, with or without modification, are
    12                           ; permitted provided that the following conditions are met:
    13                           ; 
    14                           ;     1. Redistributions of source code must retain the above copyright notice, this lis
                                 t of
    15                           ;        conditions and the following disclaimer.
    16                           ; 
    17                           ;     2. Redistributions in binary form must reproduce the above copyright notice, this 
                                 list
    18                           ;        of conditions and the following disclaimer in the documentation and/or other
    19                           ;        materials provided with the distribution.
    20                           ; 
    21                           ;     3. Microchip's name may not be used to endorse or promote products derived from th
                                 is
    22                           ;        software without specific prior written permission.
    23                           ; 
    24                           ; THIS SOFTWARE IS PROVIDED BY MICROCHIP "AS IS" AND ANY EXPRESS OR IMPLIED WARRANTIES,

    25                           ; INCLUDING, BUT NOT LIMITED TO, THE IMPLIED WARRANTIES OF MERCHANTABILITY AND FITNESS F
                                 OR
    26                           ; PURPOSE ARE DISCLAIMED.  IN NO EVENT SHALL MICROCHIP BE LIABLE FOR ANY DIRECT, INDIREC
                                 T,
    27                           ; INCIDENTAL, SPECIAL, EXEMPLARY, OR CONSEQUENTIAL DAMAGES (INCLUDING BUT NOT LIMITED TO
                                 
    28                           ; PROCUREMENT OF SUBSTITUTE GOODS OR SERVICES; LOSS OF USE, DATA OR PROFITS; OR BUSINESS
                                 
    29                           ; INTERRUPTION) HOWSOEVER CAUSED AND ON ANY THEORY OF LIABILITY, WHETHER IN CONTRACT, ST
                                 RICT
    30                           ; LIABILITY, OR TORT (INCLUDING NEGLIGENCE OR OTHERWISE) ARISING IN ANY WAY OUT OF THE U
                                 SE OF
    31                           ; THIS SOFTWARE, EVEN IF ADVISED OF THE POSSIBILITY OF SUCH DAMAGE.
    32                           ; 
    33                           
    34                           
    35                           ; 
    36                           ; Code-generator required, PIC16F877A Definitions
    37                           ; 
    38  0004                     fsr0 equ 04h
    39  0004                     indf equ 00h
    40  0000                     indf0 equ 00h
    41  0000                     pc equ 02h
    42  0002                     pcl equ 02h
    43  0002                     pclath equ 0Ah
    44  000A                     status equ 03h
    45  0003                     
     2                           opt pagewidth 120
     3  0000                     byte0	macro	val
     4                           	(getbyte(val,0))
     5                           endm
     6  0000                     byte1	macro	val
     7                           	(getbyte(val,1))
     8                           endm
     9  0000                     byte2	macro	val
    10                           	(getbyte(val,2))
    11                           endm
    12  0000                     byte3	macro	val
    13                           	(getbyte(val,3))
    14                           endm
    15  0000                     byte4	macro	val
    16                           	(getbyte(val,4))
    17                           endm
    18  0000                     byte5	macro	val
    19                           	(getbyte(val,5))
    20                           endm
    21  0000                     byte6	macro	val
    22                           	(getbyte(val,6))
    23                           endm
    24  0000                     byte7	macro	val
    25                           	(getbyte(val,7))
    26                           endm
    27  0000                     getword	macro	val,pos
    28                           	(((val) >> (8 * pos)) and 0xffff)
    29                           endm
    30  0000                     word0	macro	val
    31                           	(getword(val,0))
    32                           endm
    33  0000                     word1	macro	val
    34                           	(getword(val,2))
    35                           endm
    36  0000                     word2	macro	val
    37                           	(getword(val,4))
    38                           endm
    39  0000                     word3	macro	val
    40                           	(getword(val,6))
    41                           endm
    42  0000                     gettword	macro	val,pos
    43                           	(((val) >> (8 * pos)) and 0xffffff)
    44                           endm
    45  0000                     tword0	macro	val
    46                           	(gettword(val,0))
    47                           endm
    48  0000                     tword1	macro	val
    49                           	(gettword(val,3))
    50                           endm
    51  0000                     tword2	macro	val
    52                           	(gettword(val,6))
    53                           endm
    54  0000                     getdword	macro	val,pos
    55                           	(((val) >> (8 * pos)) and 0xffffffff)
    56                           endm
    57  0000                     dword0	macro	val
    58                           	(getdword(val,0))
    59                           endm
    60  0000                     dword1	macro	val
    61                           	(getdword(val,4))
    62                           endm
    63  0000                     clrc	macro
    64                           	bcf	3,0
    65                           	endm
    66  0000                     clrz	macro
    67                           	bcf	3,2
    68                           	endm
    69  0000                     setc	macro
    70                           	bsf	3,0
    71                           	endm
    72  0000                     setz	macro
    73                           	bsf	3,2
    74                           	endm
    75  0000                     skipc	macro
    76                           	btfss	3,0
    77                           	endm
    78  0000                     skipz	macro
    79                           	btfss	3,2
    80                           	endm
    81  0000                     skipnc	macro
    82                           	btfsc	3,0
    83                           	endm
    84  0000                     skipnz	macro
    85                           	btfsc	3,2
    86                           	endm
    87  0000                     # 54 "C:\Program Files (x86)\Microchip\xc8\v2.00\pic\include\pic16f877a.h"
    88                           INDF equ 00h ;# 
    89  0000                     # 61 "C:\Program Files (x86)\Microchip\xc8\v2.00\pic\include\pic16f877a.h"
    90                           TMR0 equ 01h ;# 
    91  0001                     # 68 "C:\Program Files (x86)\Microchip\xc8\v2.00\pic\include\pic16f877a.h"
    92                           PCL equ 02h ;# 
    93  0002                     # 75 "C:\Program Files (x86)\Microchip\xc8\v2.00\pic\include\pic16f877a.h"
    94                           STATUS equ 03h ;# 
    95  0003                     # 161 "C:\Program Files (x86)\Microchip\xc8\v2.00\pic\include\pic16f877a.h"
    96                           FSR equ 04h ;# 
    97  0004                     # 168 "C:\Program Files (x86)\Microchip\xc8\v2.00\pic\include\pic16f877a.h"
    98                           PORTA equ 05h ;# 
    99  0005                     # 218 "C:\Program Files (x86)\Microchip\xc8\v2.00\pic\include\pic16f877a.h"
   100                           PORTB equ 06h ;# 
   101  0006                     # 280 "C:\Program Files (x86)\Microchip\xc8\v2.00\pic\include\pic16f877a.h"
   102                           PORTC equ 07h ;# 
   103  0007                     # 342 "C:\Program Files (x86)\Microchip\xc8\v2.00\pic\include\pic16f877a.h"
   104                           PORTD equ 08h ;# 
   105  0008                     # 404 "C:\Program Files (x86)\Microchip\xc8\v2.00\pic\include\pic16f877a.h"
   106                           PORTE equ 09h ;# 
   107  0009                     # 436 "C:\Program Files (x86)\Microchip\xc8\v2.00\pic\include\pic16f877a.h"
   108                           PCLATH equ 0Ah ;# 
   109  000A                     # 456 "C:\Program Files (x86)\Microchip\xc8\v2.00\pic\include\pic16f877a.h"
   110                           INTCON equ 0Bh ;# 
   111  000B                     # 534 "C:\Program Files (x86)\Microchip\xc8\v2.00\pic\include\pic16f877a.h"
   112                           PIR1 equ 0Ch ;# 
   113  000C                     # 596 "C:\Program Files (x86)\Microchip\xc8\v2.00\pic\include\pic16f877a.h"
   114                           PIR2 equ 0Dh ;# 
   115  000D                     # 636 "C:\Program Files (x86)\Microchip\xc8\v2.00\pic\include\pic16f877a.h"
   116                           TMR1 equ 0Eh ;# 
   117  000E                     # 643 "C:\Program Files (x86)\Microchip\xc8\v2.00\pic\include\pic16f877a.h"
   118                           TMR1L equ 0Eh ;# 
   119  000E                     # 650 "C:\Program Files (x86)\Microchip\xc8\v2.00\pic\include\pic16f877a.h"
   120                           TMR1H equ 0Fh ;# 
   121  000F                     # 657 "C:\Program Files (x86)\Microchip\xc8\v2.00\pic\include\pic16f877a.h"
   122                           T1CON equ 010h ;# 
   123  0010                     # 732 "C:\Program Files (x86)\Microchip\xc8\v2.00\pic\include\pic16f877a.h"
   124                           TMR2 equ 011h ;# 
   125  0011                     # 739 "C:\Program Files (x86)\Microchip\xc8\v2.00\pic\include\pic16f877a.h"
   126                           T2CON equ 012h ;# 
   127  0012                     # 810 "C:\Program Files (x86)\Microchip\xc8\v2.00\pic\include\pic16f877a.h"
   128                           SSPBUF equ 013h ;# 
   129  0013                     # 817 "C:\Program Files (x86)\Microchip\xc8\v2.00\pic\include\pic16f877a.h"
   130                           SSPCON equ 014h ;# 
   131  0014                     # 887 "C:\Program Files (x86)\Microchip\xc8\v2.00\pic\include\pic16f877a.h"
   132                           CCPR1 equ 015h ;# 
   133  0015                     # 894 "C:\Program Files (x86)\Microchip\xc8\v2.00\pic\include\pic16f877a.h"
   134                           CCPR1L equ 015h ;# 
   135  0015                     # 901 "C:\Program Files (x86)\Microchip\xc8\v2.00\pic\include\pic16f877a.h"
   136                           CCPR1H equ 016h ;# 
   137  0016                     # 908 "C:\Program Files (x86)\Microchip\xc8\v2.00\pic\include\pic16f877a.h"
   138                           CCP1CON equ 017h ;# 
   139  0017                     # 966 "C:\Program Files (x86)\Microchip\xc8\v2.00\pic\include\pic16f877a.h"
   140                           RCSTA equ 018h ;# 
   141  0018                     # 1061 "C:\Program Files (x86)\Microchip\xc8\v2.00\pic\include\pic16f877a.h"
   142                           TXREG equ 019h ;# 
   143  0019                     # 1068 "C:\Program Files (x86)\Microchip\xc8\v2.00\pic\include\pic16f877a.h"
   144                           RCREG equ 01Ah ;# 
   145  001A                     # 1075 "C:\Program Files (x86)\Microchip\xc8\v2.00\pic\include\pic16f877a.h"
   146                           CCPR2 equ 01Bh ;# 
   147  001B                     # 1082 "C:\Program Files (x86)\Microchip\xc8\v2.00\pic\include\pic16f877a.h"
   148                           CCPR2L equ 01Bh ;# 
   149  001B                     # 1089 "C:\Program Files (x86)\Microchip\xc8\v2.00\pic\include\pic16f877a.h"
   150                           CCPR2H equ 01Ch ;# 
   151  001C                     # 1096 "C:\Program Files (x86)\Microchip\xc8\v2.00\pic\include\pic16f877a.h"
   152                           CCP2CON equ 01Dh ;# 
   153  001D                     # 1154 "C:\Program Files (x86)\Microchip\xc8\v2.00\pic\include\pic16f877a.h"
   154                           ADRESH equ 01Eh ;# 
   155  001E                     # 1161 "C:\Program Files (x86)\Microchip\xc8\v2.00\pic\include\pic16f877a.h"
   156                           ADCON0 equ 01Fh ;# 
   157  001F                     # 1257 "C:\Program Files (x86)\Microchip\xc8\v2.00\pic\include\pic16f877a.h"
   158                           OPTION_REG equ 081h ;# 
   159  0081                     # 1327 "C:\Program Files (x86)\Microchip\xc8\v2.00\pic\include\pic16f877a.h"
   160                           TRISA equ 085h ;# 
   161  0085                     # 1377 "C:\Program Files (x86)\Microchip\xc8\v2.00\pic\include\pic16f877a.h"
   162                           TRISB equ 086h ;# 
   163  0086                     # 1439 "C:\Program Files (x86)\Microchip\xc8\v2.00\pic\include\pic16f877a.h"
   164                           TRISC equ 087h ;# 
   165  0087                     # 1501 "C:\Program Files (x86)\Microchip\xc8\v2.00\pic\include\pic16f877a.h"
   166                           TRISD equ 088h ;# 
   167  0088                     # 1563 "C:\Program Files (x86)\Microchip\xc8\v2.00\pic\include\pic16f877a.h"
   168                           TRISE equ 089h ;# 
   169  0089                     # 1620 "C:\Program Files (x86)\Microchip\xc8\v2.00\pic\include\pic16f877a.h"
   170                           PIE1 equ 08Ch ;# 
   171  008C                     # 1682 "C:\Program Files (x86)\Microchip\xc8\v2.00\pic\include\pic16f877a.h"
   172                           PIE2 equ 08Dh ;# 
   173  008D                     # 1722 "C:\Program Files (x86)\Microchip\xc8\v2.00\pic\include\pic16f877a.h"
   174                           PCON equ 08Eh ;# 
   175  008E                     # 1756 "C:\Program Files (x86)\Microchip\xc8\v2.00\pic\include\pic16f877a.h"
   176                           SSPCON2 equ 091h ;# 
   177  0091                     # 1818 "C:\Program Files (x86)\Microchip\xc8\v2.00\pic\include\pic16f877a.h"
   178                           PR2 equ 092h ;# 
   179  0092                     # 1825 "C:\Program Files (x86)\Microchip\xc8\v2.00\pic\include\pic16f877a.h"
   180                           SSPADD equ 093h ;# 
   181  0093                     # 1832 "C:\Program Files (x86)\Microchip\xc8\v2.00\pic\include\pic16f877a.h"
   182                           SSPSTAT equ 094h ;# 
   183  0094                     # 2001 "C:\Program Files (x86)\Microchip\xc8\v2.00\pic\include\pic16f877a.h"
   184                           TXSTA equ 098h ;# 
   185  0098                     # 2082 "C:\Program Files (x86)\Microchip\xc8\v2.00\pic\include\pic16f877a.h"
   186                           SPBRG equ 099h ;# 
   187  0099                     # 2089 "C:\Program Files (x86)\Microchip\xc8\v2.00\pic\include\pic16f877a.h"
   188                           CMCON equ 09Ch ;# 
   189  009C                     # 2159 "C:\Program Files (x86)\Microchip\xc8\v2.00\pic\include\pic16f877a.h"
   190                           CVRCON equ 09Dh ;# 
   191  009D                     # 2224 "C:\Program Files (x86)\Microchip\xc8\v2.00\pic\include\pic16f877a.h"
   192                           ADRESL equ 09Eh ;# 
   193  009E                     # 2231 "C:\Program Files (x86)\Microchip\xc8\v2.00\pic\include\pic16f877a.h"
   194                           ADCON1 equ 09Fh ;# 
   195  009F                     # 2290 "C:\Program Files (x86)\Microchip\xc8\v2.00\pic\include\pic16f877a.h"
   196                           EEDATA equ 010Ch ;# 
   197  010C                     # 2297 "C:\Program Files (x86)\Microchip\xc8\v2.00\pic\include\pic16f877a.h"
   198                           EEADR equ 010Dh ;# 
   199  010D                     # 2304 "C:\Program Files (x86)\Microchip\xc8\v2.00\pic\include\pic16f877a.h"
   200                           EEDATH equ 010Eh ;# 
   201  010E                     # 2311 "C:\Program Files (x86)\Microchip\xc8\v2.00\pic\include\pic16f877a.h"
   202                           EEADRH equ 010Fh ;# 
   203  010F                     # 2318 "C:\Program Files (x86)\Microchip\xc8\v2.00\pic\include\pic16f877a.h"
   204                           EECON1 equ 018Ch ;# 
   205  018C                     # 2363 "C:\Program Files (x86)\Microchip\xc8\v2.00\pic\include\pic16f877a.h"
   206                           EECON2 equ 018Dh ;# 
   207  018D                     # 54 "C:\Program Files (x86)\Microchip\xc8\v2.00\pic\include\pic16f877a.h"
   208                           INDF equ 00h ;# 
   209  0000                     # 61 "C:\Program Files (x86)\Microchip\xc8\v2.00\pic\include\pic16f877a.h"
   210                           TMR0 equ 01h ;# 
   211  0001                     # 68 "C:\Program Files (x86)\Microchip\xc8\v2.00\pic\include\pic16f877a.h"
   212                           PCL equ 02h ;# 
   213  0002                     # 75 "C:\Program Files (x86)\Microchip\xc8\v2.00\pic\include\pic16f877a.h"
   214                           STATUS equ 03h ;# 
   215  0003                     # 161 "C:\Program Files (x86)\Microchip\xc8\v2.00\pic\include\pic16f877a.h"
   216                           FSR equ 04h ;# 
   217  0004                     # 168 "C:\Program Files (x86)\Microchip\xc8\v2.00\pic\include\pic16f877a.h"
   218                           PORTA equ 05h ;# 
   219  0005                     # 218 "C:\Program Files (x86)\Microchip\xc8\v2.00\pic\include\pic16f877a.h"
   220                           PORTB equ 06h ;# 
   221  0006                     # 280 "C:\Program Files (x86)\Microchip\xc8\v2.00\pic\include\pic16f877a.h"
   222                           PORTC equ 07h ;# 
   223  0007                     # 342 "C:\Program Files (x86)\Microchip\xc8\v2.00\pic\include\pic16f877a.h"
   224                           PORTD equ 08h ;# 
   225  0008                     # 404 "C:\Program Files (x86)\Microchip\xc8\v2.00\pic\include\pic16f877a.h"
   226                           PORTE equ 09h ;# 
   227  0009                     # 436 "C:\Program Files (x86)\Microchip\xc8\v2.00\pic\include\pic16f877a.h"
   228                           PCLATH equ 0Ah ;# 
   229  000A                     # 456 "C:\Program Files (x86)\Microchip\xc8\v2.00\pic\include\pic16f877a.h"
   230                           INTCON equ 0Bh ;# 
   231  000B                     # 534 "C:\Program Files (x86)\Microchip\xc8\v2.00\pic\include\pic16f877a.h"
   232                           PIR1 equ 0Ch ;# 
   233  000C                     # 596 "C:\Program Files (x86)\Microchip\xc8\v2.00\pic\include\pic16f877a.h"
   234                           PIR2 equ 0Dh ;# 
   235  000D                     # 636 "C:\Program Files (x86)\Microchip\xc8\v2.00\pic\include\pic16f877a.h"
   236                           TMR1 equ 0Eh ;# 
   237  000E                     # 643 "C:\Program Files (x86)\Microchip\xc8\v2.00\pic\include\pic16f877a.h"
   238                           TMR1L equ 0Eh ;# 
   239  000E                     # 650 "C:\Program Files (x86)\Microchip\xc8\v2.00\pic\include\pic16f877a.h"
   240                           TMR1H equ 0Fh ;# 
   241  000F                     # 657 "C:\Program Files (x86)\Microchip\xc8\v2.00\pic\include\pic16f877a.h"
   242                           T1CON equ 010h ;# 
   243  0010                     # 732 "C:\Program Files (x86)\Microchip\xc8\v2.00\pic\include\pic16f877a.h"
   244                           TMR2 equ 011h ;# 
   245  0011                     # 739 "C:\Program Files (x86)\Microchip\xc8\v2.00\pic\include\pic16f877a.h"
   246                           T2CON equ 012h ;# 
   247  0012                     # 810 "C:\Program Files (x86)\Microchip\xc8\v2.00\pic\include\pic16f877a.h"
   248                           SSPBUF equ 013h ;# 
   249  0013                     # 817 "C:\Program Files (x86)\Microchip\xc8\v2.00\pic\include\pic16f877a.h"
   250                           SSPCON equ 014h ;# 
   251  0014                     # 887 "C:\Program Files (x86)\Microchip\xc8\v2.00\pic\include\pic16f877a.h"
   252                           CCPR1 equ 015h ;# 
   253  0015                     # 894 "C:\Program Files (x86)\Microchip\xc8\v2.00\pic\include\pic16f877a.h"
   254                           CCPR1L equ 015h ;# 
   255  0015                     # 901 "C:\Program Files (x86)\Microchip\xc8\v2.00\pic\include\pic16f877a.h"
   256                           CCPR1H equ 016h ;# 
   257  0016                     # 908 "C:\Program Files (x86)\Microchip\xc8\v2.00\pic\include\pic16f877a.h"
   258                           CCP1CON equ 017h ;# 
   259  0017                     # 966 "C:\Program Files (x86)\Microchip\xc8\v2.00\pic\include\pic16f877a.h"
   260                           RCSTA equ 018h ;# 
   261  0018                     # 1061 "C:\Program Files (x86)\Microchip\xc8\v2.00\pic\include\pic16f877a.h"
   262                           TXREG equ 019h ;# 
   263  0019                     # 1068 "C:\Program Files (x86)\Microchip\xc8\v2.00\pic\include\pic16f877a.h"
   264                           RCREG equ 01Ah ;# 
   265  001A                     # 1075 "C:\Program Files (x86)\Microchip\xc8\v2.00\pic\include\pic16f877a.h"
   266                           CCPR2 equ 01Bh ;# 
   267  001B                     # 1082 "C:\Program Files (x86)\Microchip\xc8\v2.00\pic\include\pic16f877a.h"
   268                           CCPR2L equ 01Bh ;# 
   269  001B                     # 1089 "C:\Program Files (x86)\Microchip\xc8\v2.00\pic\include\pic16f877a.h"
   270                           CCPR2H equ 01Ch ;# 
   271  001C                     # 1096 "C:\Program Files (x86)\Microchip\xc8\v2.00\pic\include\pic16f877a.h"
   272                           CCP2CON equ 01Dh ;# 
   273  001D                     # 1154 "C:\Program Files (x86)\Microchip\xc8\v2.00\pic\include\pic16f877a.h"
   274                           ADRESH equ 01Eh ;# 
   275  001E                     # 1161 "C:\Program Files (x86)\Microchip\xc8\v2.00\pic\include\pic16f877a.h"
   276                           ADCON0 equ 01Fh ;# 
   277  001F                     # 1257 "C:\Program Files (x86)\Microchip\xc8\v2.00\pic\include\pic16f877a.h"
   278                           OPTION_REG equ 081h ;# 
   279  0081                     # 1327 "C:\Program Files (x86)\Microchip\xc8\v2.00\pic\include\pic16f877a.h"
   280                           TRISA equ 085h ;# 
   281  0085                     # 1377 "C:\Program Files (x86)\Microchip\xc8\v2.00\pic\include\pic16f877a.h"
   282                           TRISB equ 086h ;# 
   283  0086                     # 1439 "C:\Program Files (x86)\Microchip\xc8\v2.00\pic\include\pic16f877a.h"
   284                           TRISC equ 087h ;# 
   285  0087                     # 1501 "C:\Program Files (x86)\Microchip\xc8\v2.00\pic\include\pic16f877a.h"
   286                           TRISD equ 088h ;# 
   287  0088                     # 1563 "C:\Program Files (x86)\Microchip\xc8\v2.00\pic\include\pic16f877a.h"
   288                           TRISE equ 089h ;# 
   289  0089                     # 1620 "C:\Program Files (x86)\Microchip\xc8\v2.00\pic\include\pic16f877a.h"
   290                           PIE1 equ 08Ch ;# 
   291  008C                     # 1682 "C:\Program Files (x86)\Microchip\xc8\v2.00\pic\include\pic16f877a.h"
   292                           PIE2 equ 08Dh ;# 
   293  008D                     # 1722 "C:\Program Files (x86)\Microchip\xc8\v2.00\pic\include\pic16f877a.h"
   294                           PCON equ 08Eh ;# 
   295  008E                     # 1756 "C:\Program Files (x86)\Microchip\xc8\v2.00\pic\include\pic16f877a.h"
   296                           SSPCON2 equ 091h ;# 
   297  0091                     # 1818 "C:\Program Files (x86)\Microchip\xc8\v2.00\pic\include\pic16f877a.h"
   298                           PR2 equ 092h ;# 
   299  0092                     # 1825 "C:\Program Files (x86)\Microchip\xc8\v2.00\pic\include\pic16f877a.h"
   300                           SSPADD equ 093h ;# 
   301  0093                     # 1832 "C:\Program Files (x86)\Microchip\xc8\v2.00\pic\include\pic16f877a.h"
   302                           SSPSTAT equ 094h ;# 
   303  0094                     # 2001 "C:\Program Files (x86)\Microchip\xc8\v2.00\pic\include\pic16f877a.h"
   304                           TXSTA equ 098h ;# 
   305  0098                     # 2082 "C:\Program Files (x86)\Microchip\xc8\v2.00\pic\include\pic16f877a.h"
   306                           SPBRG equ 099h ;# 
   307  0099                     # 2089 "C:\Program Files (x86)\Microchip\xc8\v2.00\pic\include\pic16f877a.h"
   308                           CMCON equ 09Ch ;# 
   309  009C                     # 2159 "C:\Program Files (x86)\Microchip\xc8\v2.00\pic\include\pic16f877a.h"
   310                           CVRCON equ 09Dh ;# 
   311  009D                     # 2224 "C:\Program Files (x86)\Microchip\xc8\v2.00\pic\include\pic16f877a.h"
   312                           ADRESL equ 09Eh ;# 
   313  009E                     # 2231 "C:\Program Files (x86)\Microchip\xc8\v2.00\pic\include\pic16f877a.h"
   314                           ADCON1 equ 09Fh ;# 
   315  009F                     # 2290 "C:\Program Files (x86)\Microchip\xc8\v2.00\pic\include\pic16f877a.h"
   316                           EEDATA equ 010Ch ;# 
   317  010C                     # 2297 "C:\Program Files (x86)\Microchip\xc8\v2.00\pic\include\pic16f877a.h"
   318                           EEADR equ 010Dh ;# 
   319  010D                     # 2304 "C:\Program Files (x86)\Microchip\xc8\v2.00\pic\include\pic16f877a.h"
   320                           EEDATH equ 010Eh ;# 
   321  010E                     # 2311 "C:\Program Files (x86)\Microchip\xc8\v2.00\pic\include\pic16f877a.h"
   322                           EEADRH equ 010Fh ;# 
   323  010F                     # 2318 "C:\Program Files (x86)\Microchip\xc8\v2.00\pic\include\pic16f877a.h"
   324                           EECON1 equ 018Ch ;# 
   325  018C                     # 2363 "C:\Program Files (x86)\Microchip\xc8\v2.00\pic\include\pic16f877a.h"
   326                           EECON2 equ 018Dh ;# 
   327  018D                     # 54 "C:\Program Files (x86)\Microchip\xc8\v2.00\pic\include\pic16f877a.h"
   328                           INDF equ 00h ;# 
   329  0000                     # 61 "C:\Program Files (x86)\Microchip\xc8\v2.00\pic\include\pic16f877a.h"
   330                           TMR0 equ 01h ;# 
   331  0001                     # 68 "C:\Program Files (x86)\Microchip\xc8\v2.00\pic\include\pic16f877a.h"
   332                           PCL equ 02h ;# 
   333  0002                     # 75 "C:\Program Files (x86)\Microchip\xc8\v2.00\pic\include\pic16f877a.h"
   334                           STATUS equ 03h ;# 
   335  0003                     # 161 "C:\Program Files (x86)\Microchip\xc8\v2.00\pic\include\pic16f877a.h"
   336                           FSR equ 04h ;# 
   337  0004                     # 168 "C:\Program Files (x86)\Microchip\xc8\v2.00\pic\include\pic16f877a.h"
   338                           PORTA equ 05h ;# 
   339  0005                     # 218 "C:\Program Files (x86)\Microchip\xc8\v2.00\pic\include\pic16f877a.h"
   340                           PORTB equ 06h ;# 
   341  0006                     # 280 "C:\Program Files (x86)\Microchip\xc8\v2.00\pic\include\pic16f877a.h"
   342                           PORTC equ 07h ;# 
   343  0007                     # 342 "C:\Program Files (x86)\Microchip\xc8\v2.00\pic\include\pic16f877a.h"
   344                           PORTD equ 08h ;# 
   345  0008                     # 404 "C:\Program Files (x86)\Microchip\xc8\v2.00\pic\include\pic16f877a.h"
   346                           PORTE equ 09h ;# 
   347  0009                     # 436 "C:\Program Files (x86)\Microchip\xc8\v2.00\pic\include\pic16f877a.h"
   348                           PCLATH equ 0Ah ;# 
   349  000A                     # 456 "C:\Program Files (x86)\Microchip\xc8\v2.00\pic\include\pic16f877a.h"
   350                           INTCON equ 0Bh ;# 
   351  000B                     # 534 "C:\Program Files (x86)\Microchip\xc8\v2.00\pic\include\pic16f877a.h"
   352                           PIR1 equ 0Ch ;# 
   353  000C                     # 596 "C:\Program Files (x86)\Microchip\xc8\v2.00\pic\include\pic16f877a.h"
   354                           PIR2 equ 0Dh ;# 
   355  000D                     # 636 "C:\Program Files (x86)\Microchip\xc8\v2.00\pic\include\pic16f877a.h"
   356                           TMR1 equ 0Eh ;# 
   357  000E                     # 643 "C:\Program Files (x86)\Microchip\xc8\v2.00\pic\include\pic16f877a.h"
   358                           TMR1L equ 0Eh ;# 
   359  000E                     # 650 "C:\Program Files (x86)\Microchip\xc8\v2.00\pic\include\pic16f877a.h"
   360                           TMR1H equ 0Fh ;# 
   361  000F                     # 657 "C:\Program Files (x86)\Microchip\xc8\v2.00\pic\include\pic16f877a.h"
   362                           T1CON equ 010h ;# 
   363  0010                     # 732 "C:\Program Files (x86)\Microchip\xc8\v2.00\pic\include\pic16f877a.h"
   364                           TMR2 equ 011h ;# 
   365  0011                     # 739 "C:\Program Files (x86)\Microchip\xc8\v2.00\pic\include\pic16f877a.h"
   366                           T2CON equ 012h ;# 
   367  0012                     # 810 "C:\Program Files (x86)\Microchip\xc8\v2.00\pic\include\pic16f877a.h"
   368                           SSPBUF equ 013h ;# 
   369  0013                     # 817 "C:\Program Files (x86)\Microchip\xc8\v2.00\pic\include\pic16f877a.h"
   370                           SSPCON equ 014h ;# 
   371  0014                     # 887 "C:\Program Files (x86)\Microchip\xc8\v2.00\pic\include\pic16f877a.h"
   372                           CCPR1 equ 015h ;# 
   373  0015                     # 894 "C:\Program Files (x86)\Microchip\xc8\v2.00\pic\include\pic16f877a.h"
   374                           CCPR1L equ 015h ;# 
   375  0015                     # 901 "C:\Program Files (x86)\Microchip\xc8\v2.00\pic\include\pic16f877a.h"
   376                           CCPR1H equ 016h ;# 
   377  0016                     # 908 "C:\Program Files (x86)\Microchip\xc8\v2.00\pic\include\pic16f877a.h"
   378                           CCP1CON equ 017h ;# 
   379  0017                     # 966 "C:\Program Files (x86)\Microchip\xc8\v2.00\pic\include\pic16f877a.h"
   380                           RCSTA equ 018h ;# 
   381  0018                     # 1061 "C:\Program Files (x86)\Microchip\xc8\v2.00\pic\include\pic16f877a.h"
   382                           TXREG equ 019h ;# 
   383  0019                     # 1068 "C:\Program Files (x86)\Microchip\xc8\v2.00\pic\include\pic16f877a.h"
   384                           RCREG equ 01Ah ;# 
   385  001A                     # 1075 "C:\Program Files (x86)\Microchip\xc8\v2.00\pic\include\pic16f877a.h"
   386                           CCPR2 equ 01Bh ;# 
   387  001B                     # 1082 "C:\Program Files (x86)\Microchip\xc8\v2.00\pic\include\pic16f877a.h"
   388                           CCPR2L equ 01Bh ;# 
   389  001B                     # 1089 "C:\Program Files (x86)\Microchip\xc8\v2.00\pic\include\pic16f877a.h"
   390                           CCPR2H equ 01Ch ;# 
   391  001C                     # 1096 "C:\Program Files (x86)\Microchip\xc8\v2.00\pic\include\pic16f877a.h"
   392                           CCP2CON equ 01Dh ;# 
   393  001D                     # 1154 "C:\Program Files (x86)\Microchip\xc8\v2.00\pic\include\pic16f877a.h"
   394                           ADRESH equ 01Eh ;# 
   395  001E                     # 1161 "C:\Program Files (x86)\Microchip\xc8\v2.00\pic\include\pic16f877a.h"
   396                           ADCON0 equ 01Fh ;# 
   397  001F                     # 1257 "C:\Program Files (x86)\Microchip\xc8\v2.00\pic\include\pic16f877a.h"
   398                           OPTION_REG equ 081h ;# 
   399  0081                     # 1327 "C:\Program Files (x86)\Microchip\xc8\v2.00\pic\include\pic16f877a.h"
   400                           TRISA equ 085h ;# 
   401  0085                     # 1377 "C:\Program Files (x86)\Microchip\xc8\v2.00\pic\include\pic16f877a.h"
   402                           TRISB equ 086h ;# 
   403  0086                     # 1439 "C:\Program Files (x86)\Microchip\xc8\v2.00\pic\include\pic16f877a.h"
   404                           TRISC equ 087h ;# 
   405  0087                     # 1501 "C:\Program Files (x86)\Microchip\xc8\v2.00\pic\include\pic16f877a.h"
   406                           TRISD equ 088h ;# 
   407  0088                     # 1563 "C:\Program Files (x86)\Microchip\xc8\v2.00\pic\include\pic16f877a.h"
   408                           TRISE equ 089h ;# 
   409  0089                     # 1620 "C:\Program Files (x86)\Microchip\xc8\v2.00\pic\include\pic16f877a.h"
   410                           PIE1 equ 08Ch ;# 
   411  008C                     # 1682 "C:\Program Files (x86)\Microchip\xc8\v2.00\pic\include\pic16f877a.h"
   412                           PIE2 equ 08Dh ;# 
   413  008D                     # 1722 "C:\Program Files (x86)\Microchip\xc8\v2.00\pic\include\pic16f877a.h"
   414                           PCON equ 08Eh ;# 
   415  008E                     # 1756 "C:\Program Files (x86)\Microchip\xc8\v2.00\pic\include\pic16f877a.h"
   416                           SSPCON2 equ 091h ;# 
   417  0091                     # 1818 "C:\Program Files (x86)\Microchip\xc8\v2.00\pic\include\pic16f877a.h"
   418                           PR2 equ 092h ;# 
   419  0092                     # 1825 "C:\Program Files (x86)\Microchip\xc8\v2.00\pic\include\pic16f877a.h"
   420                           SSPADD equ 093h ;# 
   421  0093                     # 1832 "C:\Program Files (x86)\Microchip\xc8\v2.00\pic\include\pic16f877a.h"
   422                           SSPSTAT equ 094h ;# 
   423  0094                     # 2001 "C:\Program Files (x86)\Microchip\xc8\v2.00\pic\include\pic16f877a.h"
   424                           TXSTA equ 098h ;# 
   425  0098                     # 2082 "C:\Program Files (x86)\Microchip\xc8\v2.00\pic\include\pic16f877a.h"
   426                           SPBRG equ 099h ;# 
   427  0099                     # 2089 "C:\Program Files (x86)\Microchip\xc8\v2.00\pic\include\pic16f877a.h"
   428                           CMCON equ 09Ch ;# 
   429  009C                     # 2159 "C:\Program Files (x86)\Microchip\xc8\v2.00\pic\include\pic16f877a.h"
   430                           CVRCON equ 09Dh ;# 
   431  009D                     # 2224 "C:\Program Files (x86)\Microchip\xc8\v2.00\pic\include\pic16f877a.h"
   432                           ADRESL equ 09Eh ;# 
   433  009E                     # 2231 "C:\Program Files (x86)\Microchip\xc8\v2.00\pic\include\pic16f877a.h"
   434                           ADCON1 equ 09Fh ;# 
   435  009F                     # 2290 "C:\Program Files (x86)\Microchip\xc8\v2.00\pic\include\pic16f877a.h"
   436                           EEDATA equ 010Ch ;# 
   437  010C                     # 2297 "C:\Program Files (x86)\Microchip\xc8\v2.00\pic\include\pic16f877a.h"
   438                           EEADR equ 010Dh ;# 
   439  010D                     # 2304 "C:\Program Files (x86)\Microchip\xc8\v2.00\pic\include\pic16f877a.h"
   440                           EEDATH equ 010Eh ;# 
   441  010E                     # 2311 "C:\Program Files (x86)\Microchip\xc8\v2.00\pic\include\pic16f877a.h"
   442                           EEADRH equ 010Fh ;# 
   443  010F                     # 2318 "C:\Program Files (x86)\Microchip\xc8\v2.00\pic\include\pic16f877a.h"
   444                           EECON1 equ 018Ch ;# 
   445  018C                     # 2363 "C:\Program Files (x86)\Microchip\xc8\v2.00\pic\include\pic16f877a.h"
   446                           EECON2 equ 018Dh ;# 
   447  018D                     # 54 "C:\Program Files (x86)\Microchip\xc8\v2.00\pic\include\pic16f877a.h"
   448                           INDF equ 00h ;# 
   449  0000                     # 61 "C:\Program Files (x86)\Microchip\xc8\v2.00\pic\include\pic16f877a.h"
   450                           TMR0 equ 01h ;# 
   451  0001                     # 68 "C:\Program Files (x86)\Microchip\xc8\v2.00\pic\include\pic16f877a.h"
   452                           PCL equ 02h ;# 
   453  0002                     # 75 "C:\Program Files (x86)\Microchip\xc8\v2.00\pic\include\pic16f877a.h"
   454                           STATUS equ 03h ;# 
   455  0003                     # 161 "C:\Program Files (x86)\Microchip\xc8\v2.00\pic\include\pic16f877a.h"
   456                           FSR equ 04h ;# 
   457  0004                     # 168 "C:\Program Files (x86)\Microchip\xc8\v2.00\pic\include\pic16f877a.h"
   458                           PORTA equ 05h ;# 
   459  0005                     # 218 "C:\Program Files (x86)\Microchip\xc8\v2.00\pic\include\pic16f877a.h"
   460                           PORTB equ 06h ;# 
   461  0006                     # 280 "C:\Program Files (x86)\Microchip\xc8\v2.00\pic\include\pic16f877a.h"
   462                           PORTC equ 07h ;# 
   463  0007                     # 342 "C:\Program Files (x86)\Microchip\xc8\v2.00\pic\include\pic16f877a.h"
   464                           PORTD equ 08h ;# 
   465  0008                     # 404 "C:\Program Files (x86)\Microchip\xc8\v2.00\pic\include\pic16f877a.h"
   466                           PORTE equ 09h ;# 
   467  0009                     # 436 "C:\Program Files (x86)\Microchip\xc8\v2.00\pic\include\pic16f877a.h"
   468                           PCLATH equ 0Ah ;# 
   469  000A                     # 456 "C:\Program Files (x86)\Microchip\xc8\v2.00\pic\include\pic16f877a.h"
   470                           INTCON equ 0Bh ;# 
   471  000B                     # 534 "C:\Program Files (x86)\Microchip\xc8\v2.00\pic\include\pic16f877a.h"
   472                           PIR1 equ 0Ch ;# 
   473  000C                     # 596 "C:\Program Files (x86)\Microchip\xc8\v2.00\pic\include\pic16f877a.h"
   474                           PIR2 equ 0Dh ;# 
   475  000D                     # 636 "C:\Program Files (x86)\Microchip\xc8\v2.00\pic\include\pic16f877a.h"
   476                           TMR1 equ 0Eh ;# 
   477  000E                     # 643 "C:\Program Files (x86)\Microchip\xc8\v2.00\pic\include\pic16f877a.h"
   478                           TMR1L equ 0Eh ;# 
   479  000E                     # 650 "C:\Program Files (x86)\Microchip\xc8\v2.00\pic\include\pic16f877a.h"
   480                           TMR1H equ 0Fh ;# 
   481  000F                     # 657 "C:\Program Files (x86)\Microchip\xc8\v2.00\pic\include\pic16f877a.h"
   482                           T1CON equ 010h ;# 
   483  0010                     # 732 "C:\Program Files (x86)\Microchip\xc8\v2.00\pic\include\pic16f877a.h"
   484                           TMR2 equ 011h ;# 
   485  0011                     # 739 "C:\Program Files (x86)\Microchip\xc8\v2.00\pic\include\pic16f877a.h"
   486                           T2CON equ 012h ;# 
   487  0012                     # 810 "C:\Program Files (x86)\Microchip\xc8\v2.00\pic\include\pic16f877a.h"
   488                           SSPBUF equ 013h ;# 
   489  0013                     # 817 "C:\Program Files (x86)\Microchip\xc8\v2.00\pic\include\pic16f877a.h"
   490                           SSPCON equ 014h ;# 
   491  0014                     # 887 "C:\Program Files (x86)\Microchip\xc8\v2.00\pic\include\pic16f877a.h"
   492                           CCPR1 equ 015h ;# 
   493  0015                     # 894 "C:\Program Files (x86)\Microchip\xc8\v2.00\pic\include\pic16f877a.h"
   494                           CCPR1L equ 015h ;# 
   495  0015                     # 901 "C:\Program Files (x86)\Microchip\xc8\v2.00\pic\include\pic16f877a.h"
   496                           CCPR1H equ 016h ;# 
   497  0016                     # 908 "C:\Program Files (x86)\Microchip\xc8\v2.00\pic\include\pic16f877a.h"
   498                           CCP1CON equ 017h ;# 
   499  0017                     # 966 "C:\Program Files (x86)\Microchip\xc8\v2.00\pic\include\pic16f877a.h"
   500                           RCSTA equ 018h ;# 
   501  0018                     # 1061 "C:\Program Files (x86)\Microchip\xc8\v2.00\pic\include\pic16f877a.h"
   502                           TXREG equ 019h ;# 
   503  0019                     # 1068 "C:\Program Files (x86)\Microchip\xc8\v2.00\pic\include\pic16f877a.h"
   504                           RCREG equ 01Ah ;# 
   505  001A                     # 1075 "C:\Program Files (x86)\Microchip\xc8\v2.00\pic\include\pic16f877a.h"
   506                           CCPR2 equ 01Bh ;# 
   507  001B                     # 1082 "C:\Program Files (x86)\Microchip\xc8\v2.00\pic\include\pic16f877a.h"
   508                           CCPR2L equ 01Bh ;# 
   509  001B                     # 1089 "C:\Program Files (x86)\Microchip\xc8\v2.00\pic\include\pic16f877a.h"
   510                           CCPR2H equ 01Ch ;# 
   511  001C                     # 1096 "C:\Program Files (x86)\Microchip\xc8\v2.00\pic\include\pic16f877a.h"
   512                           CCP2CON equ 01Dh ;# 
   513  001D                     # 1154 "C:\Program Files (x86)\Microchip\xc8\v2.00\pic\include\pic16f877a.h"
   514                           ADRESH equ 01Eh ;# 
   515  001E                     # 1161 "C:\Program Files (x86)\Microchip\xc8\v2.00\pic\include\pic16f877a.h"
   516                           ADCON0 equ 01Fh ;# 
   517  001F                     # 1257 "C:\Program Files (x86)\Microchip\xc8\v2.00\pic\include\pic16f877a.h"
   518                           OPTION_REG equ 081h ;# 
   519  0081                     # 1327 "C:\Program Files (x86)\Microchip\xc8\v2.00\pic\include\pic16f877a.h"
   520                           TRISA equ 085h ;# 
   521  0085                     # 1377 "C:\Program Files (x86)\Microchip\xc8\v2.00\pic\include\pic16f877a.h"
   522                           TRISB equ 086h ;# 
   523  0086                     # 1439 "C:\Program Files (x86)\Microchip\xc8\v2.00\pic\include\pic16f877a.h"
   524                           TRISC equ 087h ;# 
   525  0087                     # 1501 "C:\Program Files (x86)\Microchip\xc8\v2.00\pic\include\pic16f877a.h"
   526                           TRISD equ 088h ;# 
   527  0088                     # 1563 "C:\Program Files (x86)\Microchip\xc8\v2.00\pic\include\pic16f877a.h"
   528                           TRISE equ 089h ;# 
   529  0089                     # 1620 "C:\Program Files (x86)\Microchip\xc8\v2.00\pic\include\pic16f877a.h"
   530                           PIE1 equ 08Ch ;# 
   531  008C                     # 1682 "C:\Program Files (x86)\Microchip\xc8\v2.00\pic\include\pic16f877a.h"
   532                           PIE2 equ 08Dh ;# 
   533  008D                     # 1722 "C:\Program Files (x86)\Microchip\xc8\v2.00\pic\include\pic16f877a.h"
   534                           PCON equ 08Eh ;# 
   535  008E                     # 1756 "C:\Program Files (x86)\Microchip\xc8\v2.00\pic\include\pic16f877a.h"
   536                           SSPCON2 equ 091h ;# 
   537  0091                     # 1818 "C:\Program Files (x86)\Microchip\xc8\v2.00\pic\include\pic16f877a.h"
   538                           PR2 equ 092h ;# 
   539  0092                     # 1825 "C:\Program Files (x86)\Microchip\xc8\v2.00\pic\include\pic16f877a.h"
   540                           SSPADD equ 093h ;# 
   541  0093                     # 1832 "C:\Program Files (x86)\Microchip\xc8\v2.00\pic\include\pic16f877a.h"
   542                           SSPSTAT equ 094h ;# 
   543  0094                     # 2001 "C:\Program Files (x86)\Microchip\xc8\v2.00\pic\include\pic16f877a.h"
   544                           TXSTA equ 098h ;# 
   545  0098                     # 2082 "C:\Program Files (x86)\Microchip\xc8\v2.00\pic\include\pic16f877a.h"
   546                           SPBRG equ 099h ;# 
   547  0099                     # 2089 "C:\Program Files (x86)\Microchip\xc8\v2.00\pic\include\pic16f877a.h"
   548                           CMCON equ 09Ch ;# 
   549  009C                     # 2159 "C:\Program Files (x86)\Microchip\xc8\v2.00\pic\include\pic16f877a.h"
   550                           CVRCON equ 09Dh ;# 
   551  009D                     # 2224 "C:\Program Files (x86)\Microchip\xc8\v2.00\pic\include\pic16f877a.h"
   552                           ADRESL equ 09Eh ;# 
   553  009E                     # 2231 "C:\Program Files (x86)\Microchip\xc8\v2.00\pic\include\pic16f877a.h"
   554                           ADCON1 equ 09Fh ;# 
   555  009F                     # 2290 "C:\Program Files (x86)\Microchip\xc8\v2.00\pic\include\pic16f877a.h"
   556                           EEDATA equ 010Ch ;# 
   557  010C                     # 2297 "C:\Program Files (x86)\Microchip\xc8\v2.00\pic\include\pic16f877a.h"
   558                           EEADR equ 010Dh ;# 
   559  010D                     # 2304 "C:\Program Files (x86)\Microchip\xc8\v2.00\pic\include\pic16f877a.h"
   560                           EEDATH equ 010Eh ;# 
   561  010E                     # 2311 "C:\Program Files (x86)\Microchip\xc8\v2.00\pic\include\pic16f877a.h"
   562                           EEADRH equ 010Fh ;# 
   563  010F                     # 2318 "C:\Program Files (x86)\Microchip\xc8\v2.00\pic\include\pic16f877a.h"
   564                           EECON1 equ 018Ch ;# 
   565  018C                     # 2363 "C:\Program Files (x86)\Microchip\xc8\v2.00\pic\include\pic16f877a.h"
   566                           EECON2 equ 018Dh ;# 
   567  018D                     # 54 "C:\Program Files (x86)\Microchip\xc8\v2.00\pic\include\pic16f877a.h"
   568                           INDF equ 00h ;# 
   569  0000                     # 61 "C:\Program Files (x86)\Microchip\xc8\v2.00\pic\include\pic16f877a.h"
   570                           TMR0 equ 01h ;# 
   571  0001                     # 68 "C:\Program Files (x86)\Microchip\xc8\v2.00\pic\include\pic16f877a.h"
   572                           PCL equ 02h ;# 
   573  0002                     # 75 "C:\Program Files (x86)\Microchip\xc8\v2.00\pic\include\pic16f877a.h"
   574                           STATUS equ 03h ;# 
   575  0003                     # 161 "C:\Program Files (x86)\Microchip\xc8\v2.00\pic\include\pic16f877a.h"
   576                           FSR equ 04h ;# 
   577  0004                     # 168 "C:\Program Files (x86)\Microchip\xc8\v2.00\pic\include\pic16f877a.h"
   578                           PORTA equ 05h ;# 
   579  0005                     # 218 "C:\Program Files (x86)\Microchip\xc8\v2.00\pic\include\pic16f877a.h"
   580                           PORTB equ 06h ;# 
   581  0006                     # 280 "C:\Program Files (x86)\Microchip\xc8\v2.00\pic\include\pic16f877a.h"
   582                           PORTC equ 07h ;# 
   583  0007                     # 342 "C:\Program Files (x86)\Microchip\xc8\v2.00\pic\include\pic16f877a.h"
   584                           PORTD equ 08h ;# 
   585  0008                     # 404 "C:\Program Files (x86)\Microchip\xc8\v2.00\pic\include\pic16f877a.h"
   586                           PORTE equ 09h ;# 
   587  0009                     # 436 "C:\Program Files (x86)\Microchip\xc8\v2.00\pic\include\pic16f877a.h"
   588                           PCLATH equ 0Ah ;# 
   589  000A                     # 456 "C:\Program Files (x86)\Microchip\xc8\v2.00\pic\include\pic16f877a.h"
   590                           INTCON equ 0Bh ;# 
   591  000B                     # 534 "C:\Program Files (x86)\Microchip\xc8\v2.00\pic\include\pic16f877a.h"
   592                           PIR1 equ 0Ch ;# 
   593  000C                     # 596 "C:\Program Files (x86)\Microchip\xc8\v2.00\pic\include\pic16f877a.h"
   594                           PIR2 equ 0Dh ;# 
   595  000D                     # 636 "C:\Program Files (x86)\Microchip\xc8\v2.00\pic\include\pic16f877a.h"
   596                           TMR1 equ 0Eh ;# 
   597  000E                     # 643 "C:\Program Files (x86)\Microchip\xc8\v2.00\pic\include\pic16f877a.h"
   598                           TMR1L equ 0Eh ;# 
   599  000E                     # 650 "C:\Program Files (x86)\Microchip\xc8\v2.00\pic\include\pic16f877a.h"
   600                           TMR1H equ 0Fh ;# 
   601  000F                     # 657 "C:\Program Files (x86)\Microchip\xc8\v2.00\pic\include\pic16f877a.h"
   602                           T1CON equ 010h ;# 
   603  0010                     # 732 "C:\Program Files (x86)\Microchip\xc8\v2.00\pic\include\pic16f877a.h"
   604                           TMR2 equ 011h ;# 
   605  0011                     # 739 "C:\Program Files (x86)\Microchip\xc8\v2.00\pic\include\pic16f877a.h"
   606                           T2CON equ 012h ;# 
   607  0012                     # 810 "C:\Program Files (x86)\Microchip\xc8\v2.00\pic\include\pic16f877a.h"
   608                           SSPBUF equ 013h ;# 
   609  0013                     # 817 "C:\Program Files (x86)\Microchip\xc8\v2.00\pic\include\pic16f877a.h"
   610                           SSPCON equ 014h ;# 
   611  0014                     # 887 "C:\Program Files (x86)\Microchip\xc8\v2.00\pic\include\pic16f877a.h"
   612                           CCPR1 equ 015h ;# 
   613  0015                     # 894 "C:\Program Files (x86)\Microchip\xc8\v2.00\pic\include\pic16f877a.h"
   614                           CCPR1L equ 015h ;# 
   615  0015                     # 901 "C:\Program Files (x86)\Microchip\xc8\v2.00\pic\include\pic16f877a.h"
   616                           CCPR1H equ 016h ;# 
   617  0016                     # 908 "C:\Program Files (x86)\Microchip\xc8\v2.00\pic\include\pic16f877a.h"
   618                           CCP1CON equ 017h ;# 
   619  0017                     # 966 "C:\Program Files (x86)\Microchip\xc8\v2.00\pic\include\pic16f877a.h"
   620                           RCSTA equ 018h ;# 
   621  0018                     # 1061 "C:\Program Files (x86)\Microchip\xc8\v2.00\pic\include\pic16f877a.h"
   622                           TXREG equ 019h ;# 
   623  0019                     # 1068 "C:\Program Files (x86)\Microchip\xc8\v2.00\pic\include\pic16f877a.h"
   624                           RCREG equ 01Ah ;# 
   625  001A                     # 1075 "C:\Program Files (x86)\Microchip\xc8\v2.00\pic\include\pic16f877a.h"
   626                           CCPR2 equ 01Bh ;# 
   627  001B                     # 1082 "C:\Program Files (x86)\Microchip\xc8\v2.00\pic\include\pic16f877a.h"
   628                           CCPR2L equ 01Bh ;# 
   629  001B                     # 1089 "C:\Program Files (x86)\Microchip\xc8\v2.00\pic\include\pic16f877a.h"
   630                           CCPR2H equ 01Ch ;# 
   631  001C                     # 1096 "C:\Program Files (x86)\Microchip\xc8\v2.00\pic\include\pic16f877a.h"
   632                           CCP2CON equ 01Dh ;# 
   633  001D                     # 1154 "C:\Program Files (x86)\Microchip\xc8\v2.00\pic\include\pic16f877a.h"
   634                           ADRESH equ 01Eh ;# 
   635  001E                     # 1161 "C:\Program Files (x86)\Microchip\xc8\v2.00\pic\include\pic16f877a.h"
   636                           ADCON0 equ 01Fh ;# 
   637  001F                     # 1257 "C:\Program Files (x86)\Microchip\xc8\v2.00\pic\include\pic16f877a.h"
   638                           OPTION_REG equ 081h ;# 
   639  0081                     # 1327 "C:\Program Files (x86)\Microchip\xc8\v2.00\pic\include\pic16f877a.h"
   640                           TRISA equ 085h ;# 
   641  0085                     # 1377 "C:\Program Files (x86)\Microchip\xc8\v2.00\pic\include\pic16f877a.h"
   642                           TRISB equ 086h ;# 
   643  0086                     # 1439 "C:\Program Files (x86)\Microchip\xc8\v2.00\pic\include\pic16f877a.h"
   644                           TRISC equ 087h ;# 
   645  0087                     # 1501 "C:\Program Files (x86)\Microchip\xc8\v2.00\pic\include\pic16f877a.h"
   646                           TRISD equ 088h ;# 
   647  0088                     # 1563 "C:\Program Files (x86)\Microchip\xc8\v2.00\pic\include\pic16f877a.h"
   648                           TRISE equ 089h ;# 
   649  0089                     # 1620 "C:\Program Files (x86)\Microchip\xc8\v2.00\pic\include\pic16f877a.h"
   650                           PIE1 equ 08Ch ;# 
   651  008C                     # 1682 "C:\Program Files (x86)\Microchip\xc8\v2.00\pic\include\pic16f877a.h"
   652                           PIE2 equ 08Dh ;# 
   653  008D                     # 1722 "C:\Program Files (x86)\Microchip\xc8\v2.00\pic\include\pic16f877a.h"
   654                           PCON equ 08Eh ;# 
   655  008E                     # 1756 "C:\Program Files (x86)\Microchip\xc8\v2.00\pic\include\pic16f877a.h"
   656                           SSPCON2 equ 091h ;# 
   657  0091                     # 1818 "C:\Program Files (x86)\Microchip\xc8\v2.00\pic\include\pic16f877a.h"
   658                           PR2 equ 092h ;# 
   659  0092                     # 1825 "C:\Program Files (x86)\Microchip\xc8\v2.00\pic\include\pic16f877a.h"
   660                           SSPADD equ 093h ;# 
   661  0093                     # 1832 "C:\Program Files (x86)\Microchip\xc8\v2.00\pic\include\pic16f877a.h"
   662                           SSPSTAT equ 094h ;# 
   663  0094                     # 2001 "C:\Program Files (x86)\Microchip\xc8\v2.00\pic\include\pic16f877a.h"
   664                           TXSTA equ 098h ;# 
   665  0098                     # 2082 "C:\Program Files (x86)\Microchip\xc8\v2.00\pic\include\pic16f877a.h"
   666                           SPBRG equ 099h ;# 
   667  0099                     # 2089 "C:\Program Files (x86)\Microchip\xc8\v2.00\pic\include\pic16f877a.h"
   668                           CMCON equ 09Ch ;# 
   669  009C                     # 2159 "C:\Program Files (x86)\Microchip\xc8\v2.00\pic\include\pic16f877a.h"
   670                           CVRCON equ 09Dh ;# 
   671  009D                     # 2224 "C:\Program Files (x86)\Microchip\xc8\v2.00\pic\include\pic16f877a.h"
   672                           ADRESL equ 09Eh ;# 
   673  009E                     # 2231 "C:\Program Files (x86)\Microchip\xc8\v2.00\pic\include\pic16f877a.h"
   674                           ADCON1 equ 09Fh ;# 
   675  009F                     # 2290 "C:\Program Files (x86)\Microchip\xc8\v2.00\pic\include\pic16f877a.h"
   676                           EEDATA equ 010Ch ;# 
   677  010C                     # 2297 "C:\Program Files (x86)\Microchip\xc8\v2.00\pic\include\pic16f877a.h"
   678                           EEADR equ 010Dh ;# 
   679  010D                     # 2304 "C:\Program Files (x86)\Microchip\xc8\v2.00\pic\include\pic16f877a.h"
   680                           EEDATH equ 010Eh ;# 
   681  010E                     # 2311 "C:\Program Files (x86)\Microchip\xc8\v2.00\pic\include\pic16f877a.h"
   682                           EEADRH equ 010Fh ;# 
   683  010F                     # 2318 "C:\Program Files (x86)\Microchip\xc8\v2.00\pic\include\pic16f877a.h"
   684                           EECON1 equ 018Ch ;# 
   685  018C                     # 2363 "C:\Program Files (x86)\Microchip\xc8\v2.00\pic\include\pic16f877a.h"
   686                           EECON2 equ 018Dh ;# 
   687  018D                     	FNCALL	_main,_Initialization
   688                           	FNCALL	_main,_loop
   689                           	FNCALL	_main,_setup
   690                           	FNCALL	_setup,_SetSampleTime
   691                           	FNCALL	_setup,_lcdBegin
   692                           	FNCALL	_setup,_lcdPrint
   693                           	FNCALL	_setup,_lcdSetCursor
   694                           	FNCALL	_lcdBegin,_WriteInstruction
   695                           	FNCALL	_lcdBegin,_delay
   696                           	FNCALL	_lcdBegin,_pinMode
   697                           	FNCALL	_SetSampleTime,___flmul
   698                           	FNCALL	_SetSampleTime,___xxtofl
   699                           	FNCALL	_loop,_AccionControl
   700                           	FNCALL	_loop,_EventCounter
   701                           	FNCALL	_loop,_lcdPrint
   702                           	FNCALL	_loop,_lcdSetCursor
   703                           	FNCALL	_loop,_map
   704                           	FNCALL	_loop,_sprintf
   705                           	FNCALL	_sprintf,___lwdiv
   706                           	FNCALL	_sprintf,___lwmod
   707                           	FNCALL	_map,___fladd
   708                           	FNCALL	_map,___fldiv
   709                           	FNCALL	_map,___flmul
   710                           	FNCALL	_map,___flneg
   711                           	FNCALL	_lcdSetCursor,_WriteInstruction
   712                           	FNCALL	_WriteInstruction,_ByteByNibble
   713                           	FNCALL	_WriteInstruction,_delay
   714                           	FNCALL	_WriteInstruction,_digitalWrite
   715                           	FNCALL	_lcdPrint,_lcdWrite
   716                           	FNCALL	_lcdWrite,_WriteData
   717                           	FNCALL	_lcdWrite,_delay
   718                           	FNCALL	_WriteData,_ByteByNibble
   719                           	FNCALL	_WriteData,_delay
   720                           	FNCALL	_WriteData,_digitalWrite
   721                           	FNCALL	_ByteByNibble,_digitalWrite
   722                           	FNCALL	_AccionControl,___fladd
   723                           	FNCALL	_AccionControl,___fldiv
   724                           	FNCALL	_AccionControl,___flmul
   725                           	FNCALL	_AccionControl,___flneg
   726                           	FNCALL	___flmul,__Umul8_16
   727                           	FNCALL	_Initialization,_PWMConfiguration
   728                           	FNROOT	_main
   729                           	global	_dpowers
   730                           psect	strings,class=STRING,delta=2,noexec
   731                           global __pstrings
   732                           __pstrings:
   733  1000                     stringtab:
   734  1000                     	global    __stringtab
   735                           __stringtab:
   736  1000                     ;	String table - string pointers are 1 byte each
   737                           	btfsc	(btemp+1),7
   738  1000  1BFF               	ljmp	stringcode
   739  1001  280A               	bcf	status,7
   740  1002  1383               	btfsc	(btemp+1),0
   741  1003  187F               	bsf	status,7
   742  1004  1783               	movf	indf,w
   743  1005  0800               	incf fsr
   744  1006  0A84               skipnz
   745  1007  1903               incf btemp+1
   746  1008  0AFF               	return
   747  1009  0008               stringcode:stringdir:
   748  100A                     movlw high(stringdir)
      + 100A                     stringdir:	
   749  100A  3010               movwf pclath
   750  100B  008A               movf fsr,w
   751  100C  0804               incf fsr
   752  100D  0A84               	addwf pc
   753  100E  0782               	global __stringbase
   754                           __stringbase:
   755  100F                     	retlw	0
   756  100F  3400               psect	strings
   757                           	global    __end_of__stringtab
   758                           __end_of__stringtab:
   759  1010                     	file	"C:\Program Files (x86)\Microchip\xc8\v2.00\pic\sources\c90\common\doprnt.c"
   760                           	line	358
   761                           _dpowers:
   762  1010                     	retlw	01h
   763  1010  3401               	retlw	0
   764  1011  3400               
   765                           	retlw	0Ah
   766  1012  340A               	retlw	0
   767  1013  3400               
   768                           	retlw	064h
   769  1014  3464               	retlw	0
   770  1015  3400               
   771                           	retlw	0E8h
   772  1016  34E8               	retlw	03h
   773  1017  3403               
   774                           	retlw	010h
   775  1018  3410               	retlw	027h
   776  1019  3427               
   777                           	global __end_of_dpowers
   778                           __end_of_dpowers:
   779  101A                     	global	_D7
   780                           psect	strings
   781                           	file	"application.c"
   782                           	line	12
   783                           _D7:
   784  101A                     	retlw	013h
   785  101A  3413               	global __end_of_D7
   786                           __end_of_D7:
   787  101B                     	global	_D6
   788                           psect	strings
   789                           	file	"application.c"
   790                           	line	11
   791                           _D6:
   792  101B                     	retlw	012h
   793  101B  3412               	global __end_of_D6
   794                           __end_of_D6:
   795  101C                     	global	_D5
   796                           psect	strings
   797                           	file	"application.c"
   798                           	line	10
   799                           _D5:
   800  101C                     	retlw	011h
   801  101C  3411               	global __end_of_D5
   802                           __end_of_D5:
   803  101D                     	global	_D4
   804                           psect	strings
   805                           	file	"application.c"
   806                           	line	9
   807                           _D4:
   808  101D                     	retlw	010h
   809  101D  3410               	global __end_of_D4
   810                           __end_of_D4:
   811  101E                     	global	_RnW
   812                           psect	strings
   813                           	file	"application.c"
   814                           	line	8
   815                           _RnW:
   816  101E                     	retlw	019h
   817  101E  3419               	global __end_of_RnW
   818                           __end_of_RnW:
   819  101F                     	global	_EN
   820                           psect	strings
   821                           	file	"application.c"
   822                           	line	7
   823                           _EN:
   824  101F                     	retlw	015h
   825  101F  3415               	global __end_of_EN
   826                           __end_of_EN:
   827  1020                     	global	_RS
   828                           psect	strings
   829                           	file	"application.c"
   830                           	line	6
   831                           _RS:
   832  1020                     	retlw	014h
   833  1020  3414               	global __end_of_RS
   834                           __end_of_RS:
   835  1021                     	global	_dpowers
   836                           	global	_D7
   837                           	global	_D6
   838                           	global	_D5
   839                           	global	_D4
   840                           	global	_RnW
   841                           	global	_EN
   842                           	global	_RS
   843                           	global	_Control
   844                           	global	_dt
   845                           	global	_Last
   846                           	global	_Now
   847                           	global	_dTime
   848                           	global	_ScreenROW
   849                           	global	_PID
   850                           	global	_d7Pin
   851                           psect	nvBANK1,class=BANK1,space=1,noexec
   852                           global __pnvBANK1
   853                           __pnvBANK1:
   854  00DE                     _d7Pin:
   855  00DE                            ds      1
   856  00DE                     
   857                           	global	_d6Pin
   858                           _d6Pin:
   859  00DF                            ds      1
   860  00DF                     
   861                           	global	_d5Pin
   862                           _d5Pin:
   863  00E0                            ds      1
   864  00E0                     
   865                           	global	_d4Pin
   866                           _d4Pin:
   867  00E1                            ds      1
   868  00E1                     
   869                           	global	_RWPin
   870                           _RWPin:
   871  00E2                            ds      1
   872  00E2                     
   873                           	global	_ENPin
   874                           _ENPin:
   875  00E3                            ds      1
   876  00E3                     
   877                           	global	_RSPin
   878                           _RSPin:
   879  00E4                            ds      1
   880  00E4                     
   881                           	global	_TMR0
   882                           _TMR0	set	0x1
   883  0001                     	global	_RCREG
   884                           _RCREG	set	0x1A
   885  001A                     	global	_TXREG
   886                           _TXREG	set	0x19
   887  0019                     	global	_PORTEbits
   888                           _PORTEbits	set	0x9
   889  0009                     	global	_ADRESH
   890                           _ADRESH	set	0x1E
   891  001E                     	global	_ADCON0bits
   892                           _ADCON0bits	set	0x1F
   893  001F                     	global	_PORTAbits
   894                           _PORTAbits	set	0x5
   895  0005                     	global	_PORTDbits
   896                           _PORTDbits	set	0x8
   897  0008                     	global	_PORTBbits
   898                           _PORTBbits	set	0x6
   899  0006                     	global	_PORTCbits
   900                           _PORTCbits	set	0x7
   901  0007                     	global	_CCP2CON
   902                           _CCP2CON	set	0x1D
   903  001D                     	global	_CCP1CON
   904                           _CCP1CON	set	0x17
   905  0017                     	global	_CCPR1L
   906                           _CCPR1L	set	0x15
   907  0015                     	global	_CCPR2L
   908                           _CCPR2L	set	0x1B
   909  001B                     	global	_T2CON
   910                           _T2CON	set	0x12
   911  0012                     	global	_PORTE
   912                           _PORTE	set	0x9
   913  0009                     	global	_PORTC
   914                           _PORTC	set	0x7
   915  0007                     	global	_PORTB
   916                           _PORTB	set	0x6
   917  0006                     	global	_ADCON0
   918                           _ADCON0	set	0x1F
   919  001F                     	global	_TMR0IF
   920                           _TMR0IF	set	0x5A
   921  005A                     	global	_RCIF
   922                           _RCIF	set	0x65
   923  0065                     	global	_TXIF
   924                           _TXIF	set	0x64
   925  0064                     	global	_OERR
   926                           _OERR	set	0xC1
   927  00C1                     	global	_FERR
   928                           _FERR	set	0xC2
   929  00C2                     	global	_CREN
   930                           _CREN	set	0xC4
   931  00C4                     	global	_SPEN
   932                           _SPEN	set	0xC7
   933  00C7                     	global	_CCP1Y
   934                           _CCP1Y	set	0xBC
   935  00BC                     	global	_CCP1X
   936                           _CCP1X	set	0xBD
   937  00BD                     	global	_CCP2Y
   938                           _CCP2Y	set	0xEC
   939  00EC                     	global	_CCP2X
   940                           _CCP2X	set	0xED
   941  00ED                     	global	_OPTION_REG
   942                           _OPTION_REG	set	0x81
   943  0081                     	global	_SPBRG
   944                           _SPBRG	set	0x99
   945  0099                     	global	_ADRESL
   946                           _ADRESL	set	0x9E
   947  009E                     	global	_TRISAbits
   948                           _TRISAbits	set	0x85
   949  0085                     	global	_TRISDbits
   950                           _TRISDbits	set	0x88
   951  0088                     	global	_TRISBbits
   952                           _TRISBbits	set	0x86
   953  0086                     	global	_TRISCbits
   954                           _TRISCbits	set	0x87
   955  0087                     	global	_PR2
   956                           _PR2	set	0x92
   957  0092                     	global	_TRISE
   958                           _TRISE	set	0x89
   959  0089                     	global	_TRISC
   960                           _TRISC	set	0x87
   961  0087                     	global	_TRISB
   962                           _TRISB	set	0x86
   963  0086                     	global	_ADCON1
   964                           _ADCON1	set	0x9F
   965  009F                     	global	_TRMT
   966                           _TRMT	set	0x4C1
   967  04C1                     	global	_TXEN
   968                           _TXEN	set	0x4C5
   969  04C5                     	global	_TRISC6
   970                           _TRISC6	set	0x43E
   971  043E                     	global	_TRISC7
   972                           _TRISC7	set	0x43F
   973  043F                     	global	_SYNC
   974                           _SYNC	set	0x4C4
   975  04C4                     	global	_BRGH
   976                           _BRGH	set	0x4C2
   977  04C2                     psect	strings
   978                           	
   979                           STR_3:	
   980  1021                     	retlw	32	;' '
   981  1021  3420               	retlw	32	;' '
   982  1022  3420               	retlw	32	;' '
   983  1023  3420               	retlw	32	;' '
   984  1024  3420               	retlw	32	;' '
   985  1025  3420               	retlw	32	;' '
   986  1026  3420               	retlw	32	;' '
   987  1027  3420               	retlw	32	;' '
   988  1028  3420               	retlw	32	;' '
   989  1029  3420               	retlw	32	;' '
   990  102A  3420               	retlw	32	;' '
   991  102B  3420               	retlw	32	;' '
   992  102C  3420               	retlw	32	;' '
   993  102D  3420               	retlw	32	;' '
   994  102E  3420               	retlw	32	;' '
   995  102F  3420               	retlw	32	;' '
   996  1030  3420               	retlw	0
   997  1031  3400               psect	strings
   998                           	
   999                           STR_1:	
  1000  1032                     	retlw	80	;'P'
  1001  1032  3450               	retlw	73	;'I'
  1002  1033  3449               	retlw	68	;'D'
  1003  1034  3444               	retlw	32	;' '
  1004  1035  3420               	retlw	67	;'C'
  1005  1036  3443               	retlw	111	;'o'
  1006  1037  346F               	retlw	110	;'n'
  1007  1038  346E               	retlw	116	;'t'
  1008  1039  3474               	retlw	114	;'r'
  1009  103A  3472               	retlw	111	;'o'
  1010  103B  346F               	retlw	108	;'l'
  1011  103C  346C               	retlw	32	;' '
  1012  103D  3420               	retlw	84	;'T'
  1013  103E  3454               	retlw	101	;'e'
  1014  103F  3465               	retlw	115	;'s'
  1015  1040  3473               	retlw	116	;'t'
  1016  1041  3474               	retlw	0
  1017  1042  3400               psect	strings
  1018                           	
  1019                           STR_4:	
  1020  1043                     	retlw	84	;'T'
  1021  1043  3454               	retlw	105	;'i'
  1022  1044  3469               	retlw	109	;'m'
  1023  1045  346D               	retlw	101	;'e'
  1024  1046  3465               	retlw	61	;'='
  1025  1047  343D               	retlw	37	;'%'
  1026  1048  3425               	retlw	117	;'u'
  1027  1049  3475               	retlw	32	;' '
  1028  104A  3420               	retlw	0
  1029  104B  3400               psect	strings
  1030                           	
  1031                           STR_2:	
  1032  104C                     	retlw	78	;'N'
  1033  104C  344E               	retlw	79	;'O'
  1034  104D  344F               	retlw	87	;'W'
  1035  104E  3457               	retlw	61	;'='
  1036  104F  343D               	retlw	37	;'%'
  1037  1050  3425               	retlw	117	;'u'
  1038  1051  3475               	retlw	0
  1039  1052  3400               psect	strings
  1040                           ; #config settings
  1041                           global __CFG_FOSC$HS
  1042                           __CFG_FOSC$HS equ 0x0
  1043  0000                     global __CFG_WDTE$OFF
  1044                           __CFG_WDTE$OFF equ 0x0
  1045  0000                     global __CFG_PWRTE$OFF
  1046                           __CFG_PWRTE$OFF equ 0x0
  1047  0000                     global __CFG_BOREN$OFF
  1048                           __CFG_BOREN$OFF equ 0x0
  1049  0000                     global __CFG_LVP$ON
  1050                           __CFG_LVP$ON equ 0x0
  1051  0000                     global __CFG_CPD$OFF
  1052                           __CFG_CPD$OFF equ 0x0
  1053  0000                     global __CFG_WRT$OFF
  1054                           __CFG_WRT$OFF equ 0x0
  1055  0000                     global __CFG_CP$OFF
  1056                           __CFG_CP$OFF equ 0x0
  1057  0000                     	file	"C:\Users\c4810\AppData\Local\Temp\sfh4."
  1058                           	line	#
  1059                           psect cinit,class=CODE,delta=2
  1060                           global start_initialization
  1061                           start_initialization:
  1062  07EA                     
  1063                           global __initialization
  1064                           __initialization:
  1065  07EA                     psect	bssBANK1,class=BANK1,space=1,noexec
  1066                           global __pbssBANK1
  1067                           __pbssBANK1:
  1068  00C2                     _Control:
  1069  00C2                            ds      4
  1070  00C2                     
  1071                           _dt:
  1072  00C6                            ds      2
  1073  00C6                     
  1074                           _Last:
  1075  00C8                            ds      2
  1076  00C8                     
  1077                           _Now:
  1078  00CA                            ds      2
  1079  00CA                     
  1080                           _dTime:
  1081  00CC                            ds      2
  1082  00CC                     
  1083                           _ScreenROW:
  1084  00CE                            ds      16
  1085  00CE                     
  1086                           psect	bssBANK3,class=BANK3,space=1,noexec
  1087                           global __pbssBANK3
  1088                           __pbssBANK3:
  1089  0190                     _PID:
  1090  0190                            ds      51
  1091  0190                     
  1092                           	file	"C:\Users\c4810\AppData\Local\Temp\sfh4."
  1093                           	line	#
  1094                           psect clrtext,class=CODE,delta=2
  1095                           global clear_ram0
  1096                           ;	Called with FSR containing the base address, and
  1097                           ;	W with the last address+1
  1098                           clear_ram0:
  1099  0003                     	clrwdt			;clear the watchdog before getting into this loop
  1100  0003  0064               clrloop0:
  1101  0004                     	clrf	indf		;clear RAM location pointed to by FSR
  1102  0004  0180               	incf	fsr,f		;increment pointer
  1103  0005  0A84               	xorwf	fsr,w		;XOR with final address
  1104  0006  0604               	btfsc	status,2	;have we reached the end yet?
  1105  0007  1903               	retlw	0		;all done for this memory range, return
  1106  0008  3400               	xorwf	fsr,w		;XOR again to restore value
  1107  0009  0604               	goto	clrloop0		;do the next byte
  1108  000A  2804               
  1109                           ; Clear objects allocated to BANK1
  1110                           psect cinit,class=CODE,delta=2,merge=1
  1111                           	bcf	status, 7	;select IRP bank0
  1112  07EA  1383               	movlw	low(__pbssBANK1)
  1113  07EB  30C2               	movwf	fsr
  1114  07EC  0084               	movlw	low((__pbssBANK1)+01Ch)
  1115  07ED  30DE               	fcall	clear_ram0
  1116  07EE  120A  118A  2003  120A  118A  ; Clear objects allocated to BANK3
  1117                           psect cinit,class=CODE,delta=2,merge=1
  1118                           	bsf	status, 7	;select IRP bank2
  1119  07F3  1783               	movlw	low(__pbssBANK3)
  1120  07F4  3090               	movwf	fsr
  1121  07F5  0084               	movlw	low((__pbssBANK3)+033h)
  1122  07F6  30C3               	fcall	clear_ram0
  1123  07F7  120A  118A  2003  120A  118A  psect cinit,class=CODE,delta=2,merge=1
  1124                           global end_of_initialization,__end_of__initialization
  1125                           
  1126                           ;End of C runtime variable initialization code
  1127                           
  1128                           end_of_initialization:
  1129  07FC                     __end_of__initialization:
  1130  07FC                     clrf status
  1131  07FC  0183               ljmp _main	;jump to C main() function
  1132  07FD  160A  118A  2854   psect	cstackBANK1,class=BANK1,space=1,noexec
  1133                           global __pcstackBANK1
  1134                           __pcstackBANK1:
  1135  00A0                     	global	?_map
  1136                           ?_map:	; 4 bytes @ 0x0
  1137  00A0                     	global	?_AccionControl
  1138                           ?_AccionControl:	; 4 bytes @ 0x0
  1139  00A0                     	global	map@data
  1140                           map@data:	; 4 bytes @ 0x0
  1141  00A0                     	global	AccionControl@SetPoint
  1142                           AccionControl@SetPoint:	; 4 bytes @ 0x0
  1143  00A0                     	ds	4
  1144  00A0                     	global	map@X2
  1145                           map@X2:	; 4 bytes @ 0x4
  1146  00A4                     	global	AccionControl@Feedback
  1147                           AccionControl@Feedback:	; 4 bytes @ 0x4
  1148  00A4                     	ds	4
  1149  00A4                     	global	map@X1
  1150                           map@X1:	; 4 bytes @ 0x8
  1151  00A8                     	global	_AccionControl$1285
  1152                           _AccionControl$1285:	; 4 bytes @ 0x8
  1153  00A8                     	ds	4
  1154  00A8                     	global	map@Y2
  1155                           map@Y2:	; 4 bytes @ 0xC
  1156  00AC                     	ds	4
  1157  00AC                     	global	map@Y1
  1158                           map@Y1:	; 4 bytes @ 0x10
  1159  00B0                     	ds	4
  1160  00B0                     	global	_map$1284
  1161                           _map$1284:	; 4 bytes @ 0x14
  1162  00B4                     	ds	4
  1163  00B4                     	global	map@m
  1164                           map@m:	; 4 bytes @ 0x18
  1165  00B8                     	ds	4
  1166  00B8                     ??_loop:	; 1 bytes @ 0x1C
  1167  00BC                     	ds	2
  1168  00BC                     	global	loop@Voltage
  1169                           loop@Voltage:	; 4 bytes @ 0x1E
  1170  00BE                     	ds	4
  1171  00BE                     psect	cstackCOMMON,class=COMMON,space=1,noexec
  1172                           global __pcstackCOMMON
  1173                           __pcstackCOMMON:
  1174  0070                     ?_SetSampleTime:	; 1 bytes @ 0x0
  1175  0070                     ?_Initialization:	; 1 bytes @ 0x0
  1176  0070                     ??_Initialization:	; 1 bytes @ 0x0
  1177  0070                     ?_PWMConfiguration:	; 1 bytes @ 0x0
  1178  0070                     ??_PWMConfiguration:	; 1 bytes @ 0x0
  1179  0070                     ?_delay:	; 1 bytes @ 0x0
  1180  0070                     ?_WriteInstruction:	; 1 bytes @ 0x0
  1181  0070                     ?_WriteData:	; 1 bytes @ 0x0
  1182  0070                     ?_ByteByNibble:	; 1 bytes @ 0x0
  1183  0070                     ?_setup:	; 1 bytes @ 0x0
  1184  0070                     ?_loop:	; 1 bytes @ 0x0
  1185  0070                     ?_pinMode:	; 1 bytes @ 0x0
  1186  0070                     ?_digitalWrite:	; 1 bytes @ 0x0
  1187  0070                     ?_lcdWrite:	; 1 bytes @ 0x0
  1188  0070                     	global	?_EventCounter
  1189                           ?_EventCounter:	; 2 bytes @ 0x0
  1190  0070                     	global	?__Umul8_16
  1191                           ?__Umul8_16:	; 2 bytes @ 0x0
  1192  0070                     ?_main:	; 2 bytes @ 0x0
  1193  0070                     	global	?___lwdiv
  1194                           ?___lwdiv:	; 2 bytes @ 0x0
  1195  0070                     	global	?___xxtofl
  1196                           ?___xxtofl:	; 4 bytes @ 0x0
  1197  0070                     	global	pinMode@mode
  1198                           pinMode@mode:	; 1 bytes @ 0x0
  1199  0070                     	global	digitalWrite@value
  1200                           digitalWrite@value:	; 1 bytes @ 0x0
  1201  0070                     	global	__Umul8_16@multiplicand
  1202                           __Umul8_16@multiplicand:	; 1 bytes @ 0x0
  1203  0070                     	global	delay@milis
  1204                           delay@milis:	; 2 bytes @ 0x0
  1205  0070                     	global	___lwdiv@divisor
  1206                           ___lwdiv@divisor:	; 2 bytes @ 0x0
  1207  0070                     	global	___xxtofl@val
  1208                           ___xxtofl@val:	; 4 bytes @ 0x0
  1209  0070                     	ds	1
  1210  0070                     ??_pinMode:	; 1 bytes @ 0x1
  1211  0071                     ??_digitalWrite:	; 1 bytes @ 0x1
  1212  0071                     	ds	1
  1213  0071                     ??_EventCounter:	; 1 bytes @ 0x2
  1214  0072                     ??_delay:	; 1 bytes @ 0x2
  1215  0072                     ??__Umul8_16:	; 1 bytes @ 0x2
  1216  0072                     	global	___lwdiv@dividend
  1217                           ___lwdiv@dividend:	; 2 bytes @ 0x2
  1218  0072                     	ds	1
  1219  0072                     	global	pinMode@pin
  1220                           pinMode@pin:	; 1 bytes @ 0x3
  1221  0073                     	global	digitalWrite@pin
  1222                           digitalWrite@pin:	; 1 bytes @ 0x3
  1223  0073                     	global	delay@j
  1224                           delay@j:	; 2 bytes @ 0x3
  1225  0073                     	ds	1
  1226  0073                     ??_ByteByNibble:	; 1 bytes @ 0x4
  1227  0074                     ??___lwdiv:	; 1 bytes @ 0x4
  1228  0074                     ??___xxtofl:	; 1 bytes @ 0x4
  1229  0074                     	global	__Umul8_16@product
  1230                           __Umul8_16@product:	; 2 bytes @ 0x4
  1231  0074                     	ds	1
  1232  0074                     	global	delay@i
  1233                           delay@i:	; 2 bytes @ 0x5
  1234  0075                     	global	___lwdiv@quotient
  1235                           ___lwdiv@quotient:	; 2 bytes @ 0x5
  1236  0075                     	ds	1
  1237  0075                     	global	ByteByNibble@NibbleValue
  1238                           ByteByNibble@NibbleValue:	; 1 bytes @ 0x6
  1239  0076                     	global	__Umul8_16@word_mpld
  1240                           __Umul8_16@word_mpld:	; 2 bytes @ 0x6
  1241  0076                     	ds	1
  1242  0076                     ??_WriteInstruction:	; 1 bytes @ 0x7
  1243  0077                     ??_WriteData:	; 1 bytes @ 0x7
  1244  0077                     	global	___lwdiv@counter
  1245                           ___lwdiv@counter:	; 1 bytes @ 0x7
  1246  0077                     	ds	1
  1247  0077                     	global	?___lwmod
  1248                           ?___lwmod:	; 2 bytes @ 0x8
  1249  0078                     	global	___xxtofl@sign
  1250                           ___xxtofl@sign:	; 1 bytes @ 0x8
  1251  0078                     	global	__Umul8_16@multiplier
  1252                           __Umul8_16@multiplier:	; 1 bytes @ 0x8
  1253  0078                     	global	___lwmod@divisor
  1254                           ___lwmod@divisor:	; 2 bytes @ 0x8
  1255  0078                     	ds	1
  1256  0078                     	global	WriteInstruction@LSNibble
  1257                           WriteInstruction@LSNibble:	; 1 bytes @ 0x9
  1258  0079                     	global	WriteData@LSNibble
  1259                           WriteData@LSNibble:	; 1 bytes @ 0x9
  1260  0079                     	global	___xxtofl@exp
  1261                           ___xxtofl@exp:	; 1 bytes @ 0x9
  1262  0079                     	ds	1
  1263  0079                     	global	WriteInstruction@instruction
  1264                           WriteInstruction@instruction:	; 1 bytes @ 0xA
  1265  007A                     	global	WriteData@data
  1266                           WriteData@data:	; 1 bytes @ 0xA
  1267  007A                     	global	___lwmod@dividend
  1268                           ___lwmod@dividend:	; 2 bytes @ 0xA
  1269  007A                     	global	___xxtofl@arg
  1270                           ___xxtofl@arg:	; 4 bytes @ 0xA
  1271  007A                     	ds	1
  1272  007A                     	global	WriteInstruction@MSNibble
  1273                           WriteInstruction@MSNibble:	; 1 bytes @ 0xB
  1274  007B                     	global	WriteData@MSNibble
  1275                           WriteData@MSNibble:	; 1 bytes @ 0xB
  1276  007B                     	ds	1
  1277  007B                     ??_lcdBegin:	; 1 bytes @ 0xC
  1278  007C                     ?_lcdSetCursor:	; 1 bytes @ 0xC
  1279  007C                     ??_lcdWrite:	; 1 bytes @ 0xC
  1280  007C                     ??___lwmod:	; 1 bytes @ 0xC
  1281  007C                     	global	lcdSetCursor@column
  1282                           lcdSetCursor@column:	; 1 bytes @ 0xC
  1283  007C                     	global	lcdWrite@data
  1284                           lcdWrite@data:	; 1 bytes @ 0xC
  1285  007C                     	ds	1
  1286  007C                     ??_lcdSetCursor:	; 1 bytes @ 0xD
  1287  007D                     	global	lcdBegin@RS
  1288                           lcdBegin@RS:	; 1 bytes @ 0xD
  1289  007D                     	global	___lwmod@counter
  1290                           ___lwmod@counter:	; 1 bytes @ 0xD
  1291  007D                     	ds	1
  1292  007D                     ??_map:	; 1 bytes @ 0xE
  1293  007E                     ??_AccionControl:	; 1 bytes @ 0xE
  1294  007E                     ??_main:	; 1 bytes @ 0xE
  1295  007E                     ??___flneg:	; 1 bytes @ 0xE
  1296  007E                     psect	cstackBANK0,class=BANK0,space=1,noexec
  1297                           global __pcstackBANK0
  1298                           __pcstackBANK0:
  1299  0020                     ?_lcdBegin:	; 1 bytes @ 0x0
  1300  0020                     ?_lcdPrint:	; 1 bytes @ 0x0
  1301  0020                     	global	?_sprintf
  1302                           ?_sprintf:	; 2 bytes @ 0x0
  1303  0020                     	global	?___flmul
  1304                           ?___flmul:	; 4 bytes @ 0x0
  1305  0020                     	global	lcdBegin@EN
  1306                           lcdBegin@EN:	; 1 bytes @ 0x0
  1307  0020                     	global	lcdSetCursor@row
  1308                           lcdSetCursor@row:	; 1 bytes @ 0x0
  1309  0020                     	global	sprintf@f
  1310                           sprintf@f:	; 1 bytes @ 0x0
  1311  0020                     	global	lcdPrint@string
  1312                           lcdPrint@string:	; 2 bytes @ 0x0
  1313  0020                     	global	___flmul@b
  1314                           ___flmul@b:	; 4 bytes @ 0x0
  1315  0020                     	ds	1
  1316  0020                     	global	lcdBegin@R_W
  1317                           lcdBegin@R_W:	; 1 bytes @ 0x1
  1318  0021                     	global	lcdSetCursor@location
  1319                           lcdSetCursor@location:	; 1 bytes @ 0x1
  1320  0021                     	ds	1
  1321  0021                     ??_lcdPrint:	; 1 bytes @ 0x2
  1322  0022                     	global	lcdBegin@d4
  1323                           lcdBegin@d4:	; 1 bytes @ 0x2
  1324  0022                     	ds	1
  1325  0022                     ??_sprintf:	; 1 bytes @ 0x3
  1326  0023                     	global	lcdBegin@d5
  1327                           lcdBegin@d5:	; 1 bytes @ 0x3
  1328  0023                     	ds	1
  1329  0023                     	global	lcdBegin@d6
  1330                           lcdBegin@d6:	; 1 bytes @ 0x4
  1331  0024                     	global	___flmul@a
  1332                           ___flmul@a:	; 4 bytes @ 0x4
  1333  0024                     	ds	1
  1334  0024                     	global	lcdBegin@d7
  1335                           lcdBegin@d7:	; 1 bytes @ 0x5
  1336  0025                     	global	lcdPrint@i
  1337                           lcdPrint@i:	; 2 bytes @ 0x5
  1338  0025                     	ds	1
  1339  0025                     	global	sprintf@flag
  1340                           sprintf@flag:	; 1 bytes @ 0x6
  1341  0026                     	ds	1
  1342  0026                     	global	sprintf@ap
  1343                           sprintf@ap:	; 1 bytes @ 0x7
  1344  0027                     	ds	1
  1345  0027                     ??___flmul:	; 1 bytes @ 0x8
  1346  0028                     	global	sprintf@val
  1347                           sprintf@val:	; 2 bytes @ 0x8
  1348  0028                     	ds	2
  1349  0028                     	global	sprintf@prec
  1350                           sprintf@prec:	; 1 bytes @ 0xA
  1351  002A                     	ds	1
  1352  002A                     	global	sprintf@sp
  1353                           sprintf@sp:	; 1 bytes @ 0xB
  1354  002B                     	ds	1
  1355  002B                     	global	sprintf@c
  1356                           sprintf@c:	; 1 bytes @ 0xC
  1357  002C                     	ds	1
  1358  002C                     	global	___flmul@sign
  1359                           ___flmul@sign:	; 1 bytes @ 0xD
  1360  002D                     	ds	1
  1361  002D                     	global	___flmul@grs
  1362                           ___flmul@grs:	; 4 bytes @ 0xE
  1363  002E                     	ds	4
  1364  002E                     	global	___flmul@aexp
  1365                           ___flmul@aexp:	; 1 bytes @ 0x12
  1366  0032                     	ds	1
  1367  0032                     	global	___flmul@bexp
  1368                           ___flmul@bexp:	; 1 bytes @ 0x13
  1369  0033                     	ds	1
  1370  0033                     	global	___flmul@prod
  1371                           ___flmul@prod:	; 4 bytes @ 0x14
  1372  0034                     	ds	4
  1373  0034                     	global	___flmul@temp
  1374                           ___flmul@temp:	; 2 bytes @ 0x18
  1375  0038                     	ds	2
  1376  0038                     ??_SetSampleTime:	; 1 bytes @ 0x1A
  1377  003A                     	global	?___flneg
  1378                           ?___flneg:	; 4 bytes @ 0x1A
  1379  003A                     	global	___flneg@f1
  1380                           ___flneg@f1:	; 4 bytes @ 0x1A
  1381  003A                     	ds	4
  1382  003A                     	global	?___fladd
  1383                           ?___fladd:	; 4 bytes @ 0x1E
  1384  003E                     	global	SetSampleTime@dt
  1385                           SetSampleTime@dt:	; 1 bytes @ 0x1E
  1386  003E                     	global	___fladd@b
  1387                           ___fladd@b:	; 4 bytes @ 0x1E
  1388  003E                     	ds	1
  1389  003E                     ??_setup:	; 1 bytes @ 0x1F
  1390  003F                     	ds	3
  1391  003F                     	global	___fladd@a
  1392                           ___fladd@a:	; 4 bytes @ 0x22
  1393  0042                     	ds	4
  1394  0042                     ??___fladd:	; 1 bytes @ 0x26
  1395  0046                     	ds	12
  1396  0046                     	global	___fladd@signs
  1397                           ___fladd@signs:	; 1 bytes @ 0x32
  1398  0052                     	ds	1
  1399  0052                     	global	___fladd@aexp
  1400                           ___fladd@aexp:	; 1 bytes @ 0x33
  1401  0053                     	ds	1
  1402  0053                     	global	___fladd@bexp
  1403                           ___fladd@bexp:	; 1 bytes @ 0x34
  1404  0054                     	ds	1
  1405  0054                     	global	___fladd@grs
  1406                           ___fladd@grs:	; 1 bytes @ 0x35
  1407  0055                     	ds	1
  1408  0055                     	global	?___fldiv
  1409                           ?___fldiv:	; 4 bytes @ 0x36
  1410  0056                     	global	___fldiv@a
  1411                           ___fldiv@a:	; 4 bytes @ 0x36
  1412  0056                     	ds	4
  1413  0056                     	global	___fldiv@b
  1414                           ___fldiv@b:	; 4 bytes @ 0x3A
  1415  005A                     	ds	4
  1416  005A                     ??___fldiv:	; 1 bytes @ 0x3E
  1417  005E                     	ds	5
  1418  005E                     	global	___fldiv@rem
  1419                           ___fldiv@rem:	; 4 bytes @ 0x43
  1420  0063                     	ds	4
  1421  0063                     	global	___fldiv@sign
  1422                           ___fldiv@sign:	; 1 bytes @ 0x47
  1423  0067                     	ds	1
  1424  0067                     	global	___fldiv@new_exp
  1425                           ___fldiv@new_exp:	; 2 bytes @ 0x48
  1426  0068                     	ds	2
  1427  0068                     	global	___fldiv@grs
  1428                           ___fldiv@grs:	; 4 bytes @ 0x4A
  1429  006A                     	ds	4
  1430  006A                     	global	___fldiv@bexp
  1431                           ___fldiv@bexp:	; 1 bytes @ 0x4E
  1432  006E                     	ds	1
  1433  006E                     	global	___fldiv@aexp
  1434                           ___fldiv@aexp:	; 1 bytes @ 0x4F
  1435  006F                     	ds	1
  1436  006F                     ;!
  1437                           ;!Data Sizes:
  1438                           ;!    Strings     50
  1439                           ;!    Constant    17
  1440                           ;!    Data        0
  1441                           ;!    BSS         79
  1442                           ;!    Persistent  7
  1443                           ;!    Stack       0
  1444                           ;!
  1445                           ;!Auto Spaces:
  1446                           ;!    Space          Size  Autos    Used
  1447                           ;!    COMMON           14     14      14
  1448                           ;!    BANK0            80     80      80
  1449                           ;!    BANK1            80     34      69
  1450                           ;!    BANK3            96      0      51
  1451                           ;!    BANK2            96      0       0
  1452                           
  1453                           ;!
  1454                           ;!Pointer List with Targets:
  1455                           ;!
  1456                           ;!    sprintf@f	PTR const unsigned char  size(1) Largest target is 9
  1457                           ;!		 -> STR_4(CODE[9]), STR_2(CODE[7]), 
  1458                           ;!
  1459                           ;!    sprintf@sp	PTR unsigned char  size(1) Largest target is 16
  1460                           ;!		 -> ScreenROW(BANK1[16]), 
  1461                           ;!
  1462                           ;!    sprintf@ap	PTR void [1] size(1) Largest target is 2
  1463                           ;!		 -> ?_sprintf(BANK0[2]), 
  1464                           ;!
  1465                           ;!    lcdPrint@string	PTR unsigned char  size(2) Largest target is 17
  1466                           ;!		 -> STR_3(CODE[17]), ScreenROW(BANK1[16]), STR_1(CODE[17]), 
  1467                           ;!
  1468                           
  1469                           
  1470                           ;!
  1471                           ;!Critical Paths under _main in COMMON
  1472                           ;!
  1473                           ;!    _setup->_lcdBegin
  1474                           ;!    _setup->_lcdSetCursor
  1475                           ;!    _lcdBegin->_WriteInstruction
  1476                           ;!    _SetSampleTime->___xxtofl
  1477                           ;!    _loop->_lcdSetCursor
  1478                           ;!    _sprintf->___lwmod
  1479                           ;!    ___lwmod->___lwdiv
  1480                           ;!    _lcdSetCursor->_WriteInstruction
  1481                           ;!    _WriteInstruction->_ByteByNibble
  1482                           ;!    _WriteInstruction->_delay
  1483                           ;!    _lcdPrint->_lcdWrite
  1484                           ;!    _lcdWrite->_WriteData
  1485                           ;!    _WriteData->_ByteByNibble
  1486                           ;!    _WriteData->_delay
  1487                           ;!    _ByteByNibble->_digitalWrite
  1488                           ;!    ___flmul->___xxtofl
  1489                           ;!
  1490                           ;!Critical Paths under _main in BANK0
  1491                           ;!
  1492                           ;!    _setup->_SetSampleTime
  1493                           ;!    _SetSampleTime->___flmul
  1494                           ;!    _map->___fldiv
  1495                           ;!    _AccionControl->___fldiv
  1496                           ;!    ___flneg->___flmul
  1497                           ;!    ___fldiv->___fladd
  1498                           ;!    ___fladd->___flneg
  1499                           ;!
  1500                           ;!Critical Paths under _main in BANK1
  1501                           ;!
  1502                           ;!    _main->_loop
  1503                           ;!    _loop->_map
  1504                           ;!
  1505                           ;!Critical Paths under _main in BANK3
  1506                           ;!
  1507                           ;!    None.
  1508                           ;!
  1509                           ;!Critical Paths under _main in BANK2
  1510                           ;!
  1511                           ;!    None.
  1512                           
  1513 ;;
  1514 ;;Main: autosize = 0, tempsize = 0, incstack = 0, save=0
  1515 ;;
  1516                           
  1517                           ;!
  1518                           ;!Call Graph Tables:
  1519                           ;!
  1520                           ;! ---------------------------------------------------------------------------------
  1521                           ;! (Depth) Function   	        Calls       Base Space   Used Autos Params    Refs
  1522                           ;! ---------------------------------------------------------------------------------
  1523                           ;! (0) _main                                                 0     0      0   99872
  1524                           ;!                     _Initialization
  1525                           ;!                               _loop
  1526                           ;!                              _setup
  1527                           ;! ---------------------------------------------------------------------------------
  1528                           ;! (1) _setup                                                6     6      0   50613
  1529                           ;!                                             31 BANK0      6     6      0
  1530                           ;!                      _SetSampleTime
  1531                           ;!                           _lcdBegin
  1532                           ;!                           _lcdPrint
  1533                           ;!                       _lcdSetCursor
  1534                           ;! ---------------------------------------------------------------------------------
  1535                           ;! (2) _lcdBegin                                             8     2      6   16949
  1536                           ;!                                             12 COMMON     2     2      0
  1537                           ;!                                              0 BANK0      6     0      6
  1538                           ;!                   _WriteInstruction
  1539                           ;!                              _delay
  1540                           ;!                            _pinMode
  1541                           ;! ---------------------------------------------------------------------------------
  1542                           ;! (3) _pinMode                                              4     3      1    1104
  1543                           ;!                                              0 COMMON     4     3      1
  1544                           ;! ---------------------------------------------------------------------------------
  1545                           ;! (2) _SetSampleTime                                        5     5      0    3771
  1546                           ;!                                             26 BANK0      5     5      0
  1547                           ;!                            ___flmul
  1548                           ;!                           ___xxtofl
  1549                           ;! ---------------------------------------------------------------------------------
  1550                           ;! (3) ___xxtofl                                            14    10      4     398
  1551                           ;!                                              0 COMMON    14    10      4
  1552                           ;! ---------------------------------------------------------------------------------
  1553                           ;! (1) _loop                                                 6     6      0   49259
  1554                           ;!                                             28 BANK1      6     6      0
  1555                           ;!                      _AccionControl
  1556                           ;!                       _EventCounter
  1557                           ;!                           _lcdPrint
  1558                           ;!                       _lcdSetCursor
  1559                           ;!                                _map
  1560                           ;!                            _sprintf
  1561                           ;! ---------------------------------------------------------------------------------
  1562                           ;! (2) _sprintf                                             21    18      3    1230
  1563                           ;!                                              0 BANK0     13    10      3
  1564                           ;!                            ___lwdiv
  1565                           ;!                            ___lwmod
  1566                           ;! ---------------------------------------------------------------------------------
  1567                           ;! (3) ___lwmod                                              6     2      4     311
  1568                           ;!                                              8 COMMON     6     2      4
  1569                           ;!                            ___lwdiv (ARG)
  1570                           ;! ---------------------------------------------------------------------------------
  1571                           ;! (3) ___lwdiv                                              8     4      4     314
  1572                           ;!                                              0 COMMON     8     4      4
  1573                           ;! ---------------------------------------------------------------------------------
  1574                           ;! (2) _map                                                 28     8     20    9259
  1575                           ;!                                              0 BANK1     28     8     20
  1576                           ;!                            ___fladd
  1577                           ;!                            ___fldiv
  1578                           ;!                            ___flmul
  1579                           ;!                            ___flneg
  1580                           ;! ---------------------------------------------------------------------------------
  1581                           ;! (2) _lcdSetCursor                                         4     3      1   14396
  1582                           ;!                                             12 COMMON     2     1      1
  1583                           ;!                                              0 BANK0      2     2      0
  1584                           ;!                   _WriteInstruction
  1585                           ;! ---------------------------------------------------------------------------------
  1586                           ;! (3) _WriteInstruction                                     5     5      0   13957
  1587                           ;!                                              7 COMMON     5     5      0
  1588                           ;!                       _ByteByNibble
  1589                           ;!                              _delay
  1590                           ;!                       _digitalWrite
  1591                           ;! ---------------------------------------------------------------------------------
  1592                           ;! (2) _lcdPrint                                             7     5      2   15497
  1593                           ;!                                              0 BANK0      7     5      2
  1594                           ;!                           _lcdWrite
  1595                           ;! ---------------------------------------------------------------------------------
  1596                           ;! (3) _lcdWrite                                             1     1      0   15103
  1597                           ;!                                             12 COMMON     1     1      0
  1598                           ;!                          _WriteData
  1599                           ;!                              _delay
  1600                           ;! ---------------------------------------------------------------------------------
  1601                           ;! (4) _WriteData                                            5     5      0   13957
  1602                           ;!                                              7 COMMON     5     5      0
  1603                           ;!                       _ByteByNibble
  1604                           ;!                              _delay
  1605                           ;!                       _digitalWrite
  1606                           ;! ---------------------------------------------------------------------------------
  1607                           ;! (4) _delay                                                7     5      2    1124
  1608                           ;!                                              0 COMMON     7     5      2
  1609                           ;! ---------------------------------------------------------------------------------
  1610                           ;! (4) _ByteByNibble                                         3     3      0    6370
  1611                           ;!                                              4 COMMON     3     3      0
  1612                           ;!                       _digitalWrite
  1613                           ;! ---------------------------------------------------------------------------------
  1614                           ;! (4) _digitalWrite                                         4     3      1    6348
  1615                           ;!                                              0 COMMON     4     3      1
  1616                           ;! ---------------------------------------------------------------------------------
  1617                           ;! (2) _EventCounter                                         2     0      2       0
  1618                           ;!                                              0 COMMON     2     0      2
  1619                           ;! ---------------------------------------------------------------------------------
  1620                           ;! (2) _AccionControl                                       12     4      8    8876
  1621                           ;!                                              0 BANK1     12     4      8
  1622                           ;!                            ___fladd
  1623                           ;!                            ___fldiv
  1624                           ;!                            ___flmul
  1625                           ;!                            ___flneg
  1626                           ;! ---------------------------------------------------------------------------------
  1627                           ;! (3) ___flneg                                              4     0      4     425
  1628                           ;!                                             26 BANK0      4     0      4
  1629                           ;!                            ___flmul (ARG)
  1630                           ;! ---------------------------------------------------------------------------------
  1631                           ;! (3) ___flmul                                             26    18      8    3329
  1632                           ;!                                              0 BANK0     26    18      8
  1633                           ;!                          __Umul8_16
  1634                           ;!                           ___xxtofl (ARG)
  1635                           ;! ---------------------------------------------------------------------------------
  1636                           ;! (4) __Umul8_16                                            9     7      2     799
  1637                           ;!                                              0 COMMON     9     7      2
  1638                           ;! ---------------------------------------------------------------------------------
  1639                           ;! (3) ___fldiv                                             26    18      8    1425
  1640                           ;!                                             54 BANK0     26    18      8
  1641                           ;!                            ___fladd (ARG)
  1642                           ;!                            ___flmul (ARG)
  1643                           ;!                            ___flneg (ARG)
  1644                           ;! ---------------------------------------------------------------------------------
  1645                           ;! (3) ___fladd                                             24    16      8    3478
  1646                           ;!                                             30 BANK0     24    16      8
  1647                           ;!                            ___flmul (ARG)
  1648                           ;!                            ___flneg (ARG)
  1649                           ;! ---------------------------------------------------------------------------------
  1650                           ;! (1) _Initialization                                       0     0      0       0
  1651                           ;!                   _PWMConfiguration
  1652                           ;! ---------------------------------------------------------------------------------
  1653                           ;! (2) _PWMConfiguration                                     0     0      0       0
  1654                           ;! ---------------------------------------------------------------------------------
  1655                           ;! Estimated maximum stack depth 4
  1656                           ;! ---------------------------------------------------------------------------------
  1657                           ;!
  1658                           ;! Call Graph Graphs:
  1659                           ;!
  1660                           ;! _main (ROOT)
  1661                           ;!   _Initialization
  1662                           ;!     _PWMConfiguration
  1663                           ;!   _loop
  1664                           ;!     _AccionControl
  1665                           ;!       ___fladd
  1666                           ;!         ___flmul (ARG)
  1667                           ;!           __Umul8_16
  1668                           ;!           ___xxtofl (ARG)
  1669                           ;!         ___flneg (ARG)
  1670                           ;!           ___flmul (ARG)
  1671                           ;!             __Umul8_16
  1672                           ;!             ___xxtofl (ARG)
  1673                           ;!       ___fldiv
  1674                           ;!         ___fladd (ARG)
  1675                           ;!           ___flmul (ARG)
  1676                           ;!             __Umul8_16
  1677                           ;!             ___xxtofl (ARG)
  1678                           ;!           ___flneg (ARG)
  1679                           ;!             ___flmul (ARG)
  1680                           ;!               __Umul8_16
  1681                           ;!               ___xxtofl (ARG)
  1682                           ;!         ___flmul (ARG)
  1683                           ;!           __Umul8_16
  1684                           ;!           ___xxtofl (ARG)
  1685                           ;!         ___flneg (ARG)
  1686                           ;!           ___flmul (ARG)
  1687                           ;!             __Umul8_16
  1688                           ;!             ___xxtofl (ARG)
  1689                           ;!       ___flmul
  1690                           ;!         __Umul8_16
  1691                           ;!         ___xxtofl (ARG)
  1692                           ;!       ___flneg
  1693                           ;!         ___flmul (ARG)
  1694                           ;!           __Umul8_16
  1695                           ;!           ___xxtofl (ARG)
  1696                           ;!     _EventCounter
  1697                           ;!     _lcdPrint
  1698                           ;!       _lcdWrite
  1699                           ;!         _WriteData
  1700                           ;!           _ByteByNibble
  1701                           ;!             _digitalWrite
  1702                           ;!           _delay
  1703                           ;!           _digitalWrite
  1704                           ;!         _delay
  1705                           ;!     _lcdSetCursor
  1706                           ;!       _WriteInstruction
  1707                           ;!         _ByteByNibble
  1708                           ;!           _digitalWrite
  1709                           ;!         _delay
  1710                           ;!         _digitalWrite
  1711                           ;!     _map
  1712                           ;!       ___fladd
  1713                           ;!         ___flmul (ARG)
  1714                           ;!           __Umul8_16
  1715                           ;!           ___xxtofl (ARG)
  1716                           ;!         ___flneg (ARG)
  1717                           ;!           ___flmul (ARG)
  1718                           ;!             __Umul8_16
  1719                           ;!             ___xxtofl (ARG)
  1720                           ;!       ___fldiv
  1721                           ;!         ___fladd (ARG)
  1722                           ;!           ___flmul (ARG)
  1723                           ;!             __Umul8_16
  1724                           ;!             ___xxtofl (ARG)
  1725                           ;!           ___flneg (ARG)
  1726                           ;!             ___flmul (ARG)
  1727                           ;!               __Umul8_16
  1728                           ;!               ___xxtofl (ARG)
  1729                           ;!         ___flmul (ARG)
  1730                           ;!           __Umul8_16
  1731                           ;!           ___xxtofl (ARG)
  1732                           ;!         ___flneg (ARG)
  1733                           ;!           ___flmul (ARG)
  1734                           ;!             __Umul8_16
  1735                           ;!             ___xxtofl (ARG)
  1736                           ;!       ___flmul
  1737                           ;!         __Umul8_16
  1738                           ;!         ___xxtofl (ARG)
  1739                           ;!       ___flneg
  1740                           ;!         ___flmul (ARG)
  1741                           ;!           __Umul8_16
  1742                           ;!           ___xxtofl (ARG)
  1743                           ;!     _sprintf
  1744                           ;!       ___lwdiv
  1745                           ;!       ___lwmod
  1746                           ;!         ___lwdiv (ARG)
  1747                           ;!   _setup
  1748                           ;!     _SetSampleTime
  1749                           ;!       ___flmul
  1750                           ;!         __Umul8_16
  1751                           ;!         ___xxtofl (ARG)
  1752                           ;!       ___xxtofl
  1753                           ;!     _lcdBegin
  1754                           ;!       _WriteInstruction
  1755                           ;!         _ByteByNibble
  1756                           ;!           _digitalWrite
  1757                           ;!         _delay
  1758                           ;!         _digitalWrite
  1759                           ;!       _delay
  1760                           ;!       _pinMode
  1761                           ;!     _lcdPrint
  1762                           ;!       _lcdWrite
  1763                           ;!         _WriteData
  1764                           ;!           _ByteByNibble
  1765                           ;!             _digitalWrite
  1766                           ;!           _delay
  1767                           ;!           _digitalWrite
  1768                           ;!         _delay
  1769                           ;!     _lcdSetCursor
  1770                           ;!       _WriteInstruction
  1771                           ;!         _ByteByNibble
  1772                           ;!           _digitalWrite
  1773                           ;!         _delay
  1774                           ;!         _digitalWrite
  1775                           ;!
  1776                           
  1777                           ;! Address spaces:
  1778                           
  1779                           ;!Name               Size   Autos  Total    Cost      Usage
  1780                           ;!BITCOMMON            E      0       0       0        0.0%
  1781                           ;!EEDATA             100      0       0       0        0.0%
  1782                           ;!NULL                 0      0       0       0        0.0%
  1783                           ;!CODE                 0      0       0       0        0.0%
  1784                           ;!COMMON               E      E       E       1      100.0%
  1785                           ;!BITSFR0              0      0       0       1        0.0%
  1786                           ;!SFR0                 0      0       0       1        0.0%
  1787                           ;!BITSFR1              0      0       0       2        0.0%
  1788                           ;!SFR1                 0      0       0       2        0.0%
  1789                           ;!STACK                0      0       0       2        0.0%
  1790                           ;!ABS                  0      0      D6       3        0.0%
  1791                           ;!BITBANK0            50      0       0       4        0.0%
  1792                           ;!BITSFR3              0      0       0       4        0.0%
  1793                           ;!SFR3                 0      0       0       4        0.0%
  1794                           ;!BANK0               50     50      50       5      100.0%
  1795                           ;!BITSFR2              0      0       0       5        0.0%
  1796                           ;!SFR2                 0      0       0       5        0.0%
  1797                           ;!BITBANK1            50      0       0       6        0.0%
  1798                           ;!BANK1               50     22      45       7       86.3%
  1799                           ;!BITBANK3            60      0       0       8        0.0%
  1800                           ;!BANK3               60      0      33       9       53.1%
  1801                           ;!BITBANK2            60      0       0      10        0.0%
  1802                           ;!BANK2               60      0       0      11        0.0%
  1803                           ;!DATA                 0      0      D6      12        0.0%
  1804                           
  1805                           	global	_main
  1806                           
  1807 ;; *************** function _main *****************
  1808 ;; Defined at:
  1809 ;;		line 3 in file "Hormiga877.c"
  1810 ;; Parameters:    Size  Location     Type
  1811 ;;		None
  1812 ;; Auto vars:     Size  Location     Type
  1813 ;;		None
  1814 ;; Return value:  Size  Location     Type
  1815 ;;                  2  153[None  ] int 
  1816 ;; Registers used:
  1817 ;;		wreg, fsr0l, fsr0h, status,2, status,0, btemp+1, pclath, cstack
  1818 ;; Tracked objects:
  1819 ;;		On entry : B00/0
  1820 ;;		On exit  : 0/0
  1821 ;;		Unchanged: 0/0
  1822 ;; Data sizes:     COMMON   BANK0   BANK1   BANK3   BANK2
  1823 ;;      Params:         0       0       0       0       0
  1824 ;;      Locals:         0       0       0       0       0
  1825 ;;      Temps:          0       0       0       0       0
  1826 ;;      Totals:         0       0       0       0       0
  1827 ;;Total ram usage:        0 bytes
  1828 ;; Hardware stack levels required when called:    6
  1829 ;; This function calls:
  1830 ;;		_Initialization
  1831 ;;		_loop
  1832 ;;		_setup
  1833 ;; This function is called by:
  1834 ;;		Startup code after reset
  1835 ;; This function uses a non-reentrant model
  1836 ;;
  1837                           psect	maintext,global,class=CODE,delta=2,split=1,group=0
  1838                           	file	"Hormiga877.c"
  1839                           	line	3
  1840                           global __pmaintext
  1841                           __pmaintext:	;psect for function _main
  1842  1054                     psect	maintext
  1843                           	file	"Hormiga877.c"
  1844                           	line	3
  1845                           	global	__size_of_main
  1846                           	__size_of_main	equ	__end_of_main-_main
  1847  0014                     	
  1848                           _main:	
  1849  1054                     ;incstack = 0
  1850                           	opt	stack 2
  1851                           ; Regs used in _main: [wreg-fsr0h+status,2+status,0+btemp+1+pclath+cstack]
  1852                           	line	5
  1853                           	
  1854                           l3656:	
  1855  1054                     ;Hormiga877.c: 5:     Initialization();
  1856                           	fcall	_Initialization
  1857  1054  160A  158A  27D4  160A  118A  	line	6
  1858                           	
  1859                           l3658:	
  1860  1059                     ;Hormiga877.c: 6:     setup();
  1861                           	fcall	_setup
  1862  1059  160A  118A  2215  160A  118A  	goto	l3660
  1863  105E  285F               	line	7
  1864                           ;Hormiga877.c: 7:     for(;;)
  1865                           	
  1866                           l154:	
  1867  105F                     	line	9
  1868                           	
  1869                           l3660:	
  1870  105F                     ;Hormiga877.c: 8:     {;Hormiga877.c: 9:         loop();
  1871                           	fcall	_loop
  1872  105F  120A  158A  2001  160A  118A  	line	10
  1873                           ;Hormiga877.c: 10:     }
  1874                           	goto	l3660
  1875  1064  285F               	
  1876                           l155:	
  1877  1065                     	line	12
  1878                           ;Hormiga877.c: 11:     return 0;;	Return value of _main is never used
  1879                           	
  1880                           l156:	
  1881  1065                     	global	start
  1882                           	ljmp	start
  1883  1065  120A  118A  2800   	opt stack 0
  1884                           GLOBAL	__end_of_main
  1885                           	__end_of_main:
  1886  1068                     	signat	_main,90
  1887                           	global	_setup
  1888                           
  1889 ;; *************** function _setup *****************
  1890 ;; Defined at:
  1891 ;;		line 20 in file "application.c"
  1892 ;; Parameters:    Size  Location     Type
  1893 ;;		None
  1894 ;; Auto vars:     Size  Location     Type
  1895 ;;		None
  1896 ;; Return value:  Size  Location     Type
  1897 ;;                  1    wreg      void 
  1898 ;; Registers used:
  1899 ;;		wreg, fsr0l, fsr0h, status,2, status,0, btemp+1, pclath, cstack
  1900 ;; Tracked objects:
  1901 ;;		On entry : 0/0
  1902 ;;		On exit  : 0/0
  1903 ;;		Unchanged: 0/0
  1904 ;; Data sizes:     COMMON   BANK0   BANK1   BANK3   BANK2
  1905 ;;      Params:         0       0       0       0       0
  1906 ;;      Locals:         0       0       0       0       0
  1907 ;;      Temps:          0       6       0       0       0
  1908 ;;      Totals:         0       6       0       0       0
  1909 ;;Total ram usage:        6 bytes
  1910 ;; Hardware stack levels used:    1
  1911 ;; Hardware stack levels required when called:    5
  1912 ;; This function calls:
  1913 ;;		_SetSampleTime
  1914 ;;		_lcdBegin
  1915 ;;		_lcdPrint
  1916 ;;		_lcdSetCursor
  1917 ;; This function is called by:
  1918 ;;		_main
  1919 ;; This function uses a non-reentrant model
  1920 ;;
  1921                           psect	text1,local,class=CODE,delta=2,merge=1,group=0
  1922                           	file	"application.c"
  1923                           	line	20
  1924                           global __ptext1
  1925                           __ptext1:	;psect for function _setup
  1926  1215                     psect	text1
  1927                           	file	"application.c"
  1928                           	line	20
  1929                           	global	__size_of_setup
  1930                           	__size_of_setup	equ	__end_of_setup-_setup
  1931  0064                     	
  1932                           _setup:	
  1933  1215                     ;incstack = 0
  1934                           	opt	stack 2
  1935                           ; Regs used in _setup: [wreg-fsr0h+status,2+status,0+btemp+1+pclath+cstack]
  1936                           	line	22
  1937                           	
  1938                           l3620:	
  1939  1215                     ;application.c: 22:     lcdBegin(RS,EN,RnW,D4,D5,D6,D7);
  1940                           	movlw	low((_EN-__stringbase))
  1941  1215  3010               	movwf	fsr0
  1942  1216  0084               	fcall	stringdir
  1943  1217  160A  118A  200A  160A  118A  	bcf	status, 5	;RP0=0, select bank0
  1944  121C  1283               	bcf	status, 6	;RP1=0, select bank0
  1945  121D  1303               	movwf	(??_setup+0)+0
  1946  121E  00BF               	movf	(??_setup+0)+0,w
  1947  121F  083F               	movwf	(lcdBegin@EN)
  1948  1220  00A0               	movlw	low((_RnW-__stringbase))
  1949  1221  300F               	movwf	fsr0
  1950  1222  0084               	fcall	stringdir
  1951  1223  160A  118A  200A  160A  118A  	movwf	(??_setup+1)+0
  1952  1228  00C0               	movf	(??_setup+1)+0,w
  1953  1229  0840               	movwf	(lcdBegin@R_W)
  1954  122A  00A1               	movlw	low((_D4-__stringbase))
  1955  122B  300E               	movwf	fsr0
  1956  122C  0084               	fcall	stringdir
  1957  122D  160A  118A  200A  160A  118A  	movwf	(??_setup+2)+0
  1958  1232  00C1               	movf	(??_setup+2)+0,w
  1959  1233  0841               	movwf	(lcdBegin@d4)
  1960  1234  00A2               	movlw	low((_D5-__stringbase))
  1961  1235  300D               	movwf	fsr0
  1962  1236  0084               	fcall	stringdir
  1963  1237  160A  118A  200A  160A  118A  	movwf	(??_setup+3)+0
  1964  123C  00C2               	movf	(??_setup+3)+0,w
  1965  123D  0842               	movwf	(lcdBegin@d5)
  1966  123E  00A3               	movlw	low((_D6-__stringbase))
  1967  123F  300C               	movwf	fsr0
  1968  1240  0084               	fcall	stringdir
  1969  1241  160A  118A  200A  160A  118A  	movwf	(??_setup+4)+0
  1970  1246  00C3               	movf	(??_setup+4)+0,w
  1971  1247  0843               	movwf	(lcdBegin@d6)
  1972  1248  00A4               	movlw	low((_D7-__stringbase))
  1973  1249  300B               	movwf	fsr0
  1974  124A  0084               	fcall	stringdir
  1975  124B  160A  118A  200A  160A  118A  	movwf	(??_setup+5)+0
  1976  1250  00C4               	movf	(??_setup+5)+0,w
  1977  1251  0844               	movwf	(lcdBegin@d7)
  1978  1252  00A5               	movlw	low((_RS-__stringbase))
  1979  1253  3011               	movwf	fsr0
  1980  1254  0084               	fcall	stringdir
  1981  1255  160A  118A  200A  160A  118A  	fcall	_lcdBegin
  1982  125A  160A  118A  237E  160A  118A  	line	23
  1983                           ;application.c: 23:     lcdSetCursor(1,1);
  1984                           	clrf	(lcdSetCursor@column)
  1985  125F  01FC               	incf	(lcdSetCursor@column),f
  1986  1260  0AFC               	movlw	low(01h)
  1987  1261  3001               	fcall	_lcdSetCursor
  1988  1262  160A  118A  2068  160A  118A  	line	24
  1989                           ;application.c: 24:     lcdPrint("PID Control Test");
  1990                           	movlw	(low((((STR_1)-__stringbase)|8000h)))&0ffh
  1991  1267  3023               	bcf	status, 5	;RP0=0, select bank0
  1992  1268  1283               	bcf	status, 6	;RP1=0, select bank0
  1993  1269  1303               	movwf	(lcdPrint@string)
  1994  126A  00A0               	movlw	80h
  1995  126B  3080               	movwf	(lcdPrint@string+1)
  1996  126C  00A1               	fcall	_lcdPrint
  1997  126D  160A  118A  20D5  160A  118A  	line	25
  1998                           	
  1999                           l3622:	
  2000  1272                     ;application.c: 25:     SetSampleTime(64);
  2001                           	movlw	low(040h)
  2002  1272  3040               	fcall	_SetSampleTime
  2003  1273  160A  118A  21B6  160A  118A  	line	26
  2004                           	
  2005                           l45:	
  2006  1278                     	return
  2007  1278  0008               	opt stack 0
  2008                           GLOBAL	__end_of_setup
  2009                           	__end_of_setup:
  2010  1279                     	signat	_setup,89
  2011                           	global	_lcdBegin
  2012                           
  2013 ;; *************** function _lcdBegin *****************
  2014 ;; Defined at:
  2015 ;;		line 18 in file "LCD16x2.c"
  2016 ;; Parameters:    Size  Location     Type
  2017 ;;  RS              1    wreg     unsigned char 
  2018 ;;  EN              1    0[BANK0 ] unsigned char 
  2019 ;;  R_W             1    1[BANK0 ] unsigned char 
  2020 ;;  d4              1    2[BANK0 ] unsigned char 
  2021 ;;  d5              1    3[BANK0 ] unsigned char 
  2022 ;;  d6              1    4[BANK0 ] unsigned char 
  2023 ;;  d7              1    5[BANK0 ] unsigned char 
  2024 ;; Auto vars:     Size  Location     Type
  2025 ;;  RS              1   13[COMMON] unsigned char 
  2026 ;; Return value:  Size  Location     Type
  2027 ;;                  1    wreg      void 
  2028 ;; Registers used:
  2029 ;;		wreg, fsr0l, fsr0h, status,2, status,0, btemp+1, pclath, cstack
  2030 ;; Tracked objects:
  2031 ;;		On entry : 0/0
  2032 ;;		On exit  : 0/0
  2033 ;;		Unchanged: 0/0
  2034 ;; Data sizes:     COMMON   BANK0   BANK1   BANK3   BANK2
  2035 ;;      Params:         0       6       0       0       0
  2036 ;;      Locals:         1       0       0       0       0
  2037 ;;      Temps:          1       0       0       0       0
  2038 ;;      Totals:         2       6       0       0       0
  2039 ;;Total ram usage:        8 bytes
  2040 ;; Hardware stack levels used:    1
  2041 ;; Hardware stack levels required when called:    3
  2042 ;; This function calls:
  2043 ;;		_WriteInstruction
  2044 ;;		_delay
  2045 ;;		_pinMode
  2046 ;; This function is called by:
  2047 ;;		_setup
  2048 ;; This function uses a non-reentrant model
  2049 ;;
  2050                           psect	text2,local,class=CODE,delta=2,merge=1,group=0
  2051                           	file	"LCD16x2.c"
  2052                           	line	18
  2053                           global __ptext2
  2054                           __ptext2:	;psect for function _lcdBegin
  2055  137E                     psect	text2
  2056                           	file	"LCD16x2.c"
  2057                           	line	18
  2058                           	global	__size_of_lcdBegin
  2059                           	__size_of_lcdBegin	equ	__end_of_lcdBegin-_lcdBegin
  2060  009C                     	
  2061                           _lcdBegin:	
  2062  137E                     ;incstack = 0
  2063                           	opt	stack 3
  2064                           ; Regs used in _lcdBegin: [wreg-fsr0h+status,2+status,0+btemp+1+pclath+cstack]
  2065                           ;lcdBegin@RS stored from wreg
  2066                           	movwf	(lcdBegin@RS)
  2067  137E  00FD               	line	20
  2068                           	
  2069                           l3478:	
  2070  137F                     ;LCD16x2.c: 18: void lcdBegin(char RS, char EN, char R_W, char d4, char d5, char d6,char
                                  d7);LCD16x2.c: 19: {;LCD16x2.c: 20:     RSPin = RS;
  2071                           	movf	(lcdBegin@RS),w
  2072  137F  087D               	movwf	(??_lcdBegin+0)+0
  2073  1380  00FC               	movf	(??_lcdBegin+0)+0,w
  2074  1381  087C               	bsf	status, 5	;RP0=1, select bank1
  2075  1382  1683               	bcf	status, 6	;RP1=0, select bank1
  2076  1383  1303               	movwf	(_RSPin)^080h
  2077  1384  00E4               	line	21
  2078                           ;LCD16x2.c: 21:     ENPin = EN;
  2079                           	bcf	status, 5	;RP0=0, select bank0
  2080  1385  1283               	bcf	status, 6	;RP1=0, select bank0
  2081  1386  1303               	movf	(lcdBegin@EN),w
  2082  1387  0820               	movwf	(??_lcdBegin+0)+0
  2083  1388  00FC               	movf	(??_lcdBegin+0)+0,w
  2084  1389  087C               	bsf	status, 5	;RP0=1, select bank1
  2085  138A  1683               	bcf	status, 6	;RP1=0, select bank1
  2086  138B  1303               	movwf	(_ENPin)^080h
  2087  138C  00E3               	line	22
  2088                           ;LCD16x2.c: 22:     RWPin = R_W;
  2089                           	bcf	status, 5	;RP0=0, select bank0
  2090  138D  1283               	bcf	status, 6	;RP1=0, select bank0
  2091  138E  1303               	movf	(lcdBegin@R_W),w
  2092  138F  0821               	movwf	(??_lcdBegin+0)+0
  2093  1390  00FC               	movf	(??_lcdBegin+0)+0,w
  2094  1391  087C               	bsf	status, 5	;RP0=1, select bank1
  2095  1392  1683               	bcf	status, 6	;RP1=0, select bank1
  2096  1393  1303               	movwf	(_RWPin)^080h
  2097  1394  00E2               	line	23
  2098                           ;LCD16x2.c: 23:     d4Pin = d4;
  2099                           	bcf	status, 5	;RP0=0, select bank0
  2100  1395  1283               	bcf	status, 6	;RP1=0, select bank0
  2101  1396  1303               	movf	(lcdBegin@d4),w
  2102  1397  0822               	movwf	(??_lcdBegin+0)+0
  2103  1398  00FC               	movf	(??_lcdBegin+0)+0,w
  2104  1399  087C               	bsf	status, 5	;RP0=1, select bank1
  2105  139A  1683               	bcf	status, 6	;RP1=0, select bank1
  2106  139B  1303               	movwf	(_d4Pin)^080h
  2107  139C  00E1               	line	24
  2108                           ;LCD16x2.c: 24:     d5Pin = d5;
  2109                           	bcf	status, 5	;RP0=0, select bank0
  2110  139D  1283               	bcf	status, 6	;RP1=0, select bank0
  2111  139E  1303               	movf	(lcdBegin@d5),w
  2112  139F  0823               	movwf	(??_lcdBegin+0)+0
  2113  13A0  00FC               	movf	(??_lcdBegin+0)+0,w
  2114  13A1  087C               	bsf	status, 5	;RP0=1, select bank1
  2115  13A2  1683               	bcf	status, 6	;RP1=0, select bank1
  2116  13A3  1303               	movwf	(_d5Pin)^080h
  2117  13A4  00E0               	line	25
  2118                           ;LCD16x2.c: 25:     d6Pin = d6;
  2119                           	bcf	status, 5	;RP0=0, select bank0
  2120  13A5  1283               	bcf	status, 6	;RP1=0, select bank0
  2121  13A6  1303               	movf	(lcdBegin@d6),w
  2122  13A7  0824               	movwf	(??_lcdBegin+0)+0
  2123  13A8  00FC               	movf	(??_lcdBegin+0)+0,w
  2124  13A9  087C               	bsf	status, 5	;RP0=1, select bank1
  2125  13AA  1683               	bcf	status, 6	;RP1=0, select bank1
  2126  13AB  1303               	movwf	(_d6Pin)^080h
  2127  13AC  00DF               	line	26
  2128                           ;LCD16x2.c: 26:     d7Pin = d7;
  2129                           	bcf	status, 5	;RP0=0, select bank0
  2130  13AD  1283               	bcf	status, 6	;RP1=0, select bank0
  2131  13AE  1303               	movf	(lcdBegin@d7),w
  2132  13AF  0825               	movwf	(??_lcdBegin+0)+0
  2133  13B0  00FC               	movf	(??_lcdBegin+0)+0,w
  2134  13B1  087C               	bsf	status, 5	;RP0=1, select bank1
  2135  13B2  1683               	bcf	status, 6	;RP1=0, select bank1
  2136  13B3  1303               	movwf	(_d7Pin)^080h
  2137  13B4  00DE               	line	27
  2138                           	
  2139                           l3480:	
  2140  13B5                     ;LCD16x2.c: 27:     pinMode(RS,0);
  2141                           	clrf	(pinMode@mode)
  2142  13B5  01F0               	movf	(lcdBegin@RS),w
  2143  13B6  087D               	fcall	_pinMode
  2144  13B7  160A  118A  25BC  160A  118A  	line	28
  2145                           	
  2146                           l3482:	
  2147  13BC                     ;LCD16x2.c: 28:     pinMode(EN,0);
  2148                           	clrf	(pinMode@mode)
  2149  13BC  01F0               	bcf	status, 5	;RP0=0, select bank0
  2150  13BD  1283               	bcf	status, 6	;RP1=0, select bank0
  2151  13BE  1303               	movf	(lcdBegin@EN),w
  2152  13BF  0820               	fcall	_pinMode
  2153  13C0  160A  118A  25BC  160A  118A  	line	29
  2154                           	
  2155                           l3484:	
  2156  13C5                     ;LCD16x2.c: 29:     pinMode(R_W,0);
  2157                           	clrf	(pinMode@mode)
  2158  13C5  01F0               	bcf	status, 5	;RP0=0, select bank0
  2159  13C6  1283               	bcf	status, 6	;RP1=0, select bank0
  2160  13C7  1303               	movf	(lcdBegin@R_W),w
  2161  13C8  0821               	fcall	_pinMode
  2162  13C9  160A  118A  25BC  160A  118A  	line	30
  2163                           	
  2164                           l3486:	
  2165  13CE                     ;LCD16x2.c: 30:     pinMode(d4,0);
  2166                           	clrf	(pinMode@mode)
  2167  13CE  01F0               	bcf	status, 5	;RP0=0, select bank0
  2168  13CF  1283               	bcf	status, 6	;RP1=0, select bank0
  2169  13D0  1303               	movf	(lcdBegin@d4),w
  2170  13D1  0822               	fcall	_pinMode
  2171  13D2  160A  118A  25BC  160A  118A  	line	31
  2172                           	
  2173                           l3488:	
  2174  13D7                     ;LCD16x2.c: 31:     pinMode(d5,0);
  2175                           	clrf	(pinMode@mode)
  2176  13D7  01F0               	bcf	status, 5	;RP0=0, select bank0
  2177  13D8  1283               	bcf	status, 6	;RP1=0, select bank0
  2178  13D9  1303               	movf	(lcdBegin@d5),w
  2179  13DA  0823               	fcall	_pinMode
  2180  13DB  160A  118A  25BC  160A  118A  	line	32
  2181                           	
  2182                           l3490:	
  2183  13E0                     ;LCD16x2.c: 32:     pinMode(d6,0);
  2184                           	clrf	(pinMode@mode)
  2185  13E0  01F0               	bcf	status, 5	;RP0=0, select bank0
  2186  13E1  1283               	bcf	status, 6	;RP1=0, select bank0
  2187  13E2  1303               	movf	(lcdBegin@d6),w
  2188  13E3  0824               	fcall	_pinMode
  2189  13E4  160A  118A  25BC  160A  118A  	line	33
  2190                           	
  2191                           l3492:	
  2192  13E9                     ;LCD16x2.c: 33:     pinMode(d7,0);
  2193                           	clrf	(pinMode@mode)
  2194  13E9  01F0               	bcf	status, 5	;RP0=0, select bank0
  2195  13EA  1283               	bcf	status, 6	;RP1=0, select bank0
  2196  13EB  1303               	movf	(lcdBegin@d7),w
  2197  13EC  0825               	fcall	_pinMode
  2198  13ED  160A  118A  25BC  160A  118A  	line	34
  2199                           	
  2200                           l3494:	
  2201  13F2                     ;LCD16x2.c: 34:     delay(15);
  2202                           	movlw	0Fh
  2203  13F2  300F               	movwf	(delay@milis)
  2204  13F3  00F0               	movlw	0
  2205  13F4  3000               	movwf	((delay@milis))+1
  2206  13F5  00F1               	fcall	_delay
  2207  13F6  160A  118A  2168  160A  118A  	line	35
  2208                           	
  2209                           l3496:	
  2210  13FB                     ;LCD16x2.c: 35:     WriteInstruction(0x02);
  2211                           	movlw	low(02h)
  2212  13FB  3002               	fcall	_WriteInstruction
  2213  13FC  160A  118A  2279  160A  118A  	line	36
  2214                           	
  2215                           l3498:	
  2216  1401                     ;LCD16x2.c: 36:     WriteInstruction(0x28);
  2217                           	movlw	low(028h)
  2218  1401  3028               	fcall	_WriteInstruction
  2219  1402  160A  118A  2279  160A  118A  	line	37
  2220                           	
  2221                           l3500:	
  2222  1407                     ;LCD16x2.c: 37:     WriteInstruction(0x01);
  2223                           	movlw	low(01h)
  2224  1407  3001               	fcall	_WriteInstruction
  2225  1408  160A  118A  2279  160A  118A  	line	38
  2226                           	
  2227                           l3502:	
  2228  140D                     ;LCD16x2.c: 38:     WriteInstruction(0x0C);
  2229                           	movlw	low(0Ch)
  2230  140D  300C               	fcall	_WriteInstruction
  2231  140E  160A  118A  2279  160A  118A  	line	39
  2232                           	
  2233                           l3504:	
  2234  1413                     ;LCD16x2.c: 39:     WriteInstruction(0x06);
  2235                           	movlw	low(06h)
  2236  1413  3006               	fcall	_WriteInstruction
  2237  1414  160A  118A  2279  160A  118A  	line	40
  2238                           	
  2239                           l436:	
  2240  1419                     	return
  2241  1419  0008               	opt stack 0
  2242                           GLOBAL	__end_of_lcdBegin
  2243                           	__end_of_lcdBegin:
  2244  141A                     	signat	_lcdBegin,28793
  2245                           	global	_pinMode
  2246                           
  2247 ;; *************** function _pinMode *****************
  2248 ;; Defined at:
  2249 ;;		line 60 in file "Hormiga877.c"
  2250 ;; Parameters:    Size  Location     Type
  2251 ;;  pin             1    wreg     unsigned char 
  2252 ;;  mode            1    0[COMMON] unsigned char 
  2253 ;; Auto vars:     Size  Location     Type
  2254 ;;  pin             1    3[COMMON] unsigned char 
  2255 ;; Return value:  Size  Location     Type
  2256 ;;                  1    wreg      void 
  2257 ;; Registers used:
  2258 ;;		wreg, fsr0l, fsr0h, status,2, status,0
  2259 ;; Tracked objects:
  2260 ;;		On entry : 0/0
  2261 ;;		On exit  : 0/0
  2262 ;;		Unchanged: 0/0
  2263 ;; Data sizes:     COMMON   BANK0   BANK1   BANK3   BANK2
  2264 ;;      Params:         1       0       0       0       0
  2265 ;;      Locals:         1       0       0       0       0
  2266 ;;      Temps:          2       0       0       0       0
  2267 ;;      Totals:         4       0       0       0       0
  2268 ;;Total ram usage:        4 bytes
  2269 ;; Hardware stack levels used:    1
  2270 ;; This function calls:
  2271 ;;		Nothing
  2272 ;; This function is called by:
  2273 ;;		_lcdBegin
  2274 ;; This function uses a non-reentrant model
  2275 ;;
  2276                           psect	text3,local,class=CODE,delta=2,merge=1,group=0
  2277                           	file	"Hormiga877.c"
  2278                           	line	60
  2279                           global __ptext3
  2280                           __ptext3:	;psect for function _pinMode
  2281  15BC                     psect	text3
  2282                           	file	"Hormiga877.c"
  2283                           	line	60
  2284                           	global	__size_of_pinMode
  2285                           	__size_of_pinMode	equ	__end_of_pinMode-_pinMode
  2286  0121                     	
  2287                           _pinMode:	
  2288  15BC                     ;incstack = 0
  2289                           	opt	stack 5
  2290                           ; Regs used in _pinMode: [wreg-fsr0h+status,2+status,0]
  2291                           ;pinMode@pin stored from wreg
  2292                           	movwf	(pinMode@pin)
  2293  15BC  00F3               	line	62
  2294                           	
  2295                           l2806:	
  2296  15BD                     ;Hormiga877.c: 60: void pinMode(char pin, char mode);Hormiga877.c: 61: {;Hormiga877.c: 6
                                 2:     switch(pin)
  2297                           	goto	l2860
  2298  15BD  2E87               	line	64
  2299                           ;Hormiga877.c: 63:     {;Hormiga877.c: 64:         case 0:
  2300                           	
  2301                           l169:	
  2302  15BE                     	line	65
  2303                           	
  2304                           l2808:	
  2305  15BE                     ;Hormiga877.c: 65:             TRISCbits.TRISC7 = mode;
  2306                           	rrf	(pinMode@mode),w
  2307  15BE  0C70               	bsf	status, 5	;RP0=1, select bank1
  2308  15BF  1683               	bcf	status, 6	;RP1=0, select bank1
  2309  15C0  1303               	skipc
  2310  15C1  1C03               	bcf	(135)^080h,7	;volatile
  2311  15C2  1387               	skipnc
  2312  15C3  1803               	bsf	(135)^080h,7	;volatile
  2313  15C4  1787               	line	66
  2314                           ;Hormiga877.c: 66:             break;
  2315                           	goto	l195
  2316  15C5  2EDC               	line	67
  2317                           ;Hormiga877.c: 67:         case 1:
  2318                           	
  2319                           l171:	
  2320  15C6                     	line	68
  2321                           	
  2322                           l2810:	
  2323  15C6                     ;Hormiga877.c: 68:             TRISCbits.TRISC6 = mode;
  2324                           	rrf	(pinMode@mode),w
  2325  15C6  0C70               	bsf	status, 5	;RP0=1, select bank1
  2326  15C7  1683               	bcf	status, 6	;RP1=0, select bank1
  2327  15C8  1303               	skipc
  2328  15C9  1C03               	bcf	(135)^080h,6	;volatile
  2329  15CA  1307               	skipnc
  2330  15CB  1803               	bsf	(135)^080h,6	;volatile
  2331  15CC  1707               	line	69
  2332                           ;Hormiga877.c: 69:             break;
  2333                           	goto	l195
  2334  15CD  2EDC               	line	70
  2335                           ;Hormiga877.c: 70:         case 2:
  2336                           	
  2337                           l172:	
  2338  15CE                     	line	71
  2339                           	
  2340                           l2812:	
  2341  15CE                     ;Hormiga877.c: 71:             TRISCbits.TRISC5 = mode;
  2342                           	rrf	(pinMode@mode),w
  2343  15CE  0C70               	bsf	status, 5	;RP0=1, select bank1
  2344  15CF  1683               	bcf	status, 6	;RP1=0, select bank1
  2345  15D0  1303               	skipc
  2346  15D1  1C03               	bcf	(135)^080h,5	;volatile
  2347  15D2  1287               	skipnc
  2348  15D3  1803               	bsf	(135)^080h,5	;volatile
  2349  15D4  1687               	line	72
  2350                           ;Hormiga877.c: 72:             break;
  2351                           	goto	l195
  2352  15D5  2EDC               	line	73
  2353                           ;Hormiga877.c: 73:         case 3:
  2354                           	
  2355                           l173:	
  2356  15D6                     	line	74
  2357                           	
  2358                           l2814:	
  2359  15D6                     ;Hormiga877.c: 74:             TRISCbits.TRISC4 = mode;
  2360                           	rrf	(pinMode@mode),w
  2361  15D6  0C70               	bsf	status, 5	;RP0=1, select bank1
  2362  15D7  1683               	bcf	status, 6	;RP1=0, select bank1
  2363  15D8  1303               	skipc
  2364  15D9  1C03               	bcf	(135)^080h,4	;volatile
  2365  15DA  1207               	skipnc
  2366  15DB  1803               	bsf	(135)^080h,4	;volatile
  2367  15DC  1607               	line	75
  2368                           ;Hormiga877.c: 75:             break;
  2369                           	goto	l195
  2370  15DD  2EDC               	line	76
  2371                           ;Hormiga877.c: 76:         case 4:
  2372                           	
  2373                           l174:	
  2374  15DE                     	line	77
  2375                           	
  2376                           l2816:	
  2377  15DE                     ;Hormiga877.c: 77:             TRISCbits.TRISC3 = mode;
  2378                           	rrf	(pinMode@mode),w
  2379  15DE  0C70               	bsf	status, 5	;RP0=1, select bank1
  2380  15DF  1683               	bcf	status, 6	;RP1=0, select bank1
  2381  15E0  1303               	skipc
  2382  15E1  1C03               	bcf	(135)^080h,3	;volatile
  2383  15E2  1187               	skipnc
  2384  15E3  1803               	bsf	(135)^080h,3	;volatile
  2385  15E4  1587               	line	78
  2386                           ;Hormiga877.c: 78:             break;
  2387                           	goto	l195
  2388  15E5  2EDC               	line	79
  2389                           ;Hormiga877.c: 79:         case 5:
  2390                           	
  2391                           l175:	
  2392  15E6                     	line	80
  2393                           	
  2394                           l2818:	
  2395  15E6                     ;Hormiga877.c: 80:             TRISCbits.TRISC2 = mode;
  2396                           	rrf	(pinMode@mode),w
  2397  15E6  0C70               	bsf	status, 5	;RP0=1, select bank1
  2398  15E7  1683               	bcf	status, 6	;RP1=0, select bank1
  2399  15E8  1303               	skipc
  2400  15E9  1C03               	bcf	(135)^080h,2	;volatile
  2401  15EA  1107               	skipnc
  2402  15EB  1803               	bsf	(135)^080h,2	;volatile
  2403  15EC  1507               	line	82
  2404                           ;Hormiga877.c: 82:             break;
  2405                           	goto	l195
  2406  15ED  2EDC               	line	83
  2407                           ;Hormiga877.c: 83:         case 6:
  2408                           	
  2409                           l176:	
  2410  15EE                     	line	84
  2411                           	
  2412                           l2820:	
  2413  15EE                     ;Hormiga877.c: 84:             TRISCbits.TRISC1 = mode;
  2414                           	rrf	(pinMode@mode),w
  2415  15EE  0C70               	bsf	status, 5	;RP0=1, select bank1
  2416  15EF  1683               	bcf	status, 6	;RP1=0, select bank1
  2417  15F0  1303               	skipc
  2418  15F1  1C03               	bcf	(135)^080h,1	;volatile
  2419  15F2  1087               	skipnc
  2420  15F3  1803               	bsf	(135)^080h,1	;volatile
  2421  15F4  1487               	line	86
  2422                           ;Hormiga877.c: 86:             break;
  2423                           	goto	l195
  2424  15F5  2EDC               	line	87
  2425                           ;Hormiga877.c: 87:         case 7:
  2426                           	
  2427                           l177:	
  2428  15F6                     	line	88
  2429                           	
  2430                           l2822:	
  2431  15F6                     ;Hormiga877.c: 88:             TRISCbits.TRISC0 = mode;
  2432                           	rrf	(pinMode@mode),w
  2433  15F6  0C70               	bsf	status, 5	;RP0=1, select bank1
  2434  15F7  1683               	bcf	status, 6	;RP1=0, select bank1
  2435  15F8  1303               	skipc
  2436  15F9  1C03               	bcf	(135)^080h,0	;volatile
  2437  15FA  1007               	skipnc
  2438  15FB  1803               	bsf	(135)^080h,0	;volatile
  2439  15FC  1407               	line	89
  2440                           ;Hormiga877.c: 89:             break;
  2441                           	goto	l195
  2442  15FD  2EDC               	line	90
  2443                           ;Hormiga877.c: 90:         case 8:
  2444                           	
  2445                           l178:	
  2446  15FE                     	line	91
  2447                           	
  2448                           l2824:	
  2449  15FE                     ;Hormiga877.c: 91:             TRISBbits.TRISB0 = mode;
  2450                           	rrf	(pinMode@mode),w
  2451  15FE  0C70               	bsf	status, 5	;RP0=1, select bank1
  2452  15FF  1683               	bcf	status, 6	;RP1=0, select bank1
  2453  1600  1303               	skipc
  2454  1601  1C03               	bcf	(134)^080h,0	;volatile
  2455  1602  1006               	skipnc
  2456  1603  1803               	bsf	(134)^080h,0	;volatile
  2457  1604  1406               	line	92
  2458                           ;Hormiga877.c: 92:             break;
  2459                           	goto	l195
  2460  1605  2EDC               	line	93
  2461                           ;Hormiga877.c: 93:         case 9:
  2462                           	
  2463                           l179:	
  2464  1606                     	line	94
  2465                           	
  2466                           l2826:	
  2467  1606                     ;Hormiga877.c: 94:             TRISBbits.TRISB1 = mode;
  2468                           	rrf	(pinMode@mode),w
  2469  1606  0C70               	bsf	status, 5	;RP0=1, select bank1
  2470  1607  1683               	bcf	status, 6	;RP1=0, select bank1
  2471  1608  1303               	skipc
  2472  1609  1C03               	bcf	(134)^080h,1	;volatile
  2473  160A  1086               	skipnc
  2474  160B  1803               	bsf	(134)^080h,1	;volatile
  2475  160C  1486               	line	95
  2476                           ;Hormiga877.c: 95:             break;
  2477                           	goto	l195
  2478  160D  2EDC               	line	96
  2479                           ;Hormiga877.c: 96:         case 10:
  2480                           	
  2481                           l180:	
  2482  160E                     	line	97
  2483                           	
  2484                           l2828:	
  2485  160E                     ;Hormiga877.c: 97:             TRISBbits.TRISB2 = mode;
  2486                           	rrf	(pinMode@mode),w
  2487  160E  0C70               	bsf	status, 5	;RP0=1, select bank1
  2488  160F  1683               	bcf	status, 6	;RP1=0, select bank1
  2489  1610  1303               	skipc
  2490  1611  1C03               	bcf	(134)^080h,2	;volatile
  2491  1612  1106               	skipnc
  2492  1613  1803               	bsf	(134)^080h,2	;volatile
  2493  1614  1506               	line	98
  2494                           ;Hormiga877.c: 98:             break;
  2495                           	goto	l195
  2496  1615  2EDC               	line	99
  2497                           ;Hormiga877.c: 99:         case 11:
  2498                           	
  2499                           l181:	
  2500  1616                     	line	100
  2501                           	
  2502                           l2830:	
  2503  1616                     ;Hormiga877.c: 100:             TRISBbits.TRISB3 = mode;
  2504                           	rrf	(pinMode@mode),w
  2505  1616  0C70               	bsf	status, 5	;RP0=1, select bank1
  2506  1617  1683               	bcf	status, 6	;RP1=0, select bank1
  2507  1618  1303               	skipc
  2508  1619  1C03               	bcf	(134)^080h,3	;volatile
  2509  161A  1186               	skipnc
  2510  161B  1803               	bsf	(134)^080h,3	;volatile
  2511  161C  1586               	line	101
  2512                           ;Hormiga877.c: 101:             break;
  2513                           	goto	l195
  2514  161D  2EDC               	line	102
  2515                           ;Hormiga877.c: 102:         case 12:
  2516                           	
  2517                           l182:	
  2518  161E                     	line	103
  2519                           	
  2520                           l2832:	
  2521  161E                     ;Hormiga877.c: 103:             TRISBbits.TRISB4 = mode;
  2522                           	rrf	(pinMode@mode),w
  2523  161E  0C70               	bsf	status, 5	;RP0=1, select bank1
  2524  161F  1683               	bcf	status, 6	;RP1=0, select bank1
  2525  1620  1303               	skipc
  2526  1621  1C03               	bcf	(134)^080h,4	;volatile
  2527  1622  1206               	skipnc
  2528  1623  1803               	bsf	(134)^080h,4	;volatile
  2529  1624  1606               	line	104
  2530                           ;Hormiga877.c: 104:             break;
  2531                           	goto	l195
  2532  1625  2EDC               	line	105
  2533                           ;Hormiga877.c: 105:         case 13:
  2534                           	
  2535                           l183:	
  2536  1626                     	line	106
  2537                           	
  2538                           l2834:	
  2539  1626                     ;Hormiga877.c: 106:             TRISBbits.TRISB5 = mode;
  2540                           	rrf	(pinMode@mode),w
  2541  1626  0C70               	bsf	status, 5	;RP0=1, select bank1
  2542  1627  1683               	bcf	status, 6	;RP1=0, select bank1
  2543  1628  1303               	skipc
  2544  1629  1C03               	bcf	(134)^080h,5	;volatile
  2545  162A  1286               	skipnc
  2546  162B  1803               	bsf	(134)^080h,5	;volatile
  2547  162C  1686               	line	107
  2548                           ;Hormiga877.c: 107:             break;
  2549                           	goto	l195
  2550  162D  2EDC               	line	108
  2551                           ;Hormiga877.c: 108:         case 14:
  2552                           	
  2553                           l184:	
  2554  162E                     	line	109
  2555                           	
  2556                           l2836:	
  2557  162E                     ;Hormiga877.c: 109:             TRISBbits.TRISB6 = mode;
  2558                           	rrf	(pinMode@mode),w
  2559  162E  0C70               	bsf	status, 5	;RP0=1, select bank1
  2560  162F  1683               	bcf	status, 6	;RP1=0, select bank1
  2561  1630  1303               	skipc
  2562  1631  1C03               	bcf	(134)^080h,6	;volatile
  2563  1632  1306               	skipnc
  2564  1633  1803               	bsf	(134)^080h,6	;volatile
  2565  1634  1706               	line	110
  2566                           ;Hormiga877.c: 110:             break;
  2567                           	goto	l195
  2568  1635  2EDC               	line	111
  2569                           ;Hormiga877.c: 111:         case 15:
  2570                           	
  2571                           l185:	
  2572  1636                     	line	112
  2573                           	
  2574                           l2838:	
  2575  1636                     ;Hormiga877.c: 112:             TRISBbits.TRISB7 = mode;
  2576                           	rrf	(pinMode@mode),w
  2577  1636  0C70               	bsf	status, 5	;RP0=1, select bank1
  2578  1637  1683               	bcf	status, 6	;RP1=0, select bank1
  2579  1638  1303               	skipc
  2580  1639  1C03               	bcf	(134)^080h,7	;volatile
  2581  163A  1386               	skipnc
  2582  163B  1803               	bsf	(134)^080h,7	;volatile
  2583  163C  1786               	line	113
  2584                           ;Hormiga877.c: 113:             break;
  2585                           	goto	l195
  2586  163D  2EDC               	line	114
  2587                           ;Hormiga877.c: 114:         case 16:
  2588                           	
  2589                           l186:	
  2590  163E                     	line	115
  2591                           	
  2592                           l2840:	
  2593  163E                     ;Hormiga877.c: 115:             TRISDbits.TRISD0 = mode;
  2594                           	rrf	(pinMode@mode),w
  2595  163E  0C70               	bsf	status, 5	;RP0=1, select bank1
  2596  163F  1683               	bcf	status, 6	;RP1=0, select bank1
  2597  1640  1303               	skipc
  2598  1641  1C03               	bcf	(136)^080h,0	;volatile
  2599  1642  1008               	skipnc
  2600  1643  1803               	bsf	(136)^080h,0	;volatile
  2601  1644  1408               	line	116
  2602                           ;Hormiga877.c: 116:             break;
  2603                           	goto	l195
  2604  1645  2EDC               	line	117
  2605                           ;Hormiga877.c: 117:         case 17:
  2606                           	
  2607                           l187:	
  2608  1646                     	line	118
  2609                           	
  2610                           l2842:	
  2611  1646                     ;Hormiga877.c: 118:             TRISDbits.TRISD1 = mode;
  2612                           	rrf	(pinMode@mode),w
  2613  1646  0C70               	bsf	status, 5	;RP0=1, select bank1
  2614  1647  1683               	bcf	status, 6	;RP1=0, select bank1
  2615  1648  1303               	skipc
  2616  1649  1C03               	bcf	(136)^080h,1	;volatile
  2617  164A  1088               	skipnc
  2618  164B  1803               	bsf	(136)^080h,1	;volatile
  2619  164C  1488               	line	119
  2620                           ;Hormiga877.c: 119:             break;
  2621                           	goto	l195
  2622  164D  2EDC               	line	120
  2623                           ;Hormiga877.c: 120:         case 18:
  2624                           	
  2625                           l188:	
  2626  164E                     	line	121
  2627                           	
  2628                           l2844:	
  2629  164E                     ;Hormiga877.c: 121:             TRISDbits.TRISD2 = mode;
  2630                           	rrf	(pinMode@mode),w
  2631  164E  0C70               	bsf	status, 5	;RP0=1, select bank1
  2632  164F  1683               	bcf	status, 6	;RP1=0, select bank1
  2633  1650  1303               	skipc
  2634  1651  1C03               	bcf	(136)^080h,2	;volatile
  2635  1652  1108               	skipnc
  2636  1653  1803               	bsf	(136)^080h,2	;volatile
  2637  1654  1508               	line	122
  2638                           ;Hormiga877.c: 122:             break;
  2639                           	goto	l195
  2640  1655  2EDC               	line	123
  2641                           ;Hormiga877.c: 123:         case 19:
  2642                           	
  2643                           l189:	
  2644  1656                     	line	124
  2645                           	
  2646                           l2846:	
  2647  1656                     ;Hormiga877.c: 124:             TRISDbits.TRISD3 = mode;
  2648                           	rrf	(pinMode@mode),w
  2649  1656  0C70               	bsf	status, 5	;RP0=1, select bank1
  2650  1657  1683               	bcf	status, 6	;RP1=0, select bank1
  2651  1658  1303               	skipc
  2652  1659  1C03               	bcf	(136)^080h,3	;volatile
  2653  165A  1188               	skipnc
  2654  165B  1803               	bsf	(136)^080h,3	;volatile
  2655  165C  1588               	line	125
  2656                           ;Hormiga877.c: 125:             break;
  2657                           	goto	l195
  2658  165D  2EDC               	line	126
  2659                           ;Hormiga877.c: 126:         case 20:
  2660                           	
  2661                           l190:	
  2662  165E                     	line	127
  2663                           	
  2664                           l2848:	
  2665  165E                     ;Hormiga877.c: 127:    TRISDbits.TRISD4 = mode;
  2666                           	rrf	(pinMode@mode),w
  2667  165E  0C70               	bsf	status, 5	;RP0=1, select bank1
  2668  165F  1683               	bcf	status, 6	;RP1=0, select bank1
  2669  1660  1303               	skipc
  2670  1661  1C03               	bcf	(136)^080h,4	;volatile
  2671  1662  1208               	skipnc
  2672  1663  1803               	bsf	(136)^080h,4	;volatile
  2673  1664  1608               	line	137
  2674                           ;Hormiga877.c: 137:    break;
  2675                           	goto	l195
  2676  1665  2EDC               	line	138
  2677                           ;Hormiga877.c: 138:         case 21:
  2678                           	
  2679                           l191:	
  2680  1666                     	line	139
  2681                           	
  2682                           l2850:	
  2683  1666                     ;Hormiga877.c: 139:             TRISDbits.TRISD5 = mode;
  2684                           	rrf	(pinMode@mode),w
  2685  1666  0C70               	bsf	status, 5	;RP0=1, select bank1
  2686  1667  1683               	bcf	status, 6	;RP1=0, select bank1
  2687  1668  1303               	skipc
  2688  1669  1C03               	bcf	(136)^080h,5	;volatile
  2689  166A  1288               	skipnc
  2690  166B  1803               	bsf	(136)^080h,5	;volatile
  2691  166C  1688               	line	140
  2692                           ;Hormiga877.c: 140:             break;
  2693                           	goto	l195
  2694  166D  2EDC               	line	141
  2695                           ;Hormiga877.c: 141:         case 22:
  2696                           	
  2697                           l192:	
  2698  166E                     	line	142
  2699                           	
  2700                           l2852:	
  2701  166E                     ;Hormiga877.c: 142:             TRISDbits.TRISD6 = mode;
  2702                           	rrf	(pinMode@mode),w
  2703  166E  0C70               	bsf	status, 5	;RP0=1, select bank1
  2704  166F  1683               	bcf	status, 6	;RP1=0, select bank1
  2705  1670  1303               	skipc
  2706  1671  1C03               	bcf	(136)^080h,6	;volatile
  2707  1672  1308               	skipnc
  2708  1673  1803               	bsf	(136)^080h,6	;volatile
  2709  1674  1708               	line	143
  2710                           ;Hormiga877.c: 143:             break;
  2711                           	goto	l195
  2712  1675  2EDC               	line	144
  2713                           ;Hormiga877.c: 144:         case 23:
  2714                           	
  2715                           l193:	
  2716  1676                     	line	145
  2717                           	
  2718                           l2854:	
  2719  1676                     ;Hormiga877.c: 145:             TRISDbits.TRISD7 = mode;
  2720                           	rrf	(pinMode@mode),w
  2721  1676  0C70               	bsf	status, 5	;RP0=1, select bank1
  2722  1677  1683               	bcf	status, 6	;RP1=0, select bank1
  2723  1678  1303               	skipc
  2724  1679  1C03               	bcf	(136)^080h,7	;volatile
  2725  167A  1388               	skipnc
  2726  167B  1803               	bsf	(136)^080h,7	;volatile
  2727  167C  1788               	line	146
  2728                           ;Hormiga877.c: 146:             break;
  2729                           	goto	l195
  2730  167D  2EDC               	line	147
  2731                           ;Hormiga877.c: 147:         case 24:
  2732                           	
  2733                           l194:	
  2734  167E                     	line	148
  2735                           	
  2736                           l2856:	
  2737  167E                     ;Hormiga877.c: 148:             TRISAbits.TRISA4 = mode;
  2738                           	rrf	(pinMode@mode),w
  2739  167E  0C70               	bsf	status, 5	;RP0=1, select bank1
  2740  167F  1683               	bcf	status, 6	;RP1=0, select bank1
  2741  1680  1303               	skipc
  2742  1681  1C03               	bcf	(133)^080h,4	;volatile
  2743  1682  1205               	skipnc
  2744  1683  1803               	bsf	(133)^080h,4	;volatile
  2745  1684  1605               	line	149
  2746                           ;Hormiga877.c: 149:             break;
  2747                           	goto	l195
  2748  1685  2EDC               	line	164
  2749                           	
  2750                           l2858:	
  2751  1686                     ;Hormiga877.c: 164:     }
  2752                           	goto	l195
  2753  1686  2EDC               	
  2754                           l168:	
  2755  1687                     	
  2756                           l2860:	
  2757  1687                     	movf	(pinMode@pin),w
  2758  1687  0873               	movwf	(??_pinMode+0)+0
  2759  1688  00F1               	clrf	(??_pinMode+0)+0+1
  2760  1689  01F2               	; Switch on 2 bytes has been partitioned into a top level switch of size 1, and 1 sub-s
                                 witches
  2761                           ; Switch size 1, requested type "space"
  2762                           ; Number of cases is 1, Range of values is 0 to 0
  2763                           ; switch strategies available:
  2764                           ; Name         Instructions Cycles
  2765                           ; simple_byte            4     3 (average)
  2766                           ; direct_byte           11     8 (fixed)
  2767                           ; jumptable            260     6 (fixed)
  2768                           ;	Chosen strategy is simple_byte
  2769                           
  2770                           	movf 1+(??_pinMode+0)+0,w
  2771  168A  0872               	opt asmopt_push
  2772                           	opt asmopt_off
  2773                           	xorlw	0^0	; case 0
  2774  168B  3A00               	skipnz
  2775  168C  1903               	goto	l3784
  2776  168D  2E8F               	goto	l195
  2777  168E  2EDC               	opt asmopt_pop
  2778                           	
  2779                           l3784:	
  2780  168F                     ; Switch size 1, requested type "space"
  2781                           ; Number of cases is 25, Range of values is 0 to 24
  2782                           ; switch strategies available:
  2783                           ; Name         Instructions Cycles
  2784                           ; simple_byte           76    39 (average)
  2785                           ; direct_byte           83     8 (fixed)
  2786                           ; jumptable            260     6 (fixed)
  2787                           ;	Chosen strategy is simple_byte
  2788                           
  2789                           	movf 0+(??_pinMode+0)+0,w
  2790  168F  0871               	opt asmopt_push
  2791                           	opt asmopt_off
  2792                           	xorlw	0^0	; case 0
  2793  1690  3A00               	skipnz
  2794  1691  1903               	goto	l2808
  2795  1692  2DBE               	xorlw	1^0	; case 1
  2796  1693  3A01               	skipnz
  2797  1694  1903               	goto	l2810
  2798  1695  2DC6               	xorlw	2^1	; case 2
  2799  1696  3A03               	skipnz
  2800  1697  1903               	goto	l2812
  2801  1698  2DCE               	xorlw	3^2	; case 3
  2802  1699  3A01               	skipnz
  2803  169A  1903               	goto	l2814
  2804  169B  2DD6               	xorlw	4^3	; case 4
  2805  169C  3A07               	skipnz
  2806  169D  1903               	goto	l2816
  2807  169E  2DDE               	xorlw	5^4	; case 5
  2808  169F  3A01               	skipnz
  2809  16A0  1903               	goto	l2818
  2810  16A1  2DE6               	xorlw	6^5	; case 6
  2811  16A2  3A03               	skipnz
  2812  16A3  1903               	goto	l2820
  2813  16A4  2DEE               	xorlw	7^6	; case 7
  2814  16A5  3A01               	skipnz
  2815  16A6  1903               	goto	l2822
  2816  16A7  2DF6               	xorlw	8^7	; case 8
  2817  16A8  3A0F               	skipnz
  2818  16A9  1903               	goto	l2824
  2819  16AA  2DFE               	xorlw	9^8	; case 9
  2820  16AB  3A01               	skipnz
  2821  16AC  1903               	goto	l2826
  2822  16AD  2E06               	xorlw	10^9	; case 10
  2823  16AE  3A03               	skipnz
  2824  16AF  1903               	goto	l2828
  2825  16B0  2E0E               	xorlw	11^10	; case 11
  2826  16B1  3A01               	skipnz
  2827  16B2  1903               	goto	l2830
  2828  16B3  2E16               	xorlw	12^11	; case 12
  2829  16B4  3A07               	skipnz
  2830  16B5  1903               	goto	l2832
  2831  16B6  2E1E               	xorlw	13^12	; case 13
  2832  16B7  3A01               	skipnz
  2833  16B8  1903               	goto	l2834
  2834  16B9  2E26               	xorlw	14^13	; case 14
  2835  16BA  3A03               	skipnz
  2836  16BB  1903               	goto	l2836
  2837  16BC  2E2E               	xorlw	15^14	; case 15
  2838  16BD  3A01               	skipnz
  2839  16BE  1903               	goto	l2838
  2840  16BF  2E36               	xorlw	16^15	; case 16
  2841  16C0  3A1F               	skipnz
  2842  16C1  1903               	goto	l2840
  2843  16C2  2E3E               	xorlw	17^16	; case 17
  2844  16C3  3A01               	skipnz
  2845  16C4  1903               	goto	l2842
  2846  16C5  2E46               	xorlw	18^17	; case 18
  2847  16C6  3A03               	skipnz
  2848  16C7  1903               	goto	l2844
  2849  16C8  2E4E               	xorlw	19^18	; case 19
  2850  16C9  3A01               	skipnz
  2851  16CA  1903               	goto	l2846
  2852  16CB  2E56               	xorlw	20^19	; case 20
  2853  16CC  3A07               	skipnz
  2854  16CD  1903               	goto	l2848
  2855  16CE  2E5E               	xorlw	21^20	; case 21
  2856  16CF  3A01               	skipnz
  2857  16D0  1903               	goto	l2850
  2858  16D1  2E66               	xorlw	22^21	; case 22
  2859  16D2  3A03               	skipnz
  2860  16D3  1903               	goto	l2852
  2861  16D4  2E6E               	xorlw	23^22	; case 23
  2862  16D5  3A01               	skipnz
  2863  16D6  1903               	goto	l2854
  2864  16D7  2E76               	xorlw	24^23	; case 24
  2865  16D8  3A0F               	skipnz
  2866  16D9  1903               	goto	l2856
  2867  16DA  2E7E               	goto	l195
  2868  16DB  2EDC               	opt asmopt_pop
  2869                           
  2870                           	
  2871                           l170:	
  2872  16DC                     	line	165
  2873                           	
  2874                           l195:	
  2875  16DC                     	return
  2876  16DC  0008               	opt stack 0
  2877                           GLOBAL	__end_of_pinMode
  2878                           	__end_of_pinMode:
  2879  16DD                     	signat	_pinMode,8313
  2880                           	global	_SetSampleTime
  2881                           
  2882 ;; *************** function _SetSampleTime *****************
  2883 ;; Defined at:
  2884 ;;		line 29 in file "PIDController.c"
  2885 ;; Parameters:    Size  Location     Type
  2886 ;;  dt              1    wreg     unsigned char 
  2887 ;; Auto vars:     Size  Location     Type
  2888 ;;  dt              1   30[BANK0 ] unsigned char 
  2889 ;; Return value:  Size  Location     Type
  2890 ;;                  1    wreg      void 
  2891 ;; Registers used:
  2892 ;;		wreg, status,2, status,0, btemp+1, pclath, cstack
  2893 ;; Tracked objects:
  2894 ;;		On entry : 0/0
  2895 ;;		On exit  : 0/0
  2896 ;;		Unchanged: 0/0
  2897 ;; Data sizes:     COMMON   BANK0   BANK1   BANK3   BANK2
  2898 ;;      Params:         0       0       0       0       0
  2899 ;;      Locals:         0       1       0       0       0
  2900 ;;      Temps:          0       4       0       0       0
  2901 ;;      Totals:         0       5       0       0       0
  2902 ;;Total ram usage:        5 bytes
  2903 ;; Hardware stack levels used:    1
  2904 ;; Hardware stack levels required when called:    2
  2905 ;; This function calls:
  2906 ;;		___flmul
  2907 ;;		___xxtofl
  2908 ;; This function is called by:
  2909 ;;		_setup
  2910 ;; This function uses a non-reentrant model
  2911 ;;
  2912                           psect	text4,local,class=CODE,delta=2,merge=1,group=0
  2913                           	file	"PIDController.c"
  2914                           	line	29
  2915                           global __ptext4
  2916                           __ptext4:	;psect for function _SetSampleTime
  2917  11B6                     psect	text4
  2918                           	file	"PIDController.c"
  2919                           	line	29
  2920                           	global	__size_of_SetSampleTime
  2921                           	__size_of_SetSampleTime	equ	__end_of_SetSampleTime-_SetSampleTime
  2922  005F                     	
  2923                           _SetSampleTime:	
  2924  11B6                     ;incstack = 0
  2925                           	opt	stack 4
  2926                           ; Regs used in _SetSampleTime: [wreg+status,2+status,0+btemp+1+pclath+cstack]
  2927                           ;SetSampleTime@dt stored from wreg
  2928                           	bcf	status, 5	;RP0=0, select bank0
  2929  11B6  1283               	bcf	status, 6	;RP1=0, select bank0
  2930  11B7  1303               	movwf	(SetSampleTime@dt)
  2931  11B8  00BE               	line	31
  2932                           	
  2933                           l3528:	
  2934  11B9                     ;PIDController.c: 29: void SetSampleTime(char dt);PIDController.c: 30: {;PIDController.c
                                 : 31:     OPTION_REG &= 0xD7;
  2935                           	movlw	low(0D7h)
  2936  11B9  30D7               	movwf	(??_SetSampleTime+0)+0
  2937  11BA  00BA               	movf	(??_SetSampleTime+0)+0,w
  2938  11BB  083A               	bsf	status, 5	;RP0=1, select bank1
  2939  11BC  1683               	bcf	status, 6	;RP1=0, select bank1
  2940  11BD  1303               	andwf	(129)^080h,f	;volatile
  2941  11BE  0581               	line	32
  2942                           	
  2943                           l3530:	
  2944  11BF                     ;PIDController.c: 32:     TMR0IF = 0;
  2945                           	bcf	(90/8),(90)&7	;volatile
  2946  11BF  110B               	line	33
  2947                           ;PIDController.c: 33:     TMR0 = 0xFF - dt;
  2948                           	bcf	status, 5	;RP0=0, select bank0
  2949  11C0  1283               	bcf	status, 6	;RP1=0, select bank0
  2950  11C1  1303               	decf	(SetSampleTime@dt),w
  2951  11C2  033E               	xorlw	0ffh
  2952  11C3  3AFF               	addlw	0FFh
  2953  11C4  3EFF               	movwf	(1)	;volatile
  2954  11C5  0081               	line	34
  2955                           	
  2956                           l3532:	
  2957  11C6                     ;PIDController.c: 34:     PID.SampleT = dt;
  2958                           	movf	(SetSampleTime@dt),w
  2959  11C6  083E               	movwf	(??_SetSampleTime+0)+0
  2960  11C7  00BA               	movf	(??_SetSampleTime+0)+0,w
  2961  11C8  083A               	bsf	status, 5	;RP0=1, select bank3
  2962  11C9  1683               	bsf	status, 6	;RP1=1, select bank3
  2963  11CA  1703               	movwf	0+(_PID)^0180h+010h
  2964  11CB  00A0               	line	35
  2965                           	
  2966                           l3534:	
  2967  11CC                     ;PIDController.c: 35:     PID.dtC = PID.SampleT * 0.000051;
  2968                           	movlw	0x38
  2969  11CC  3038               	bcf	status, 5	;RP0=0, select bank0
  2970  11CD  1283               	bcf	status, 6	;RP1=0, select bank0
  2971  11CE  1303               	movwf	(___flmul@b+3)
  2972  11CF  00A3               	movlw	0x55
  2973  11D0  3055               	movwf	(___flmul@b+2)
  2974  11D1  00A2               	movlw	0xe8
  2975  11D2  30E8               	movwf	(___flmul@b+1)
  2976  11D3  00A1               	movlw	0xd5
  2977  11D4  30D5               	movwf	(___flmul@b)
  2978  11D5  00A0               
  2979                           	bsf	status, 5	;RP0=1, select bank3
  2980  11D6  1683               	bsf	status, 6	;RP1=1, select bank3
  2981  11D7  1703               	movf	0+(_PID)^0180h+010h,w
  2982  11D8  0820               	bcf	status, 5	;RP0=0, select bank0
  2983  11D9  1283               	bcf	status, 6	;RP1=0, select bank0
  2984  11DA  1303               	movwf	(??_SetSampleTime+0)+0
  2985  11DB  00BA               	clrf	(??_SetSampleTime+0)+0+1
  2986  11DC  01BB               	clrf	(??_SetSampleTime+0)+0+2
  2987  11DD  01BC               	clrf	(??_SetSampleTime+0)+0+3
  2988  11DE  01BD               	movf	3+(??_SetSampleTime+0)+0,w
  2989  11DF  083D               	movwf	(___xxtofl@val+3)
  2990  11E0  00F3               	movf	2+(??_SetSampleTime+0)+0,w
  2991  11E1  083C               	movwf	(___xxtofl@val+2)
  2992  11E2  00F2               	movf	1+(??_SetSampleTime+0)+0,w
  2993  11E3  083B               	movwf	(___xxtofl@val+1)
  2994  11E4  00F1               	movf	0+(??_SetSampleTime+0)+0,w
  2995  11E5  083A               	movwf	(___xxtofl@val)
  2996  11E6  00F0               
  2997                           	movlw	low(01h)
  2998  11E7  3001               	fcall	___xxtofl
  2999  11E8  160A  118A  241A  160A  118A  	movf	(3+(?___xxtofl)),w
  3000  11ED  0873               	bcf	status, 5	;RP0=0, select bank0
  3001  11EE  1283               	bcf	status, 6	;RP1=0, select bank0
  3002  11EF  1303               	movwf	(___flmul@a+3)
  3003  11F0  00A7               	movf	(2+(?___xxtofl)),w
  3004  11F1  0872               	movwf	(___flmul@a+2)
  3005  11F2  00A6               	movf	(1+(?___xxtofl)),w
  3006  11F3  0871               	movwf	(___flmul@a+1)
  3007  11F4  00A5               	movf	(0+(?___xxtofl)),w
  3008  11F5  0870               	movwf	(___flmul@a)
  3009  11F6  00A4               
  3010                           	fcall	___flmul
  3011  11F7  120A  118A  2475  160A  118A  	bcf	status, 5	;RP0=0, select bank0
  3012  11FC  1283               	bcf	status, 6	;RP1=0, select bank0
  3013  11FD  1303               	movf	(3+(?___flmul)),w
  3014  11FE  0823               	bsf	status, 5	;RP0=1, select bank3
  3015  11FF  1683               	bsf	status, 6	;RP1=1, select bank3
  3016  1200  1703               	movwf	3+(_PID)^0180h+0Ch
  3017  1201  009F               	bcf	status, 5	;RP0=0, select bank0
  3018  1202  1283               	bcf	status, 6	;RP1=0, select bank0
  3019  1203  1303               	movf	(2+(?___flmul)),w
  3020  1204  0822               	bsf	status, 5	;RP0=1, select bank3
  3021  1205  1683               	bsf	status, 6	;RP1=1, select bank3
  3022  1206  1703               	movwf	2+(_PID)^0180h+0Ch
  3023  1207  009E               	bcf	status, 5	;RP0=0, select bank0
  3024  1208  1283               	bcf	status, 6	;RP1=0, select bank0
  3025  1209  1303               	movf	(1+(?___flmul)),w
  3026  120A  0821               	bsf	status, 5	;RP0=1, select bank3
  3027  120B  1683               	bsf	status, 6	;RP1=1, select bank3
  3028  120C  1703               	movwf	1+(_PID)^0180h+0Ch
  3029  120D  009D               	bcf	status, 5	;RP0=0, select bank0
  3030  120E  1283               	bcf	status, 6	;RP1=0, select bank0
  3031  120F  1303               	movf	(0+(?___flmul)),w
  3032  1210  0820               	bsf	status, 5	;RP0=1, select bank3
  3033  1211  1683               	bsf	status, 6	;RP1=1, select bank3
  3034  1212  1703               	movwf	0+(_PID)^0180h+0Ch
  3035  1213  009C               
  3036                           	line	36
  3037                           	
  3038                           l389:	
  3039  1214                     	return
  3040  1214  0008               	opt stack 0
  3041                           GLOBAL	__end_of_SetSampleTime
  3042                           	__end_of_SetSampleTime:
  3043  1215                     	signat	_SetSampleTime,4217
  3044                           	global	___xxtofl
  3045                           
  3046 ;; *************** function ___xxtofl *****************
  3047 ;; Defined at:
  3048 ;;		line 10 in file "C:\Program Files (x86)\Microchip\xc8\v2.00\pic\sources\c90\common\xxtofl.c"
  3049 ;; Parameters:    Size  Location     Type
  3050 ;;  sign            1    wreg     unsigned char 
  3051 ;;  val             4    0[COMMON] long 
  3052 ;; Auto vars:     Size  Location     Type
  3053 ;;  sign            1    8[COMMON] unsigned char 
  3054 ;;  arg             4   10[COMMON] unsigned long 
  3055 ;;  exp             1    9[COMMON] unsigned char 
  3056 ;; Return value:  Size  Location     Type
  3057 ;;                  4    0[COMMON] unsigned char 
  3058 ;; Registers used:
  3059 ;;		wreg, status,2, status,0
  3060 ;; Tracked objects:
  3061 ;;		On entry : 0/0
  3062 ;;		On exit  : 0/0
  3063 ;;		Unchanged: 0/0
  3064 ;; Data sizes:     COMMON   BANK0   BANK1   BANK3   BANK2
  3065 ;;      Params:         4       0       0       0       0
  3066 ;;      Locals:         6       0       0       0       0
  3067 ;;      Temps:          4       0       0       0       0
  3068 ;;      Totals:        14       0       0       0       0
  3069 ;;Total ram usage:       14 bytes
  3070 ;; Hardware stack levels used:    1
  3071 ;; This function calls:
  3072 ;;		Nothing
  3073 ;; This function is called by:
  3074 ;;		_SetSampleTime
  3075 ;; This function uses a non-reentrant model
  3076 ;;
  3077                           psect	text5,local,class=CODE,delta=2,merge=1,group=1
  3078                           	file	"C:\Program Files (x86)\Microchip\xc8\v2.00\pic\sources\c90\common\xxtofl.c"
  3079                           	line	10
  3080                           global __ptext5
  3081                           __ptext5:	;psect for function ___xxtofl
  3082  141A                     psect	text5
  3083                           	file	"C:\Program Files (x86)\Microchip\xc8\v2.00\pic\sources\c90\common\xxtofl.c"
  3084                           	line	10
  3085                           	global	__size_of___xxtofl
  3086                           	__size_of___xxtofl	equ	__end_of___xxtofl-___xxtofl
  3087  00C2                     	
  3088                           ___xxtofl:	
  3089  141A                     ;incstack = 0
  3090                           	opt	stack 5
  3091                           ; Regs used in ___xxtofl: [wreg+status,2+status,0]
  3092                           ;___xxtofl@sign stored from wreg
  3093                           	movwf	(___xxtofl@sign)
  3094  141A  00F8               	line	15
  3095                           	
  3096                           l3434:	
  3097  141B                     	movf	((___xxtofl@sign)),w
  3098  141B  0878               	btfsc	status,2
  3099  141C  1903               	goto	u3311
  3100  141D  2C1F               	goto	u3310
  3101  141E  2C20               u3311:
  3102  141F                     	goto	l3440
  3103  141F  2C34               u3310:
  3104  1420                     	
  3105                           l3436:	
  3106  1420                     	btfss	(___xxtofl@val+3),7
  3107  1420  1FF3               	goto	u3321
  3108  1421  2C23               	goto	u3320
  3109  1422  2C24               u3321:
  3110  1423                     	goto	l3440
  3111  1423  2C34               u3320:
  3112  1424                     	line	16
  3113                           	
  3114                           l3438:	
  3115  1424                     	comf	(___xxtofl@val)+0,w
  3116  1424  0970               	movwf	(___xxtofl@arg)
  3117  1425  00FA               	comf	(___xxtofl@val)+1,w
  3118  1426  0971               	movwf	(___xxtofl@arg+1)
  3119  1427  00FB               	comf	(___xxtofl@val)+2,w
  3120  1428  0972               	movwf	(___xxtofl@arg+2)
  3121  1429  00FC               	comf	(___xxtofl@val)+3,w
  3122  142A  0973               	movwf	(___xxtofl@arg+3)
  3123  142B  00FD               	incf	(___xxtofl@arg),f
  3124  142C  0AFA               	skipnz
  3125  142D  1903               	incf	(___xxtofl@arg+1),f
  3126  142E  0AFB               	skipnz
  3127  142F  1903               	incf	(___xxtofl@arg+2),f
  3128  1430  0AFC               	skipnz
  3129  1431  1903               	incf	(___xxtofl@arg+3),f
  3130  1432  0AFD               	line	17
  3131                           	goto	l1001
  3132  1433  2C3C               	line	18
  3133                           	
  3134                           l1000:	
  3135  1434                     	line	19
  3136                           	
  3137                           l3440:	
  3138  1434                     	movf	(___xxtofl@val+3),w
  3139  1434  0873               	movwf	(___xxtofl@arg+3)
  3140  1435  00FD               	movf	(___xxtofl@val+2),w
  3141  1436  0872               	movwf	(___xxtofl@arg+2)
  3142  1437  00FC               	movf	(___xxtofl@val+1),w
  3143  1438  0871               	movwf	(___xxtofl@arg+1)
  3144  1439  00FB               	movf	(___xxtofl@val),w
  3145  143A  0870               	movwf	(___xxtofl@arg)
  3146  143B  00FA               
  3147                           	line	20
  3148                           	
  3149                           l1001:	
  3150  143C                     	line	21
  3151                           	movf	(___xxtofl@val+3),w
  3152  143C  0873               	iorwf	(___xxtofl@val+2),w
  3153  143D  0472               	iorwf	(___xxtofl@val+1),w
  3154  143E  0471               	iorwf	(___xxtofl@val),w
  3155  143F  0470               	skipz
  3156  1440  1D03               	goto	u3331
  3157  1441  2C43               	goto	u3330
  3158  1442  2C44               u3331:
  3159  1443                     	goto	l3446
  3160  1443  2C4E               u3330:
  3161  1444                     	line	22
  3162                           	
  3163                           l3442:	
  3164  1444                     	movlw	0x0
  3165  1444  3000               	movwf	(?___xxtofl+3)
  3166  1445  00F3               	movlw	0x0
  3167  1446  3000               	movwf	(?___xxtofl+2)
  3168  1447  00F2               	movlw	0x0
  3169  1448  3000               	movwf	(?___xxtofl+1)
  3170  1449  00F1               	movlw	0x0
  3171  144A  3000               	movwf	(?___xxtofl)
  3172  144B  00F0               
  3173                           	goto	l1003
  3174  144C  2CDB               	
  3175                           l3444:	
  3176  144D                     	goto	l1003
  3177  144D  2CDB               	
  3178                           l1002:	
  3179  144E                     	line	23
  3180                           	
  3181                           l3446:	
  3182  144E                     	movlw	low(096h)
  3183  144E  3096               	movwf	(??___xxtofl+0)+0
  3184  144F  00F4               	movf	(??___xxtofl+0)+0,w
  3185  1450  0874               	movwf	(___xxtofl@exp)
  3186  1451  00F9               	line	24
  3187                           	goto	l3450
  3188  1452  2C61               	
  3189                           l1005:	
  3190  1453                     	line	25
  3191                           	
  3192                           l3448:	
  3193  1453                     	movlw	low(01h)
  3194  1453  3001               	movwf	(??___xxtofl+0)+0
  3195  1454  00F4               	movf	(??___xxtofl+0)+0,w
  3196  1455  0874               	addwf	(___xxtofl@exp),f
  3197  1456  07F9               	line	26
  3198                           	movlw	01h
  3199  1457  3001               u3345:
  3200  1458                     	clrc
  3201  1458  1003               	rrf	(___xxtofl@arg+3),f
  3202  1459  0CFD               	rrf	(___xxtofl@arg+2),f
  3203  145A  0CFC               	rrf	(___xxtofl@arg+1),f
  3204  145B  0CFB               	rrf	(___xxtofl@arg),f
  3205  145C  0CFA               	addlw	-1
  3206  145D  3EFF               	skipz
  3207  145E  1D03               	goto	u3345
  3208  145F  2C58               
  3209                           	goto	l3450
  3210  1460  2C61               	line	27
  3211                           	
  3212                           l1004:	
  3213  1461                     	line	24
  3214                           	
  3215                           l3450:	
  3216  1461                     	movlw	high highword(0FE000000h)
  3217  1461  30FE               	andwf	(___xxtofl@arg+3),w
  3218  1462  057D               	btfss	status,2
  3219  1463  1D03               	goto	u3351
  3220  1464  2C66               	goto	u3350
  3221  1465  2C67               u3351:
  3222  1466                     	goto	l3448
  3223  1466  2C53               u3350:
  3224  1467                     	goto	l1007
  3225  1467  2C84               	
  3226                           l1006:	
  3227  1468                     	line	28
  3228                           	goto	l1007
  3229  1468  2C84               	
  3230                           l1008:	
  3231  1469                     	line	29
  3232                           	
  3233                           l3452:	
  3234  1469                     	movlw	low(01h)
  3235  1469  3001               	movwf	(??___xxtofl+0)+0
  3236  146A  00F4               	movf	(??___xxtofl+0)+0,w
  3237  146B  0874               	addwf	(___xxtofl@exp),f
  3238  146C  07F9               	line	30
  3239                           	
  3240                           l3454:	
  3241  146D                     	movlw	01h
  3242  146D  3001               	addwf	(___xxtofl@arg),f
  3243  146E  07FA               	movlw	0
  3244  146F  3000               	skipnc
  3245  1470  1803               movlw 1
  3246  1471  3001               	addwf	(___xxtofl@arg+1),f
  3247  1472  07FB               	movlw	0
  3248  1473  3000               	skipnc
  3249  1474  1803               movlw 1
  3250  1475  3001               	addwf	(___xxtofl@arg+2),f
  3251  1476  07FC               	movlw	0
  3252  1477  3000               	skipnc
  3253  1478  1803               movlw 1
  3254  1479  3001               	addwf	(___xxtofl@arg+3),f
  3255  147A  07FD               	line	31
  3256                           	
  3257                           l3456:	
  3258  147B                     	movlw	01h
  3259  147B  3001               u3365:
  3260  147C                     	clrc
  3261  147C  1003               	rrf	(___xxtofl@arg+3),f
  3262  147D  0CFD               	rrf	(___xxtofl@arg+2),f
  3263  147E  0CFC               	rrf	(___xxtofl@arg+1),f
  3264  147F  0CFB               	rrf	(___xxtofl@arg),f
  3265  1480  0CFA               	addlw	-1
  3266  1481  3EFF               	skipz
  3267  1482  1D03               	goto	u3365
  3268  1483  2C7C               
  3269                           	line	32
  3270                           	
  3271                           l1007:	
  3272  1484                     	line	28
  3273                           	movlw	high highword(0FF000000h)
  3274  1484  30FF               	andwf	(___xxtofl@arg+3),w
  3275  1485  057D               	btfss	status,2
  3276  1486  1D03               	goto	u3371
  3277  1487  2C89               	goto	u3370
  3278  1488  2C8A               u3371:
  3279  1489                     	goto	l3452
  3280  1489  2C69               u3370:
  3281  148A                     	goto	l3460
  3282  148A  2C98               	
  3283                           l1009:	
  3284  148B                     	line	33
  3285                           	goto	l3460
  3286  148B  2C98               	
  3287                           l1011:	
  3288  148C                     	line	34
  3289                           	
  3290                           l3458:	
  3291  148C                     	movlw	01h
  3292  148C  3001               	subwf	(___xxtofl@exp),f
  3293  148D  02F9               	line	35
  3294                           	movlw	01h
  3295  148E  3001               	movwf	(??___xxtofl+0)+0
  3296  148F  00F4               u3385:
  3297  1490                     	clrc
  3298  1490  1003               	rlf	(___xxtofl@arg),f
  3299  1491  0DFA               	rlf	(___xxtofl@arg+1),f
  3300  1492  0DFB               	rlf	(___xxtofl@arg+2),f
  3301  1493  0DFC               	rlf	(___xxtofl@arg+3),f
  3302  1494  0DFD               	decfsz	(??___xxtofl+0)+0
  3303  1495  0BF4               	goto	u3385
  3304  1496  2C90               	goto	l3460
  3305  1497  2C98               	line	36
  3306                           	
  3307                           l1010:	
  3308  1498                     	line	33
  3309                           	
  3310                           l3460:	
  3311  1498                     	btfsc	(___xxtofl@arg+2),(23)&7
  3312  1498  1BFC               	goto	u3391
  3313  1499  2C9B               	goto	u3390
  3314  149A  2C9C               u3391:
  3315  149B                     	goto	l1014
  3316  149B  2CA3               u3390:
  3317  149C                     	
  3318                           l3462:	
  3319  149C                     	movlw	low(02h)
  3320  149C  3002               	subwf	(___xxtofl@exp),w
  3321  149D  0279               	skipnc
  3322  149E  1803               	goto	u3401
  3323  149F  2CA1               	goto	u3400
  3324  14A0  2CA2               u3401:
  3325  14A1                     	goto	l3458
  3326  14A1  2C8C               u3400:
  3327  14A2                     	goto	l1014
  3328  14A2  2CA3               	
  3329                           l1013:	
  3330  14A3                     	
  3331                           l1014:	
  3332  14A3                     	line	37
  3333                           	btfsc	(___xxtofl@exp),(0)&7
  3334  14A3  1879               	goto	u3411
  3335  14A4  2CA6               	goto	u3410
  3336  14A5  2CA7               u3411:
  3337  14A6                     	goto	l1015
  3338  14A6  2CAF               u3410:
  3339  14A7                     	line	38
  3340                           	
  3341                           l3464:	
  3342  14A7                     	movlw	0FFh
  3343  14A7  30FF               	andwf	(___xxtofl@arg),f
  3344  14A8  05FA               	movlw	0FFh
  3345  14A9  30FF               	andwf	(___xxtofl@arg+1),f
  3346  14AA  05FB               	movlw	07Fh
  3347  14AB  307F               	andwf	(___xxtofl@arg+2),f
  3348  14AC  05FC               	movlw	0FFh
  3349  14AD  30FF               	andwf	(___xxtofl@arg+3),f
  3350  14AE  05FD               	
  3351                           l1015:	
  3352  14AF                     	line	39
  3353                           	clrc
  3354  14AF  1003               	rrf	(___xxtofl@exp),f
  3355  14B0  0CF9               
  3356                           	line	40
  3357                           	
  3358                           l3466:	
  3359  14B1                     	movf	(___xxtofl@exp),w
  3360  14B1  0879               	movwf	(??___xxtofl+0)+0
  3361  14B2  00F4               	clrf	(??___xxtofl+0)+0+1
  3362  14B3  01F5               	clrf	(??___xxtofl+0)+0+2
  3363  14B4  01F6               	clrf	(??___xxtofl+0)+0+3
  3364  14B5  01F7               	movlw	018h
  3365  14B6  3018               u3425:
  3366  14B7                     	clrc
  3367  14B7  1003               	rlf	(??___xxtofl+0)+0,f
  3368  14B8  0DF4               	rlf	(??___xxtofl+0)+1,f
  3369  14B9  0DF5               	rlf	(??___xxtofl+0)+2,f
  3370  14BA  0DF6               	rlf	(??___xxtofl+0)+3,f
  3371  14BB  0DF7               u3420:
  3372  14BC                     	addlw	-1
  3373  14BC  3EFF               	skipz
  3374  14BD  1D03               	goto	u3425
  3375  14BE  2CB7               	movf	0+(??___xxtofl+0)+0,w
  3376  14BF  0874               	iorwf	(___xxtofl@arg),f
  3377  14C0  04FA               	movf	1+(??___xxtofl+0)+0,w
  3378  14C1  0875               	iorwf	(___xxtofl@arg+1),f
  3379  14C2  04FB               	movf	2+(??___xxtofl+0)+0,w
  3380  14C3  0876               	iorwf	(___xxtofl@arg+2),f
  3381  14C4  04FC               	movf	3+(??___xxtofl+0)+0,w
  3382  14C5  0877               	iorwf	(___xxtofl@arg+3),f
  3383  14C6  04FD               	line	41
  3384                           	
  3385                           l3468:	
  3386  14C7                     	movf	((___xxtofl@sign)),w
  3387  14C7  0878               	btfsc	status,2
  3388  14C8  1903               	goto	u3431
  3389  14C9  2CCB               	goto	u3430
  3390  14CA  2CCC               u3431:
  3391  14CB                     	goto	l3474
  3392  14CB  2CD2               u3430:
  3393  14CC                     	
  3394                           l3470:	
  3395  14CC                     	btfss	(___xxtofl@val+3),7
  3396  14CC  1FF3               	goto	u3441
  3397  14CD  2CCF               	goto	u3440
  3398  14CE  2CD0               u3441:
  3399  14CF                     	goto	l3474
  3400  14CF  2CD2               u3440:
  3401  14D0                     	line	42
  3402                           	
  3403                           l3472:	
  3404  14D0                     	bsf	(___xxtofl@arg)+(31/8),(31)&7
  3405  14D0  17FD               	goto	l3474
  3406  14D1  2CD2               	
  3407                           l1016:	
  3408  14D2                     	line	43
  3409                           	
  3410                           l3474:	
  3411  14D2                     	movf	(___xxtofl@arg+3),w
  3412  14D2  087D               	movwf	(?___xxtofl+3)
  3413  14D3  00F3               	movf	(___xxtofl@arg+2),w
  3414  14D4  087C               	movwf	(?___xxtofl+2)
  3415  14D5  00F2               	movf	(___xxtofl@arg+1),w
  3416  14D6  087B               	movwf	(?___xxtofl+1)
  3417  14D7  00F1               	movf	(___xxtofl@arg),w
  3418  14D8  087A               	movwf	(?___xxtofl)
  3419  14D9  00F0               
  3420                           	goto	l1003
  3421  14DA  2CDB               	
  3422                           l3476:	
  3423  14DB                     	line	44
  3424                           	
  3425                           l1003:	
  3426  14DB                     	return
  3427  14DB  0008               	opt stack 0
  3428                           GLOBAL	__end_of___xxtofl
  3429                           	__end_of___xxtofl:
  3430  14DC                     	signat	___xxtofl,8316
  3431                           	global	_loop
  3432                           
  3433 ;; *************** function _loop *****************
  3434 ;; Defined at:
  3435 ;;		line 29 in file "application.c"
  3436 ;; Parameters:    Size  Location     Type
  3437 ;;		None
  3438 ;; Auto vars:     Size  Location     Type
  3439 ;;  Voltage         4   30[BANK1 ] unsigned char 
  3440 ;; Return value:  Size  Location     Type
  3441 ;;                  1    wreg      void 
  3442 ;; Registers used:
  3443 ;;		wreg, fsr0l, fsr0h, status,2, status,0, btemp+1, pclath, cstack
  3444 ;; Tracked objects:
  3445 ;;		On entry : 0/0
  3446 ;;		On exit  : 0/0
  3447 ;;		Unchanged: 0/0
  3448 ;; Data sizes:     COMMON   BANK0   BANK1   BANK3   BANK2
  3449 ;;      Params:         0       0       0       0       0
  3450 ;;      Locals:         0       0       4       0       0
  3451 ;;      Temps:          0       0       2       0       0
  3452 ;;      Totals:         0       0       6       0       0
  3453 ;;Total ram usage:        6 bytes
  3454 ;; Hardware stack levels used:    1
  3455 ;; Hardware stack levels required when called:    5
  3456 ;; This function calls:
  3457 ;;		_AccionControl
  3458 ;;		_EventCounter
  3459 ;;		_lcdPrint
  3460 ;;		_lcdSetCursor
  3461 ;;		_map
  3462 ;;		_sprintf
  3463 ;; This function is called by:
  3464 ;;		_main
  3465 ;; This function uses a non-reentrant model
  3466 ;;
  3467                           psect	text6,local,class=CODE,delta=2,merge=1,group=0
  3468                           	file	"application.c"
  3469                           	line	29
  3470                           global __ptext6
  3471                           __ptext6:	;psect for function _loop
  3472  0801                     psect	text6
  3473                           	file	"application.c"
  3474                           	line	29
  3475                           	global	__size_of_loop
  3476                           	__size_of_loop	equ	__end_of_loop-_loop
  3477  00FA                     	
  3478                           _loop:	
  3479  0801                     ;incstack = 0
  3480                           	opt	stack 2
  3481                           ; Regs used in _loop: [wreg-fsr0h+status,2+status,0+btemp+1+pclath+cstack]
  3482                           	line	31
  3483                           	
  3484                           l3624:	
  3485  0801                     ;application.c: 31:     Now = EventCounter();
  3486                           	fcall	_EventCounter
  3487  0801  160A  158A  278E  120A  158A  	movf	(1+(?_EventCounter)),w
  3488  0806  0871               	bsf	status, 5	;RP0=1, select bank1
  3489  0807  1683               	bcf	status, 6	;RP1=0, select bank1
  3490  0808  1303               	movwf	(_Now+1)^080h
  3491  0809  00CB               	movf	(0+(?_EventCounter)),w
  3492  080A  0870               	movwf	(_Now)^080h
  3493  080B  00CA               	line	32
  3494                           	
  3495                           l3626:	
  3496  080C                     ;application.c: 32:     sprintf(ScreenROW,"NOW=%u",dTime);
  3497                           	movlw	(low((((STR_2)-__stringbase)|8000h)))&0ffh
  3498  080C  303D               	movwf	(??_loop+0)^080h+0
  3499  080D  00BC               	movf	(??_loop+0)^080h+0,w
  3500  080E  083C               	bcf	status, 5	;RP0=0, select bank0
  3501  080F  1283               	bcf	status, 6	;RP1=0, select bank0
  3502  0810  1303               	movwf	(sprintf@f)
  3503  0811  00A0               	bsf	status, 5	;RP0=1, select bank1
  3504  0812  1683               	bcf	status, 6	;RP1=0, select bank1
  3505  0813  1303               	movf	(_dTime+1)^080h,w
  3506  0814  084D               	bcf	status, 5	;RP0=0, select bank0
  3507  0815  1283               	bcf	status, 6	;RP1=0, select bank0
  3508  0816  1303               	movwf	1+(?_sprintf)+01h
  3509  0817  00A2               	bsf	status, 5	;RP0=1, select bank1
  3510  0818  1683               	bcf	status, 6	;RP1=0, select bank1
  3511  0819  1303               	movf	(_dTime)^080h,w
  3512  081A  084C               	bcf	status, 5	;RP0=0, select bank0
  3513  081B  1283               	bcf	status, 6	;RP1=0, select bank0
  3514  081C  1303               	movwf	0+(?_sprintf)+01h
  3515  081D  00A1               	movlw	(low(_ScreenROW|((0x0)<<8)))&0ffh
  3516  081E  30CE               	fcall	_sprintf
  3517  081F  160A  118A  24DC  120A  158A  	line	33
  3518                           	
  3519                           l3628:	
  3520  0824                     ;application.c: 33:     lcdPrint(ScreenROW);
  3521                           	movlw	(low(_ScreenROW|((0x0)<<8))&0ffh)
  3522  0824  30CE               	bcf	status, 5	;RP0=0, select bank0
  3523  0825  1283               	bcf	status, 6	;RP1=0, select bank0
  3524  0826  1303               	movwf	(lcdPrint@string)
  3525  0827  00A0               	movlw	(0x0)
  3526  0828  3000               	movwf	(lcdPrint@string+1)
  3527  0829  00A1               	fcall	_lcdPrint
  3528  082A  160A  118A  20D5  120A  158A  	line	34
  3529                           	
  3530                           l3630:	
  3531  082F                     ;application.c: 34:     lcdSetCursor(2,8);
  3532                           	movlw	low(08h)
  3533  082F  3008               	bsf	status, 5	;RP0=1, select bank1
  3534  0830  1683               	bcf	status, 6	;RP1=0, select bank1
  3535  0831  1303               	movwf	(??_loop+0)^080h+0
  3536  0832  00BC               	movf	(??_loop+0)^080h+0,w
  3537  0833  083C               	movwf	(lcdSetCursor@column)
  3538  0834  00FC               	movlw	low(02h)
  3539  0835  3002               	fcall	_lcdSetCursor
  3540  0836  160A  118A  2068  120A  158A  	line	35
  3541                           	
  3542                           l3632:	
  3543  083B                     ;application.c: 35:     dTime = Now - Last;
  3544                           	bsf	status, 5	;RP0=1, select bank1
  3545  083B  1683               	bcf	status, 6	;RP1=0, select bank1
  3546  083C  1303               	comf	(_Last)^080h,w
  3547  083D  0948               	movwf	(??_loop+0)^080h+0
  3548  083E  00BC               	comf	(_Last+1)^080h,w
  3549  083F  0949               	movwf	((??_loop+0)^080h+0+1)
  3550  0840  00BD               	incf	(??_loop+0)^080h+0,f
  3551  0841  0ABC               	skipnz
  3552  0842  1903               	incf	((??_loop+0)^080h+0+1),f
  3553  0843  0ABD               	movf	(_Now)^080h,w
  3554  0844  084A               	addwf	0+(??_loop+0)^080h+0,w
  3555  0845  073C               	movwf	(_dTime)^080h
  3556  0846  00CC               	movf	(_Now+1)^080h,w
  3557  0847  084B               	skipnc
  3558  0848  1803               	incf	(_Now+1)^080h,w
  3559  0849  0A4B               	addwf	1+(??_loop+0)^080h+0,w
  3560  084A  073D               	movwf	1+(_dTime)^080h
  3561  084B  00CD               	line	36
  3562                           	
  3563                           l3634:	
  3564  084C                     ;application.c: 36:     if(dTime >= 20)
  3565                           	movlw	0
  3566  084C  3000               	subwf	(_dTime+1)^080h,w
  3567  084D  024D               	movlw	014h
  3568  084E  3014               	skipnz
  3569  084F  1903               	subwf	(_dTime)^080h,w
  3570  0850  024C               	skipc
  3571  0851  1C03               	goto	u3571
  3572  0852  2854               	goto	u3570
  3573  0853  2855               u3571:
  3574  0854                     	goto	l49
  3575  0854  28FA               u3570:
  3576  0855                     	line	38
  3577                           	
  3578                           l3636:	
  3579  0855                     ;application.c: 37:     {;application.c: 38:         dt++;
  3580                           	movlw	01h
  3581  0855  3001               	addwf	(_dt)^080h,f
  3582  0856  07C6               	skipnc
  3583  0857  1803               	incf	(_dt+1)^080h,f
  3584  0858  0AC7               	movlw	0
  3585  0859  3000               	addwf	(_dt+1)^080h,f
  3586  085A  07C7               	line	39
  3587                           	
  3588                           l3638:	
  3589  085B                     ;application.c: 39:         lcdSetCursor(2,1);
  3590                           	clrf	(lcdSetCursor@column)
  3591  085B  01FC               	incf	(lcdSetCursor@column),f
  3592  085C  0AFC               	movlw	low(02h)
  3593  085D  3002               	fcall	_lcdSetCursor
  3594  085E  160A  118A  2068  120A  158A  	line	40
  3595                           	
  3596                           l3640:	
  3597  0863                     ;application.c: 40:         lcdPrint("                ");
  3598                           	movlw	(low((((STR_3)-__stringbase)|8000h)))&0ffh
  3599  0863  3012               	bcf	status, 5	;RP0=0, select bank0
  3600  0864  1283               	bcf	status, 6	;RP1=0, select bank0
  3601  0865  1303               	movwf	(lcdPrint@string)
  3602  0866  00A0               	movlw	80h
  3603  0867  3080               	movwf	(lcdPrint@string+1)
  3604  0868  00A1               	fcall	_lcdPrint
  3605  0869  160A  118A  20D5  120A  158A  	line	41
  3606                           	
  3607                           l3642:	
  3608  086E                     ;application.c: 41:         lcdSetCursor(2,1);
  3609                           	clrf	(lcdSetCursor@column)
  3610  086E  01FC               	incf	(lcdSetCursor@column),f
  3611  086F  0AFC               	movlw	low(02h)
  3612  0870  3002               	fcall	_lcdSetCursor
  3613  0871  160A  118A  2068  120A  158A  	line	42
  3614                           	
  3615                           l3644:	
  3616  0876                     ;application.c: 42:         sprintf(ScreenROW,"Time=%u ",dt);
  3617                           	movlw	(low((((STR_4)-__stringbase)|8000h)))&0ffh
  3618  0876  3034               	bsf	status, 5	;RP0=1, select bank1
  3619  0877  1683               	bcf	status, 6	;RP1=0, select bank1
  3620  0878  1303               	movwf	(??_loop+0)^080h+0
  3621  0879  00BC               	movf	(??_loop+0)^080h+0,w
  3622  087A  083C               	bcf	status, 5	;RP0=0, select bank0
  3623  087B  1283               	bcf	status, 6	;RP1=0, select bank0
  3624  087C  1303               	movwf	(sprintf@f)
  3625  087D  00A0               	bsf	status, 5	;RP0=1, select bank1
  3626  087E  1683               	bcf	status, 6	;RP1=0, select bank1
  3627  087F  1303               	movf	(_dt+1)^080h,w
  3628  0880  0847               	bcf	status, 5	;RP0=0, select bank0
  3629  0881  1283               	bcf	status, 6	;RP1=0, select bank0
  3630  0882  1303               	movwf	1+(?_sprintf)+01h
  3631  0883  00A2               	bsf	status, 5	;RP0=1, select bank1
  3632  0884  1683               	bcf	status, 6	;RP1=0, select bank1
  3633  0885  1303               	movf	(_dt)^080h,w
  3634  0886  0846               	bcf	status, 5	;RP0=0, select bank0
  3635  0887  1283               	bcf	status, 6	;RP1=0, select bank0
  3636  0888  1303               	movwf	0+(?_sprintf)+01h
  3637  0889  00A1               	movlw	(low(_ScreenROW|((0x0)<<8)))&0ffh
  3638  088A  30CE               	fcall	_sprintf
  3639  088B  160A  118A  24DC  120A  158A  	line	43
  3640                           	
  3641                           l3646:	
  3642  0890                     ;application.c: 43:         lcdPrint(ScreenROW);
  3643                           	movlw	(low(_ScreenROW|((0x0)<<8))&0ffh)
  3644  0890  30CE               	bcf	status, 5	;RP0=0, select bank0
  3645  0891  1283               	bcf	status, 6	;RP1=0, select bank0
  3646  0892  1303               	movwf	(lcdPrint@string)
  3647  0893  00A0               	movlw	(0x0)
  3648  0894  3000               	movwf	(lcdPrint@string+1)
  3649  0895  00A1               	fcall	_lcdPrint
  3650  0896  160A  118A  20D5  120A  158A  	line	44
  3651                           	
  3652                           l3648:	
  3653  089B                     ;application.c: 44:         double Voltage = map(0xf043,0,1023,0,100);
  3654                           	movlw	0x47
  3655  089B  3047               	bsf	status, 5	;RP0=1, select bank1
  3656  089C  1683               	bcf	status, 6	;RP1=0, select bank1
  3657  089D  1303               	movwf	(map@data+3)^080h
  3658  089E  00A3               	movlw	0x70
  3659  089F  3070               	movwf	(map@data+2)^080h
  3660  08A0  00A2               	movlw	0x43
  3661  08A1  3043               	movwf	(map@data+1)^080h
  3662  08A2  00A1               	movlw	0x0
  3663  08A3  3000               	movwf	(map@data)^080h
  3664  08A4  00A0               
  3665                           	movlw	0x0
  3666  08A5  3000               	movwf	(map@X2+3)^080h
  3667  08A6  00A7               	movlw	0x0
  3668  08A7  3000               	movwf	(map@X2+2)^080h
  3669  08A8  00A6               	movlw	0x0
  3670  08A9  3000               	movwf	(map@X2+1)^080h
  3671  08AA  00A5               	movlw	0x0
  3672  08AB  3000               	movwf	(map@X2)^080h
  3673  08AC  00A4               
  3674                           	movlw	0x44
  3675  08AD  3044               	movwf	(map@X1+3)^080h
  3676  08AE  00AB               	movlw	0x7f
  3677  08AF  307F               	movwf	(map@X1+2)^080h
  3678  08B0  00AA               	movlw	0xc0
  3679  08B1  30C0               	movwf	(map@X1+1)^080h
  3680  08B2  00A9               	movlw	0x0
  3681  08B3  3000               	movwf	(map@X1)^080h
  3682  08B4  00A8               
  3683                           	movlw	0x0
  3684  08B5  3000               	movwf	(map@Y2+3)^080h
  3685  08B6  00AF               	movlw	0x0
  3686  08B7  3000               	movwf	(map@Y2+2)^080h
  3687  08B8  00AE               	movlw	0x0
  3688  08B9  3000               	movwf	(map@Y2+1)^080h
  3689  08BA  00AD               	movlw	0x0
  3690  08BB  3000               	movwf	(map@Y2)^080h
  3691  08BC  00AC               
  3692                           	movlw	0x42
  3693  08BD  3042               	movwf	(map@Y1+3)^080h
  3694  08BE  00B3               	movlw	0xc8
  3695  08BF  30C8               	movwf	(map@Y1+2)^080h
  3696  08C0  00B2               	movlw	0x0
  3697  08C1  3000               	movwf	(map@Y1+1)^080h
  3698  08C2  00B1               	movlw	0x0
  3699  08C3  3000               	movwf	(map@Y1)^080h
  3700  08C4  00B0               
  3701                           	fcall	_map
  3702  08C5  120A  118A  200B  120A  158A  	bsf	status, 5	;RP0=1, select bank1
  3703  08CA  1683               	bcf	status, 6	;RP1=0, select bank1
  3704  08CB  1303               	movf	(3+(?_map))^080h,w
  3705  08CC  0823               	movwf	(loop@Voltage+3)^080h
  3706  08CD  00C1               	movf	(2+(?_map))^080h,w
  3707  08CE  0822               	movwf	(loop@Voltage+2)^080h
  3708  08CF  00C0               	movf	(1+(?_map))^080h,w
  3709  08D0  0821               	movwf	(loop@Voltage+1)^080h
  3710  08D1  00BF               	movf	(0+(?_map))^080h,w
  3711  08D2  0820               	movwf	(loop@Voltage)^080h
  3712  08D3  00BE               
  3713                           	line	45
  3714                           	
  3715                           l3650:	
  3716  08D4                     ;application.c: 45:         Control = AccionControl(3.14,2.71);
  3717                           	movlw	0x40
  3718  08D4  3040               	movwf	(AccionControl@SetPoint+3)^080h
  3719  08D5  00A3               	movlw	0x48
  3720  08D6  3048               	movwf	(AccionControl@SetPoint+2)^080h
  3721  08D7  00A2               	movlw	0xf5
  3722  08D8  30F5               	movwf	(AccionControl@SetPoint+1)^080h
  3723  08D9  00A1               	movlw	0xc3
  3724  08DA  30C3               	movwf	(AccionControl@SetPoint)^080h
  3725  08DB  00A0               
  3726                           	movlw	0x40
  3727  08DC  3040               	movwf	(AccionControl@Feedback+3)^080h
  3728  08DD  00A7               	movlw	0x2d
  3729  08DE  302D               	movwf	(AccionControl@Feedback+2)^080h
  3730  08DF  00A6               	movlw	0x70
  3731  08E0  3070               	movwf	(AccionControl@Feedback+1)^080h
  3732  08E1  00A5               	movlw	0xa4
  3733  08E2  30A4               	movwf	(AccionControl@Feedback)^080h
  3734  08E3  00A4               
  3735                           	fcall	_AccionControl
  3736  08E4  120A  158A  2304  120A  158A  	bsf	status, 5	;RP0=1, select bank1
  3737  08E9  1683               	bcf	status, 6	;RP1=0, select bank1
  3738  08EA  1303               	movf	(3+(?_AccionControl))^080h,w
  3739  08EB  0823               	movwf	(_Control+3)^080h
  3740  08EC  00C5               	movf	(2+(?_AccionControl))^080h,w
  3741  08ED  0822               	movwf	(_Control+2)^080h
  3742  08EE  00C4               	movf	(1+(?_AccionControl))^080h,w
  3743  08EF  0821               	movwf	(_Control+1)^080h
  3744  08F0  00C3               	movf	(0+(?_AccionControl))^080h,w
  3745  08F1  0820               	movwf	(_Control)^080h
  3746  08F2  00C2               
  3747                           	line	46
  3748                           	
  3749                           l3652:	
  3750  08F3                     ;application.c: 46:         dTime = 0;
  3751                           	clrf	(_dTime)^080h
  3752  08F3  01CC               	clrf	(_dTime+1)^080h
  3753  08F4  01CD               	line	47
  3754                           	
  3755                           l3654:	
  3756  08F5                     ;application.c: 47:         Last = Now;
  3757                           	movf	(_Now+1)^080h,w
  3758  08F5  084B               	movwf	(_Last+1)^080h
  3759  08F6  00C9               	movf	(_Now)^080h,w
  3760  08F7  084A               	movwf	(_Last)^080h
  3761  08F8  00C8               	goto	l49
  3762  08F9  28FA               	line	48
  3763                           ;application.c: 48:     }
  3764                           	
  3765                           l48:	
  3766  08FA                     	line	49
  3767                           	
  3768                           l49:	
  3769  08FA                     	return
  3770  08FA  0008               	opt stack 0
  3771                           GLOBAL	__end_of_loop
  3772                           	__end_of_loop:
  3773  08FB                     	signat	_loop,89
  3774                           	global	_sprintf
  3775                           
  3776 ;; *************** function _sprintf *****************
  3777 ;; Defined at:
  3778 ;;		line 500 in file "C:\Program Files (x86)\Microchip\xc8\v2.00\pic\sources\c90\common\doprnt.c"
  3779 ;; Parameters:    Size  Location     Type
  3780 ;;  sp              1    wreg     PTR unsigned char 
  3781 ;;		 -> ScreenROW(16), 
  3782 ;;  f               1    0[BANK0 ] PTR const unsigned char 
  3783 ;;		 -> STR_4(9), STR_2(7), 
  3784 ;; Auto vars:     Size  Location     Type
  3785 ;;  sp              1   11[BANK0 ] PTR unsigned char 
  3786 ;;		 -> ScreenROW(16), 
  3787 ;;  tmpval          4    0        struct .
  3788 ;;  val             2    8[BANK0 ] unsigned int 
  3789 ;;  cp              2    0        PTR const unsigned char 
  3790 ;;  len             2    0        unsigned int 
  3791 ;;  c               1   12[BANK0 ] unsigned char 
  3792 ;;  prec            1   10[BANK0 ] char 
  3793 ;;  ap              1    7[BANK0 ] PTR void [1]
  3794 ;;		 -> ?_sprintf(2), 
  3795 ;;  flag            1    6[BANK0 ] unsigned char 
  3796 ;; Return value:  Size  Location     Type
  3797 ;;                  2    0[BANK0 ] int 
  3798 ;; Registers used:
  3799 ;;		wreg, fsr0l, fsr0h, status,2, status,0, btemp+1, pclath, cstack
  3800 ;; Tracked objects:
  3801 ;;		On entry : 0/0
  3802 ;;		On exit  : 0/0
  3803 ;;		Unchanged: 0/0
  3804 ;; Data sizes:     COMMON   BANK0   BANK1   BANK3   BANK2
  3805 ;;      Params:         0       3       0       0       0
  3806 ;;      Locals:         0       7       0       0       0
  3807 ;;      Temps:          0       3       0       0       0
  3808 ;;      Totals:         0      13       0       0       0
  3809 ;;Total ram usage:       13 bytes
  3810 ;; Hardware stack levels used:    1
  3811 ;; Hardware stack levels required when called:    1
  3812 ;; This function calls:
  3813 ;;		___lwdiv
  3814 ;;		___lwmod
  3815 ;; This function is called by:
  3816 ;;		_loop
  3817 ;; This function uses a non-reentrant model
  3818 ;;
  3819                           psect	text7,local,class=CODE,delta=2,merge=1,group=0
  3820                           	file	"C:\Program Files (x86)\Microchip\xc8\v2.00\pic\sources\c90\common\doprnt.c"
  3821                           	line	500
  3822                           global __ptext7
  3823                           __ptext7:	;psect for function _sprintf
  3824  14DC                     psect	text7
  3825                           	file	"C:\Program Files (x86)\Microchip\xc8\v2.00\pic\sources\c90\common\doprnt.c"
  3826                           	line	500
  3827                           	global	__size_of_sprintf
  3828                           	__size_of_sprintf	equ	__end_of_sprintf-_sprintf
  3829  00E0                     	
  3830                           _sprintf:	
  3831  14DC                     ;incstack = 0
  3832                           	opt	stack 5
  3833                           ; Regs used in _sprintf: [wreg-fsr0h+status,2+status,0+btemp+1+pclath+cstack]
  3834                           ;sprintf@sp stored from wreg
  3835                           	bcf	status, 5	;RP0=0, select bank0
  3836  14DC  1283               	bcf	status, 6	;RP1=0, select bank0
  3837  14DD  1303               	movwf	(sprintf@sp)
  3838  14DE  00AB               	line	545
  3839                           	
  3840                           l3546:	
  3841  14DF                     ;C:\Program Files (x86)\Microchip\xc8\v2.00\pic\sources\c90\common\doprnt.c: 500: sprint
                                 f(char * sp, const char * f, ...);C:\Program Files (x86)\Microchip\xc8\v2.00\pic\sources
                                 \c90\common\doprnt.c: 501: {;C:\Program Files (x86)\Microchip\xc8\v2.00\pic\sources\c90\
                                 common\doprnt.c: 502:  va_list ap;;C:\Program Files (x86)\Microchip\xc8\v2.00\pic\source
                                 s\c90\common\doprnt.c: 507:  char c;;C:\Program Files (x86)\Microchip\xc8\v2.00\pic\sour
                                 ces\c90\common\doprnt.c: 516:  signed char prec;;C:\Program Files (x86)\Microchip\xc8\v2
                                 .00\pic\sources\c90\common\doprnt.c: 520:  unsigned char flag;
  3842                           	movlw	(low(?_sprintf|((0x0)<<8)+01h))&0ffh
  3843  14DF  3021               	movwf	(??_sprintf+0)+0
  3844  14E0  00A3               	movf	(??_sprintf+0)+0,w
  3845  14E1  0823               	movwf	(sprintf@ap)
  3846  14E2  00A7               	line	548
  3847                           ;C:\Program Files (x86)\Microchip\xc8\v2.00\pic\sources\c90\common\doprnt.c: 548:  while
                                 ((c = *f++)) {
  3848                           	goto	l3588
  3849  14E3  2DA2               	
  3850                           l574:	
  3851  14E4                     	line	550
  3852                           	
  3853                           l3548:	
  3854  14E4                     ;C:\Program Files (x86)\Microchip\xc8\v2.00\pic\sources\c90\common\doprnt.c: 550:   if(c
                                  != '%')
  3855                           		movlw	37
  3856  14E4  3025               	xorwf	((sprintf@c)),w
  3857  14E5  062C               	btfsc	status,2
  3858  14E6  1903               	goto	u3511
  3859  14E7  2CE9               	goto	u3510
  3860  14E8  2CEA               u3511:
  3861  14E9                     	goto	l3554
  3862  14E9  2CF6               u3510:
  3863  14EA                     	line	553
  3864                           	
  3865                           l3550:	
  3866  14EA                     ;C:\Program Files (x86)\Microchip\xc8\v2.00\pic\sources\c90\common\doprnt.c: 552:   {;C:
                                 \Program Files (x86)\Microchip\xc8\v2.00\pic\sources\c90\common\doprnt.c: 553:    ((*sp+
                                 + = (c)));
  3867                           	movf	(sprintf@c),w
  3868  14EA  082C               	movwf	(??_sprintf+0)+0
  3869  14EB  00A3               	movf	(sprintf@sp),w
  3870  14EC  082B               	movwf	fsr0
  3871  14ED  0084               	movf	(??_sprintf+0)+0,w
  3872  14EE  0823               	bcf	status, 7	;select IRP bank0
  3873  14EF  1383               	movwf	indf
  3874  14F0  0080               	
  3875                           l3552:	
  3876  14F1                     	movlw	low(01h)
  3877  14F1  3001               	movwf	(??_sprintf+0)+0
  3878  14F2  00A3               	movf	(??_sprintf+0)+0,w
  3879  14F3  0823               	addwf	(sprintf@sp),f
  3880  14F4  07AB               	line	554
  3881                           ;C:\Program Files (x86)\Microchip\xc8\v2.00\pic\sources\c90\common\doprnt.c: 554:    con
                                 tinue;
  3882                           	goto	l3588
  3883  14F5  2DA2               	line	555
  3884                           ;C:\Program Files (x86)\Microchip\xc8\v2.00\pic\sources\c90\common\doprnt.c: 555:   }
  3885                           	
  3886                           l575:	
  3887  14F6                     	line	560
  3888                           	
  3889                           l3554:	
  3890  14F6                     ;C:\Program Files (x86)\Microchip\xc8\v2.00\pic\sources\c90\common\doprnt.c: 560:   flag
                                  = 0;
  3891                           	clrf	(sprintf@flag)
  3892  14F6  01A6               	line	654
  3893                           ;C:\Program Files (x86)\Microchip\xc8\v2.00\pic\sources\c90\common\doprnt.c: 654:   swit
                                 ch(c = *f++) {
  3894                           	goto	l3560
  3895  14F7  2D00               	line	656
  3896                           ;C:\Program Files (x86)\Microchip\xc8\v2.00\pic\sources\c90\common\doprnt.c: 656:   case
                                  0:
  3897                           	
  3898                           l577:	
  3899  14F8                     	line	657
  3900                           ;C:\Program Files (x86)\Microchip\xc8\v2.00\pic\sources\c90\common\doprnt.c: 657:    got
                                 o alldone;
  3901                           	goto	l3590
  3902  14F8  2DB6               	line	821
  3903                           ;C:\Program Files (x86)\Microchip\xc8\v2.00\pic\sources\c90\common\doprnt.c: 821:   defa
                                 ult:
  3904                           	
  3905                           l579:	
  3906  14F9                     	line	832
  3907                           ;C:\Program Files (x86)\Microchip\xc8\v2.00\pic\sources\c90\common\doprnt.c: 832:    con
                                 tinue;
  3908                           	goto	l3588
  3909  14F9  2DA2               	line	836
  3910                           ;C:\Program Files (x86)\Microchip\xc8\v2.00\pic\sources\c90\common\doprnt.c: 836:   case
                                  'u':
  3911                           	
  3912                           l580:	
  3913  14FA                     	line	837
  3914                           	
  3915                           l3556:	
  3916  14FA                     ;C:\Program Files (x86)\Microchip\xc8\v2.00\pic\sources\c90\common\doprnt.c: 837:    fla
                                 g |= 0xC0;
  3917                           	movlw	low(0C0h)
  3918  14FA  30C0               	movwf	(??_sprintf+0)+0
  3919  14FB  00A3               	movf	(??_sprintf+0)+0,w
  3920  14FC  0823               	iorwf	(sprintf@flag),f
  3921  14FD  04A6               	line	838
  3922                           ;C:\Program Files (x86)\Microchip\xc8\v2.00\pic\sources\c90\common\doprnt.c: 838:    bre
                                 ak;
  3923                           	goto	l3562
  3924  14FE  2D1A               	line	841
  3925                           	
  3926                           l3558:	
  3927  14FF                     ;C:\Program Files (x86)\Microchip\xc8\v2.00\pic\sources\c90\common\doprnt.c: 841:   }
  3928                           	goto	l3562
  3929  14FF  2D1A               	
  3930                           l576:	
  3931  1500                     	
  3932                           l3560:	
  3933  1500                     	movlw	01h
  3934  1500  3001               	addwf	(sprintf@f),f
  3935  1501  07A0               	movlw	-01h
  3936  1502  30FF               	addwf	(sprintf@f),w
  3937  1503  0720               	movwf	fsr0
  3938  1504  0084               	fcall	stringdir
  3939  1505  160A  118A  200A  160A  118A  	movwf	(sprintf@c)
  3940  150A  00AC               	movwf	(??_sprintf+0)+0
  3941  150B  00A3               	clrf	(??_sprintf+0)+0+1
  3942  150C  01A4               	; Switch on 2 bytes has been partitioned into a top level switch of size 1, and 1 sub-s
                                 witches
  3943                           ; Switch size 1, requested type "space"
  3944                           ; Number of cases is 1, Range of values is 0 to 0
  3945                           ; switch strategies available:
  3946                           ; Name         Instructions Cycles
  3947                           ; simple_byte            4     3 (average)
  3948                           ; direct_byte           11     8 (fixed)
  3949                           ; jumptable            260     6 (fixed)
  3950                           ;	Chosen strategy is simple_byte
  3951                           
  3952                           	movf 1+(??_sprintf+0)+0,w
  3953  150D  0824               	opt asmopt_push
  3954                           	opt asmopt_off
  3955                           	xorlw	0^0	; case 0
  3956  150E  3A00               	skipnz
  3957  150F  1903               	goto	l3786
  3958  1510  2D12               	goto	l3588
  3959  1511  2DA2               	opt asmopt_pop
  3960                           	
  3961                           l3786:	
  3962  1512                     ; Switch size 1, requested type "space"
  3963                           ; Number of cases is 2, Range of values is 0 to 117
  3964                           ; switch strategies available:
  3965                           ; Name         Instructions Cycles
  3966                           ; simple_byte            7     4 (average)
  3967                           ; jumptable            260     6 (fixed)
  3968                           ;	Chosen strategy is simple_byte
  3969                           
  3970                           	movf 0+(??_sprintf+0)+0,w
  3971  1512  0823               	opt asmopt_push
  3972                           	opt asmopt_off
  3973                           	xorlw	0^0	; case 0
  3974  1513  3A00               	skipnz
  3975  1514  1903               	goto	l3590
  3976  1515  2DB6               	xorlw	117^0	; case 117
  3977  1516  3A75               	skipnz
  3978  1517  1903               	goto	l3556
  3979  1518  2CFA               	goto	l3588
  3980  1519  2DA2               	opt asmopt_pop
  3981                           
  3982                           	
  3983                           l581:	
  3984  151A                     	line	1305
  3985                           	
  3986                           l3562:	
  3987  151A                     ;C:\Program Files (x86)\Microchip\xc8\v2.00\pic\sources\c90\common\doprnt.c: 1292:   {;C
                                 :\Program Files (x86)\Microchip\xc8\v2.00\pic\sources\c90\common\doprnt.c: 1305:     val
                                  = (*(unsigned *)__va_arg((*(unsigned **)ap), (unsigned)0));
  3988                           	movf	(sprintf@ap),w
  3989  151A  0827               	movwf	fsr0
  3990  151B  0084               	bcf	status, 7	;select IRP bank0
  3991  151C  1383               	movf	indf,w
  3992  151D  0800               	movwf	(sprintf@val)
  3993  151E  00A8               	incf	fsr0,f
  3994  151F  0A84               	movf	indf,w
  3995  1520  0800               	movwf	(sprintf@val+1)
  3996  1521  00A9               	
  3997                           l3564:	
  3998  1522                     	movlw	low(02h)
  3999  1522  3002               	movwf	(??_sprintf+0)+0
  4000  1523  00A3               	movf	(??_sprintf+0)+0,w
  4001  1524  0823               	addwf	(sprintf@ap),f
  4002  1525  07A7               	line	1324
  4003                           	
  4004                           l3566:	
  4005  1526                     ;C:\Program Files (x86)\Microchip\xc8\v2.00\pic\sources\c90\common\doprnt.c: 1306:   };C
                                 :\Program Files (x86)\Microchip\xc8\v2.00\pic\sources\c90\common\doprnt.c: 1324:    for(
                                 c = 1 ; c != sizeof dpowers/sizeof dpowers[0] ; c++)
  4006                           	clrf	(sprintf@c)
  4007  1526  01AC               	incf	(sprintf@c),f
  4008  1527  0AAC               	
  4009                           l3568:	
  4010  1528                     		movlw	5
  4011  1528  3005               	xorwf	((sprintf@c)),w
  4012  1529  062C               	btfss	status,2
  4013  152A  1D03               	goto	u3521
  4014  152B  2D2D               	goto	u3520
  4015  152C  2D2E               u3521:
  4016  152D                     	goto	l3572
  4017  152D  2D30               u3520:
  4018  152E                     	goto	l3578
  4019  152E  2D58               	
  4020                           l3570:	
  4021  152F                     	goto	l3578
  4022  152F  2D58               	
  4023                           l582:	
  4024  1530                     	line	1325
  4025                           	
  4026                           l3572:	
  4027  1530                     ;C:\Program Files (x86)\Microchip\xc8\v2.00\pic\sources\c90\common\doprnt.c: 1325:     i
                                 f(val < dpowers[c])
  4028                           	movf	(sprintf@c),w
  4029  1530  082C               	movwf	(??_sprintf+0)+0
  4030  1531  00A3               	addwf	(??_sprintf+0)+0,w
  4031  1532  0723               	addlw	low((((_dpowers)-__stringbase)|8000h))
  4032  1533  3E01               	movwf	fsr0
  4033  1534  0084               	fcall	stringdir
  4034  1535  160A  118A  200A  160A  118A  	movwf	(??_sprintf+1)+0
  4035  153A  00A4               	fcall	stringdir
  4036  153B  160A  118A  200A  160A  118A  	movwf	(??_sprintf+1)+0+1
  4037  1540  00A5               	movf	1+(??_sprintf+1)+0,w
  4038  1541  0825               	subwf	(sprintf@val+1),w
  4039  1542  0229               	skipz
  4040  1543  1D03               	goto	u3535
  4041  1544  2D47               	movf	0+(??_sprintf+1)+0,w
  4042  1545  0824               	subwf	(sprintf@val),w
  4043  1546  0228               u3535:
  4044  1547                     	skipnc
  4045  1547  1803               	goto	u3531
  4046  1548  2D4A               	goto	u3530
  4047  1549  2D4B               u3531:
  4048  154A                     	goto	l3576
  4049  154A  2D4D               u3530:
  4050  154B                     	goto	l3578
  4051  154B  2D58               	line	1326
  4052                           	
  4053                           l3574:	
  4054  154C                     ;C:\Program Files (x86)\Microchip\xc8\v2.00\pic\sources\c90\common\doprnt.c: 1326:      
                                 break;
  4055                           	goto	l3578
  4056  154C  2D58               	
  4057                           l584:	
  4058  154D                     	
  4059                           l3576:	
  4060  154D                     	movlw	low(01h)
  4061  154D  3001               	movwf	(??_sprintf+0)+0
  4062  154E  00A3               	movf	(??_sprintf+0)+0,w
  4063  154F  0823               	addwf	(sprintf@c),f
  4064  1550  07AC               		movlw	5
  4065  1551  3005               	xorwf	((sprintf@c)),w
  4066  1552  062C               	btfss	status,2
  4067  1553  1D03               	goto	u3541
  4068  1554  2D56               	goto	u3540
  4069  1555  2D57               u3541:
  4070  1556                     	goto	l3572
  4071  1556  2D30               u3540:
  4072  1557                     	goto	l3578
  4073  1557  2D58               	
  4074                           l583:	
  4075  1558                     	line	1491
  4076                           	
  4077                           l3578:	
  4078  1558                     ;C:\Program Files (x86)\Microchip\xc8\v2.00\pic\sources\c90\common\doprnt.c: 1441:   {;C
                                 :\Program Files (x86)\Microchip\xc8\v2.00\pic\sources\c90\common\doprnt.c: 1488:   };C:\
                                 Program Files (x86)\Microchip\xc8\v2.00\pic\sources\c90\common\doprnt.c: 1491:   prec = 
                                 c;
  4079                           	movf	(sprintf@c),w
  4080  1558  082C               	movwf	(??_sprintf+0)+0
  4081  1559  00A3               	movf	(??_sprintf+0)+0,w
  4082  155A  0823               	movwf	(sprintf@prec)
  4083  155B  00AA               	line	1493
  4084                           ;C:\Program Files (x86)\Microchip\xc8\v2.00\pic\sources\c90\common\doprnt.c: 1493:   whi
                                 le(prec--) {
  4085                           	goto	l3586
  4086  155C  2D97               	
  4087                           l586:	
  4088  155D                     	line	1508
  4089                           	
  4090                           l3580:	
  4091  155D                     ;C:\Program Files (x86)\Microchip\xc8\v2.00\pic\sources\c90\common\doprnt.c: 1497:    {;
                                 C:\Program Files (x86)\Microchip\xc8\v2.00\pic\sources\c90\common\doprnt.c: 1508:     c 
                                 = (val / dpowers[prec]) % 10 + '0';
  4092                           	movlw	0Ah
  4093  155D  300A               	movwf	(___lwmod@divisor)
  4094  155E  00F8               	movlw	0
  4095  155F  3000               	movwf	((___lwmod@divisor))+1
  4096  1560  00F9               	movf	(sprintf@prec),w
  4097  1561  082A               	movwf	(??_sprintf+0)+0
  4098  1562  00A3               	addwf	(??_sprintf+0)+0,w
  4099  1563  0723               	addlw	low((((_dpowers)-__stringbase)|8000h))
  4100  1564  3E01               	movwf	fsr0
  4101  1565  0084               	fcall	stringdir
  4102  1566  160A  118A  200A  160A  118A  	movwf	(___lwdiv@divisor)
  4103  156B  00F0               	fcall	stringdir
  4104  156C  160A  118A  200A  160A  118A  	movwf	(___lwdiv@divisor+1)
  4105  1571  00F1               	movf	(sprintf@val+1),w
  4106  1572  0829               	movwf	(___lwdiv@dividend+1)
  4107  1573  00F3               	movf	(sprintf@val),w
  4108  1574  0828               	movwf	(___lwdiv@dividend)
  4109  1575  00F2               	fcall	___lwdiv
  4110  1576  160A  118A  211D  160A  118A  	movf	(1+(?___lwdiv)),w
  4111  157B  0871               	movwf	(___lwmod@dividend+1)
  4112  157C  00FB               	movf	(0+(?___lwdiv)),w
  4113  157D  0870               	movwf	(___lwmod@dividend)
  4114  157E  00FA               	fcall	___lwmod
  4115  157F  160A  118A  2094  160A  118A  	movf	(0+(?___lwmod)),w
  4116  1584  0878               	addlw	030h
  4117  1585  3E30               	bcf	status, 5	;RP0=0, select bank0
  4118  1586  1283               	bcf	status, 6	;RP1=0, select bank0
  4119  1587  1303               	movwf	(??_sprintf+1)+0
  4120  1588  00A4               	movf	(??_sprintf+1)+0,w
  4121  1589  0824               	movwf	(sprintf@c)
  4122  158A  00AC               	line	1543
  4123                           	
  4124                           l3582:	
  4125  158B                     ;C:\Program Files (x86)\Microchip\xc8\v2.00\pic\sources\c90\common\doprnt.c: 1542:    };
                                 C:\Program Files (x86)\Microchip\xc8\v2.00\pic\sources\c90\common\doprnt.c: 1543:    ((*
                                 sp++ = (c)));
  4126                           	movf	(sprintf@c),w
  4127  158B  082C               	movwf	(??_sprintf+0)+0
  4128  158C  00A3               	movf	(sprintf@sp),w
  4129  158D  082B               	movwf	fsr0
  4130  158E  0084               	movf	(??_sprintf+0)+0,w
  4131  158F  0823               	bcf	status, 7	;select IRP bank0
  4132  1590  1383               	movwf	indf
  4133  1591  0080               	
  4134                           l3584:	
  4135  1592                     	movlw	low(01h)
  4136  1592  3001               	movwf	(??_sprintf+0)+0
  4137  1593  00A3               	movf	(??_sprintf+0)+0,w
  4138  1594  0823               	addwf	(sprintf@sp),f
  4139  1595  07AB               	goto	l3586
  4140  1596  2D97               	line	1544
  4141                           ;C:\Program Files (x86)\Microchip\xc8\v2.00\pic\sources\c90\common\doprnt.c: 1544:   }
  4142                           	
  4143                           l585:	
  4144  1597                     	line	1493
  4145                           	
  4146                           l3586:	
  4147  1597                     ;C:\Program Files (x86)\Microchip\xc8\v2.00\pic\sources\c90\common\doprnt.c: 1493:   whi
                                 le(prec--) {
  4148                           	movlw	low(-1)
  4149  1597  30FF               	movwf	(??_sprintf+0)+0
  4150  1598  00A3               	movf	(??_sprintf+0)+0,w
  4151  1599  0823               	addwf	(sprintf@prec),f
  4152  159A  07AA               		incf	(((sprintf@prec))),w
  4153  159B  0A2A               	btfss	status,2
  4154  159C  1D03               	goto	u3551
  4155  159D  2D9F               	goto	u3550
  4156  159E  2DA0               u3551:
  4157  159F                     	goto	l3580
  4158  159F  2D5D               u3550:
  4159  15A0                     	goto	l3588
  4160  15A0  2DA2               	
  4161                           l587:	
  4162  15A1                     	goto	l3588
  4163  15A1  2DA2               	line	1552
  4164                           ;C:\Program Files (x86)\Microchip\xc8\v2.00\pic\sources\c90\common\doprnt.c: 1552:  }
  4165                           	
  4166                           l573:	
  4167  15A2                     	line	548
  4168                           	
  4169                           l3588:	
  4170  15A2                     ;C:\Program Files (x86)\Microchip\xc8\v2.00\pic\sources\c90\common\doprnt.c: 548:  while
                                 ((c = *f++)) {
  4171                           	movlw	01h
  4172  15A2  3001               	addwf	(sprintf@f),f
  4173  15A3  07A0               	movlw	-01h
  4174  15A4  30FF               	addwf	(sprintf@f),w
  4175  15A5  0720               	movwf	fsr0
  4176  15A6  0084               	fcall	stringdir
  4177  15A7  160A  118A  200A  160A  118A  	movwf	(??_sprintf+0)+0
  4178  15AC  00A3               	movf	(??_sprintf+0)+0,w
  4179  15AD  0823               	movwf	(sprintf@c)
  4180  15AE  00AC               	movf	(((sprintf@c))),w
  4181  15AF  082C               	btfss	status,2
  4182  15B0  1D03               	goto	u3561
  4183  15B1  2DB3               	goto	u3560
  4184  15B2  2DB4               u3561:
  4185  15B3                     	goto	l3548
  4186  15B3  2CE4               u3560:
  4187  15B4                     	goto	l3590
  4188  15B4  2DB6               	
  4189                           l588:	
  4190  15B5                     	goto	l3590
  4191  15B5  2DB6               	line	1554
  4192                           ;C:\Program Files (x86)\Microchip\xc8\v2.00\pic\sources\c90\common\doprnt.c: 1554: alldo
                                 ne:
  4193                           	
  4194                           l578:	
  4195  15B6                     	line	1557
  4196                           	
  4197                           l3590:	
  4198  15B6                     ;C:\Program Files (x86)\Microchip\xc8\v2.00\pic\sources\c90\common\doprnt.c: 1557:  *sp 
                                 = 0;
  4199                           	movf	(sprintf@sp),w
  4200  15B6  082B               	movwf	fsr0
  4201  15B7  0084               	bcf	status, 7	;select IRP bank0
  4202  15B8  1383               	clrf	indf
  4203  15B9  0180               	goto	l589
  4204  15BA  2DBB               	line	1559
  4205                           	
  4206                           l3592:	
  4207  15BB                     	line	1560
  4208                           ;C:\Program Files (x86)\Microchip\xc8\v2.00\pic\sources\c90\common\doprnt.c: 1559:  retu
                                 rn 0;;	Return value of _sprintf is never used
  4209                           	
  4210                           l589:	
  4211  15BB                     	return
  4212  15BB  0008               	opt stack 0
  4213                           GLOBAL	__end_of_sprintf
  4214                           	__end_of_sprintf:
  4215  15BC                     	signat	_sprintf,4698
  4216                           	global	___lwmod
  4217                           
  4218 ;; *************** function ___lwmod *****************
  4219 ;; Defined at:
  4220 ;;		line 5 in file "C:\Program Files (x86)\Microchip\xc8\v2.00\pic\sources\c90\common\lwmod.c"
  4221 ;; Parameters:    Size  Location     Type
  4222 ;;  divisor         2    8[COMMON] unsigned int 
  4223 ;;  dividend        2   10[COMMON] unsigned int 
  4224 ;; Auto vars:     Size  Location     Type
  4225 ;;  counter         1   13[COMMON] unsigned char 
  4226 ;; Return value:  Size  Location     Type
  4227 ;;                  2    8[COMMON] unsigned int 
  4228 ;; Registers used:
  4229 ;;		wreg, status,2, status,0
  4230 ;; Tracked objects:
  4231 ;;		On entry : 0/0
  4232 ;;		On exit  : 0/0
  4233 ;;		Unchanged: 0/0
  4234 ;; Data sizes:     COMMON   BANK0   BANK1   BANK3   BANK2
  4235 ;;      Params:         4       0       0       0       0
  4236 ;;      Locals:         1       0       0       0       0
  4237 ;;      Temps:          1       0       0       0       0
  4238 ;;      Totals:         6       0       0       0       0
  4239 ;;Total ram usage:        6 bytes
  4240 ;; Hardware stack levels used:    1
  4241 ;; This function calls:
  4242 ;;		Nothing
  4243 ;; This function is called by:
  4244 ;;		_sprintf
  4245 ;; This function uses a non-reentrant model
  4246 ;;
  4247                           psect	text8,local,class=CODE,delta=2,merge=1,group=1
  4248                           	file	"C:\Program Files (x86)\Microchip\xc8\v2.00\pic\sources\c90\common\lwmod.c"
  4249                           	line	5
  4250                           global __ptext8
  4251                           __ptext8:	;psect for function ___lwmod
  4252  1094                     psect	text8
  4253                           	file	"C:\Program Files (x86)\Microchip\xc8\v2.00\pic\sources\c90\common\lwmod.c"
  4254                           	line	5
  4255                           	global	__size_of___lwmod
  4256                           	__size_of___lwmod	equ	__end_of___lwmod-___lwmod
  4257  0041                     	
  4258                           ___lwmod:	
  4259  1094                     ;incstack = 0
  4260                           	opt	stack 5
  4261                           ; Regs used in ___lwmod: [wreg+status,2+status,0]
  4262                           	line	12
  4263                           	
  4264                           l2936:	
  4265  1094                     	movf	((___lwmod@divisor)),w
  4266  1094  0878               iorwf	((___lwmod@divisor+1)),w
  4267  1095  0479               	btfsc	status,2
  4268  1096  1903               	goto	u2131
  4269  1097  2899               	goto	u2130
  4270  1098  289A               u2131:
  4271  1099                     	goto	l2954
  4272  1099  28CF               u2130:
  4273  109A                     	line	13
  4274                           	
  4275                           l2938:	
  4276  109A                     	clrf	(___lwmod@counter)
  4277  109A  01FD               	incf	(___lwmod@counter),f
  4278  109B  0AFD               	line	14
  4279                           	goto	l2944
  4280  109C  28A9               	
  4281                           l870:	
  4282  109D                     	line	15
  4283                           	
  4284                           l2940:	
  4285  109D                     	movlw	01h
  4286  109D  3001               	
  4287                           u2145:
  4288  109E                     	clrc
  4289  109E  1003               	rlf	(___lwmod@divisor),f
  4290  109F  0DF8               	rlf	(___lwmod@divisor+1),f
  4291  10A0  0DF9               	addlw	-1
  4292  10A1  3EFF               	skipz
  4293  10A2  1D03               	goto	u2145
  4294  10A3  289E               	line	16
  4295                           	
  4296                           l2942:	
  4297  10A4                     	movlw	low(01h)
  4298  10A4  3001               	movwf	(??___lwmod+0)+0
  4299  10A5  00FC               	movf	(??___lwmod+0)+0,w
  4300  10A6  087C               	addwf	(___lwmod@counter),f
  4301  10A7  07FD               	goto	l2944
  4302  10A8  28A9               	line	17
  4303                           	
  4304                           l869:	
  4305  10A9                     	line	14
  4306                           	
  4307                           l2944:	
  4308  10A9                     	btfss	(___lwmod@divisor+1),(15)&7
  4309  10A9  1FF9               	goto	u2151
  4310  10AA  28AC               	goto	u2150
  4311  10AB  28AD               u2151:
  4312  10AC                     	goto	l2940
  4313  10AC  289D               u2150:
  4314  10AD                     	goto	l2946
  4315  10AD  28AF               	
  4316                           l871:	
  4317  10AE                     	goto	l2946
  4318  10AE  28AF               	line	18
  4319                           	
  4320                           l872:	
  4321  10AF                     	line	19
  4322                           	
  4323                           l2946:	
  4324  10AF                     	movf	(___lwmod@divisor+1),w
  4325  10AF  0879               	subwf	(___lwmod@dividend+1),w
  4326  10B0  027B               	skipz
  4327  10B1  1D03               	goto	u2165
  4328  10B2  28B5               	movf	(___lwmod@divisor),w
  4329  10B3  0878               	subwf	(___lwmod@dividend),w
  4330  10B4  027A               u2165:
  4331  10B5                     	skipc
  4332  10B5  1C03               	goto	u2161
  4333  10B6  28B8               	goto	u2160
  4334  10B7  28B9               u2161:
  4335  10B8                     	goto	l2950
  4336  10B8  28C0               u2160:
  4337  10B9                     	line	20
  4338                           	
  4339                           l2948:	
  4340  10B9                     	movf	(___lwmod@divisor),w
  4341  10B9  0878               	subwf	(___lwmod@dividend),f
  4342  10BA  02FA               	movf	(___lwmod@divisor+1),w
  4343  10BB  0879               	skipc
  4344  10BC  1C03               	decf	(___lwmod@dividend+1),f
  4345  10BD  03FB               	subwf	(___lwmod@dividend+1),f
  4346  10BE  02FB               	goto	l2950
  4347  10BF  28C0               	
  4348                           l873:	
  4349  10C0                     	line	21
  4350                           	
  4351                           l2950:	
  4352  10C0                     	movlw	01h
  4353  10C0  3001               	
  4354                           u2175:
  4355  10C1                     	clrc
  4356  10C1  1003               	rrf	(___lwmod@divisor+1),f
  4357  10C2  0CF9               	rrf	(___lwmod@divisor),f
  4358  10C3  0CF8               	addlw	-1
  4359  10C4  3EFF               	skipz
  4360  10C5  1D03               	goto	u2175
  4361  10C6  28C1               	line	22
  4362                           	
  4363                           l2952:	
  4364  10C7                     	movlw	01h
  4365  10C7  3001               	subwf	(___lwmod@counter),f
  4366  10C8  02FD               	btfss	status,2
  4367  10C9  1D03               	goto	u2181
  4368  10CA  28CC               	goto	u2180
  4369  10CB  28CD               u2181:
  4370  10CC                     	goto	l2946
  4371  10CC  28AF               u2180:
  4372  10CD                     	goto	l2954
  4373  10CD  28CF               	
  4374                           l874:	
  4375  10CE                     	goto	l2954
  4376  10CE  28CF               	line	23
  4377                           	
  4378                           l868:	
  4379  10CF                     	line	24
  4380                           	
  4381                           l2954:	
  4382  10CF                     	movf	(___lwmod@dividend+1),w
  4383  10CF  087B               	movwf	(?___lwmod+1)
  4384  10D0  00F9               	movf	(___lwmod@dividend),w
  4385  10D1  087A               	movwf	(?___lwmod)
  4386  10D2  00F8               	goto	l875
  4387  10D3  28D4               	
  4388                           l2956:	
  4389  10D4                     	line	25
  4390                           	
  4391                           l875:	
  4392  10D4                     	return
  4393  10D4  0008               	opt stack 0
  4394                           GLOBAL	__end_of___lwmod
  4395                           	__end_of___lwmod:
  4396  10D5                     	signat	___lwmod,8314
  4397                           	global	___lwdiv
  4398                           
  4399 ;; *************** function ___lwdiv *****************
  4400 ;; Defined at:
  4401 ;;		line 5 in file "C:\Program Files (x86)\Microchip\xc8\v2.00\pic\sources\c90\common\lwdiv.c"
  4402 ;; Parameters:    Size  Location     Type
  4403 ;;  divisor         2    0[COMMON] unsigned int 
  4404 ;;  dividend        2    2[COMMON] unsigned int 
  4405 ;; Auto vars:     Size  Location     Type
  4406 ;;  quotient        2    5[COMMON] unsigned int 
  4407 ;;  counter         1    7[COMMON] unsigned char 
  4408 ;; Return value:  Size  Location     Type
  4409 ;;                  2    0[COMMON] unsigned int 
  4410 ;; Registers used:
  4411 ;;		wreg, status,2, status,0
  4412 ;; Tracked objects:
  4413 ;;		On entry : 0/0
  4414 ;;		On exit  : 0/0
  4415 ;;		Unchanged: 0/0
  4416 ;; Data sizes:     COMMON   BANK0   BANK1   BANK3   BANK2
  4417 ;;      Params:         4       0       0       0       0
  4418 ;;      Locals:         3       0       0       0       0
  4419 ;;      Temps:          1       0       0       0       0
  4420 ;;      Totals:         8       0       0       0       0
  4421 ;;Total ram usage:        8 bytes
  4422 ;; Hardware stack levels used:    1
  4423 ;; This function calls:
  4424 ;;		Nothing
  4425 ;; This function is called by:
  4426 ;;		_sprintf
  4427 ;; This function uses a non-reentrant model
  4428 ;;
  4429                           psect	text9,local,class=CODE,delta=2,merge=1,group=1
  4430                           	file	"C:\Program Files (x86)\Microchip\xc8\v2.00\pic\sources\c90\common\lwdiv.c"
  4431                           	line	5
  4432                           global __ptext9
  4433                           __ptext9:	;psect for function ___lwdiv
  4434  111D                     psect	text9
  4435                           	file	"C:\Program Files (x86)\Microchip\xc8\v2.00\pic\sources\c90\common\lwdiv.c"
  4436                           	line	5
  4437                           	global	__size_of___lwdiv
  4438                           	__size_of___lwdiv	equ	__end_of___lwdiv-___lwdiv
  4439  004B                     	
  4440                           ___lwdiv:	
  4441  111D                     ;incstack = 0
  4442                           	opt	stack 5
  4443                           ; Regs used in ___lwdiv: [wreg+status,2+status,0]
  4444                           	line	13
  4445                           	
  4446                           l2910:	
  4447  111D                     	clrf	(___lwdiv@quotient)
  4448  111D  01F5               	clrf	(___lwdiv@quotient+1)
  4449  111E  01F6               	line	14
  4450                           	
  4451                           l2912:	
  4452  111F                     	movf	((___lwdiv@divisor)),w
  4453  111F  0870               iorwf	((___lwdiv@divisor+1)),w
  4454  1120  0471               	btfsc	status,2
  4455  1121  1903               	goto	u2061
  4456  1122  2924               	goto	u2060
  4457  1123  2925               u2061:
  4458  1124                     	goto	l2932
  4459  1124  2962               u2060:
  4460  1125                     	line	15
  4461                           	
  4462                           l2914:	
  4463  1125                     	clrf	(___lwdiv@counter)
  4464  1125  01F7               	incf	(___lwdiv@counter),f
  4465  1126  0AF7               	line	16
  4466                           	goto	l2920
  4467  1127  2934               	
  4468                           l860:	
  4469  1128                     	line	17
  4470                           	
  4471                           l2916:	
  4472  1128                     	movlw	01h
  4473  1128  3001               	
  4474                           u2075:
  4475  1129                     	clrc
  4476  1129  1003               	rlf	(___lwdiv@divisor),f
  4477  112A  0DF0               	rlf	(___lwdiv@divisor+1),f
  4478  112B  0DF1               	addlw	-1
  4479  112C  3EFF               	skipz
  4480  112D  1D03               	goto	u2075
  4481  112E  2929               	line	18
  4482                           	
  4483                           l2918:	
  4484  112F                     	movlw	low(01h)
  4485  112F  3001               	movwf	(??___lwdiv+0)+0
  4486  1130  00F4               	movf	(??___lwdiv+0)+0,w
  4487  1131  0874               	addwf	(___lwdiv@counter),f
  4488  1132  07F7               	goto	l2920
  4489  1133  2934               	line	19
  4490                           	
  4491                           l859:	
  4492  1134                     	line	16
  4493                           	
  4494                           l2920:	
  4495  1134                     	btfss	(___lwdiv@divisor+1),(15)&7
  4496  1134  1FF1               	goto	u2081
  4497  1135  2937               	goto	u2080
  4498  1136  2938               u2081:
  4499  1137                     	goto	l2916
  4500  1137  2928               u2080:
  4501  1138                     	goto	l2922
  4502  1138  293A               	
  4503                           l861:	
  4504  1139                     	goto	l2922
  4505  1139  293A               	line	20
  4506                           	
  4507                           l862:	
  4508  113A                     	line	21
  4509                           	
  4510                           l2922:	
  4511  113A                     	movlw	01h
  4512  113A  3001               	
  4513                           u2095:
  4514  113B                     	clrc
  4515  113B  1003               	rlf	(___lwdiv@quotient),f
  4516  113C  0DF5               	rlf	(___lwdiv@quotient+1),f
  4517  113D  0DF6               	addlw	-1
  4518  113E  3EFF               	skipz
  4519  113F  1D03               	goto	u2095
  4520  1140  293B               	line	22
  4521                           	movf	(___lwdiv@divisor+1),w
  4522  1141  0871               	subwf	(___lwdiv@dividend+1),w
  4523  1142  0273               	skipz
  4524  1143  1D03               	goto	u2105
  4525  1144  2947               	movf	(___lwdiv@divisor),w
  4526  1145  0870               	subwf	(___lwdiv@dividend),w
  4527  1146  0272               u2105:
  4528  1147                     	skipc
  4529  1147  1C03               	goto	u2101
  4530  1148  294A               	goto	u2100
  4531  1149  294B               u2101:
  4532  114A                     	goto	l2928
  4533  114A  2953               u2100:
  4534  114B                     	line	23
  4535                           	
  4536                           l2924:	
  4537  114B                     	movf	(___lwdiv@divisor),w
  4538  114B  0870               	subwf	(___lwdiv@dividend),f
  4539  114C  02F2               	movf	(___lwdiv@divisor+1),w
  4540  114D  0871               	skipc
  4541  114E  1C03               	decf	(___lwdiv@dividend+1),f
  4542  114F  03F3               	subwf	(___lwdiv@dividend+1),f
  4543  1150  02F3               	line	24
  4544                           	
  4545                           l2926:	
  4546  1151                     	bsf	(___lwdiv@quotient)+(0/8),(0)&7
  4547  1151  1475               	goto	l2928
  4548  1152  2953               	line	25
  4549                           	
  4550                           l863:	
  4551  1153                     	line	26
  4552                           	
  4553                           l2928:	
  4554  1153                     	movlw	01h
  4555  1153  3001               	
  4556                           u2115:
  4557  1154                     	clrc
  4558  1154  1003               	rrf	(___lwdiv@divisor+1),f
  4559  1155  0CF1               	rrf	(___lwdiv@divisor),f
  4560  1156  0CF0               	addlw	-1
  4561  1157  3EFF               	skipz
  4562  1158  1D03               	goto	u2115
  4563  1159  2954               	line	27
  4564                           	
  4565                           l2930:	
  4566  115A                     	movlw	01h
  4567  115A  3001               	subwf	(___lwdiv@counter),f
  4568  115B  02F7               	btfss	status,2
  4569  115C  1D03               	goto	u2121
  4570  115D  295F               	goto	u2120
  4571  115E  2960               u2121:
  4572  115F                     	goto	l2922
  4573  115F  293A               u2120:
  4574  1160                     	goto	l2932
  4575  1160  2962               	
  4576                           l864:	
  4577  1161                     	goto	l2932
  4578  1161  2962               	line	28
  4579                           	
  4580                           l858:	
  4581  1162                     	line	29
  4582                           	
  4583                           l2932:	
  4584  1162                     	movf	(___lwdiv@quotient+1),w
  4585  1162  0876               	movwf	(?___lwdiv+1)
  4586  1163  00F1               	movf	(___lwdiv@quotient),w
  4587  1164  0875               	movwf	(?___lwdiv)
  4588  1165  00F0               	goto	l865
  4589  1166  2967               	
  4590                           l2934:	
  4591  1167                     	line	30
  4592                           	
  4593                           l865:	
  4594  1167                     	return
  4595  1167  0008               	opt stack 0
  4596                           GLOBAL	__end_of___lwdiv
  4597                           	__end_of___lwdiv:
  4598  1168                     	signat	___lwdiv,8314
  4599                           	global	_map
  4600                           
  4601 ;; *************** function _map *****************
  4602 ;; Defined at:
  4603 ;;		line 22 in file "PIDController.c"
  4604 ;; Parameters:    Size  Location     Type
  4605 ;;  data            4    0[BANK1 ] unsigned int 
  4606 ;;  X2              4    4[BANK1 ] unsigned int 
  4607 ;;  X1              4    8[BANK1 ] unsigned int 
  4608 ;;  Y2              4   12[BANK1 ] unsigned int 
  4609 ;;  Y1              4   16[BANK1 ] unsigned int 
  4610 ;; Auto vars:     Size  Location     Type
  4611 ;;  m               4   24[BANK1 ] unsigned int 
  4612 ;; Return value:  Size  Location     Type
  4613 ;;                  4    0[BANK1 ] unsigned int 
  4614 ;; Registers used:
  4615 ;;		wreg, status,2, status,0, btemp+1, pclath, cstack
  4616 ;; Tracked objects:
  4617 ;;		On entry : 0/0
  4618 ;;		On exit  : 0/0
  4619 ;;		Unchanged: 0/0
  4620 ;; Data sizes:     COMMON   BANK0   BANK1   BANK3   BANK2
  4621 ;;      Params:         0       0      20       0       0
  4622 ;;      Locals:         0       0       8       0       0
  4623 ;;      Temps:          0       0       0       0       0
  4624 ;;      Totals:         0       0      28       0       0
  4625 ;;Total ram usage:       28 bytes
  4626 ;; Hardware stack levels used:    1
  4627 ;; Hardware stack levels required when called:    2
  4628 ;; This function calls:
  4629 ;;		___fladd
  4630 ;;		___fldiv
  4631 ;;		___flmul
  4632 ;;		___flneg
  4633 ;; This function is called by:
  4634 ;;		_loop
  4635 ;; This function uses a non-reentrant model
  4636 ;;
  4637                           psect	text10,local,class=CODE,delta=2,merge=1,group=0
  4638                           	file	"PIDController.c"
  4639                           	line	22
  4640                           global __ptext10
  4641                           __ptext10:	;psect for function _map
  4642  000B                     psect	text10
  4643                           	file	"PIDController.c"
  4644                           	line	22
  4645                           	global	__size_of_map
  4646                           	__size_of_map	equ	__end_of_map-_map
  4647  01AE                     	
  4648                           _map:	
  4649  000B                     ;incstack = 0
  4650                           	opt	stack 4
  4651                           ; Regs used in _map: [wreg+status,2+status,0+btemp+1+pclath+cstack]
  4652                           	line	24
  4653                           	
  4654                           l3598:	
  4655  000B                     ;PIDController.c: 22: double map(double data, double X2, double X1, double Y2, double Y1
                                 );PIDController.c: 23: {;PIDController.c: 24:     double m = (Y2 - Y1) / (X2 - X1);
  4656                           	bsf	status, 5	;RP0=1, select bank1
  4657  000B  1683               	bcf	status, 6	;RP1=0, select bank1
  4658  000C  1303               	movf	(map@X2+3)^080h,w
  4659  000D  0827               	bcf	status, 5	;RP0=0, select bank0
  4660  000E  1283               	bcf	status, 6	;RP1=0, select bank0
  4661  000F  1303               	movwf	(___fladd@b+3)
  4662  0010  00C1               	bsf	status, 5	;RP0=1, select bank1
  4663  0011  1683               	bcf	status, 6	;RP1=0, select bank1
  4664  0012  1303               	movf	(map@X2+2)^080h,w
  4665  0013  0826               	bcf	status, 5	;RP0=0, select bank0
  4666  0014  1283               	bcf	status, 6	;RP1=0, select bank0
  4667  0015  1303               	movwf	(___fladd@b+2)
  4668  0016  00C0               	bsf	status, 5	;RP0=1, select bank1
  4669  0017  1683               	bcf	status, 6	;RP1=0, select bank1
  4670  0018  1303               	movf	(map@X2+1)^080h,w
  4671  0019  0825               	bcf	status, 5	;RP0=0, select bank0
  4672  001A  1283               	bcf	status, 6	;RP1=0, select bank0
  4673  001B  1303               	movwf	(___fladd@b+1)
  4674  001C  00BF               	bsf	status, 5	;RP0=1, select bank1
  4675  001D  1683               	bcf	status, 6	;RP1=0, select bank1
  4676  001E  1303               	movf	(map@X2)^080h,w
  4677  001F  0824               	bcf	status, 5	;RP0=0, select bank0
  4678  0020  1283               	bcf	status, 6	;RP1=0, select bank0
  4679  0021  1303               	movwf	(___fladd@b)
  4680  0022  00BE               
  4681                           	bsf	status, 5	;RP0=1, select bank1
  4682  0023  1683               	bcf	status, 6	;RP1=0, select bank1
  4683  0024  1303               	movf	(map@X1+3)^080h,w
  4684  0025  082B               	bcf	status, 5	;RP0=0, select bank0
  4685  0026  1283               	bcf	status, 6	;RP1=0, select bank0
  4686  0027  1303               	movwf	(___flneg@f1+3)
  4687  0028  00BD               	bsf	status, 5	;RP0=1, select bank1
  4688  0029  1683               	bcf	status, 6	;RP1=0, select bank1
  4689  002A  1303               	movf	(map@X1+2)^080h,w
  4690  002B  082A               	bcf	status, 5	;RP0=0, select bank0
  4691  002C  1283               	bcf	status, 6	;RP1=0, select bank0
  4692  002D  1303               	movwf	(___flneg@f1+2)
  4693  002E  00BC               	bsf	status, 5	;RP0=1, select bank1
  4694  002F  1683               	bcf	status, 6	;RP1=0, select bank1
  4695  0030  1303               	movf	(map@X1+1)^080h,w
  4696  0031  0829               	bcf	status, 5	;RP0=0, select bank0
  4697  0032  1283               	bcf	status, 6	;RP1=0, select bank0
  4698  0033  1303               	movwf	(___flneg@f1+1)
  4699  0034  00BB               	bsf	status, 5	;RP0=1, select bank1
  4700  0035  1683               	bcf	status, 6	;RP1=0, select bank1
  4701  0036  1303               	movf	(map@X1)^080h,w
  4702  0037  0828               	bcf	status, 5	;RP0=0, select bank0
  4703  0038  1283               	bcf	status, 6	;RP1=0, select bank0
  4704  0039  1303               	movwf	(___flneg@f1)
  4705  003A  00BA               
  4706                           	fcall	___flneg
  4707  003B  160A  158A  276E  120A  118A  	bcf	status, 5	;RP0=0, select bank0
  4708  0040  1283               	bcf	status, 6	;RP1=0, select bank0
  4709  0041  1303               	movf	(3+(?___flneg)),w
  4710  0042  083D               	movwf	(___fladd@a+3)
  4711  0043  00C5               	movf	(2+(?___flneg)),w
  4712  0044  083C               	movwf	(___fladd@a+2)
  4713  0045  00C4               	movf	(1+(?___flneg)),w
  4714  0046  083B               	movwf	(___fladd@a+1)
  4715  0047  00C3               	movf	(0+(?___flneg)),w
  4716  0048  083A               	movwf	(___fladd@a)
  4717  0049  00C2               
  4718                           	fcall	___fladd
  4719  004A  120A  118A  21B9  120A  118A  	bcf	status, 5	;RP0=0, select bank0
  4720  004F  1283               	bcf	status, 6	;RP1=0, select bank0
  4721  0050  1303               	movf	(3+(?___fladd)),w
  4722  0051  0841               	movwf	(___fldiv@a+3)
  4723  0052  00D9               	movf	(2+(?___fladd)),w
  4724  0053  0840               	movwf	(___fldiv@a+2)
  4725  0054  00D8               	movf	(1+(?___fladd)),w
  4726  0055  083F               	movwf	(___fldiv@a+1)
  4727  0056  00D7               	movf	(0+(?___fladd)),w
  4728  0057  083E               	movwf	(___fldiv@a)
  4729  0058  00D6               
  4730                           	bsf	status, 5	;RP0=1, select bank1
  4731  0059  1683               	bcf	status, 6	;RP1=0, select bank1
  4732  005A  1303               	movf	(map@Y2+3)^080h,w
  4733  005B  082F               	bcf	status, 5	;RP0=0, select bank0
  4734  005C  1283               	bcf	status, 6	;RP1=0, select bank0
  4735  005D  1303               	movwf	(___fladd@b+3)
  4736  005E  00C1               	bsf	status, 5	;RP0=1, select bank1
  4737  005F  1683               	bcf	status, 6	;RP1=0, select bank1
  4738  0060  1303               	movf	(map@Y2+2)^080h,w
  4739  0061  082E               	bcf	status, 5	;RP0=0, select bank0
  4740  0062  1283               	bcf	status, 6	;RP1=0, select bank0
  4741  0063  1303               	movwf	(___fladd@b+2)
  4742  0064  00C0               	bsf	status, 5	;RP0=1, select bank1
  4743  0065  1683               	bcf	status, 6	;RP1=0, select bank1
  4744  0066  1303               	movf	(map@Y2+1)^080h,w
  4745  0067  082D               	bcf	status, 5	;RP0=0, select bank0
  4746  0068  1283               	bcf	status, 6	;RP1=0, select bank0
  4747  0069  1303               	movwf	(___fladd@b+1)
  4748  006A  00BF               	bsf	status, 5	;RP0=1, select bank1
  4749  006B  1683               	bcf	status, 6	;RP1=0, select bank1
  4750  006C  1303               	movf	(map@Y2)^080h,w
  4751  006D  082C               	bcf	status, 5	;RP0=0, select bank0
  4752  006E  1283               	bcf	status, 6	;RP1=0, select bank0
  4753  006F  1303               	movwf	(___fladd@b)
  4754  0070  00BE               
  4755                           	bsf	status, 5	;RP0=1, select bank1
  4756  0071  1683               	bcf	status, 6	;RP1=0, select bank1
  4757  0072  1303               	movf	(map@Y1+3)^080h,w
  4758  0073  0833               	bcf	status, 5	;RP0=0, select bank0
  4759  0074  1283               	bcf	status, 6	;RP1=0, select bank0
  4760  0075  1303               	movwf	(___flneg@f1+3)
  4761  0076  00BD               	bsf	status, 5	;RP0=1, select bank1
  4762  0077  1683               	bcf	status, 6	;RP1=0, select bank1
  4763  0078  1303               	movf	(map@Y1+2)^080h,w
  4764  0079  0832               	bcf	status, 5	;RP0=0, select bank0
  4765  007A  1283               	bcf	status, 6	;RP1=0, select bank0
  4766  007B  1303               	movwf	(___flneg@f1+2)
  4767  007C  00BC               	bsf	status, 5	;RP0=1, select bank1
  4768  007D  1683               	bcf	status, 6	;RP1=0, select bank1
  4769  007E  1303               	movf	(map@Y1+1)^080h,w
  4770  007F  0831               	bcf	status, 5	;RP0=0, select bank0
  4771  0080  1283               	bcf	status, 6	;RP1=0, select bank0
  4772  0081  1303               	movwf	(___flneg@f1+1)
  4773  0082  00BB               	bsf	status, 5	;RP0=1, select bank1
  4774  0083  1683               	bcf	status, 6	;RP1=0, select bank1
  4775  0084  1303               	movf	(map@Y1)^080h,w
  4776  0085  0830               	bcf	status, 5	;RP0=0, select bank0
  4777  0086  1283               	bcf	status, 6	;RP1=0, select bank0
  4778  0087  1303               	movwf	(___flneg@f1)
  4779  0088  00BA               
  4780                           	fcall	___flneg
  4781  0089  160A  158A  276E  120A  118A  	bcf	status, 5	;RP0=0, select bank0
  4782  008E  1283               	bcf	status, 6	;RP1=0, select bank0
  4783  008F  1303               	movf	(3+(?___flneg)),w
  4784  0090  083D               	movwf	(___fladd@a+3)
  4785  0091  00C5               	movf	(2+(?___flneg)),w
  4786  0092  083C               	movwf	(___fladd@a+2)
  4787  0093  00C4               	movf	(1+(?___flneg)),w
  4788  0094  083B               	movwf	(___fladd@a+1)
  4789  0095  00C3               	movf	(0+(?___flneg)),w
  4790  0096  083A               	movwf	(___fladd@a)
  4791  0097  00C2               
  4792                           	fcall	___fladd
  4793  0098  120A  118A  21B9  120A  118A  	bcf	status, 5	;RP0=0, select bank0
  4794  009D  1283               	bcf	status, 6	;RP1=0, select bank0
  4795  009E  1303               	movf	(3+(?___fladd)),w
  4796  009F  0841               	movwf	(___fldiv@b+3)
  4797  00A0  00DD               	movf	(2+(?___fladd)),w
  4798  00A1  0840               	movwf	(___fldiv@b+2)
  4799  00A2  00DC               	movf	(1+(?___fladd)),w
  4800  00A3  083F               	movwf	(___fldiv@b+1)
  4801  00A4  00DB               	movf	(0+(?___fladd)),w
  4802  00A5  083E               	movwf	(___fldiv@b)
  4803  00A6  00DA               
  4804                           	fcall	___fldiv
  4805  00A7  120A  158A  20FB  120A  118A  	bcf	status, 5	;RP0=0, select bank0
  4806  00AC  1283               	bcf	status, 6	;RP1=0, select bank0
  4807  00AD  1303               	movf	(3+(?___fldiv)),w
  4808  00AE  0859               	bsf	status, 5	;RP0=1, select bank1
  4809  00AF  1683               	bcf	status, 6	;RP1=0, select bank1
  4810  00B0  1303               	movwf	(map@m+3)^080h
  4811  00B1  00BB               	bcf	status, 5	;RP0=0, select bank0
  4812  00B2  1283               	bcf	status, 6	;RP1=0, select bank0
  4813  00B3  1303               	movf	(2+(?___fldiv)),w
  4814  00B4  0858               	bsf	status, 5	;RP0=1, select bank1
  4815  00B5  1683               	bcf	status, 6	;RP1=0, select bank1
  4816  00B6  1303               	movwf	(map@m+2)^080h
  4817  00B7  00BA               	bcf	status, 5	;RP0=0, select bank0
  4818  00B8  1283               	bcf	status, 6	;RP1=0, select bank0
  4819  00B9  1303               	movf	(1+(?___fldiv)),w
  4820  00BA  0857               	bsf	status, 5	;RP0=1, select bank1
  4821  00BB  1683               	bcf	status, 6	;RP1=0, select bank1
  4822  00BC  1303               	movwf	(map@m+1)^080h
  4823  00BD  00B9               	bcf	status, 5	;RP0=0, select bank0
  4824  00BE  1283               	bcf	status, 6	;RP1=0, select bank0
  4825  00BF  1303               	movf	(0+(?___fldiv)),w
  4826  00C0  0856               	bsf	status, 5	;RP0=1, select bank1
  4827  00C1  1683               	bcf	status, 6	;RP1=0, select bank1
  4828  00C2  1303               	movwf	(map@m)^080h
  4829  00C3  00B8               
  4830                           	line	25
  4831                           ;PIDController.c: 25:     return (m * data) - (m * X1) + Y1;
  4832                           	movf	(map@m+3)^080h,w
  4833  00C4  083B               	bcf	status, 5	;RP0=0, select bank0
  4834  00C5  1283               	bcf	status, 6	;RP1=0, select bank0
  4835  00C6  1303               	movwf	(___flmul@a+3)
  4836  00C7  00A7               	bsf	status, 5	;RP0=1, select bank1
  4837  00C8  1683               	bcf	status, 6	;RP1=0, select bank1
  4838  00C9  1303               	movf	(map@m+2)^080h,w
  4839  00CA  083A               	bcf	status, 5	;RP0=0, select bank0
  4840  00CB  1283               	bcf	status, 6	;RP1=0, select bank0
  4841  00CC  1303               	movwf	(___flmul@a+2)
  4842  00CD  00A6               	bsf	status, 5	;RP0=1, select bank1
  4843  00CE  1683               	bcf	status, 6	;RP1=0, select bank1
  4844  00CF  1303               	movf	(map@m+1)^080h,w
  4845  00D0  0839               	bcf	status, 5	;RP0=0, select bank0
  4846  00D1  1283               	bcf	status, 6	;RP1=0, select bank0
  4847  00D2  1303               	movwf	(___flmul@a+1)
  4848  00D3  00A5               	bsf	status, 5	;RP0=1, select bank1
  4849  00D4  1683               	bcf	status, 6	;RP1=0, select bank1
  4850  00D5  1303               	movf	(map@m)^080h,w
  4851  00D6  0838               	bcf	status, 5	;RP0=0, select bank0
  4852  00D7  1283               	bcf	status, 6	;RP1=0, select bank0
  4853  00D8  1303               	movwf	(___flmul@a)
  4854  00D9  00A4               
  4855                           	bsf	status, 5	;RP0=1, select bank1
  4856  00DA  1683               	bcf	status, 6	;RP1=0, select bank1
  4857  00DB  1303               	movf	(map@X1+3)^080h,w
  4858  00DC  082B               	bcf	status, 5	;RP0=0, select bank0
  4859  00DD  1283               	bcf	status, 6	;RP1=0, select bank0
  4860  00DE  1303               	movwf	(___flmul@b+3)
  4861  00DF  00A3               	bsf	status, 5	;RP0=1, select bank1
  4862  00E0  1683               	bcf	status, 6	;RP1=0, select bank1
  4863  00E1  1303               	movf	(map@X1+2)^080h,w
  4864  00E2  082A               	bcf	status, 5	;RP0=0, select bank0
  4865  00E3  1283               	bcf	status, 6	;RP1=0, select bank0
  4866  00E4  1303               	movwf	(___flmul@b+2)
  4867  00E5  00A2               	bsf	status, 5	;RP0=1, select bank1
  4868  00E6  1683               	bcf	status, 6	;RP1=0, select bank1
  4869  00E7  1303               	movf	(map@X1+1)^080h,w
  4870  00E8  0829               	bcf	status, 5	;RP0=0, select bank0
  4871  00E9  1283               	bcf	status, 6	;RP1=0, select bank0
  4872  00EA  1303               	movwf	(___flmul@b+1)
  4873  00EB  00A1               	bsf	status, 5	;RP0=1, select bank1
  4874  00EC  1683               	bcf	status, 6	;RP1=0, select bank1
  4875  00ED  1303               	movf	(map@X1)^080h,w
  4876  00EE  0828               	bcf	status, 5	;RP0=0, select bank0
  4877  00EF  1283               	bcf	status, 6	;RP1=0, select bank0
  4878  00F0  1303               	movwf	(___flmul@b)
  4879  00F1  00A0               
  4880                           	fcall	___flmul
  4881  00F2  120A  118A  2475  120A  118A  	bcf	status, 5	;RP0=0, select bank0
  4882  00F7  1283               	bcf	status, 6	;RP1=0, select bank0
  4883  00F8  1303               	movf	(3+(?___flmul)),w
  4884  00F9  0823               	movwf	(___flneg@f1+3)
  4885  00FA  00BD               	movf	(2+(?___flmul)),w
  4886  00FB  0822               	movwf	(___flneg@f1+2)
  4887  00FC  00BC               	movf	(1+(?___flmul)),w
  4888  00FD  0821               	movwf	(___flneg@f1+1)
  4889  00FE  00BB               	movf	(0+(?___flmul)),w
  4890  00FF  0820               	movwf	(___flneg@f1)
  4891  0100  00BA               
  4892                           	fcall	___flneg
  4893  0101  160A  158A  276E  120A  118A  	bcf	status, 5	;RP0=0, select bank0
  4894  0106  1283               	bcf	status, 6	;RP1=0, select bank0
  4895  0107  1303               	movf	(3+(?___flneg)),w
  4896  0108  083D               	movwf	(___fladd@b+3)
  4897  0109  00C1               	movf	(2+(?___flneg)),w
  4898  010A  083C               	movwf	(___fladd@b+2)
  4899  010B  00C0               	movf	(1+(?___flneg)),w
  4900  010C  083B               	movwf	(___fladd@b+1)
  4901  010D  00BF               	movf	(0+(?___flneg)),w
  4902  010E  083A               	movwf	(___fladd@b)
  4903  010F  00BE               
  4904                           	bsf	status, 5	;RP0=1, select bank1
  4905  0110  1683               	bcf	status, 6	;RP1=0, select bank1
  4906  0111  1303               	movf	(map@data+3)^080h,w
  4907  0112  0823               	bcf	status, 5	;RP0=0, select bank0
  4908  0113  1283               	bcf	status, 6	;RP1=0, select bank0
  4909  0114  1303               	movwf	(___flmul@b+3)
  4910  0115  00A3               	bsf	status, 5	;RP0=1, select bank1
  4911  0116  1683               	bcf	status, 6	;RP1=0, select bank1
  4912  0117  1303               	movf	(map@data+2)^080h,w
  4913  0118  0822               	bcf	status, 5	;RP0=0, select bank0
  4914  0119  1283               	bcf	status, 6	;RP1=0, select bank0
  4915  011A  1303               	movwf	(___flmul@b+2)
  4916  011B  00A2               	bsf	status, 5	;RP0=1, select bank1
  4917  011C  1683               	bcf	status, 6	;RP1=0, select bank1
  4918  011D  1303               	movf	(map@data+1)^080h,w
  4919  011E  0821               	bcf	status, 5	;RP0=0, select bank0
  4920  011F  1283               	bcf	status, 6	;RP1=0, select bank0
  4921  0120  1303               	movwf	(___flmul@b+1)
  4922  0121  00A1               	bsf	status, 5	;RP0=1, select bank1
  4923  0122  1683               	bcf	status, 6	;RP1=0, select bank1
  4924  0123  1303               	movf	(map@data)^080h,w
  4925  0124  0820               	bcf	status, 5	;RP0=0, select bank0
  4926  0125  1283               	bcf	status, 6	;RP1=0, select bank0
  4927  0126  1303               	movwf	(___flmul@b)
  4928  0127  00A0               
  4929                           	bsf	status, 5	;RP0=1, select bank1
  4930  0128  1683               	bcf	status, 6	;RP1=0, select bank1
  4931  0129  1303               	movf	(map@m+3)^080h,w
  4932  012A  083B               	bcf	status, 5	;RP0=0, select bank0
  4933  012B  1283               	bcf	status, 6	;RP1=0, select bank0
  4934  012C  1303               	movwf	(___flmul@a+3)
  4935  012D  00A7               	bsf	status, 5	;RP0=1, select bank1
  4936  012E  1683               	bcf	status, 6	;RP1=0, select bank1
  4937  012F  1303               	movf	(map@m+2)^080h,w
  4938  0130  083A               	bcf	status, 5	;RP0=0, select bank0
  4939  0131  1283               	bcf	status, 6	;RP1=0, select bank0
  4940  0132  1303               	movwf	(___flmul@a+2)
  4941  0133  00A6               	bsf	status, 5	;RP0=1, select bank1
  4942  0134  1683               	bcf	status, 6	;RP1=0, select bank1
  4943  0135  1303               	movf	(map@m+1)^080h,w
  4944  0136  0839               	bcf	status, 5	;RP0=0, select bank0
  4945  0137  1283               	bcf	status, 6	;RP1=0, select bank0
  4946  0138  1303               	movwf	(___flmul@a+1)
  4947  0139  00A5               	bsf	status, 5	;RP0=1, select bank1
  4948  013A  1683               	bcf	status, 6	;RP1=0, select bank1
  4949  013B  1303               	movf	(map@m)^080h,w
  4950  013C  0838               	bcf	status, 5	;RP0=0, select bank0
  4951  013D  1283               	bcf	status, 6	;RP1=0, select bank0
  4952  013E  1303               	movwf	(___flmul@a)
  4953  013F  00A4               
  4954                           	fcall	___flmul
  4955  0140  120A  118A  2475  120A  118A  	bcf	status, 5	;RP0=0, select bank0
  4956  0145  1283               	bcf	status, 6	;RP1=0, select bank0
  4957  0146  1303               	movf	(3+(?___flmul)),w
  4958  0147  0823               	movwf	(___fladd@a+3)
  4959  0148  00C5               	movf	(2+(?___flmul)),w
  4960  0149  0822               	movwf	(___fladd@a+2)
  4961  014A  00C4               	movf	(1+(?___flmul)),w
  4962  014B  0821               	movwf	(___fladd@a+1)
  4963  014C  00C3               	movf	(0+(?___flmul)),w
  4964  014D  0820               	movwf	(___fladd@a)
  4965  014E  00C2               
  4966                           	fcall	___fladd
  4967  014F  120A  118A  21B9  120A  118A  	bcf	status, 5	;RP0=0, select bank0
  4968  0154  1283               	bcf	status, 6	;RP1=0, select bank0
  4969  0155  1303               	movf	(3+(?___fladd)),w
  4970  0156  0841               	bsf	status, 5	;RP0=1, select bank1
  4971  0157  1683               	bcf	status, 6	;RP1=0, select bank1
  4972  0158  1303               	movwf	(_map$1284+3)^080h
  4973  0159  00B7               	bcf	status, 5	;RP0=0, select bank0
  4974  015A  1283               	bcf	status, 6	;RP1=0, select bank0
  4975  015B  1303               	movf	(2+(?___fladd)),w
  4976  015C  0840               	bsf	status, 5	;RP0=1, select bank1
  4977  015D  1683               	bcf	status, 6	;RP1=0, select bank1
  4978  015E  1303               	movwf	(_map$1284+2)^080h
  4979  015F  00B6               	bcf	status, 5	;RP0=0, select bank0
  4980  0160  1283               	bcf	status, 6	;RP1=0, select bank0
  4981  0161  1303               	movf	(1+(?___fladd)),w
  4982  0162  083F               	bsf	status, 5	;RP0=1, select bank1
  4983  0163  1683               	bcf	status, 6	;RP1=0, select bank1
  4984  0164  1303               	movwf	(_map$1284+1)^080h
  4985  0165  00B5               	bcf	status, 5	;RP0=0, select bank0
  4986  0166  1283               	bcf	status, 6	;RP1=0, select bank0
  4987  0167  1303               	movf	(0+(?___fladd)),w
  4988  0168  083E               	bsf	status, 5	;RP0=1, select bank1
  4989  0169  1683               	bcf	status, 6	;RP1=0, select bank1
  4990  016A  1303               	movwf	(_map$1284)^080h
  4991  016B  00B4               
  4992                           ;PIDController.c: 25:     return (m * data) - (m * X1) + Y1;
  4993                           	movf	(map@Y1+3)^080h,w
  4994  016C  0833               	bcf	status, 5	;RP0=0, select bank0
  4995  016D  1283               	bcf	status, 6	;RP1=0, select bank0
  4996  016E  1303               	movwf	(___fladd@b+3)
  4997  016F  00C1               	bsf	status, 5	;RP0=1, select bank1
  4998  0170  1683               	bcf	status, 6	;RP1=0, select bank1
  4999  0171  1303               	movf	(map@Y1+2)^080h,w
  5000  0172  0832               	bcf	status, 5	;RP0=0, select bank0
  5001  0173  1283               	bcf	status, 6	;RP1=0, select bank0
  5002  0174  1303               	movwf	(___fladd@b+2)
  5003  0175  00C0               	bsf	status, 5	;RP0=1, select bank1
  5004  0176  1683               	bcf	status, 6	;RP1=0, select bank1
  5005  0177  1303               	movf	(map@Y1+1)^080h,w
  5006  0178  0831               	bcf	status, 5	;RP0=0, select bank0
  5007  0179  1283               	bcf	status, 6	;RP1=0, select bank0
  5008  017A  1303               	movwf	(___fladd@b+1)
  5009  017B  00BF               	bsf	status, 5	;RP0=1, select bank1
  5010  017C  1683               	bcf	status, 6	;RP1=0, select bank1
  5011  017D  1303               	movf	(map@Y1)^080h,w
  5012  017E  0830               	bcf	status, 5	;RP0=0, select bank0
  5013  017F  1283               	bcf	status, 6	;RP1=0, select bank0
  5014  0180  1303               	movwf	(___fladd@b)
  5015  0181  00BE               
  5016                           	bsf	status, 5	;RP0=1, select bank1
  5017  0182  1683               	bcf	status, 6	;RP1=0, select bank1
  5018  0183  1303               	movf	(_map$1284+3)^080h,w
  5019  0184  0837               	bcf	status, 5	;RP0=0, select bank0
  5020  0185  1283               	bcf	status, 6	;RP1=0, select bank0
  5021  0186  1303               	movwf	(___fladd@a+3)
  5022  0187  00C5               	bsf	status, 5	;RP0=1, select bank1
  5023  0188  1683               	bcf	status, 6	;RP1=0, select bank1
  5024  0189  1303               	movf	(_map$1284+2)^080h,w
  5025  018A  0836               	bcf	status, 5	;RP0=0, select bank0
  5026  018B  1283               	bcf	status, 6	;RP1=0, select bank0
  5027  018C  1303               	movwf	(___fladd@a+2)
  5028  018D  00C4               	bsf	status, 5	;RP0=1, select bank1
  5029  018E  1683               	bcf	status, 6	;RP1=0, select bank1
  5030  018F  1303               	movf	(_map$1284+1)^080h,w
  5031  0190  0835               	bcf	status, 5	;RP0=0, select bank0
  5032  0191  1283               	bcf	status, 6	;RP1=0, select bank0
  5033  0192  1303               	movwf	(___fladd@a+1)
  5034  0193  00C3               	bsf	status, 5	;RP0=1, select bank1
  5035  0194  1683               	bcf	status, 6	;RP1=0, select bank1
  5036  0195  1303               	movf	(_map$1284)^080h,w
  5037  0196  0834               	bcf	status, 5	;RP0=0, select bank0
  5038  0197  1283               	bcf	status, 6	;RP1=0, select bank0
  5039  0198  1303               	movwf	(___fladd@a)
  5040  0199  00C2               
  5041                           	fcall	___fladd
  5042  019A  120A  118A  21B9  120A  118A  	bcf	status, 5	;RP0=0, select bank0
  5043  019F  1283               	bcf	status, 6	;RP1=0, select bank0
  5044  01A0  1303               	movf	(3+(?___fladd)),w
  5045  01A1  0841               	bsf	status, 5	;RP0=1, select bank1
  5046  01A2  1683               	bcf	status, 6	;RP1=0, select bank1
  5047  01A3  1303               	movwf	(?_map+3)^080h
  5048  01A4  00A3               	bcf	status, 5	;RP0=0, select bank0
  5049  01A5  1283               	bcf	status, 6	;RP1=0, select bank0
  5050  01A6  1303               	movf	(2+(?___fladd)),w
  5051  01A7  0840               	bsf	status, 5	;RP0=1, select bank1
  5052  01A8  1683               	bcf	status, 6	;RP1=0, select bank1
  5053  01A9  1303               	movwf	(?_map+2)^080h
  5054  01AA  00A2               	bcf	status, 5	;RP0=0, select bank0
  5055  01AB  1283               	bcf	status, 6	;RP1=0, select bank0
  5056  01AC  1303               	movf	(1+(?___fladd)),w
  5057  01AD  083F               	bsf	status, 5	;RP0=1, select bank1
  5058  01AE  1683               	bcf	status, 6	;RP1=0, select bank1
  5059  01AF  1303               	movwf	(?_map+1)^080h
  5060  01B0  00A1               	bcf	status, 5	;RP0=0, select bank0
  5061  01B1  1283               	bcf	status, 6	;RP1=0, select bank0
  5062  01B2  1303               	movf	(0+(?___fladd)),w
  5063  01B3  083E               	bsf	status, 5	;RP0=1, select bank1
  5064  01B4  1683               	bcf	status, 6	;RP1=0, select bank1
  5065  01B5  1303               	movwf	(?_map)^080h
  5066  01B6  00A0               
  5067                           	goto	l386
  5068  01B7  29B8               	
  5069                           l3600:	
  5070  01B8                     	line	26
  5071                           	
  5072                           l386:	
  5073  01B8                     	return
  5074  01B8  0008               	opt stack 0
  5075                           GLOBAL	__end_of_map
  5076                           	__end_of_map:
  5077  01B9                     	signat	_map,20604
  5078                           	global	_lcdSetCursor
  5079                           
  5080 ;; *************** function _lcdSetCursor *****************
  5081 ;; Defined at:
  5082 ;;		line 45 in file "LCD16x2.c"
  5083 ;; Parameters:    Size  Location     Type
  5084 ;;  row             1    wreg     unsigned char 
  5085 ;;  column          1   12[COMMON] unsigned char 
  5086 ;; Auto vars:     Size  Location     Type
  5087 ;;  row             1    0[BANK0 ] unsigned char 
  5088 ;;  location        1    1[BANK0 ] unsigned char 
  5089 ;; Return value:  Size  Location     Type
  5090 ;;                  1    wreg      void 
  5091 ;; Registers used:
  5092 ;;		wreg, fsr0l, fsr0h, status,2, status,0, btemp+1, pclath, cstack
  5093 ;; Tracked objects:
  5094 ;;		On entry : 0/0
  5095 ;;		On exit  : 0/0
  5096 ;;		Unchanged: 0/0
  5097 ;; Data sizes:     COMMON   BANK0   BANK1   BANK3   BANK2
  5098 ;;      Params:         1       0       0       0       0
  5099 ;;      Locals:         0       2       0       0       0
  5100 ;;      Temps:          1       0       0       0       0
  5101 ;;      Totals:         2       2       0       0       0
  5102 ;;Total ram usage:        4 bytes
  5103 ;; Hardware stack levels used:    1
  5104 ;; Hardware stack levels required when called:    3
  5105 ;; This function calls:
  5106 ;;		_WriteInstruction
  5107 ;; This function is called by:
  5108 ;;		_setup
  5109 ;;		_loop
  5110 ;; This function uses a non-reentrant model
  5111 ;;
  5112                           psect	text11,local,class=CODE,delta=2,merge=1,group=0
  5113                           	file	"LCD16x2.c"
  5114                           	line	45
  5115                           global __ptext11
  5116                           __ptext11:	;psect for function _lcdSetCursor
  5117  1068                     psect	text11
  5118                           	file	"LCD16x2.c"
  5119                           	line	45
  5120                           	global	__size_of_lcdSetCursor
  5121                           	__size_of_lcdSetCursor	equ	__end_of_lcdSetCursor-_lcdSetCursor
  5122  002C                     	
  5123                           _lcdSetCursor:	
  5124  1068                     ;incstack = 0
  5125                           	opt	stack 3
  5126                           ; Regs used in _lcdSetCursor: [wreg-fsr0h+status,2+status,0+btemp+1+pclath+cstack]
  5127                           ;lcdSetCursor@row stored from wreg
  5128                           	bcf	status, 5	;RP0=0, select bank0
  5129  1068  1283               	bcf	status, 6	;RP1=0, select bank0
  5130  1069  1303               	movwf	(lcdSetCursor@row)
  5131  106A  00A0               	line	47
  5132                           	
  5133                           l3506:	
  5134  106B                     ;LCD16x2.c: 45: void lcdSetCursor(char row, char column);LCD16x2.c: 46: {;LCD16x2.c: 47:
                                      char location = 0;
  5135                           	clrf	(lcdSetCursor@location)
  5136  106B  01A1               	line	48
  5137                           	
  5138                           l3508:	
  5139  106C                     ;LCD16x2.c: 48:     if(row == 1)
  5140                           		decf	((lcdSetCursor@row)),w
  5141  106C  0320               	btfss	status,2
  5142  106D  1D03               	goto	u3451
  5143  106E  2870               	goto	u3450
  5144  106F  2871               u3451:
  5145  1070                     	goto	l3514
  5146  1070  287D               u3450:
  5147  1071                     	line	50
  5148                           	
  5149                           l3510:	
  5150  1071                     ;LCD16x2.c: 49:     {;LCD16x2.c: 50:         location = (0x80) + (column - 1);
  5151                           	movf	(lcdSetCursor@column),w
  5152  1071  087C               	addlw	07Fh
  5153  1072  3E7F               	movwf	(??_lcdSetCursor+0)+0
  5154  1073  00FD               	movf	(??_lcdSetCursor+0)+0,w
  5155  1074  087D               	movwf	(lcdSetCursor@location)
  5156  1075  00A1               	line	51
  5157                           	
  5158                           l3512:	
  5159  1076                     ;LCD16x2.c: 51:         WriteInstruction(location);
  5160                           	movf	(lcdSetCursor@location),w
  5161  1076  0821               	fcall	_WriteInstruction
  5162  1077  160A  118A  2279  160A  118A  	line	52
  5163                           ;LCD16x2.c: 52:     }
  5164                           	goto	l446
  5165  107C  2893               	line	53
  5166                           ;LCD16x2.c: 53:     else if(row == 2)
  5167                           	
  5168                           l442:	
  5169  107D                     	
  5170                           l3514:	
  5171  107D                     		movlw	2
  5172  107D  3002               	bcf	status, 5	;RP0=0, select bank0
  5173  107E  1283               	bcf	status, 6	;RP1=0, select bank0
  5174  107F  1303               	xorwf	((lcdSetCursor@row)),w
  5175  1080  0620               	btfss	status,2
  5176  1081  1D03               	goto	u3461
  5177  1082  2884               	goto	u3460
  5178  1083  2885               u3461:
  5179  1084                     	goto	l446
  5180  1084  2893               u3460:
  5181  1085                     	line	55
  5182                           	
  5183                           l3516:	
  5184  1085                     ;LCD16x2.c: 54:     {;LCD16x2.c: 55:         location = 0xC0 + (column - 1);
  5185                           	movf	(lcdSetCursor@column),w
  5186  1085  087C               	addlw	0BFh
  5187  1086  3EBF               	movwf	(??_lcdSetCursor+0)+0
  5188  1087  00FD               	movf	(??_lcdSetCursor+0)+0,w
  5189  1088  087D               	movwf	(lcdSetCursor@location)
  5190  1089  00A1               	line	56
  5191                           	
  5192                           l3518:	
  5193  108A                     ;LCD16x2.c: 56:         WriteInstruction(location);
  5194                           	movf	(lcdSetCursor@location),w
  5195  108A  0821               	fcall	_WriteInstruction
  5196  108B  160A  118A  2279  160A  118A  	line	57
  5197                           ;LCD16x2.c: 57:     }
  5198                           	goto	l446
  5199  1090  2893               	line	58
  5200                           ;LCD16x2.c: 58:     else
  5201                           	
  5202                           l444:	
  5203  1091                     	line	60
  5204                           ;LCD16x2.c: 59:     {;LCD16x2.c: 60:         return;
  5205                           	goto	l446
  5206  1091  2893               	line	61
  5207                           ;LCD16x2.c: 61:     }
  5208                           	
  5209                           l445:	
  5210  1092                     	goto	l446
  5211  1092  2893               	
  5212                           l443:	
  5213  1093                     	line	62
  5214                           	
  5215                           l446:	
  5216  1093                     	return
  5217  1093  0008               	opt stack 0
  5218                           GLOBAL	__end_of_lcdSetCursor
  5219                           	__end_of_lcdSetCursor:
  5220  1094                     	signat	_lcdSetCursor,8313
  5221                           	global	_WriteInstruction
  5222                           
  5223 ;; *************** function _WriteInstruction *****************
  5224 ;; Defined at:
  5225 ;;		line 78 in file "LCD16x2.c"
  5226 ;; Parameters:    Size  Location     Type
  5227 ;;  instruction     1    wreg     unsigned char 
  5228 ;; Auto vars:     Size  Location     Type
  5229 ;;  instruction     1   10[COMMON] unsigned char 
  5230 ;;  MSNibble        1   11[COMMON] unsigned char 
  5231 ;;  LSNibble        1    9[COMMON] unsigned char 
  5232 ;; Return value:  Size  Location     Type
  5233 ;;                  1    wreg      void 
  5234 ;; Registers used:
  5235 ;;		wreg, fsr0l, fsr0h, status,2, status,0, btemp+1, pclath, cstack
  5236 ;; Tracked objects:
  5237 ;;		On entry : 0/0
  5238 ;;		On exit  : 0/0
  5239 ;;		Unchanged: 0/0
  5240 ;; Data sizes:     COMMON   BANK0   BANK1   BANK3   BANK2
  5241 ;;      Params:         0       0       0       0       0
  5242 ;;      Locals:         3       0       0       0       0
  5243 ;;      Temps:          2       0       0       0       0
  5244 ;;      Totals:         5       0       0       0       0
  5245 ;;Total ram usage:        5 bytes
  5246 ;; Hardware stack levels used:    1
  5247 ;; Hardware stack levels required when called:    2
  5248 ;; This function calls:
  5249 ;;		_ByteByNibble
  5250 ;;		_delay
  5251 ;;		_digitalWrite
  5252 ;; This function is called by:
  5253 ;;		_lcdBegin
  5254 ;;		_lcdSetCursor
  5255 ;;		_lcdClear
  5256 ;; This function uses a non-reentrant model
  5257 ;;
  5258                           psect	text12,local,class=CODE,delta=2,merge=1,group=0
  5259                           	line	78
  5260                           global __ptext12
  5261                           __ptext12:	;psect for function _WriteInstruction
  5262  1279                     psect	text12
  5263                           	file	"LCD16x2.c"
  5264                           	line	78
  5265                           	global	__size_of_WriteInstruction
  5266                           	__size_of_WriteInstruction	equ	__end_of_WriteInstruction-_WriteInstruction
  5267  0082                     	
  5268                           _WriteInstruction:	
  5269  1279                     ;incstack = 0
  5270                           	opt	stack 3
  5271                           ; Regs used in _WriteInstruction: [wreg-fsr0h+status,2+status,0+btemp+1+pclath+cstack]
  5272                           ;WriteInstruction@instruction stored from wreg
  5273                           	movwf	(WriteInstruction@instruction)
  5274  1279  00FA               	line	80
  5275                           	
  5276                           l2866:	
  5277  127A                     ;LCD16x2.c: 78: void WriteInstruction(char instruction);LCD16x2.c: 79: {;LCD16x2.c: 80: 
                                     char MSNibble = 0;
  5278                           	clrf	(WriteInstruction@MSNibble)
  5279  127A  01FB               	line	81
  5280                           ;LCD16x2.c: 81:     char LSNibble = 0;
  5281                           	clrf	(WriteInstruction@LSNibble)
  5282  127B  01F9               	line	82
  5283                           	
  5284                           l2868:	
  5285  127C                     ;LCD16x2.c: 82:     MSNibble = instruction & 0xF0;
  5286                           	movf	(WriteInstruction@instruction),w
  5287  127C  087A               	andlw	0F0h
  5288  127D  39F0               	movwf	(??_WriteInstruction+0)+0
  5289  127E  00F7               	movf	(??_WriteInstruction+0)+0,w
  5290  127F  0877               	movwf	(WriteInstruction@MSNibble)
  5291  1280  00FB               	line	83
  5292                           	
  5293                           l2870:	
  5294  1281                     ;LCD16x2.c: 83:     MSNibble = (MSNibble >> 4);
  5295                           	movf	(WriteInstruction@MSNibble),w
  5296  1281  087B               	movwf	(??_WriteInstruction+0)+0
  5297  1282  00F7               	movlw	04h
  5298  1283  3004               u2045:
  5299  1284                     	clrc
  5300  1284  1003               	rrf	(??_WriteInstruction+0)+0,f
  5301  1285  0CF7               	addlw	-1
  5302  1286  3EFF               	skipz
  5303  1287  1D03               	goto	u2045
  5304  1288  2A84               	movf	0+(??_WriteInstruction+0)+0,w
  5305  1289  0877               	movwf	(??_WriteInstruction+1)+0
  5306  128A  00F8               	movf	(??_WriteInstruction+1)+0,w
  5307  128B  0878               	movwf	(WriteInstruction@MSNibble)
  5308  128C  00FB               	line	84
  5309                           	
  5310                           l2872:	
  5311  128D                     ;LCD16x2.c: 84:     LSNibble = instruction & 0x0F;
  5312                           	movf	(WriteInstruction@instruction),w
  5313  128D  087A               	andlw	0Fh
  5314  128E  390F               	movwf	(??_WriteInstruction+0)+0
  5315  128F  00F7               	movf	(??_WriteInstruction+0)+0,w
  5316  1290  0877               	movwf	(WriteInstruction@LSNibble)
  5317  1291  00F9               	line	85
  5318                           	
  5319                           l2874:	
  5320  1292                     ;LCD16x2.c: 85:     ByteByNibble(MSNibble);
  5321                           	movf	(WriteInstruction@MSNibble),w
  5322  1292  087B               	fcall	_ByteByNibble
  5323  1293  120A  158A  2552  160A  118A  	line	86
  5324                           	
  5325                           l2876:	
  5326  1298                     ;LCD16x2.c: 86:     digitalWrite(RSPin,0);
  5327                           	clrf	(digitalWrite@value)
  5328  1298  01F0               	bsf	status, 5	;RP0=1, select bank1
  5329  1299  1683               	bcf	status, 6	;RP1=0, select bank1
  5330  129A  1303               	movf	(_RSPin)^080h,w
  5331  129B  0864               	fcall	_digitalWrite
  5332  129C  160A  118A  26DD  160A  118A  	line	87
  5333                           	
  5334                           l2878:	
  5335  12A1                     ;LCD16x2.c: 87:     digitalWrite(RWPin,0);
  5336                           	clrf	(digitalWrite@value)
  5337  12A1  01F0               	bsf	status, 5	;RP0=1, select bank1
  5338  12A2  1683               	bcf	status, 6	;RP1=0, select bank1
  5339  12A3  1303               	movf	(_RWPin)^080h,w
  5340  12A4  0862               	fcall	_digitalWrite
  5341  12A5  160A  118A  26DD  160A  118A  	line	88
  5342                           	
  5343                           l2880:	
  5344  12AA                     ;LCD16x2.c: 88:     digitalWrite(ENPin,1);
  5345                           	clrf	(digitalWrite@value)
  5346  12AA  01F0               	incf	(digitalWrite@value),f
  5347  12AB  0AF0               	bsf	status, 5	;RP0=1, select bank1
  5348  12AC  1683               	bcf	status, 6	;RP1=0, select bank1
  5349  12AD  1303               	movf	(_ENPin)^080h,w
  5350  12AE  0863               	fcall	_digitalWrite
  5351  12AF  160A  118A  26DD  160A  118A  	line	89
  5352                           	
  5353                           l2882:	
  5354  12B4                     ;LCD16x2.c: 89:     delay(5);
  5355                           	movlw	05h
  5356  12B4  3005               	movwf	(delay@milis)
  5357  12B5  00F0               	movlw	0
  5358  12B6  3000               	movwf	((delay@milis))+1
  5359  12B7  00F1               	fcall	_delay
  5360  12B8  160A  118A  2168  160A  118A  	line	91
  5361                           	
  5362                           l2884:	
  5363  12BD                     ;LCD16x2.c: 91:     digitalWrite(ENPin,0);
  5364                           	clrf	(digitalWrite@value)
  5365  12BD  01F0               	bsf	status, 5	;RP0=1, select bank1
  5366  12BE  1683               	bcf	status, 6	;RP1=0, select bank1
  5367  12BF  1303               	movf	(_ENPin)^080h,w
  5368  12C0  0863               	fcall	_digitalWrite
  5369  12C1  160A  118A  26DD  160A  118A  	line	92
  5370                           	
  5371                           l2886:	
  5372  12C6                     ;LCD16x2.c: 92:     delay(5);
  5373                           	movlw	05h
  5374  12C6  3005               	movwf	(delay@milis)
  5375  12C7  00F0               	movlw	0
  5376  12C8  3000               	movwf	((delay@milis))+1
  5377  12C9  00F1               	fcall	_delay
  5378  12CA  160A  118A  2168  160A  118A  	line	93
  5379                           	
  5380                           l2888:	
  5381  12CF                     ;LCD16x2.c: 93:     ByteByNibble(LSNibble);
  5382                           	movf	(WriteInstruction@LSNibble),w
  5383  12CF  0879               	fcall	_ByteByNibble
  5384  12D0  120A  158A  2552  160A  118A  	line	94
  5385                           	
  5386                           l2890:	
  5387  12D5                     ;LCD16x2.c: 94:     digitalWrite(ENPin,1);
  5388                           	clrf	(digitalWrite@value)
  5389  12D5  01F0               	incf	(digitalWrite@value),f
  5390  12D6  0AF0               	bsf	status, 5	;RP0=1, select bank1
  5391  12D7  1683               	bcf	status, 6	;RP1=0, select bank1
  5392  12D8  1303               	movf	(_ENPin)^080h,w
  5393  12D9  0863               	fcall	_digitalWrite
  5394  12DA  160A  118A  26DD  160A  118A  	line	95
  5395                           	
  5396                           l2892:	
  5397  12DF                     ;LCD16x2.c: 95:     delay(5);
  5398                           	movlw	05h
  5399  12DF  3005               	movwf	(delay@milis)
  5400  12E0  00F0               	movlw	0
  5401  12E1  3000               	movwf	((delay@milis))+1
  5402  12E2  00F1               	fcall	_delay
  5403  12E3  160A  118A  2168  160A  118A  	line	97
  5404                           	
  5405                           l2894:	
  5406  12E8                     ;LCD16x2.c: 97:     digitalWrite(ENPin,0);
  5407                           	clrf	(digitalWrite@value)
  5408  12E8  01F0               	bsf	status, 5	;RP0=1, select bank1
  5409  12E9  1683               	bcf	status, 6	;RP1=0, select bank1
  5410  12EA  1303               	movf	(_ENPin)^080h,w
  5411  12EB  0863               	fcall	_digitalWrite
  5412  12EC  160A  118A  26DD  160A  118A  	line	98
  5413                           	
  5414                           l2896:	
  5415  12F1                     ;LCD16x2.c: 98:     delay(3);
  5416                           	movlw	03h
  5417  12F1  3003               	movwf	(delay@milis)
  5418  12F2  00F0               	movlw	0
  5419  12F3  3000               	movwf	((delay@milis))+1
  5420  12F4  00F1               	fcall	_delay
  5421  12F5  160A  118A  2168  160A  118A  	line	99
  5422                           	
  5423                           l458:	
  5424  12FA                     	return
  5425  12FA  0008               	opt stack 0
  5426                           GLOBAL	__end_of_WriteInstruction
  5427                           	__end_of_WriteInstruction:
  5428  12FB                     	signat	_WriteInstruction,4217
  5429                           	global	_lcdPrint
  5430                           
  5431 ;; *************** function _lcdPrint *****************
  5432 ;; Defined at:
  5433 ;;		line 69 in file "LCD16x2.c"
  5434 ;; Parameters:    Size  Location     Type
  5435 ;;  string          2    0[BANK0 ] PTR unsigned char 
  5436 ;;		 -> STR_3(17), ScreenROW(16), STR_1(17), 
  5437 ;; Auto vars:     Size  Location     Type
  5438 ;;  i               2    5[BANK0 ] int 
  5439 ;; Return value:  Size  Location     Type
  5440 ;;                  1    wreg      void 
  5441 ;; Registers used:
  5442 ;;		wreg, fsr0l, fsr0h, status,2, status,0, btemp+1, pclath, cstack
  5443 ;; Tracked objects:
  5444 ;;		On entry : 0/0
  5445 ;;		On exit  : 0/0
  5446 ;;		Unchanged: 0/0
  5447 ;; Data sizes:     COMMON   BANK0   BANK1   BANK3   BANK2
  5448 ;;      Params:         0       2       0       0       0
  5449 ;;      Locals:         0       2       0       0       0
  5450 ;;      Temps:          0       3       0       0       0
  5451 ;;      Totals:         0       7       0       0       0
  5452 ;;Total ram usage:        7 bytes
  5453 ;; Hardware stack levels used:    1
  5454 ;; Hardware stack levels required when called:    4
  5455 ;; This function calls:
  5456 ;;		_lcdWrite
  5457 ;; This function is called by:
  5458 ;;		_setup
  5459 ;;		_loop
  5460 ;; This function uses a non-reentrant model
  5461 ;;
  5462                           psect	text13,local,class=CODE,delta=2,merge=1,group=0
  5463                           	line	69
  5464                           global __ptext13
  5465                           __ptext13:	;psect for function _lcdPrint
  5466  10D5                     psect	text13
  5467                           	file	"LCD16x2.c"
  5468                           	line	69
  5469                           	global	__size_of_lcdPrint
  5470                           	__size_of_lcdPrint	equ	__end_of_lcdPrint-_lcdPrint
  5471  0048                     	
  5472                           _lcdPrint:	
  5473  10D5                     ;incstack = 0
  5474                           	opt	stack 2
  5475                           ; Regs used in _lcdPrint: [wreg-fsr0h+status,2+status,0+btemp+1+pclath+cstack]
  5476                           	line	71
  5477                           	
  5478                           l3520:	
  5479  10D5                     ;LCD16x2.c: 69: void lcdPrint(char *string);LCD16x2.c: 70: {;LCD16x2.c: 71:     for(int 
                                 i=0;string[i] != '\0';i++)
  5480                           	bcf	status, 5	;RP0=0, select bank0
  5481  10D5  1283               	bcf	status, 6	;RP1=0, select bank0
  5482  10D6  1303               	clrf	(lcdPrint@i)
  5483  10D7  01A5               	clrf	(lcdPrint@i+1)
  5484  10D8  01A6               	goto	l3526
  5485  10D9  28FF               	
  5486                           l453:	
  5487  10DA                     	line	73
  5488                           	
  5489                           l3522:	
  5490  10DA                     ;LCD16x2.c: 72:     {;LCD16x2.c: 73:         lcdWrite(string[i]);
  5491                           	movf	(lcdPrint@i),w
  5492  10DA  0825               	addwf	(lcdPrint@string),w
  5493  10DB  0720               	movwf	(??_lcdPrint+1)+0
  5494  10DC  00A3               	movf	(lcdPrint@string+1),w
  5495  10DD  0821               	movwf	(??_lcdPrint+0)+0
  5496  10DE  00A2               	skipnc
  5497  10DF  1803               	incf	(??_lcdPrint+0)+0,f
  5498  10E0  0AA2               	btfss	(lcdPrint@i),7
  5499  10E1  1FA5               	goto	u3470
  5500  10E2  28E4               	decf	(??_lcdPrint+0)+0,f
  5501  10E3  03A2               u3470:
  5502  10E4                     	bcf	status, 5	;RP0=0, select bank0
  5503  10E4  1283               	bcf	status, 6	;RP1=0, select bank0
  5504  10E5  1303               	movf	(??_lcdPrint+0)+0,w
  5505  10E6  0822               	movwf	0+((??_lcdPrint+1)+0)+1
  5506  10E7  00A4               	movf	1+(??_lcdPrint+1)+0,w
  5507  10E8  0824               	movwf	btemp+1
  5508  10E9  00FF               	movf	0+(??_lcdPrint+1)+0,w
  5509  10EA  0823               	movwf	fsr0
  5510  10EB  0084               	fcall	stringtab
  5511  10EC  160A  118A  2000  160A  118A  	fcall	_lcdWrite
  5512  10F1  160A  158A  277D  160A  118A  	line	74
  5513                           	
  5514                           l3524:	
  5515  10F6                     ;LCD16x2.c: 74:     }
  5516                           	movlw	01h
  5517  10F6  3001               	bcf	status, 5	;RP0=0, select bank0
  5518  10F7  1283               	bcf	status, 6	;RP1=0, select bank0
  5519  10F8  1303               	addwf	(lcdPrint@i),f
  5520  10F9  07A5               	skipnc
  5521  10FA  1803               	incf	(lcdPrint@i+1),f
  5522  10FB  0AA6               	movlw	0
  5523  10FC  3000               	addwf	(lcdPrint@i+1),f
  5524  10FD  07A6               	goto	l3526
  5525  10FE  28FF               	
  5526                           l452:	
  5527  10FF                     	
  5528                           l3526:	
  5529  10FF                     	movf	(lcdPrint@i),w
  5530  10FF  0825               	addwf	(lcdPrint@string),w
  5531  1100  0720               	movwf	(??_lcdPrint+1)+0
  5532  1101  00A3               	movf	(lcdPrint@string+1),w
  5533  1102  0821               	movwf	(??_lcdPrint+0)+0
  5534  1103  00A2               	skipnc
  5535  1104  1803               	incf	(??_lcdPrint+0)+0,f
  5536  1105  0AA2               	btfss	(lcdPrint@i),7
  5537  1106  1FA5               	goto	u3480
  5538  1107  2909               	decf	(??_lcdPrint+0)+0,f
  5539  1108  03A2               u3480:
  5540  1109                     	bcf	status, 5	;RP0=0, select bank0
  5541  1109  1283               	bcf	status, 6	;RP1=0, select bank0
  5542  110A  1303               	movf	(??_lcdPrint+0)+0,w
  5543  110B  0822               	movwf	0+((??_lcdPrint+1)+0)+1
  5544  110C  00A4               	movf	1+(??_lcdPrint+1)+0,w
  5545  110D  0824               	movwf	btemp+1
  5546  110E  00FF               	movf	0+(??_lcdPrint+1)+0,w
  5547  110F  0823               	movwf	fsr0
  5548  1110  0084               	fcall	stringtab
  5549  1111  160A  118A  2000  160A  118A  	xorlw	0
  5550  1116  3A00               	skipz
  5551  1117  1D03               	goto	u3491
  5552  1118  291A               	goto	u3490
  5553  1119  291B               u3491:
  5554  111A                     	goto	l3522
  5555  111A  28DA               u3490:
  5556  111B                     	goto	l455
  5557  111B  291C               	
  5558                           l454:	
  5559  111C                     	line	75
  5560                           	
  5561                           l455:	
  5562  111C                     	return
  5563  111C  0008               	opt stack 0
  5564                           GLOBAL	__end_of_lcdPrint
  5565                           	__end_of_lcdPrint:
  5566  111D                     	signat	_lcdPrint,4217
  5567                           	global	_lcdWrite
  5568                           
  5569 ;; *************** function _lcdWrite *****************
  5570 ;; Defined at:
  5571 ;;		line 63 in file "LCD16x2.c"
  5572 ;; Parameters:    Size  Location     Type
  5573 ;;  data            1    wreg     unsigned char 
  5574 ;; Auto vars:     Size  Location     Type
  5575 ;;  data            1   12[COMMON] unsigned char 
  5576 ;; Return value:  Size  Location     Type
  5577 ;;                  1    wreg      void 
  5578 ;; Registers used:
  5579 ;;		wreg, fsr0l, fsr0h, status,2, status,0, btemp+1, pclath, cstack
  5580 ;; Tracked objects:
  5581 ;;		On entry : 0/0
  5582 ;;		On exit  : 0/0
  5583 ;;		Unchanged: 0/0
  5584 ;; Data sizes:     COMMON   BANK0   BANK1   BANK3   BANK2
  5585 ;;      Params:         0       0       0       0       0
  5586 ;;      Locals:         1       0       0       0       0
  5587 ;;      Temps:          0       0       0       0       0
  5588 ;;      Totals:         1       0       0       0       0
  5589 ;;Total ram usage:        1 bytes
  5590 ;; Hardware stack levels used:    1
  5591 ;; Hardware stack levels required when called:    3
  5592 ;; This function calls:
  5593 ;;		_WriteData
  5594 ;;		_delay
  5595 ;; This function is called by:
  5596 ;;		_lcdPrint
  5597 ;; This function uses a non-reentrant model
  5598 ;;
  5599                           psect	text14,local,class=CODE,delta=2,merge=1,group=0
  5600                           	line	63
  5601                           global __ptext14
  5602                           __ptext14:	;psect for function _lcdWrite
  5603  1F7D                     psect	text14
  5604                           	file	"LCD16x2.c"
  5605                           	line	63
  5606                           	global	__size_of_lcdWrite
  5607                           	__size_of_lcdWrite	equ	__end_of_lcdWrite-_lcdWrite
  5608  0011                     	
  5609                           _lcdWrite:	
  5610  1F7D                     ;incstack = 0
  5611                           	opt	stack 2
  5612                           ; Regs used in _lcdWrite: [wreg-fsr0h+status,2+status,0+btemp+1+pclath+cstack]
  5613                           ;lcdWrite@data stored from wreg
  5614                           	movwf	(lcdWrite@data)
  5615  1F7D  00FC               	line	65
  5616                           	
  5617                           l2898:	
  5618  1F7E                     ;LCD16x2.c: 63: void lcdWrite(char data);LCD16x2.c: 64: {;LCD16x2.c: 65:     delay(8);
  5619                           	movlw	08h
  5620  1F7E  3008               	movwf	(delay@milis)
  5621  1F7F  00F0               	movlw	0
  5622  1F80  3000               	movwf	((delay@milis))+1
  5623  1F81  00F1               	fcall	_delay
  5624  1F82  160A  118A  2168  160A  158A  	line	66
  5625                           	
  5626                           l2900:	
  5627  1F87                     ;LCD16x2.c: 66:     WriteData(data);
  5628                           	movf	(lcdWrite@data),w
  5629  1F87  087C               	fcall	_WriteData
  5630  1F88  160A  118A  22FB  160A  158A  	line	67
  5631                           	
  5632                           l449:	
  5633  1F8D                     	return
  5634  1F8D  0008               	opt stack 0
  5635                           GLOBAL	__end_of_lcdWrite
  5636                           	__end_of_lcdWrite:
  5637  1F8E                     	signat	_lcdWrite,4217
  5638                           	global	_WriteData
  5639                           
  5640 ;; *************** function _WriteData *****************
  5641 ;; Defined at:
  5642 ;;		line 101 in file "LCD16x2.c"
  5643 ;; Parameters:    Size  Location     Type
  5644 ;;  data            1    wreg     unsigned char 
  5645 ;; Auto vars:     Size  Location     Type
  5646 ;;  data            1   10[COMMON] unsigned char 
  5647 ;;  MSNibble        1   11[COMMON] unsigned char 
  5648 ;;  LSNibble        1    9[COMMON] unsigned char 
  5649 ;; Return value:  Size  Location     Type
  5650 ;;                  1    wreg      void 
  5651 ;; Registers used:
  5652 ;;		wreg, fsr0l, fsr0h, status,2, status,0, btemp+1, pclath, cstack
  5653 ;; Tracked objects:
  5654 ;;		On entry : 0/0
  5655 ;;		On exit  : 0/0
  5656 ;;		Unchanged: 0/0
  5657 ;; Data sizes:     COMMON   BANK0   BANK1   BANK3   BANK2
  5658 ;;      Params:         0       0       0       0       0
  5659 ;;      Locals:         3       0       0       0       0
  5660 ;;      Temps:          2       0       0       0       0
  5661 ;;      Totals:         5       0       0       0       0
  5662 ;;Total ram usage:        5 bytes
  5663 ;; Hardware stack levels used:    1
  5664 ;; Hardware stack levels required when called:    2
  5665 ;; This function calls:
  5666 ;;		_ByteByNibble
  5667 ;;		_delay
  5668 ;;		_digitalWrite
  5669 ;; This function is called by:
  5670 ;;		_lcdWrite
  5671 ;; This function uses a non-reentrant model
  5672 ;;
  5673                           psect	text15,local,class=CODE,delta=2,merge=1,group=0
  5674                           	line	101
  5675                           global __ptext15
  5676                           __ptext15:	;psect for function _WriteData
  5677  12FB                     psect	text15
  5678                           	file	"LCD16x2.c"
  5679                           	line	101
  5680                           	global	__size_of_WriteData
  5681                           	__size_of_WriteData	equ	__end_of_WriteData-_WriteData
  5682  0083                     	
  5683                           _WriteData:	
  5684  12FB                     ;incstack = 0
  5685                           	opt	stack 2
  5686                           ; Regs used in _WriteData: [wreg-fsr0h+status,2+status,0+btemp+1+pclath+cstack]
  5687                           ;WriteData@data stored from wreg
  5688                           	movwf	(WriteData@data)
  5689  12FB  00FA               	line	103
  5690                           	
  5691                           l2760:	
  5692  12FC                     ;LCD16x2.c: 101: void WriteData(char data);LCD16x2.c: 102: {;LCD16x2.c: 103:     char MS
                                 Nibble = 0;
  5693                           	clrf	(WriteData@MSNibble)
  5694  12FC  01FB               	line	104
  5695                           ;LCD16x2.c: 104:     char LSNibble = 0;
  5696                           	clrf	(WriteData@LSNibble)
  5697  12FD  01F9               	line	105
  5698                           	
  5699                           l2762:	
  5700  12FE                     ;LCD16x2.c: 105:     MSNibble = data & 0xF0;
  5701                           	movf	(WriteData@data),w
  5702  12FE  087A               	andlw	0F0h
  5703  12FF  39F0               	movwf	(??_WriteData+0)+0
  5704  1300  00F7               	movf	(??_WriteData+0)+0,w
  5705  1301  0877               	movwf	(WriteData@MSNibble)
  5706  1302  00FB               	line	106
  5707                           	
  5708                           l2764:	
  5709  1303                     ;LCD16x2.c: 106:     MSNibble = (MSNibble >> 4);
  5710                           	movf	(WriteData@MSNibble),w
  5711  1303  087B               	movwf	(??_WriteData+0)+0
  5712  1304  00F7               	movlw	04h
  5713  1305  3004               u2005:
  5714  1306                     	clrc
  5715  1306  1003               	rrf	(??_WriteData+0)+0,f
  5716  1307  0CF7               	addlw	-1
  5717  1308  3EFF               	skipz
  5718  1309  1D03               	goto	u2005
  5719  130A  2B06               	movf	0+(??_WriteData+0)+0,w
  5720  130B  0877               	movwf	(??_WriteData+1)+0
  5721  130C  00F8               	movf	(??_WriteData+1)+0,w
  5722  130D  0878               	movwf	(WriteData@MSNibble)
  5723  130E  00FB               	line	107
  5724                           	
  5725                           l2766:	
  5726  130F                     ;LCD16x2.c: 107:     LSNibble = data & 0x0F;
  5727                           	movf	(WriteData@data),w
  5728  130F  087A               	andlw	0Fh
  5729  1310  390F               	movwf	(??_WriteData+0)+0
  5730  1311  00F7               	movf	(??_WriteData+0)+0,w
  5731  1312  0877               	movwf	(WriteData@LSNibble)
  5732  1313  00F9               	line	108
  5733                           	
  5734                           l2768:	
  5735  1314                     ;LCD16x2.c: 108:     ByteByNibble(MSNibble);
  5736                           	movf	(WriteData@MSNibble),w
  5737  1314  087B               	fcall	_ByteByNibble
  5738  1315  120A  158A  2552  160A  118A  	line	109
  5739                           	
  5740                           l2770:	
  5741  131A                     ;LCD16x2.c: 109:     digitalWrite(RSPin,1);
  5742                           	clrf	(digitalWrite@value)
  5743  131A  01F0               	incf	(digitalWrite@value),f
  5744  131B  0AF0               	bsf	status, 5	;RP0=1, select bank1
  5745  131C  1683               	bcf	status, 6	;RP1=0, select bank1
  5746  131D  1303               	movf	(_RSPin)^080h,w
  5747  131E  0864               	fcall	_digitalWrite
  5748  131F  160A  118A  26DD  160A  118A  	line	110
  5749                           	
  5750                           l2772:	
  5751  1324                     ;LCD16x2.c: 110:     digitalWrite(RWPin,0);
  5752                           	clrf	(digitalWrite@value)
  5753  1324  01F0               	bsf	status, 5	;RP0=1, select bank1
  5754  1325  1683               	bcf	status, 6	;RP1=0, select bank1
  5755  1326  1303               	movf	(_RWPin)^080h,w
  5756  1327  0862               	fcall	_digitalWrite
  5757  1328  160A  118A  26DD  160A  118A  	line	111
  5758                           	
  5759                           l2774:	
  5760  132D                     ;LCD16x2.c: 111:     digitalWrite(ENPin,1);
  5761                           	clrf	(digitalWrite@value)
  5762  132D  01F0               	incf	(digitalWrite@value),f
  5763  132E  0AF0               	bsf	status, 5	;RP0=1, select bank1
  5764  132F  1683               	bcf	status, 6	;RP1=0, select bank1
  5765  1330  1303               	movf	(_ENPin)^080h,w
  5766  1331  0863               	fcall	_digitalWrite
  5767  1332  160A  118A  26DD  160A  118A  	line	112
  5768                           	
  5769                           l2776:	
  5770  1337                     ;LCD16x2.c: 112:     delay(5);
  5771                           	movlw	05h
  5772  1337  3005               	movwf	(delay@milis)
  5773  1338  00F0               	movlw	0
  5774  1339  3000               	movwf	((delay@milis))+1
  5775  133A  00F1               	fcall	_delay
  5776  133B  160A  118A  2168  160A  118A  	line	114
  5777                           	
  5778                           l2778:	
  5779  1340                     ;LCD16x2.c: 114:     digitalWrite(ENPin,0);
  5780                           	clrf	(digitalWrite@value)
  5781  1340  01F0               	bsf	status, 5	;RP0=1, select bank1
  5782  1341  1683               	bcf	status, 6	;RP1=0, select bank1
  5783  1342  1303               	movf	(_ENPin)^080h,w
  5784  1343  0863               	fcall	_digitalWrite
  5785  1344  160A  118A  26DD  160A  118A  	line	115
  5786                           	
  5787                           l2780:	
  5788  1349                     ;LCD16x2.c: 115:     delay(5);
  5789                           	movlw	05h
  5790  1349  3005               	movwf	(delay@milis)
  5791  134A  00F0               	movlw	0
  5792  134B  3000               	movwf	((delay@milis))+1
  5793  134C  00F1               	fcall	_delay
  5794  134D  160A  118A  2168  160A  118A  	line	116
  5795                           	
  5796                           l2782:	
  5797  1352                     ;LCD16x2.c: 116:     ByteByNibble(LSNibble);
  5798                           	movf	(WriteData@LSNibble),w
  5799  1352  0879               	fcall	_ByteByNibble
  5800  1353  120A  158A  2552  160A  118A  	line	117
  5801                           	
  5802                           l2784:	
  5803  1358                     ;LCD16x2.c: 117:     digitalWrite(ENPin,1);
  5804                           	clrf	(digitalWrite@value)
  5805  1358  01F0               	incf	(digitalWrite@value),f
  5806  1359  0AF0               	bsf	status, 5	;RP0=1, select bank1
  5807  135A  1683               	bcf	status, 6	;RP1=0, select bank1
  5808  135B  1303               	movf	(_ENPin)^080h,w
  5809  135C  0863               	fcall	_digitalWrite
  5810  135D  160A  118A  26DD  160A  118A  	line	118
  5811                           	
  5812                           l2786:	
  5813  1362                     ;LCD16x2.c: 118:     delay(5);
  5814                           	movlw	05h
  5815  1362  3005               	movwf	(delay@milis)
  5816  1363  00F0               	movlw	0
  5817  1364  3000               	movwf	((delay@milis))+1
  5818  1365  00F1               	fcall	_delay
  5819  1366  160A  118A  2168  160A  118A  	line	120
  5820                           	
  5821                           l2788:	
  5822  136B                     ;LCD16x2.c: 120:     digitalWrite(ENPin,0);
  5823                           	clrf	(digitalWrite@value)
  5824  136B  01F0               	bsf	status, 5	;RP0=1, select bank1
  5825  136C  1683               	bcf	status, 6	;RP1=0, select bank1
  5826  136D  1303               	movf	(_ENPin)^080h,w
  5827  136E  0863               	fcall	_digitalWrite
  5828  136F  160A  118A  26DD  160A  118A  	line	121
  5829                           	
  5830                           l2790:	
  5831  1374                     ;LCD16x2.c: 121:     delay(3);
  5832                           	movlw	03h
  5833  1374  3003               	movwf	(delay@milis)
  5834  1375  00F0               	movlw	0
  5835  1376  3000               	movwf	((delay@milis))+1
  5836  1377  00F1               	fcall	_delay
  5837  1378  160A  118A  2168  160A  118A  	line	122
  5838                           	
  5839                           l461:	
  5840  137D                     	return
  5841  137D  0008               	opt stack 0
  5842                           GLOBAL	__end_of_WriteData
  5843                           	__end_of_WriteData:
  5844  137E                     	signat	_WriteData,4217
  5845                           	global	_delay
  5846                           
  5847 ;; *************** function _delay *****************
  5848 ;; Defined at:
  5849 ;;		line 576 in file "Hormiga877.c"
  5850 ;; Parameters:    Size  Location     Type
  5851 ;;  milis           2    0[COMMON] const int 
  5852 ;; Auto vars:     Size  Location     Type
  5853 ;;  i               2    5[COMMON] int 
  5854 ;;  j               2    3[COMMON] int 
  5855 ;; Return value:  Size  Location     Type
  5856 ;;                  1    wreg      void 
  5857 ;; Registers used:
  5858 ;;		wreg, status,2, btemp+1
  5859 ;; Tracked objects:
  5860 ;;		On entry : 0/0
  5861 ;;		On exit  : 0/0
  5862 ;;		Unchanged: 0/0
  5863 ;; Data sizes:     COMMON   BANK0   BANK1   BANK3   BANK2
  5864 ;;      Params:         2       0       0       0       0
  5865 ;;      Locals:         4       0       0       0       0
  5866 ;;      Temps:          1       0       0       0       0
  5867 ;;      Totals:         7       0       0       0       0
  5868 ;;Total ram usage:        7 bytes
  5869 ;; Hardware stack levels used:    1
  5870 ;; This function calls:
  5871 ;;		Nothing
  5872 ;; This function is called by:
  5873 ;;		_lcdBegin
  5874 ;;		_lcdWrite
  5875 ;;		_WriteInstruction
  5876 ;;		_WriteData
  5877 ;;		_PBRead
  5878 ;; This function uses a non-reentrant model
  5879 ;;
  5880                           psect	text16,local,class=CODE,delta=2,merge=1,group=0
  5881                           	file	"Hormiga877.c"
  5882                           	line	576
  5883                           global __ptext16
  5884                           __ptext16:	;psect for function _delay
  5885  1168                     psect	text16
  5886                           	file	"Hormiga877.c"
  5887                           	line	576
  5888                           	global	__size_of_delay
  5889                           	__size_of_delay	equ	__end_of_delay-_delay
  5890  004E                     	
  5891                           _delay:	
  5892  1168                     ;incstack = 0
  5893                           	opt	stack 4
  5894                           ; Regs used in _delay: [wreg+status,2+btemp+1]
  5895                           	line	578
  5896                           	
  5897                           l2700:	
  5898  1168                     ;Hormiga877.c: 576: void delay(const int milis);Hormiga877.c: 577: {;Hormiga877.c: 578: 
                                     for(int j=0;j<milis;j++)
  5899                           	clrf	(delay@j)
  5900  1168  01F3               	clrf	(delay@j+1)
  5901  1169  01F4               	
  5902                           l2702:	
  5903  116A                     	movf	(delay@j+1),w
  5904  116A  0874               	xorlw	80h
  5905  116B  3A80               	movwf	(??_delay+0)+0
  5906  116C  00F2               	movf	(delay@milis+1),w
  5907  116D  0871               	xorlw	80h
  5908  116E  3A80               	subwf	(??_delay+0)+0,w
  5909  116F  0272               	skipz
  5910  1170  1D03               	goto	u1965
  5911  1171  2974               	movf	(delay@milis),w
  5912  1172  0870               	subwf	(delay@j),w
  5913  1173  0273               u1965:
  5914  1174                     
  5915                           	skipc
  5916  1174  1C03               	goto	u1961
  5917  1175  2977               	goto	u1960
  5918  1176  2978               u1961:
  5919  1177                     	goto	l2706
  5920  1177  297A               u1960:
  5921  1178                     	goto	l370
  5922  1178  29B5               	
  5923                           l2704:	
  5924  1179                     	goto	l370
  5925  1179  29B5               	
  5926                           l366:	
  5927  117A                     	line	581
  5928                           	
  5929                           l2706:	
  5930  117A                     ;Hormiga877.c: 579:     {;Hormiga877.c: 581:         for(int i=0;i<235;i++)
  5931                           	clrf	(delay@i)
  5932  117A  01F5               	clrf	(delay@i+1)
  5933  117B  01F6               	
  5934                           l2708:	
  5935  117C                     	movf	(delay@i+1),w
  5936  117C  0876               	xorlw	80h
  5937  117D  3A80               	movwf	btemp+1
  5938  117E  00FF               	movlw	(0)^80h
  5939  117F  3080               	subwf	btemp+1,w
  5940  1180  027F               	skipz
  5941  1181  1D03               	goto	u1975
  5942  1182  2985               	movlw	0EBh
  5943  1183  30EB               	subwf	(delay@i),w
  5944  1184  0275               u1975:
  5945  1185                     
  5946                           	skipc
  5947  1185  1C03               	goto	u1971
  5948  1186  2988               	goto	u1970
  5949  1187  2989               u1971:
  5950  1188                     	goto	l368
  5951  1188  298B               u1970:
  5952  1189                     	goto	l2716
  5953  1189  29A0               	
  5954                           l2710:	
  5955  118A                     	goto	l2716
  5956  118A  29A0               	
  5957                           l368:	
  5958  118B                     	line	583
  5959                           # 583 "Hormiga877.c"
  5960                           NOP ;# 
  5961  118B  0000               psect	text16
  5962                           	line	584
  5963                           	
  5964                           l2712:	
  5965  118C                     ;Hormiga877.c: 584:         }
  5966                           	movlw	01h
  5967  118C  3001               	addwf	(delay@i),f
  5968  118D  07F5               	skipnc
  5969  118E  1803               	incf	(delay@i+1),f
  5970  118F  0AF6               	movlw	0
  5971  1190  3000               	addwf	(delay@i+1),f
  5972  1191  07F6               	
  5973                           l2714:	
  5974  1192                     	movf	(delay@i+1),w
  5975  1192  0876               	xorlw	80h
  5976  1193  3A80               	movwf	btemp+1
  5977  1194  00FF               	movlw	(0)^80h
  5978  1195  3080               	subwf	btemp+1,w
  5979  1196  027F               	skipz
  5980  1197  1D03               	goto	u1985
  5981  1198  299B               	movlw	0EBh
  5982  1199  30EB               	subwf	(delay@i),w
  5983  119A  0275               u1985:
  5984  119B                     
  5985                           	skipc
  5986  119B  1C03               	goto	u1981
  5987  119C  299E               	goto	u1980
  5988  119D  299F               u1981:
  5989  119E                     	goto	l368
  5990  119E  298B               u1980:
  5991  119F                     	goto	l2716
  5992  119F  29A0               	
  5993                           l369:	
  5994  11A0                     	line	585
  5995                           	
  5996                           l2716:	
  5997  11A0                     ;Hormiga877.c: 585:     }
  5998                           	movlw	01h
  5999  11A0  3001               	addwf	(delay@j),f
  6000  11A1  07F3               	skipnc
  6001  11A2  1803               	incf	(delay@j+1),f
  6002  11A3  0AF4               	movlw	0
  6003  11A4  3000               	addwf	(delay@j+1),f
  6004  11A5  07F4               	movf	(delay@j+1),w
  6005  11A6  0874               	xorlw	80h
  6006  11A7  3A80               	movwf	(??_delay+0)+0
  6007  11A8  00F2               	movf	(delay@milis+1),w
  6008  11A9  0871               	xorlw	80h
  6009  11AA  3A80               	subwf	(??_delay+0)+0,w
  6010  11AB  0272               	skipz
  6011  11AC  1D03               	goto	u1995
  6012  11AD  29B0               	movf	(delay@milis),w
  6013  11AE  0870               	subwf	(delay@j),w
  6014  11AF  0273               u1995:
  6015  11B0                     
  6016                           	skipc
  6017  11B0  1C03               	goto	u1991
  6018  11B1  29B3               	goto	u1990
  6019  11B2  29B4               u1991:
  6020  11B3                     	goto	l2706
  6021  11B3  297A               u1990:
  6022  11B4                     	goto	l370
  6023  11B4  29B5               	
  6024                           l367:	
  6025  11B5                     	line	586
  6026                           	
  6027                           l370:	
  6028  11B5                     	return
  6029  11B5  0008               	opt stack 0
  6030                           GLOBAL	__end_of_delay
  6031                           	__end_of_delay:
  6032  11B6                     	signat	_delay,4217
  6033                           	global	_ByteByNibble
  6034                           
  6035 ;; *************** function _ByteByNibble *****************
  6036 ;; Defined at:
  6037 ;;		line 124 in file "LCD16x2.c"
  6038 ;; Parameters:    Size  Location     Type
  6039 ;;  NibbleValue     1    wreg     unsigned char 
  6040 ;; Auto vars:     Size  Location     Type
  6041 ;;  NibbleValue     1    6[COMMON] unsigned char 
  6042 ;; Return value:  Size  Location     Type
  6043 ;;                  1    wreg      void 
  6044 ;; Registers used:
  6045 ;;		wreg, fsr0l, fsr0h, status,2, status,0, pclath, cstack
  6046 ;; Tracked objects:
  6047 ;;		On entry : 0/0
  6048 ;;		On exit  : 0/0
  6049 ;;		Unchanged: 0/0
  6050 ;; Data sizes:     COMMON   BANK0   BANK1   BANK3   BANK2
  6051 ;;      Params:         0       0       0       0       0
  6052 ;;      Locals:         1       0       0       0       0
  6053 ;;      Temps:          2       0       0       0       0
  6054 ;;      Totals:         3       0       0       0       0
  6055 ;;Total ram usage:        3 bytes
  6056 ;; Hardware stack levels used:    1
  6057 ;; Hardware stack levels required when called:    1
  6058 ;; This function calls:
  6059 ;;		_digitalWrite
  6060 ;; This function is called by:
  6061 ;;		_WriteInstruction
  6062 ;;		_WriteData
  6063 ;; This function uses a non-reentrant model
  6064 ;;
  6065                           psect	text17,local,class=CODE,delta=2,merge=1,group=0
  6066                           	file	"LCD16x2.c"
  6067                           	line	124
  6068                           global __ptext17
  6069                           __ptext17:	;psect for function _ByteByNibble
  6070  0D52                     psect	text17
  6071                           	file	"LCD16x2.c"
  6072                           	line	124
  6073                           	global	__size_of_ByteByNibble
  6074                           	__size_of_ByteByNibble	equ	__end_of_ByteByNibble-_ByteByNibble
  6075  02AE                     	
  6076                           _ByteByNibble:	
  6077  0D52                     ;incstack = 0
  6078                           	opt	stack 3
  6079                           ; Regs used in _ByteByNibble: [wreg-fsr0h+status,2+status,0+pclath+cstack]
  6080                           ;ByteByNibble@NibbleValue stored from wreg
  6081                           	movwf	(ByteByNibble@NibbleValue)
  6082  0D52  00F6               	line	126
  6083                           	
  6084                           l2718:	
  6085  0D53                     ;LCD16x2.c: 124: void ByteByNibble(char NibbleValue);LCD16x2.c: 125: {;LCD16x2.c: 126:  
                                    switch(NibbleValue)
  6086                           	goto	l2754
  6087  0D53  2FC5               	line	128
  6088                           ;LCD16x2.c: 127:     {;LCD16x2.c: 128:         case 0x00:
  6089                           	
  6090                           l465:	
  6091  0D54                     	line	129
  6092                           	
  6093                           l2720:	
  6094  0D54                     ;LCD16x2.c: 129:             digitalWrite(d7Pin,0);
  6095                           	clrf	(digitalWrite@value)
  6096  0D54  01F0               	bsf	status, 5	;RP0=1, select bank1
  6097  0D55  1683               	bcf	status, 6	;RP1=0, select bank1
  6098  0D56  1303               	movf	(_d7Pin)^080h,w
  6099  0D57  085E               	fcall	_digitalWrite
  6100  0D58  160A  118A  26DD  120A  158A  	line	130
  6101                           ;LCD16x2.c: 130:             digitalWrite(d6Pin,0);
  6102                           	clrf	(digitalWrite@value)
  6103  0D5D  01F0               	bsf	status, 5	;RP0=1, select bank1
  6104  0D5E  1683               	bcf	status, 6	;RP1=0, select bank1
  6105  0D5F  1303               	movf	(_d6Pin)^080h,w
  6106  0D60  085F               	fcall	_digitalWrite
  6107  0D61  160A  118A  26DD  120A  158A  	line	131
  6108                           ;LCD16x2.c: 131:             digitalWrite(d5Pin,0);
  6109                           	clrf	(digitalWrite@value)
  6110  0D66  01F0               	bsf	status, 5	;RP0=1, select bank1
  6111  0D67  1683               	bcf	status, 6	;RP1=0, select bank1
  6112  0D68  1303               	movf	(_d5Pin)^080h,w
  6113  0D69  0860               	fcall	_digitalWrite
  6114  0D6A  160A  118A  26DD  120A  158A  	line	132
  6115                           ;LCD16x2.c: 132:             digitalWrite(d4Pin,0);
  6116                           	clrf	(digitalWrite@value)
  6117  0D6F  01F0               	bsf	status, 5	;RP0=1, select bank1
  6118  0D70  1683               	bcf	status, 6	;RP1=0, select bank1
  6119  0D71  1303               	movf	(_d4Pin)^080h,w
  6120  0D72  0861               	fcall	_digitalWrite
  6121  0D73  160A  118A  26DD  120A  158A  	line	133
  6122                           ;LCD16x2.c: 133:             break;
  6123                           	goto	l482
  6124  0D78  2FFF               	line	134
  6125                           ;LCD16x2.c: 134:         case 0x01:
  6126                           	
  6127                           l467:	
  6128  0D79                     	line	135
  6129                           	
  6130                           l2722:	
  6131  0D79                     ;LCD16x2.c: 135:             digitalWrite(d7Pin,0);
  6132                           	clrf	(digitalWrite@value)
  6133  0D79  01F0               	bsf	status, 5	;RP0=1, select bank1
  6134  0D7A  1683               	bcf	status, 6	;RP1=0, select bank1
  6135  0D7B  1303               	movf	(_d7Pin)^080h,w
  6136  0D7C  085E               	fcall	_digitalWrite
  6137  0D7D  160A  118A  26DD  120A  158A  	line	136
  6138                           ;LCD16x2.c: 136:             digitalWrite(d6Pin,0);
  6139                           	clrf	(digitalWrite@value)
  6140  0D82  01F0               	bsf	status, 5	;RP0=1, select bank1
  6141  0D83  1683               	bcf	status, 6	;RP1=0, select bank1
  6142  0D84  1303               	movf	(_d6Pin)^080h,w
  6143  0D85  085F               	fcall	_digitalWrite
  6144  0D86  160A  118A  26DD  120A  158A  	line	137
  6145                           ;LCD16x2.c: 137:             digitalWrite(d5Pin,0);
  6146                           	clrf	(digitalWrite@value)
  6147  0D8B  01F0               	bsf	status, 5	;RP0=1, select bank1
  6148  0D8C  1683               	bcf	status, 6	;RP1=0, select bank1
  6149  0D8D  1303               	movf	(_d5Pin)^080h,w
  6150  0D8E  0860               	fcall	_digitalWrite
  6151  0D8F  160A  118A  26DD  120A  158A  	line	138
  6152                           ;LCD16x2.c: 138:             digitalWrite(d4Pin,1);
  6153                           	clrf	(digitalWrite@value)
  6154  0D94  01F0               	incf	(digitalWrite@value),f
  6155  0D95  0AF0               	bsf	status, 5	;RP0=1, select bank1
  6156  0D96  1683               	bcf	status, 6	;RP1=0, select bank1
  6157  0D97  1303               	movf	(_d4Pin)^080h,w
  6158  0D98  0861               	fcall	_digitalWrite
  6159  0D99  160A  118A  26DD  120A  158A  	line	139
  6160                           ;LCD16x2.c: 139:             break;
  6161                           	goto	l482
  6162  0D9E  2FFF               	line	140
  6163                           ;LCD16x2.c: 140:         case 0x02:
  6164                           	
  6165                           l468:	
  6166  0D9F                     	line	141
  6167                           	
  6168                           l2724:	
  6169  0D9F                     ;LCD16x2.c: 141:             digitalWrite(d7Pin,0);
  6170                           	clrf	(digitalWrite@value)
  6171  0D9F  01F0               	bsf	status, 5	;RP0=1, select bank1
  6172  0DA0  1683               	bcf	status, 6	;RP1=0, select bank1
  6173  0DA1  1303               	movf	(_d7Pin)^080h,w
  6174  0DA2  085E               	fcall	_digitalWrite
  6175  0DA3  160A  118A  26DD  120A  158A  	line	142
  6176                           ;LCD16x2.c: 142:             digitalWrite(d6Pin,0);
  6177                           	clrf	(digitalWrite@value)
  6178  0DA8  01F0               	bsf	status, 5	;RP0=1, select bank1
  6179  0DA9  1683               	bcf	status, 6	;RP1=0, select bank1
  6180  0DAA  1303               	movf	(_d6Pin)^080h,w
  6181  0DAB  085F               	fcall	_digitalWrite
  6182  0DAC  160A  118A  26DD  120A  158A  	line	143
  6183                           ;LCD16x2.c: 143:             digitalWrite(d5Pin,1);
  6184                           	clrf	(digitalWrite@value)
  6185  0DB1  01F0               	incf	(digitalWrite@value),f
  6186  0DB2  0AF0               	bsf	status, 5	;RP0=1, select bank1
  6187  0DB3  1683               	bcf	status, 6	;RP1=0, select bank1
  6188  0DB4  1303               	movf	(_d5Pin)^080h,w
  6189  0DB5  0860               	fcall	_digitalWrite
  6190  0DB6  160A  118A  26DD  120A  158A  	line	144
  6191                           ;LCD16x2.c: 144:             digitalWrite(d4Pin,0);
  6192                           	clrf	(digitalWrite@value)
  6193  0DBB  01F0               	bsf	status, 5	;RP0=1, select bank1
  6194  0DBC  1683               	bcf	status, 6	;RP1=0, select bank1
  6195  0DBD  1303               	movf	(_d4Pin)^080h,w
  6196  0DBE  0861               	fcall	_digitalWrite
  6197  0DBF  160A  118A  26DD  120A  158A  	line	145
  6198                           ;LCD16x2.c: 145:             break;
  6199                           	goto	l482
  6200  0DC4  2FFF               	line	146
  6201                           ;LCD16x2.c: 146:         case 0x03:
  6202                           	
  6203                           l469:	
  6204  0DC5                     	line	147
  6205                           	
  6206                           l2726:	
  6207  0DC5                     ;LCD16x2.c: 147:             digitalWrite(d7Pin,0);
  6208                           	clrf	(digitalWrite@value)
  6209  0DC5  01F0               	bsf	status, 5	;RP0=1, select bank1
  6210  0DC6  1683               	bcf	status, 6	;RP1=0, select bank1
  6211  0DC7  1303               	movf	(_d7Pin)^080h,w
  6212  0DC8  085E               	fcall	_digitalWrite
  6213  0DC9  160A  118A  26DD  120A  158A  	line	148
  6214                           ;LCD16x2.c: 148:             digitalWrite(d6Pin,0);
  6215                           	clrf	(digitalWrite@value)
  6216  0DCE  01F0               	bsf	status, 5	;RP0=1, select bank1
  6217  0DCF  1683               	bcf	status, 6	;RP1=0, select bank1
  6218  0DD0  1303               	movf	(_d6Pin)^080h,w
  6219  0DD1  085F               	fcall	_digitalWrite
  6220  0DD2  160A  118A  26DD  120A  158A  	line	149
  6221                           ;LCD16x2.c: 149:             digitalWrite(d5Pin,1);
  6222                           	clrf	(digitalWrite@value)
  6223  0DD7  01F0               	incf	(digitalWrite@value),f
  6224  0DD8  0AF0               	bsf	status, 5	;RP0=1, select bank1
  6225  0DD9  1683               	bcf	status, 6	;RP1=0, select bank1
  6226  0DDA  1303               	movf	(_d5Pin)^080h,w
  6227  0DDB  0860               	fcall	_digitalWrite
  6228  0DDC  160A  118A  26DD  120A  158A  	line	150
  6229                           ;LCD16x2.c: 150:             digitalWrite(d4Pin,1);
  6230                           	clrf	(digitalWrite@value)
  6231  0DE1  01F0               	incf	(digitalWrite@value),f
  6232  0DE2  0AF0               	bsf	status, 5	;RP0=1, select bank1
  6233  0DE3  1683               	bcf	status, 6	;RP1=0, select bank1
  6234  0DE4  1303               	movf	(_d4Pin)^080h,w
  6235  0DE5  0861               	fcall	_digitalWrite
  6236  0DE6  160A  118A  26DD  120A  158A  	line	151
  6237                           ;LCD16x2.c: 151:             break;
  6238                           	goto	l482
  6239  0DEB  2FFF               	line	152
  6240                           ;LCD16x2.c: 152:         case 0x04:
  6241                           	
  6242                           l470:	
  6243  0DEC                     	line	153
  6244                           	
  6245                           l2728:	
  6246  0DEC                     ;LCD16x2.c: 153:             digitalWrite(d7Pin,0);
  6247                           	clrf	(digitalWrite@value)
  6248  0DEC  01F0               	bsf	status, 5	;RP0=1, select bank1
  6249  0DED  1683               	bcf	status, 6	;RP1=0, select bank1
  6250  0DEE  1303               	movf	(_d7Pin)^080h,w
  6251  0DEF  085E               	fcall	_digitalWrite
  6252  0DF0  160A  118A  26DD  120A  158A  	line	154
  6253                           ;LCD16x2.c: 154:             digitalWrite(d6Pin,1);
  6254                           	clrf	(digitalWrite@value)
  6255  0DF5  01F0               	incf	(digitalWrite@value),f
  6256  0DF6  0AF0               	bsf	status, 5	;RP0=1, select bank1
  6257  0DF7  1683               	bcf	status, 6	;RP1=0, select bank1
  6258  0DF8  1303               	movf	(_d6Pin)^080h,w
  6259  0DF9  085F               	fcall	_digitalWrite
  6260  0DFA  160A  118A  26DD  120A  158A  	line	155
  6261                           ;LCD16x2.c: 155:             digitalWrite(d5Pin,0);
  6262                           	clrf	(digitalWrite@value)
  6263  0DFF  01F0               	bsf	status, 5	;RP0=1, select bank1
  6264  0E00  1683               	bcf	status, 6	;RP1=0, select bank1
  6265  0E01  1303               	movf	(_d5Pin)^080h,w
  6266  0E02  0860               	fcall	_digitalWrite
  6267  0E03  160A  118A  26DD  120A  158A  	line	156
  6268                           ;LCD16x2.c: 156:             digitalWrite(d4Pin,0);
  6269                           	clrf	(digitalWrite@value)
  6270  0E08  01F0               	bsf	status, 5	;RP0=1, select bank1
  6271  0E09  1683               	bcf	status, 6	;RP1=0, select bank1
  6272  0E0A  1303               	movf	(_d4Pin)^080h,w
  6273  0E0B  0861               	fcall	_digitalWrite
  6274  0E0C  160A  118A  26DD  120A  158A  	line	157
  6275                           ;LCD16x2.c: 157:             break;
  6276                           	goto	l482
  6277  0E11  2FFF               	line	158
  6278                           ;LCD16x2.c: 158:         case 0x05:
  6279                           	
  6280                           l471:	
  6281  0E12                     	line	159
  6282                           	
  6283                           l2730:	
  6284  0E12                     ;LCD16x2.c: 159:             digitalWrite(d7Pin,0);
  6285                           	clrf	(digitalWrite@value)
  6286  0E12  01F0               	bsf	status, 5	;RP0=1, select bank1
  6287  0E13  1683               	bcf	status, 6	;RP1=0, select bank1
  6288  0E14  1303               	movf	(_d7Pin)^080h,w
  6289  0E15  085E               	fcall	_digitalWrite
  6290  0E16  160A  118A  26DD  120A  158A  	line	160
  6291                           ;LCD16x2.c: 160:             digitalWrite(d6Pin,1);
  6292                           	clrf	(digitalWrite@value)
  6293  0E1B  01F0               	incf	(digitalWrite@value),f
  6294  0E1C  0AF0               	bsf	status, 5	;RP0=1, select bank1
  6295  0E1D  1683               	bcf	status, 6	;RP1=0, select bank1
  6296  0E1E  1303               	movf	(_d6Pin)^080h,w
  6297  0E1F  085F               	fcall	_digitalWrite
  6298  0E20  160A  118A  26DD  120A  158A  	line	161
  6299                           ;LCD16x2.c: 161:             digitalWrite(d5Pin,0);
  6300                           	clrf	(digitalWrite@value)
  6301  0E25  01F0               	bsf	status, 5	;RP0=1, select bank1
  6302  0E26  1683               	bcf	status, 6	;RP1=0, select bank1
  6303  0E27  1303               	movf	(_d5Pin)^080h,w
  6304  0E28  0860               	fcall	_digitalWrite
  6305  0E29  160A  118A  26DD  120A  158A  	line	162
  6306                           ;LCD16x2.c: 162:             digitalWrite(d4Pin,1);
  6307                           	clrf	(digitalWrite@value)
  6308  0E2E  01F0               	incf	(digitalWrite@value),f
  6309  0E2F  0AF0               	bsf	status, 5	;RP0=1, select bank1
  6310  0E30  1683               	bcf	status, 6	;RP1=0, select bank1
  6311  0E31  1303               	movf	(_d4Pin)^080h,w
  6312  0E32  0861               	fcall	_digitalWrite
  6313  0E33  160A  118A  26DD  120A  158A  	line	163
  6314                           ;LCD16x2.c: 163:             break;
  6315                           	goto	l482
  6316  0E38  2FFF               	line	164
  6317                           ;LCD16x2.c: 164:         case 0x06:
  6318                           	
  6319                           l472:	
  6320  0E39                     	line	165
  6321                           	
  6322                           l2732:	
  6323  0E39                     ;LCD16x2.c: 165:             digitalWrite(d7Pin,0);
  6324                           	clrf	(digitalWrite@value)
  6325  0E39  01F0               	bsf	status, 5	;RP0=1, select bank1
  6326  0E3A  1683               	bcf	status, 6	;RP1=0, select bank1
  6327  0E3B  1303               	movf	(_d7Pin)^080h,w
  6328  0E3C  085E               	fcall	_digitalWrite
  6329  0E3D  160A  118A  26DD  120A  158A  	line	166
  6330                           ;LCD16x2.c: 166:             digitalWrite(d6Pin,1);
  6331                           	clrf	(digitalWrite@value)
  6332  0E42  01F0               	incf	(digitalWrite@value),f
  6333  0E43  0AF0               	bsf	status, 5	;RP0=1, select bank1
  6334  0E44  1683               	bcf	status, 6	;RP1=0, select bank1
  6335  0E45  1303               	movf	(_d6Pin)^080h,w
  6336  0E46  085F               	fcall	_digitalWrite
  6337  0E47  160A  118A  26DD  120A  158A  	line	167
  6338                           ;LCD16x2.c: 167:             digitalWrite(d5Pin,1);
  6339                           	clrf	(digitalWrite@value)
  6340  0E4C  01F0               	incf	(digitalWrite@value),f
  6341  0E4D  0AF0               	bsf	status, 5	;RP0=1, select bank1
  6342  0E4E  1683               	bcf	status, 6	;RP1=0, select bank1
  6343  0E4F  1303               	movf	(_d5Pin)^080h,w
  6344  0E50  0860               	fcall	_digitalWrite
  6345  0E51  160A  118A  26DD  120A  158A  	line	168
  6346                           ;LCD16x2.c: 168:             digitalWrite(d4Pin,0);
  6347                           	clrf	(digitalWrite@value)
  6348  0E56  01F0               	bsf	status, 5	;RP0=1, select bank1
  6349  0E57  1683               	bcf	status, 6	;RP1=0, select bank1
  6350  0E58  1303               	movf	(_d4Pin)^080h,w
  6351  0E59  0861               	fcall	_digitalWrite
  6352  0E5A  160A  118A  26DD  120A  158A  	line	169
  6353                           ;LCD16x2.c: 169:             break;
  6354                           	goto	l482
  6355  0E5F  2FFF               	line	170
  6356                           ;LCD16x2.c: 170:         case 0x07:
  6357                           	
  6358                           l473:	
  6359  0E60                     	line	171
  6360                           	
  6361                           l2734:	
  6362  0E60                     ;LCD16x2.c: 171:             digitalWrite(d7Pin,0);
  6363                           	clrf	(digitalWrite@value)
  6364  0E60  01F0               	bsf	status, 5	;RP0=1, select bank1
  6365  0E61  1683               	bcf	status, 6	;RP1=0, select bank1
  6366  0E62  1303               	movf	(_d7Pin)^080h,w
  6367  0E63  085E               	fcall	_digitalWrite
  6368  0E64  160A  118A  26DD  120A  158A  	line	172
  6369                           ;LCD16x2.c: 172:             digitalWrite(d6Pin,1);
  6370                           	clrf	(digitalWrite@value)
  6371  0E69  01F0               	incf	(digitalWrite@value),f
  6372  0E6A  0AF0               	bsf	status, 5	;RP0=1, select bank1
  6373  0E6B  1683               	bcf	status, 6	;RP1=0, select bank1
  6374  0E6C  1303               	movf	(_d6Pin)^080h,w
  6375  0E6D  085F               	fcall	_digitalWrite
  6376  0E6E  160A  118A  26DD  120A  158A  	line	173
  6377                           ;LCD16x2.c: 173:             digitalWrite(d5Pin,1);
  6378                           	clrf	(digitalWrite@value)
  6379  0E73  01F0               	incf	(digitalWrite@value),f
  6380  0E74  0AF0               	bsf	status, 5	;RP0=1, select bank1
  6381  0E75  1683               	bcf	status, 6	;RP1=0, select bank1
  6382  0E76  1303               	movf	(_d5Pin)^080h,w
  6383  0E77  0860               	fcall	_digitalWrite
  6384  0E78  160A  118A  26DD  120A  158A  	line	174
  6385                           ;LCD16x2.c: 174:             digitalWrite(d4Pin,1);
  6386                           	clrf	(digitalWrite@value)
  6387  0E7D  01F0               	incf	(digitalWrite@value),f
  6388  0E7E  0AF0               	bsf	status, 5	;RP0=1, select bank1
  6389  0E7F  1683               	bcf	status, 6	;RP1=0, select bank1
  6390  0E80  1303               	movf	(_d4Pin)^080h,w
  6391  0E81  0861               	fcall	_digitalWrite
  6392  0E82  160A  118A  26DD  120A  158A  	line	175
  6393                           ;LCD16x2.c: 175:             break;
  6394                           	goto	l482
  6395  0E87  2FFF               	line	176
  6396                           ;LCD16x2.c: 176:         case 0x08:
  6397                           	
  6398                           l474:	
  6399  0E88                     	line	177
  6400                           	
  6401                           l2736:	
  6402  0E88                     ;LCD16x2.c: 177:             digitalWrite(d7Pin,1);
  6403                           	clrf	(digitalWrite@value)
  6404  0E88  01F0               	incf	(digitalWrite@value),f
  6405  0E89  0AF0               	bsf	status, 5	;RP0=1, select bank1
  6406  0E8A  1683               	bcf	status, 6	;RP1=0, select bank1
  6407  0E8B  1303               	movf	(_d7Pin)^080h,w
  6408  0E8C  085E               	fcall	_digitalWrite
  6409  0E8D  160A  118A  26DD  120A  158A  	line	178
  6410                           ;LCD16x2.c: 178:             digitalWrite(d6Pin,0);
  6411                           	clrf	(digitalWrite@value)
  6412  0E92  01F0               	bsf	status, 5	;RP0=1, select bank1
  6413  0E93  1683               	bcf	status, 6	;RP1=0, select bank1
  6414  0E94  1303               	movf	(_d6Pin)^080h,w
  6415  0E95  085F               	fcall	_digitalWrite
  6416  0E96  160A  118A  26DD  120A  158A  	line	179
  6417                           ;LCD16x2.c: 179:             digitalWrite(d5Pin,0);
  6418                           	clrf	(digitalWrite@value)
  6419  0E9B  01F0               	bsf	status, 5	;RP0=1, select bank1
  6420  0E9C  1683               	bcf	status, 6	;RP1=0, select bank1
  6421  0E9D  1303               	movf	(_d5Pin)^080h,w
  6422  0E9E  0860               	fcall	_digitalWrite
  6423  0E9F  160A  118A  26DD  120A  158A  	line	180
  6424                           ;LCD16x2.c: 180:             digitalWrite(d4Pin,0);
  6425                           	clrf	(digitalWrite@value)
  6426  0EA4  01F0               	bsf	status, 5	;RP0=1, select bank1
  6427  0EA5  1683               	bcf	status, 6	;RP1=0, select bank1
  6428  0EA6  1303               	movf	(_d4Pin)^080h,w
  6429  0EA7  0861               	fcall	_digitalWrite
  6430  0EA8  160A  118A  26DD  120A  158A  	line	181
  6431                           ;LCD16x2.c: 181:             break;
  6432                           	goto	l482
  6433  0EAD  2FFF               	line	182
  6434                           ;LCD16x2.c: 182:         case 0x09:
  6435                           	
  6436                           l475:	
  6437  0EAE                     	line	183
  6438                           	
  6439                           l2738:	
  6440  0EAE                     ;LCD16x2.c: 183:             digitalWrite(d7Pin,1);
  6441                           	clrf	(digitalWrite@value)
  6442  0EAE  01F0               	incf	(digitalWrite@value),f
  6443  0EAF  0AF0               	bsf	status, 5	;RP0=1, select bank1
  6444  0EB0  1683               	bcf	status, 6	;RP1=0, select bank1
  6445  0EB1  1303               	movf	(_d7Pin)^080h,w
  6446  0EB2  085E               	fcall	_digitalWrite
  6447  0EB3  160A  118A  26DD  120A  158A  	line	184
  6448                           ;LCD16x2.c: 184:             digitalWrite(d6Pin,0);
  6449                           	clrf	(digitalWrite@value)
  6450  0EB8  01F0               	bsf	status, 5	;RP0=1, select bank1
  6451  0EB9  1683               	bcf	status, 6	;RP1=0, select bank1
  6452  0EBA  1303               	movf	(_d6Pin)^080h,w
  6453  0EBB  085F               	fcall	_digitalWrite
  6454  0EBC  160A  118A  26DD  120A  158A  	line	185
  6455                           ;LCD16x2.c: 185:             digitalWrite(d5Pin,0);
  6456                           	clrf	(digitalWrite@value)
  6457  0EC1  01F0               	bsf	status, 5	;RP0=1, select bank1
  6458  0EC2  1683               	bcf	status, 6	;RP1=0, select bank1
  6459  0EC3  1303               	movf	(_d5Pin)^080h,w
  6460  0EC4  0860               	fcall	_digitalWrite
  6461  0EC5  160A  118A  26DD  120A  158A  	line	186
  6462                           ;LCD16x2.c: 186:             digitalWrite(d4Pin,1);
  6463                           	clrf	(digitalWrite@value)
  6464  0ECA  01F0               	incf	(digitalWrite@value),f
  6465  0ECB  0AF0               	bsf	status, 5	;RP0=1, select bank1
  6466  0ECC  1683               	bcf	status, 6	;RP1=0, select bank1
  6467  0ECD  1303               	movf	(_d4Pin)^080h,w
  6468  0ECE  0861               	fcall	_digitalWrite
  6469  0ECF  160A  118A  26DD  120A  158A  	line	187
  6470                           ;LCD16x2.c: 187:             break;
  6471                           	goto	l482
  6472  0ED4  2FFF               	line	188
  6473                           ;LCD16x2.c: 188:         case 0x0A:
  6474                           	
  6475                           l476:	
  6476  0ED5                     	line	189
  6477                           	
  6478                           l2740:	
  6479  0ED5                     ;LCD16x2.c: 189:             digitalWrite(d7Pin,1);
  6480                           	clrf	(digitalWrite@value)
  6481  0ED5  01F0               	incf	(digitalWrite@value),f
  6482  0ED6  0AF0               	bsf	status, 5	;RP0=1, select bank1
  6483  0ED7  1683               	bcf	status, 6	;RP1=0, select bank1
  6484  0ED8  1303               	movf	(_d7Pin)^080h,w
  6485  0ED9  085E               	fcall	_digitalWrite
  6486  0EDA  160A  118A  26DD  120A  158A  	line	190
  6487                           ;LCD16x2.c: 190:             digitalWrite(d6Pin,0);
  6488                           	clrf	(digitalWrite@value)
  6489  0EDF  01F0               	bsf	status, 5	;RP0=1, select bank1
  6490  0EE0  1683               	bcf	status, 6	;RP1=0, select bank1
  6491  0EE1  1303               	movf	(_d6Pin)^080h,w
  6492  0EE2  085F               	fcall	_digitalWrite
  6493  0EE3  160A  118A  26DD  120A  158A  	line	191
  6494                           ;LCD16x2.c: 191:             digitalWrite(d5Pin,1);
  6495                           	clrf	(digitalWrite@value)
  6496  0EE8  01F0               	incf	(digitalWrite@value),f
  6497  0EE9  0AF0               	bsf	status, 5	;RP0=1, select bank1
  6498  0EEA  1683               	bcf	status, 6	;RP1=0, select bank1
  6499  0EEB  1303               	movf	(_d5Pin)^080h,w
  6500  0EEC  0860               	fcall	_digitalWrite
  6501  0EED  160A  118A  26DD  120A  158A  	line	192
  6502                           ;LCD16x2.c: 192:             digitalWrite(d4Pin,0);
  6503                           	clrf	(digitalWrite@value)
  6504  0EF2  01F0               	bsf	status, 5	;RP0=1, select bank1
  6505  0EF3  1683               	bcf	status, 6	;RP1=0, select bank1
  6506  0EF4  1303               	movf	(_d4Pin)^080h,w
  6507  0EF5  0861               	fcall	_digitalWrite
  6508  0EF6  160A  118A  26DD  120A  158A  	line	193
  6509                           ;LCD16x2.c: 193:             break;
  6510                           	goto	l482
  6511  0EFB  2FFF               	line	194
  6512                           ;LCD16x2.c: 194:         case 0x0B:
  6513                           	
  6514                           l477:	
  6515  0EFC                     	line	195
  6516                           	
  6517                           l2742:	
  6518  0EFC                     ;LCD16x2.c: 195:             digitalWrite(d7Pin,1);
  6519                           	clrf	(digitalWrite@value)
  6520  0EFC  01F0               	incf	(digitalWrite@value),f
  6521  0EFD  0AF0               	bsf	status, 5	;RP0=1, select bank1
  6522  0EFE  1683               	bcf	status, 6	;RP1=0, select bank1
  6523  0EFF  1303               	movf	(_d7Pin)^080h,w
  6524  0F00  085E               	fcall	_digitalWrite
  6525  0F01  160A  118A  26DD  120A  158A  	line	196
  6526                           ;LCD16x2.c: 196:             digitalWrite(d6Pin,0);
  6527                           	clrf	(digitalWrite@value)
  6528  0F06  01F0               	bsf	status, 5	;RP0=1, select bank1
  6529  0F07  1683               	bcf	status, 6	;RP1=0, select bank1
  6530  0F08  1303               	movf	(_d6Pin)^080h,w
  6531  0F09  085F               	fcall	_digitalWrite
  6532  0F0A  160A  118A  26DD  120A  158A  	line	197
  6533                           ;LCD16x2.c: 197:             digitalWrite(d5Pin,1);
  6534                           	clrf	(digitalWrite@value)
  6535  0F0F  01F0               	incf	(digitalWrite@value),f
  6536  0F10  0AF0               	bsf	status, 5	;RP0=1, select bank1
  6537  0F11  1683               	bcf	status, 6	;RP1=0, select bank1
  6538  0F12  1303               	movf	(_d5Pin)^080h,w
  6539  0F13  0860               	fcall	_digitalWrite
  6540  0F14  160A  118A  26DD  120A  158A  	line	198
  6541                           ;LCD16x2.c: 198:             digitalWrite(d4Pin,1);
  6542                           	clrf	(digitalWrite@value)
  6543  0F19  01F0               	incf	(digitalWrite@value),f
  6544  0F1A  0AF0               	bsf	status, 5	;RP0=1, select bank1
  6545  0F1B  1683               	bcf	status, 6	;RP1=0, select bank1
  6546  0F1C  1303               	movf	(_d4Pin)^080h,w
  6547  0F1D  0861               	fcall	_digitalWrite
  6548  0F1E  160A  118A  26DD  120A  158A  	line	199
  6549                           ;LCD16x2.c: 199:             break;
  6550                           	goto	l482
  6551  0F23  2FFF               	line	200
  6552                           ;LCD16x2.c: 200:         case 0x0C:
  6553                           	
  6554                           l478:	
  6555  0F24                     	line	201
  6556                           	
  6557                           l2744:	
  6558  0F24                     ;LCD16x2.c: 201:             digitalWrite(d7Pin,1);
  6559                           	clrf	(digitalWrite@value)
  6560  0F24  01F0               	incf	(digitalWrite@value),f
  6561  0F25  0AF0               	bsf	status, 5	;RP0=1, select bank1
  6562  0F26  1683               	bcf	status, 6	;RP1=0, select bank1
  6563  0F27  1303               	movf	(_d7Pin)^080h,w
  6564  0F28  085E               	fcall	_digitalWrite
  6565  0F29  160A  118A  26DD  120A  158A  	line	202
  6566                           ;LCD16x2.c: 202:             digitalWrite(d6Pin,1);
  6567                           	clrf	(digitalWrite@value)
  6568  0F2E  01F0               	incf	(digitalWrite@value),f
  6569  0F2F  0AF0               	bsf	status, 5	;RP0=1, select bank1
  6570  0F30  1683               	bcf	status, 6	;RP1=0, select bank1
  6571  0F31  1303               	movf	(_d6Pin)^080h,w
  6572  0F32  085F               	fcall	_digitalWrite
  6573  0F33  160A  118A  26DD  120A  158A  	line	203
  6574                           ;LCD16x2.c: 203:             digitalWrite(d5Pin,0);
  6575                           	clrf	(digitalWrite@value)
  6576  0F38  01F0               	bsf	status, 5	;RP0=1, select bank1
  6577  0F39  1683               	bcf	status, 6	;RP1=0, select bank1
  6578  0F3A  1303               	movf	(_d5Pin)^080h,w
  6579  0F3B  0860               	fcall	_digitalWrite
  6580  0F3C  160A  118A  26DD  120A  158A  	line	204
  6581                           ;LCD16x2.c: 204:             digitalWrite(d4Pin,0);
  6582                           	clrf	(digitalWrite@value)
  6583  0F41  01F0               	bsf	status, 5	;RP0=1, select bank1
  6584  0F42  1683               	bcf	status, 6	;RP1=0, select bank1
  6585  0F43  1303               	movf	(_d4Pin)^080h,w
  6586  0F44  0861               	fcall	_digitalWrite
  6587  0F45  160A  118A  26DD  120A  158A  	line	205
  6588                           ;LCD16x2.c: 205:             break;
  6589                           	goto	l482
  6590  0F4A  2FFF               	line	206
  6591                           ;LCD16x2.c: 206:         case 0x0D:
  6592                           	
  6593                           l479:	
  6594  0F4B                     	line	207
  6595                           	
  6596                           l2746:	
  6597  0F4B                     ;LCD16x2.c: 207:             digitalWrite(d7Pin,1);
  6598                           	clrf	(digitalWrite@value)
  6599  0F4B  01F0               	incf	(digitalWrite@value),f
  6600  0F4C  0AF0               	bsf	status, 5	;RP0=1, select bank1
  6601  0F4D  1683               	bcf	status, 6	;RP1=0, select bank1
  6602  0F4E  1303               	movf	(_d7Pin)^080h,w
  6603  0F4F  085E               	fcall	_digitalWrite
  6604  0F50  160A  118A  26DD  120A  158A  	line	208
  6605                           ;LCD16x2.c: 208:             digitalWrite(d6Pin,1);
  6606                           	clrf	(digitalWrite@value)
  6607  0F55  01F0               	incf	(digitalWrite@value),f
  6608  0F56  0AF0               	bsf	status, 5	;RP0=1, select bank1
  6609  0F57  1683               	bcf	status, 6	;RP1=0, select bank1
  6610  0F58  1303               	movf	(_d6Pin)^080h,w
  6611  0F59  085F               	fcall	_digitalWrite
  6612  0F5A  160A  118A  26DD  120A  158A  	line	209
  6613                           ;LCD16x2.c: 209:             digitalWrite(d5Pin,0);
  6614                           	clrf	(digitalWrite@value)
  6615  0F5F  01F0               	bsf	status, 5	;RP0=1, select bank1
  6616  0F60  1683               	bcf	status, 6	;RP1=0, select bank1
  6617  0F61  1303               	movf	(_d5Pin)^080h,w
  6618  0F62  0860               	fcall	_digitalWrite
  6619  0F63  160A  118A  26DD  120A  158A  	line	210
  6620                           ;LCD16x2.c: 210:             digitalWrite(d4Pin,1);
  6621                           	clrf	(digitalWrite@value)
  6622  0F68  01F0               	incf	(digitalWrite@value),f
  6623  0F69  0AF0               	bsf	status, 5	;RP0=1, select bank1
  6624  0F6A  1683               	bcf	status, 6	;RP1=0, select bank1
  6625  0F6B  1303               	movf	(_d4Pin)^080h,w
  6626  0F6C  0861               	fcall	_digitalWrite
  6627  0F6D  160A  118A  26DD  120A  158A  	line	211
  6628                           ;LCD16x2.c: 211:             break;
  6629                           	goto	l482
  6630  0F72  2FFF               	line	212
  6631                           ;LCD16x2.c: 212:         case 0x0E:
  6632                           	
  6633                           l480:	
  6634  0F73                     	line	213
  6635                           	
  6636                           l2748:	
  6637  0F73                     ;LCD16x2.c: 213:             digitalWrite(d7Pin,1);
  6638                           	clrf	(digitalWrite@value)
  6639  0F73  01F0               	incf	(digitalWrite@value),f
  6640  0F74  0AF0               	bsf	status, 5	;RP0=1, select bank1
  6641  0F75  1683               	bcf	status, 6	;RP1=0, select bank1
  6642  0F76  1303               	movf	(_d7Pin)^080h,w
  6643  0F77  085E               	fcall	_digitalWrite
  6644  0F78  160A  118A  26DD  120A  158A  	line	214
  6645                           ;LCD16x2.c: 214:             digitalWrite(d6Pin,1);
  6646                           	clrf	(digitalWrite@value)
  6647  0F7D  01F0               	incf	(digitalWrite@value),f
  6648  0F7E  0AF0               	bsf	status, 5	;RP0=1, select bank1
  6649  0F7F  1683               	bcf	status, 6	;RP1=0, select bank1
  6650  0F80  1303               	movf	(_d6Pin)^080h,w
  6651  0F81  085F               	fcall	_digitalWrite
  6652  0F82  160A  118A  26DD  120A  158A  	line	215
  6653                           ;LCD16x2.c: 215:             digitalWrite(d5Pin,1);
  6654                           	clrf	(digitalWrite@value)
  6655  0F87  01F0               	incf	(digitalWrite@value),f
  6656  0F88  0AF0               	bsf	status, 5	;RP0=1, select bank1
  6657  0F89  1683               	bcf	status, 6	;RP1=0, select bank1
  6658  0F8A  1303               	movf	(_d5Pin)^080h,w
  6659  0F8B  0860               	fcall	_digitalWrite
  6660  0F8C  160A  118A  26DD  120A  158A  	line	216
  6661                           ;LCD16x2.c: 216:             digitalWrite(d4Pin,0);
  6662                           	clrf	(digitalWrite@value)
  6663  0F91  01F0               	bsf	status, 5	;RP0=1, select bank1
  6664  0F92  1683               	bcf	status, 6	;RP1=0, select bank1
  6665  0F93  1303               	movf	(_d4Pin)^080h,w
  6666  0F94  0861               	fcall	_digitalWrite
  6667  0F95  160A  118A  26DD  120A  158A  	line	217
  6668                           ;LCD16x2.c: 217:             break;
  6669                           	goto	l482
  6670  0F9A  2FFF               	line	218
  6671                           ;LCD16x2.c: 218:         case 0x0F:
  6672                           	
  6673                           l481:	
  6674  0F9B                     	line	219
  6675                           	
  6676                           l2750:	
  6677  0F9B                     ;LCD16x2.c: 219:             digitalWrite(d7Pin,1);
  6678                           	clrf	(digitalWrite@value)
  6679  0F9B  01F0               	incf	(digitalWrite@value),f
  6680  0F9C  0AF0               	bsf	status, 5	;RP0=1, select bank1
  6681  0F9D  1683               	bcf	status, 6	;RP1=0, select bank1
  6682  0F9E  1303               	movf	(_d7Pin)^080h,w
  6683  0F9F  085E               	fcall	_digitalWrite
  6684  0FA0  160A  118A  26DD  120A  158A  	line	220
  6685                           ;LCD16x2.c: 220:             digitalWrite(d6Pin,1);
  6686                           	clrf	(digitalWrite@value)
  6687  0FA5  01F0               	incf	(digitalWrite@value),f
  6688  0FA6  0AF0               	bsf	status, 5	;RP0=1, select bank1
  6689  0FA7  1683               	bcf	status, 6	;RP1=0, select bank1
  6690  0FA8  1303               	movf	(_d6Pin)^080h,w
  6691  0FA9  085F               	fcall	_digitalWrite
  6692  0FAA  160A  118A  26DD  120A  158A  	line	221
  6693                           ;LCD16x2.c: 221:             digitalWrite(d5Pin,1);
  6694                           	clrf	(digitalWrite@value)
  6695  0FAF  01F0               	incf	(digitalWrite@value),f
  6696  0FB0  0AF0               	bsf	status, 5	;RP0=1, select bank1
  6697  0FB1  1683               	bcf	status, 6	;RP1=0, select bank1
  6698  0FB2  1303               	movf	(_d5Pin)^080h,w
  6699  0FB3  0860               	fcall	_digitalWrite
  6700  0FB4  160A  118A  26DD  120A  158A  	line	222
  6701                           ;LCD16x2.c: 222:             digitalWrite(d4Pin,1);
  6702                           	clrf	(digitalWrite@value)
  6703  0FB9  01F0               	incf	(digitalWrite@value),f
  6704  0FBA  0AF0               	bsf	status, 5	;RP0=1, select bank1
  6705  0FBB  1683               	bcf	status, 6	;RP1=0, select bank1
  6706  0FBC  1303               	movf	(_d4Pin)^080h,w
  6707  0FBD  0861               	fcall	_digitalWrite
  6708  0FBE  160A  118A  26DD  120A  158A  	line	223
  6709                           ;LCD16x2.c: 223:             break;
  6710                           	goto	l482
  6711  0FC3  2FFF               	line	224
  6712                           	
  6713                           l2752:	
  6714  0FC4                     ;LCD16x2.c: 224:     }
  6715                           	goto	l482
  6716  0FC4  2FFF               	
  6717                           l464:	
  6718  0FC5                     	
  6719                           l2754:	
  6720  0FC5                     	movf	(ByteByNibble@NibbleValue),w
  6721  0FC5  0876               	movwf	(??_ByteByNibble+0)+0
  6722  0FC6  00F4               	clrf	(??_ByteByNibble+0)+0+1
  6723  0FC7  01F5               	; Switch on 2 bytes has been partitioned into a top level switch of size 1, and 1 sub-s
                                 witches
  6724                           ; Switch size 1, requested type "space"
  6725                           ; Number of cases is 1, Range of values is 0 to 0
  6726                           ; switch strategies available:
  6727                           ; Name         Instructions Cycles
  6728                           ; simple_byte            4     3 (average)
  6729                           ; direct_byte           11     8 (fixed)
  6730                           ; jumptable            260     6 (fixed)
  6731                           ;	Chosen strategy is simple_byte
  6732                           
  6733                           	movf 1+(??_ByteByNibble+0)+0,w
  6734  0FC8  0875               	opt asmopt_push
  6735                           	opt asmopt_off
  6736                           	xorlw	0^0	; case 0
  6737  0FC9  3A00               	skipnz
  6738  0FCA  1903               	goto	l3788
  6739  0FCB  2FCD               	goto	l482
  6740  0FCC  2FFF               	opt asmopt_pop
  6741                           	
  6742                           l3788:	
  6743  0FCD                     ; Switch size 1, requested type "space"
  6744                           ; Number of cases is 16, Range of values is 0 to 15
  6745                           ; switch strategies available:
  6746                           ; Name         Instructions Cycles
  6747                           ; simple_byte           49    25 (average)
  6748                           ; direct_byte           56     8 (fixed)
  6749                           ; jumptable            260     6 (fixed)
  6750                           ;	Chosen strategy is simple_byte
  6751                           
  6752                           	movf 0+(??_ByteByNibble+0)+0,w
  6753  0FCD  0874               	opt asmopt_push
  6754                           	opt asmopt_off
  6755                           	xorlw	0^0	; case 0
  6756  0FCE  3A00               	skipnz
  6757  0FCF  1903               	goto	l2720
  6758  0FD0  2D54               	xorlw	1^0	; case 1
  6759  0FD1  3A01               	skipnz
  6760  0FD2  1903               	goto	l2722
  6761  0FD3  2D79               	xorlw	2^1	; case 2
  6762  0FD4  3A03               	skipnz
  6763  0FD5  1903               	goto	l2724
  6764  0FD6  2D9F               	xorlw	3^2	; case 3
  6765  0FD7  3A01               	skipnz
  6766  0FD8  1903               	goto	l2726
  6767  0FD9  2DC5               	xorlw	4^3	; case 4
  6768  0FDA  3A07               	skipnz
  6769  0FDB  1903               	goto	l2728
  6770  0FDC  2DEC               	xorlw	5^4	; case 5
  6771  0FDD  3A01               	skipnz
  6772  0FDE  1903               	goto	l2730
  6773  0FDF  2E12               	xorlw	6^5	; case 6
  6774  0FE0  3A03               	skipnz
  6775  0FE1  1903               	goto	l2732
  6776  0FE2  2E39               	xorlw	7^6	; case 7
  6777  0FE3  3A01               	skipnz
  6778  0FE4  1903               	goto	l2734
  6779  0FE5  2E60               	xorlw	8^7	; case 8
  6780  0FE6  3A0F               	skipnz
  6781  0FE7  1903               	goto	l2736
  6782  0FE8  2E88               	xorlw	9^8	; case 9
  6783  0FE9  3A01               	skipnz
  6784  0FEA  1903               	goto	l2738
  6785  0FEB  2EAE               	xorlw	10^9	; case 10
  6786  0FEC  3A03               	skipnz
  6787  0FED  1903               	goto	l2740
  6788  0FEE  2ED5               	xorlw	11^10	; case 11
  6789  0FEF  3A01               	skipnz
  6790  0FF0  1903               	goto	l2742
  6791  0FF1  2EFC               	xorlw	12^11	; case 12
  6792  0FF2  3A07               	skipnz
  6793  0FF3  1903               	goto	l2744
  6794  0FF4  2F24               	xorlw	13^12	; case 13
  6795  0FF5  3A01               	skipnz
  6796  0FF6  1903               	goto	l2746
  6797  0FF7  2F4B               	xorlw	14^13	; case 14
  6798  0FF8  3A03               	skipnz
  6799  0FF9  1903               	goto	l2748
  6800  0FFA  2F73               	xorlw	15^14	; case 15
  6801  0FFB  3A01               	skipnz
  6802  0FFC  1903               	goto	l2750
  6803  0FFD  2F9B               	goto	l482
  6804  0FFE  2FFF               	opt asmopt_pop
  6805                           
  6806                           	
  6807                           l466:	
  6808  0FFF                     	line	225
  6809                           	
  6810                           l482:	
  6811  0FFF                     	return
  6812  0FFF  0008               	opt stack 0
  6813                           GLOBAL	__end_of_ByteByNibble
  6814                           	__end_of_ByteByNibble:
  6815  1000                     	signat	_ByteByNibble,4217
  6816                           	global	_digitalWrite
  6817                           
  6818 ;; *************** function _digitalWrite *****************
  6819 ;; Defined at:
  6820 ;;		line 166 in file "Hormiga877.c"
  6821 ;; Parameters:    Size  Location     Type
  6822 ;;  pin             1    wreg     unsigned char 
  6823 ;;  value           1    0[COMMON] unsigned char 
  6824 ;; Auto vars:     Size  Location     Type
  6825 ;;  pin             1    3[COMMON] unsigned char 
  6826 ;; Return value:  Size  Location     Type
  6827 ;;                  1    wreg      void 
  6828 ;; Registers used:
  6829 ;;		wreg, fsr0l, fsr0h, status,2, status,0
  6830 ;; Tracked objects:
  6831 ;;		On entry : 0/0
  6832 ;;		On exit  : 0/0
  6833 ;;		Unchanged: 0/0
  6834 ;; Data sizes:     COMMON   BANK0   BANK1   BANK3   BANK2
  6835 ;;      Params:         1       0       0       0       0
  6836 ;;      Locals:         1       0       0       0       0
  6837 ;;      Temps:          2       0       0       0       0
  6838 ;;      Totals:         4       0       0       0       0
  6839 ;;Total ram usage:        4 bytes
  6840 ;; Hardware stack levels used:    1
  6841 ;; This function calls:
  6842 ;;		Nothing
  6843 ;; This function is called by:
  6844 ;;		_WriteInstruction
  6845 ;;		_WriteData
  6846 ;;		_ByteByNibble
  6847 ;; This function uses a non-reentrant model
  6848 ;;
  6849                           psect	text18,local,class=CODE,delta=2,merge=1,group=0
  6850                           	file	"Hormiga877.c"
  6851                           	line	166
  6852                           global __ptext18
  6853                           __ptext18:	;psect for function _digitalWrite
  6854  16DD                     psect	text18
  6855                           	file	"Hormiga877.c"
  6856                           	line	166
  6857                           	global	__size_of_digitalWrite
  6858                           	__size_of_digitalWrite	equ	__end_of_digitalWrite-_digitalWrite
  6859  0123                     	
  6860                           _digitalWrite:	
  6861  16DD                     ;incstack = 0
  6862                           	opt	stack 4
  6863                           ; Regs used in _digitalWrite: [wreg-fsr0h+status,2+status,0]
  6864                           ;digitalWrite@pin stored from wreg
  6865                           	movwf	(digitalWrite@pin)
  6866  16DD  00F3               	line	168
  6867                           	
  6868                           l2636:	
  6869  16DE                     ;Hormiga877.c: 166: void digitalWrite(char pin, char value);Hormiga877.c: 167: {;Hormiga
                                 877.c: 168:     switch(pin)
  6870                           	goto	l2694
  6871  16DE  2FAA               	line	170
  6872                           ;Hormiga877.c: 169:     {;Hormiga877.c: 170:         case 0:
  6873                           	
  6874                           l199:	
  6875  16DF                     	line	171
  6876                           	
  6877                           l2638:	
  6878  16DF                     ;Hormiga877.c: 171:             PORTCbits.RC7 = value;
  6879                           	rrf	(digitalWrite@value),w
  6880  16DF  0C70               	bcf	status, 5	;RP0=0, select bank0
  6881  16E0  1283               	bcf	status, 6	;RP1=0, select bank0
  6882  16E1  1303               	skipc
  6883  16E2  1C03               	bcf	(7),7	;volatile
  6884  16E3  1387               	skipnc
  6885  16E4  1803               	bsf	(7),7	;volatile
  6886  16E5  1787               	line	172
  6887                           ;Hormiga877.c: 172:             break;
  6888                           	goto	l225
  6889  16E6  2FFF               	line	173
  6890                           ;Hormiga877.c: 173:         case 1:
  6891                           	
  6892                           l201:	
  6893  16E7                     	line	174
  6894                           	
  6895                           l2640:	
  6896  16E7                     ;Hormiga877.c: 174:             PORTCbits.RC6 = value;
  6897                           	rrf	(digitalWrite@value),w
  6898  16E7  0C70               	bcf	status, 5	;RP0=0, select bank0
  6899  16E8  1283               	bcf	status, 6	;RP1=0, select bank0
  6900  16E9  1303               	skipc
  6901  16EA  1C03               	bcf	(7),6	;volatile
  6902  16EB  1307               	skipnc
  6903  16EC  1803               	bsf	(7),6	;volatile
  6904  16ED  1707               	line	175
  6905                           ;Hormiga877.c: 175:             break;
  6906                           	goto	l225
  6907  16EE  2FFF               	line	176
  6908                           ;Hormiga877.c: 176:         case 2:
  6909                           	
  6910                           l202:	
  6911  16EF                     	line	177
  6912                           	
  6913                           l2642:	
  6914  16EF                     ;Hormiga877.c: 177:             PORTCbits.RC5 = value;
  6915                           	rrf	(digitalWrite@value),w
  6916  16EF  0C70               	bcf	status, 5	;RP0=0, select bank0
  6917  16F0  1283               	bcf	status, 6	;RP1=0, select bank0
  6918  16F1  1303               	skipc
  6919  16F2  1C03               	bcf	(7),5	;volatile
  6920  16F3  1287               	skipnc
  6921  16F4  1803               	bsf	(7),5	;volatile
  6922  16F5  1687               	line	178
  6923                           ;Hormiga877.c: 178:             break;
  6924                           	goto	l225
  6925  16F6  2FFF               	line	179
  6926                           ;Hormiga877.c: 179:         case 3:
  6927                           	
  6928                           l203:	
  6929  16F7                     	line	180
  6930                           	
  6931                           l2644:	
  6932  16F7                     ;Hormiga877.c: 180:             PORTCbits.RC4 = value;
  6933                           	rrf	(digitalWrite@value),w
  6934  16F7  0C70               	bcf	status, 5	;RP0=0, select bank0
  6935  16F8  1283               	bcf	status, 6	;RP1=0, select bank0
  6936  16F9  1303               	skipc
  6937  16FA  1C03               	bcf	(7),4	;volatile
  6938  16FB  1207               	skipnc
  6939  16FC  1803               	bsf	(7),4	;volatile
  6940  16FD  1607               	line	181
  6941                           ;Hormiga877.c: 181:             break;
  6942                           	goto	l225
  6943  16FE  2FFF               	line	182
  6944                           ;Hormiga877.c: 182:         case 4:
  6945                           	
  6946                           l204:	
  6947  16FF                     	line	183
  6948                           	
  6949                           l2646:	
  6950  16FF                     ;Hormiga877.c: 183:             PORTCbits.RC3 = value;
  6951                           	rrf	(digitalWrite@value),w
  6952  16FF  0C70               	bcf	status, 5	;RP0=0, select bank0
  6953  1700  1283               	bcf	status, 6	;RP1=0, select bank0
  6954  1701  1303               	skipc
  6955  1702  1C03               	bcf	(7),3	;volatile
  6956  1703  1187               	skipnc
  6957  1704  1803               	bsf	(7),3	;volatile
  6958  1705  1587               	line	184
  6959                           ;Hormiga877.c: 184:             break;
  6960                           	goto	l225
  6961  1706  2FFF               	line	185
  6962                           ;Hormiga877.c: 185:         case 5:
  6963                           	
  6964                           l205:	
  6965  1707                     	line	186
  6966                           	
  6967                           l2648:	
  6968  1707                     ;Hormiga877.c: 186:             CCP1CON = 0x00;
  6969                           	bcf	status, 5	;RP0=0, select bank0
  6970  1707  1283               	bcf	status, 6	;RP1=0, select bank0
  6971  1708  1303               	clrf	(23)	;volatile
  6972  1709  0197               	line	187
  6973                           	
  6974                           l2650:	
  6975  170A                     ;Hormiga877.c: 187:             PORTCbits.RC2 = value;
  6976                           	rrf	(digitalWrite@value),w
  6977  170A  0C70               	skipc
  6978  170B  1C03               	bcf	(7),2	;volatile
  6979  170C  1107               	skipnc
  6980  170D  1803               	bsf	(7),2	;volatile
  6981  170E  1507               	line	188
  6982                           ;Hormiga877.c: 188:             break;
  6983                           	goto	l225
  6984  170F  2FFF               	line	189
  6985                           ;Hormiga877.c: 189:         case 6:
  6986                           	
  6987                           l206:	
  6988  1710                     	line	190
  6989                           	
  6990                           l2652:	
  6991  1710                     ;Hormiga877.c: 190:             CCP2CON = 0x00;
  6992                           	bcf	status, 5	;RP0=0, select bank0
  6993  1710  1283               	bcf	status, 6	;RP1=0, select bank0
  6994  1711  1303               	clrf	(29)	;volatile
  6995  1712  019D               	line	191
  6996                           	
  6997                           l2654:	
  6998  1713                     ;Hormiga877.c: 191:             PORTCbits.RC1 = value;
  6999                           	rrf	(digitalWrite@value),w
  7000  1713  0C70               	skipc
  7001  1714  1C03               	bcf	(7),1	;volatile
  7002  1715  1087               	skipnc
  7003  1716  1803               	bsf	(7),1	;volatile
  7004  1717  1487               	line	192
  7005                           ;Hormiga877.c: 192:             break;
  7006                           	goto	l225
  7007  1718  2FFF               	line	193
  7008                           ;Hormiga877.c: 193:         case 7:
  7009                           	
  7010                           l207:	
  7011  1719                     	line	194
  7012                           	
  7013                           l2656:	
  7014  1719                     ;Hormiga877.c: 194:             PORTCbits.RC0 = value;
  7015                           	rrf	(digitalWrite@value),w
  7016  1719  0C70               	bcf	status, 5	;RP0=0, select bank0
  7017  171A  1283               	bcf	status, 6	;RP1=0, select bank0
  7018  171B  1303               	skipc
  7019  171C  1C03               	bcf	(7),0	;volatile
  7020  171D  1007               	skipnc
  7021  171E  1803               	bsf	(7),0	;volatile
  7022  171F  1407               	line	195
  7023                           ;Hormiga877.c: 195:             break;
  7024                           	goto	l225
  7025  1720  2FFF               	line	196
  7026                           ;Hormiga877.c: 196:         case 8:
  7027                           	
  7028                           l208:	
  7029  1721                     	line	197
  7030                           	
  7031                           l2658:	
  7032  1721                     ;Hormiga877.c: 197:             PORTBbits.RB0 = value;
  7033                           	rrf	(digitalWrite@value),w
  7034  1721  0C70               	bcf	status, 5	;RP0=0, select bank0
  7035  1722  1283               	bcf	status, 6	;RP1=0, select bank0
  7036  1723  1303               	skipc
  7037  1724  1C03               	bcf	(6),0	;volatile
  7038  1725  1006               	skipnc
  7039  1726  1803               	bsf	(6),0	;volatile
  7040  1727  1406               	line	198
  7041                           ;Hormiga877.c: 198:             break;
  7042                           	goto	l225
  7043  1728  2FFF               	line	199
  7044                           ;Hormiga877.c: 199:         case 9:
  7045                           	
  7046                           l209:	
  7047  1729                     	line	200
  7048                           	
  7049                           l2660:	
  7050  1729                     ;Hormiga877.c: 200:             PORTBbits.RB1 = value;
  7051                           	rrf	(digitalWrite@value),w
  7052  1729  0C70               	bcf	status, 5	;RP0=0, select bank0
  7053  172A  1283               	bcf	status, 6	;RP1=0, select bank0
  7054  172B  1303               	skipc
  7055  172C  1C03               	bcf	(6),1	;volatile
  7056  172D  1086               	skipnc
  7057  172E  1803               	bsf	(6),1	;volatile
  7058  172F  1486               	line	201
  7059                           ;Hormiga877.c: 201:             break;
  7060                           	goto	l225
  7061  1730  2FFF               	line	202
  7062                           ;Hormiga877.c: 202:         case 10:
  7063                           	
  7064                           l210:	
  7065  1731                     	line	203
  7066                           	
  7067                           l2662:	
  7068  1731                     ;Hormiga877.c: 203:             PORTBbits.RB2 = value;
  7069                           	rrf	(digitalWrite@value),w
  7070  1731  0C70               	bcf	status, 5	;RP0=0, select bank0
  7071  1732  1283               	bcf	status, 6	;RP1=0, select bank0
  7072  1733  1303               	skipc
  7073  1734  1C03               	bcf	(6),2	;volatile
  7074  1735  1106               	skipnc
  7075  1736  1803               	bsf	(6),2	;volatile
  7076  1737  1506               	line	204
  7077                           ;Hormiga877.c: 204:             break;
  7078                           	goto	l225
  7079  1738  2FFF               	line	205
  7080                           ;Hormiga877.c: 205:         case 11:
  7081                           	
  7082                           l211:	
  7083  1739                     	line	206
  7084                           	
  7085                           l2664:	
  7086  1739                     ;Hormiga877.c: 206:             PORTBbits.RB3 = value;
  7087                           	rrf	(digitalWrite@value),w
  7088  1739  0C70               	bcf	status, 5	;RP0=0, select bank0
  7089  173A  1283               	bcf	status, 6	;RP1=0, select bank0
  7090  173B  1303               	skipc
  7091  173C  1C03               	bcf	(6),3	;volatile
  7092  173D  1186               	skipnc
  7093  173E  1803               	bsf	(6),3	;volatile
  7094  173F  1586               	line	207
  7095                           ;Hormiga877.c: 207:             break;
  7096                           	goto	l225
  7097  1740  2FFF               	line	208
  7098                           ;Hormiga877.c: 208:         case 12:
  7099                           	
  7100                           l212:	
  7101  1741                     	line	209
  7102                           	
  7103                           l2666:	
  7104  1741                     ;Hormiga877.c: 209:             PORTBbits.RB4 = value;
  7105                           	rrf	(digitalWrite@value),w
  7106  1741  0C70               	bcf	status, 5	;RP0=0, select bank0
  7107  1742  1283               	bcf	status, 6	;RP1=0, select bank0
  7108  1743  1303               	skipc
  7109  1744  1C03               	bcf	(6),4	;volatile
  7110  1745  1206               	skipnc
  7111  1746  1803               	bsf	(6),4	;volatile
  7112  1747  1606               	line	210
  7113                           ;Hormiga877.c: 210:             break;
  7114                           	goto	l225
  7115  1748  2FFF               	line	211
  7116                           ;Hormiga877.c: 211:         case 13:
  7117                           	
  7118                           l213:	
  7119  1749                     	line	212
  7120                           	
  7121                           l2668:	
  7122  1749                     ;Hormiga877.c: 212:             PORTBbits.RB5 = value;
  7123                           	rrf	(digitalWrite@value),w
  7124  1749  0C70               	bcf	status, 5	;RP0=0, select bank0
  7125  174A  1283               	bcf	status, 6	;RP1=0, select bank0
  7126  174B  1303               	skipc
  7127  174C  1C03               	bcf	(6),5	;volatile
  7128  174D  1286               	skipnc
  7129  174E  1803               	bsf	(6),5	;volatile
  7130  174F  1686               	line	213
  7131                           ;Hormiga877.c: 213:             break;
  7132                           	goto	l225
  7133  1750  2FFF               	line	214
  7134                           ;Hormiga877.c: 214:         case 14:
  7135                           	
  7136                           l214:	
  7137  1751                     	line	215
  7138                           	
  7139                           l2670:	
  7140  1751                     ;Hormiga877.c: 215:             PORTBbits.RB6 = value;
  7141                           	rrf	(digitalWrite@value),w
  7142  1751  0C70               	bcf	status, 5	;RP0=0, select bank0
  7143  1752  1283               	bcf	status, 6	;RP1=0, select bank0
  7144  1753  1303               	skipc
  7145  1754  1C03               	bcf	(6),6	;volatile
  7146  1755  1306               	skipnc
  7147  1756  1803               	bsf	(6),6	;volatile
  7148  1757  1706               	line	216
  7149                           ;Hormiga877.c: 216:             break;
  7150                           	goto	l225
  7151  1758  2FFF               	line	217
  7152                           ;Hormiga877.c: 217:         case 15:
  7153                           	
  7154                           l215:	
  7155  1759                     	line	218
  7156                           	
  7157                           l2672:	
  7158  1759                     ;Hormiga877.c: 218:             PORTBbits.RB7 = value;
  7159                           	rrf	(digitalWrite@value),w
  7160  1759  0C70               	bcf	status, 5	;RP0=0, select bank0
  7161  175A  1283               	bcf	status, 6	;RP1=0, select bank0
  7162  175B  1303               	skipc
  7163  175C  1C03               	bcf	(6),7	;volatile
  7164  175D  1386               	skipnc
  7165  175E  1803               	bsf	(6),7	;volatile
  7166  175F  1786               	line	219
  7167                           ;Hormiga877.c: 219:             break;
  7168                           	goto	l225
  7169  1760  2FFF               	line	220
  7170                           ;Hormiga877.c: 220:         case 16:
  7171                           	
  7172                           l216:	
  7173  1761                     	line	221
  7174                           	
  7175                           l2674:	
  7176  1761                     ;Hormiga877.c: 221:             PORTDbits.RD0 = value;
  7177                           	rrf	(digitalWrite@value),w
  7178  1761  0C70               	bcf	status, 5	;RP0=0, select bank0
  7179  1762  1283               	bcf	status, 6	;RP1=0, select bank0
  7180  1763  1303               	skipc
  7181  1764  1C03               	bcf	(8),0	;volatile
  7182  1765  1008               	skipnc
  7183  1766  1803               	bsf	(8),0	;volatile
  7184  1767  1408               	line	222
  7185                           ;Hormiga877.c: 222:             break;
  7186                           	goto	l225
  7187  1768  2FFF               	line	223
  7188                           ;Hormiga877.c: 223:         case 17:
  7189                           	
  7190                           l217:	
  7191  1769                     	line	224
  7192                           	
  7193                           l2676:	
  7194  1769                     ;Hormiga877.c: 224:             PORTDbits.RD1 = value;
  7195                           	rrf	(digitalWrite@value),w
  7196  1769  0C70               	bcf	status, 5	;RP0=0, select bank0
  7197  176A  1283               	bcf	status, 6	;RP1=0, select bank0
  7198  176B  1303               	skipc
  7199  176C  1C03               	bcf	(8),1	;volatile
  7200  176D  1088               	skipnc
  7201  176E  1803               	bsf	(8),1	;volatile
  7202  176F  1488               	line	225
  7203                           ;Hormiga877.c: 225:             break;
  7204                           	goto	l225
  7205  1770  2FFF               	line	226
  7206                           ;Hormiga877.c: 226:         case 18:
  7207                           	
  7208                           l218:	
  7209  1771                     	line	227
  7210                           	
  7211                           l2678:	
  7212  1771                     ;Hormiga877.c: 227:             PORTDbits.RD2 = value;
  7213                           	rrf	(digitalWrite@value),w
  7214  1771  0C70               	bcf	status, 5	;RP0=0, select bank0
  7215  1772  1283               	bcf	status, 6	;RP1=0, select bank0
  7216  1773  1303               	skipc
  7217  1774  1C03               	bcf	(8),2	;volatile
  7218  1775  1108               	skipnc
  7219  1776  1803               	bsf	(8),2	;volatile
  7220  1777  1508               	line	228
  7221                           ;Hormiga877.c: 228:             break;
  7222                           	goto	l225
  7223  1778  2FFF               	line	229
  7224                           ;Hormiga877.c: 229:         case 19:
  7225                           	
  7226                           l219:	
  7227  1779                     	line	230
  7228                           	
  7229                           l2680:	
  7230  1779                     ;Hormiga877.c: 230:             PORTDbits.RD3 = value;
  7231                           	rrf	(digitalWrite@value),w
  7232  1779  0C70               	bcf	status, 5	;RP0=0, select bank0
  7233  177A  1283               	bcf	status, 6	;RP1=0, select bank0
  7234  177B  1303               	skipc
  7235  177C  1C03               	bcf	(8),3	;volatile
  7236  177D  1188               	skipnc
  7237  177E  1803               	bsf	(8),3	;volatile
  7238  177F  1588               	line	231
  7239                           ;Hormiga877.c: 231:             break;
  7240                           	goto	l225
  7241  1780  2FFF               	line	232
  7242                           ;Hormiga877.c: 232:         case 20:
  7243                           	
  7244                           l220:	
  7245  1781                     	line	233
  7246                           	
  7247                           l2682:	
  7248  1781                     ;Hormiga877.c: 233:             PORTDbits.RD4 = value;
  7249                           	rrf	(digitalWrite@value),w
  7250  1781  0C70               	bcf	status, 5	;RP0=0, select bank0
  7251  1782  1283               	bcf	status, 6	;RP1=0, select bank0
  7252  1783  1303               	skipc
  7253  1784  1C03               	bcf	(8),4	;volatile
  7254  1785  1208               	skipnc
  7255  1786  1803               	bsf	(8),4	;volatile
  7256  1787  1608               	line	234
  7257                           ;Hormiga877.c: 234:             break;
  7258                           	goto	l225
  7259  1788  2FFF               	line	235
  7260                           ;Hormiga877.c: 235:         case 21:
  7261                           	
  7262                           l221:	
  7263  1789                     	line	236
  7264                           	
  7265                           l2684:	
  7266  1789                     ;Hormiga877.c: 236:             PORTDbits.RD5 = value;
  7267                           	rrf	(digitalWrite@value),w
  7268  1789  0C70               	bcf	status, 5	;RP0=0, select bank0
  7269  178A  1283               	bcf	status, 6	;RP1=0, select bank0
  7270  178B  1303               	skipc
  7271  178C  1C03               	bcf	(8),5	;volatile
  7272  178D  1288               	skipnc
  7273  178E  1803               	bsf	(8),5	;volatile
  7274  178F  1688               	line	237
  7275                           ;Hormiga877.c: 237:             break;
  7276                           	goto	l225
  7277  1790  2FFF               	line	238
  7278                           ;Hormiga877.c: 238:         case 22:
  7279                           	
  7280                           l222:	
  7281  1791                     	line	239
  7282                           	
  7283                           l2686:	
  7284  1791                     ;Hormiga877.c: 239:             PORTDbits.RD6 = value;
  7285                           	rrf	(digitalWrite@value),w
  7286  1791  0C70               	bcf	status, 5	;RP0=0, select bank0
  7287  1792  1283               	bcf	status, 6	;RP1=0, select bank0
  7288  1793  1303               	skipc
  7289  1794  1C03               	bcf	(8),6	;volatile
  7290  1795  1308               	skipnc
  7291  1796  1803               	bsf	(8),6	;volatile
  7292  1797  1708               	line	240
  7293                           ;Hormiga877.c: 240:             break;
  7294                           	goto	l225
  7295  1798  2FFF               	line	241
  7296                           ;Hormiga877.c: 241:         case 23:
  7297                           	
  7298                           l223:	
  7299  1799                     	line	242
  7300                           	
  7301                           l2688:	
  7302  1799                     ;Hormiga877.c: 242:             PORTDbits.RD7 = value;
  7303                           	rrf	(digitalWrite@value),w
  7304  1799  0C70               	bcf	status, 5	;RP0=0, select bank0
  7305  179A  1283               	bcf	status, 6	;RP1=0, select bank0
  7306  179B  1303               	skipc
  7307  179C  1C03               	bcf	(8),7	;volatile
  7308  179D  1388               	skipnc
  7309  179E  1803               	bsf	(8),7	;volatile
  7310  179F  1788               	line	243
  7311                           ;Hormiga877.c: 243:             break;
  7312                           	goto	l225
  7313  17A0  2FFF               	line	244
  7314                           ;Hormiga877.c: 244:         case 24:
  7315                           	
  7316                           l224:	
  7317  17A1                     	line	245
  7318                           	
  7319                           l2690:	
  7320  17A1                     ;Hormiga877.c: 245:             PORTAbits.RA4 = value;
  7321                           	rrf	(digitalWrite@value),w
  7322  17A1  0C70               	bcf	status, 5	;RP0=0, select bank0
  7323  17A2  1283               	bcf	status, 6	;RP1=0, select bank0
  7324  17A3  1303               	skipc
  7325  17A4  1C03               	bcf	(5),4	;volatile
  7326  17A5  1205               	skipnc
  7327  17A6  1803               	bsf	(5),4	;volatile
  7328  17A7  1605               	line	246
  7329                           ;Hormiga877.c: 246:             break;
  7330                           	goto	l225
  7331  17A8  2FFF               	line	255
  7332                           	
  7333                           l2692:	
  7334  17A9                     ;Hormiga877.c: 255:     }
  7335                           	goto	l225
  7336  17A9  2FFF               	
  7337                           l198:	
  7338  17AA                     	
  7339                           l2694:	
  7340  17AA                     	movf	(digitalWrite@pin),w
  7341  17AA  0873               	movwf	(??_digitalWrite+0)+0
  7342  17AB  00F1               	clrf	(??_digitalWrite+0)+0+1
  7343  17AC  01F2               	; Switch on 2 bytes has been partitioned into a top level switch of size 1, and 1 sub-s
                                 witches
  7344                           ; Switch size 1, requested type "space"
  7345                           ; Number of cases is 1, Range of values is 0 to 0
  7346                           ; switch strategies available:
  7347                           ; Name         Instructions Cycles
  7348                           ; simple_byte            4     3 (average)
  7349                           ; direct_byte           11     8 (fixed)
  7350                           ; jumptable            260     6 (fixed)
  7351                           ;	Chosen strategy is simple_byte
  7352                           
  7353                           	movf 1+(??_digitalWrite+0)+0,w
  7354  17AD  0872               	opt asmopt_push
  7355                           	opt asmopt_off
  7356                           	xorlw	0^0	; case 0
  7357  17AE  3A00               	skipnz
  7358  17AF  1903               	goto	l3790
  7359  17B0  2FB2               	goto	l225
  7360  17B1  2FFF               	opt asmopt_pop
  7361                           	
  7362                           l3790:	
  7363  17B2                     ; Switch size 1, requested type "space"
  7364                           ; Number of cases is 25, Range of values is 0 to 24
  7365                           ; switch strategies available:
  7366                           ; Name         Instructions Cycles
  7367                           ; simple_byte           76    39 (average)
  7368                           ; direct_byte           83     8 (fixed)
  7369                           ; jumptable            260     6 (fixed)
  7370                           ;	Chosen strategy is simple_byte
  7371                           
  7372                           	movf 0+(??_digitalWrite+0)+0,w
  7373  17B2  0871               	opt asmopt_push
  7374                           	opt asmopt_off
  7375                           	xorlw	0^0	; case 0
  7376  17B3  3A00               	skipnz
  7377  17B4  1903               	goto	l2638
  7378  17B5  2EDF               	xorlw	1^0	; case 1
  7379  17B6  3A01               	skipnz
  7380  17B7  1903               	goto	l2640
  7381  17B8  2EE7               	xorlw	2^1	; case 2
  7382  17B9  3A03               	skipnz
  7383  17BA  1903               	goto	l2642
  7384  17BB  2EEF               	xorlw	3^2	; case 3
  7385  17BC  3A01               	skipnz
  7386  17BD  1903               	goto	l2644
  7387  17BE  2EF7               	xorlw	4^3	; case 4
  7388  17BF  3A07               	skipnz
  7389  17C0  1903               	goto	l2646
  7390  17C1  2EFF               	xorlw	5^4	; case 5
  7391  17C2  3A01               	skipnz
  7392  17C3  1903               	goto	l2648
  7393  17C4  2F07               	xorlw	6^5	; case 6
  7394  17C5  3A03               	skipnz
  7395  17C6  1903               	goto	l2652
  7396  17C7  2F10               	xorlw	7^6	; case 7
  7397  17C8  3A01               	skipnz
  7398  17C9  1903               	goto	l2656
  7399  17CA  2F19               	xorlw	8^7	; case 8
  7400  17CB  3A0F               	skipnz
  7401  17CC  1903               	goto	l2658
  7402  17CD  2F21               	xorlw	9^8	; case 9
  7403  17CE  3A01               	skipnz
  7404  17CF  1903               	goto	l2660
  7405  17D0  2F29               	xorlw	10^9	; case 10
  7406  17D1  3A03               	skipnz
  7407  17D2  1903               	goto	l2662
  7408  17D3  2F31               	xorlw	11^10	; case 11
  7409  17D4  3A01               	skipnz
  7410  17D5  1903               	goto	l2664
  7411  17D6  2F39               	xorlw	12^11	; case 12
  7412  17D7  3A07               	skipnz
  7413  17D8  1903               	goto	l2666
  7414  17D9  2F41               	xorlw	13^12	; case 13
  7415  17DA  3A01               	skipnz
  7416  17DB  1903               	goto	l2668
  7417  17DC  2F49               	xorlw	14^13	; case 14
  7418  17DD  3A03               	skipnz
  7419  17DE  1903               	goto	l2670
  7420  17DF  2F51               	xorlw	15^14	; case 15
  7421  17E0  3A01               	skipnz
  7422  17E1  1903               	goto	l2672
  7423  17E2  2F59               	xorlw	16^15	; case 16
  7424  17E3  3A1F               	skipnz
  7425  17E4  1903               	goto	l2674
  7426  17E5  2F61               	xorlw	17^16	; case 17
  7427  17E6  3A01               	skipnz
  7428  17E7  1903               	goto	l2676
  7429  17E8  2F69               	xorlw	18^17	; case 18
  7430  17E9  3A03               	skipnz
  7431  17EA  1903               	goto	l2678
  7432  17EB  2F71               	xorlw	19^18	; case 19
  7433  17EC  3A01               	skipnz
  7434  17ED  1903               	goto	l2680
  7435  17EE  2F79               	xorlw	20^19	; case 20
  7436  17EF  3A07               	skipnz
  7437  17F0  1903               	goto	l2682
  7438  17F1  2F81               	xorlw	21^20	; case 21
  7439  17F2  3A01               	skipnz
  7440  17F3  1903               	goto	l2684
  7441  17F4  2F89               	xorlw	22^21	; case 22
  7442  17F5  3A03               	skipnz
  7443  17F6  1903               	goto	l2686
  7444  17F7  2F91               	xorlw	23^22	; case 23
  7445  17F8  3A01               	skipnz
  7446  17F9  1903               	goto	l2688
  7447  17FA  2F99               	xorlw	24^23	; case 24
  7448  17FB  3A0F               	skipnz
  7449  17FC  1903               	goto	l2690
  7450  17FD  2FA1               	goto	l225
  7451  17FE  2FFF               	opt asmopt_pop
  7452                           
  7453                           	
  7454                           l200:	
  7455  17FF                     	line	256
  7456                           	
  7457                           l225:	
  7458  17FF                     	return
  7459  17FF  0008               	opt stack 0
  7460                           GLOBAL	__end_of_digitalWrite
  7461                           	__end_of_digitalWrite:
  7462  1800                     	signat	_digitalWrite,8313
  7463                           	global	_EventCounter
  7464                           
  7465 ;; *************** function _EventCounter *****************
  7466 ;; Defined at:
  7467 ;;		line 64 in file "PIDController.c"
  7468 ;; Parameters:    Size  Location     Type
  7469 ;;		None
  7470 ;; Auto vars:     Size  Location     Type
  7471 ;;		None
  7472 ;; Return value:  Size  Location     Type
  7473 ;;                  2    0[COMMON] unsigned int 
  7474 ;; Registers used:
  7475 ;;		wreg, status,2, status,0
  7476 ;; Tracked objects:
  7477 ;;		On entry : 0/0
  7478 ;;		On exit  : 0/0
  7479 ;;		Unchanged: 0/0
  7480 ;; Data sizes:     COMMON   BANK0   BANK1   BANK3   BANK2
  7481 ;;      Params:         2       0       0       0       0
  7482 ;;      Locals:         0       0       0       0       0
  7483 ;;      Temps:          0       0       0       0       0
  7484 ;;      Totals:         2       0       0       0       0
  7485 ;;Total ram usage:        2 bytes
  7486 ;; Hardware stack levels used:    1
  7487 ;; This function calls:
  7488 ;;		Nothing
  7489 ;; This function is called by:
  7490 ;;		_loop
  7491 ;; This function uses a non-reentrant model
  7492 ;;
  7493                           psect	text19,local,class=CODE,delta=2,merge=1,group=0
  7494                           	file	"PIDController.c"
  7495                           	line	64
  7496                           global __ptext19
  7497                           __ptext19:	;psect for function _EventCounter
  7498  1F8E                     psect	text19
  7499                           	file	"PIDController.c"
  7500                           	line	64
  7501                           	global	__size_of_EventCounter
  7502                           	__size_of_EventCounter	equ	__end_of_EventCounter-_EventCounter
  7503  001C                     	
  7504                           _EventCounter:	
  7505  1F8E                     ;incstack = 0
  7506                           	opt	stack 6
  7507                           ; Regs used in _EventCounter: [wreg+status,2+status,0]
  7508                           	line	66
  7509                           	
  7510                           l3536:	
  7511  1F8E                     ;PIDController.c: 66:     while(!TMR0IF);
  7512                           	goto	l404
  7513  1F8E  2F8F               	
  7514                           l405:	
  7515  1F8F                     	
  7516                           l404:	
  7517  1F8F                     	btfss	(90/8),(90)&7	;volatile
  7518  1F8F  1D0B               	goto	u3501
  7519  1F90  2F92               	goto	u3500
  7520  1F91  2F93               u3501:
  7521  1F92                     	goto	l404
  7522  1F92  2F8F               u3500:
  7523  1F93                     	
  7524                           l406:	
  7525  1F93                     	line	67
  7526                           ;PIDController.c: 67:     TMR0IF = 0;
  7527                           	bcf	(90/8),(90)&7	;volatile
  7528  1F93  110B               	line	68
  7529                           	
  7530                           l3538:	
  7531  1F94                     ;PIDController.c: 68:     TMR0 = 0xFF - PID.SampleT;
  7532                           	bsf	status, 5	;RP0=1, select bank3
  7533  1F94  1683               	bsf	status, 6	;RP1=1, select bank3
  7534  1F95  1703               	decf	0+(_PID)^0180h+010h,w
  7535  1F96  0320               	xorlw	0ffh
  7536  1F97  3AFF               	addlw	0FFh
  7537  1F98  3EFF               	bcf	status, 5	;RP0=0, select bank0
  7538  1F99  1283               	bcf	status, 6	;RP1=0, select bank0
  7539  1F9A  1303               	movwf	(1)	;volatile
  7540  1F9B  0081               	line	69
  7541                           	
  7542                           l3540:	
  7543  1F9C                     ;PIDController.c: 69:     PID.TotalEvents++;
  7544                           	movlw	01h
  7545  1F9C  3001               	bsf	status, 5	;RP0=1, select bank3
  7546  1F9D  1683               	bsf	status, 6	;RP1=1, select bank3
  7547  1F9E  1703               	addwf	0+(_PID)^0180h+011h,f
  7548  1F9F  07A1               	skipnc
  7549  1FA0  1803               	incf	1+(_PID)^0180h+011h,f
  7550  1FA1  0AA2               	movlw	0
  7551  1FA2  3000               	addwf	1+(_PID)^0180h+011h,f
  7552  1FA3  07A2               	line	70
  7553                           	
  7554                           l3542:	
  7555  1FA4                     ;PIDController.c: 70:     return PID.TotalEvents;
  7556                           	movf	1+(_PID)^0180h+011h,w
  7557  1FA4  0822               	movwf	(?_EventCounter+1)
  7558  1FA5  00F1               	movf	0+(_PID)^0180h+011h,w
  7559  1FA6  0821               	movwf	(?_EventCounter)
  7560  1FA7  00F0               	goto	l407
  7561  1FA8  2FA9               	
  7562                           l3544:	
  7563  1FA9                     	line	71
  7564                           	
  7565                           l407:	
  7566  1FA9                     	return
  7567  1FA9  0008               	opt stack 0
  7568                           GLOBAL	__end_of_EventCounter
  7569                           	__end_of_EventCounter:
  7570  1FAA                     	signat	_EventCounter,90
  7571                           	global	_AccionControl
  7572                           
  7573 ;; *************** function _AccionControl *****************
  7574 ;; Defined at:
  7575 ;;		line 53 in file "PIDController.c"
  7576 ;; Parameters:    Size  Location     Type
  7577 ;;  SetPoint        4    0[BANK1 ] unsigned int 
  7578 ;;  Feedback        4    4[BANK1 ] unsigned int 
  7579 ;; Auto vars:     Size  Location     Type
  7580 ;;		None
  7581 ;; Return value:  Size  Location     Type
  7582 ;;                  4    0[BANK1 ] unsigned int 
  7583 ;; Registers used:
  7584 ;;		wreg, fsr0l, fsr0h, status,2, status,0, btemp+1, pclath, cstack
  7585 ;; Tracked objects:
  7586 ;;		On entry : 0/0
  7587 ;;		On exit  : 0/0
  7588 ;;		Unchanged: 0/0
  7589 ;; Data sizes:     COMMON   BANK0   BANK1   BANK3   BANK2
  7590 ;;      Params:         0       0       8       0       0
  7591 ;;      Locals:         0       0       4       0       0
  7592 ;;      Temps:          0       0       0       0       0
  7593 ;;      Totals:         0       0      12       0       0
  7594 ;;Total ram usage:       12 bytes
  7595 ;; Hardware stack levels used:    1
  7596 ;; Hardware stack levels required when called:    2
  7597 ;; This function calls:
  7598 ;;		___fladd
  7599 ;;		___fldiv
  7600 ;;		___flmul
  7601 ;;		___flneg
  7602 ;; This function is called by:
  7603 ;;		_loop
  7604 ;; This function uses a non-reentrant model
  7605 ;;
  7606                           psect	text20,local,class=CODE,delta=2,merge=1,group=0
  7607                           	line	53
  7608                           global __ptext20
  7609                           __ptext20:	;psect for function _AccionControl
  7610  0B04                     psect	text20
  7611                           	file	"PIDController.c"
  7612                           	line	53
  7613                           	global	__size_of_AccionControl
  7614                           	__size_of_AccionControl	equ	__end_of_AccionControl-_AccionControl
  7615  024E                     	
  7616                           _AccionControl:	
  7617  0B04                     ;incstack = 0
  7618                           	opt	stack 4
  7619                           ; Regs used in _AccionControl: [wreg-fsr0h+status,2+status,0+btemp+1+pclath+cstack]
  7620                           	line	55
  7621                           	
  7622                           l3602:	
  7623  0B04                     ;PIDController.c: 53: double AccionControl(double SetPoint, double Feedback);PIDControll
                                 er.c: 54: {;PIDController.c: 55:     PID.Error = SetPoint - Feedback;
  7624                           	bsf	status, 5	;RP0=1, select bank1
  7625  0B04  1683               	bcf	status, 6	;RP1=0, select bank1
  7626  0B05  1303               	movf	(AccionControl@SetPoint+3)^080h,w
  7627  0B06  0823               	bcf	status, 5	;RP0=0, select bank0
  7628  0B07  1283               	bcf	status, 6	;RP1=0, select bank0
  7629  0B08  1303               	movwf	(___fladd@b+3)
  7630  0B09  00C1               	bsf	status, 5	;RP0=1, select bank1
  7631  0B0A  1683               	bcf	status, 6	;RP1=0, select bank1
  7632  0B0B  1303               	movf	(AccionControl@SetPoint+2)^080h,w
  7633  0B0C  0822               	bcf	status, 5	;RP0=0, select bank0
  7634  0B0D  1283               	bcf	status, 6	;RP1=0, select bank0
  7635  0B0E  1303               	movwf	(___fladd@b+2)
  7636  0B0F  00C0               	bsf	status, 5	;RP0=1, select bank1
  7637  0B10  1683               	bcf	status, 6	;RP1=0, select bank1
  7638  0B11  1303               	movf	(AccionControl@SetPoint+1)^080h,w
  7639  0B12  0821               	bcf	status, 5	;RP0=0, select bank0
  7640  0B13  1283               	bcf	status, 6	;RP1=0, select bank0
  7641  0B14  1303               	movwf	(___fladd@b+1)
  7642  0B15  00BF               	bsf	status, 5	;RP0=1, select bank1
  7643  0B16  1683               	bcf	status, 6	;RP1=0, select bank1
  7644  0B17  1303               	movf	(AccionControl@SetPoint)^080h,w
  7645  0B18  0820               	bcf	status, 5	;RP0=0, select bank0
  7646  0B19  1283               	bcf	status, 6	;RP1=0, select bank0
  7647  0B1A  1303               	movwf	(___fladd@b)
  7648  0B1B  00BE               
  7649                           	bsf	status, 5	;RP0=1, select bank1
  7650  0B1C  1683               	bcf	status, 6	;RP1=0, select bank1
  7651  0B1D  1303               	movf	(AccionControl@Feedback+3)^080h,w
  7652  0B1E  0827               	bcf	status, 5	;RP0=0, select bank0
  7653  0B1F  1283               	bcf	status, 6	;RP1=0, select bank0
  7654  0B20  1303               	movwf	(___flneg@f1+3)
  7655  0B21  00BD               	bsf	status, 5	;RP0=1, select bank1
  7656  0B22  1683               	bcf	status, 6	;RP1=0, select bank1
  7657  0B23  1303               	movf	(AccionControl@Feedback+2)^080h,w
  7658  0B24  0826               	bcf	status, 5	;RP0=0, select bank0
  7659  0B25  1283               	bcf	status, 6	;RP1=0, select bank0
  7660  0B26  1303               	movwf	(___flneg@f1+2)
  7661  0B27  00BC               	bsf	status, 5	;RP0=1, select bank1
  7662  0B28  1683               	bcf	status, 6	;RP1=0, select bank1
  7663  0B29  1303               	movf	(AccionControl@Feedback+1)^080h,w
  7664  0B2A  0825               	bcf	status, 5	;RP0=0, select bank0
  7665  0B2B  1283               	bcf	status, 6	;RP1=0, select bank0
  7666  0B2C  1303               	movwf	(___flneg@f1+1)
  7667  0B2D  00BB               	bsf	status, 5	;RP0=1, select bank1
  7668  0B2E  1683               	bcf	status, 6	;RP1=0, select bank1
  7669  0B2F  1303               	movf	(AccionControl@Feedback)^080h,w
  7670  0B30  0824               	bcf	status, 5	;RP0=0, select bank0
  7671  0B31  1283               	bcf	status, 6	;RP1=0, select bank0
  7672  0B32  1303               	movwf	(___flneg@f1)
  7673  0B33  00BA               
  7674                           	fcall	___flneg
  7675  0B34  160A  158A  276E  120A  158A  	bcf	status, 5	;RP0=0, select bank0
  7676  0B39  1283               	bcf	status, 6	;RP1=0, select bank0
  7677  0B3A  1303               	movf	(3+(?___flneg)),w
  7678  0B3B  083D               	movwf	(___fladd@a+3)
  7679  0B3C  00C5               	movf	(2+(?___flneg)),w
  7680  0B3D  083C               	movwf	(___fladd@a+2)
  7681  0B3E  00C4               	movf	(1+(?___flneg)),w
  7682  0B3F  083B               	movwf	(___fladd@a+1)
  7683  0B40  00C3               	movf	(0+(?___flneg)),w
  7684  0B41  083A               	movwf	(___fladd@a)
  7685  0B42  00C2               
  7686                           	fcall	___fladd
  7687  0B43  120A  118A  21B9  120A  158A  	bcf	status, 5	;RP0=0, select bank0
  7688  0B48  1283               	bcf	status, 6	;RP1=0, select bank0
  7689  0B49  1303               	movf	(3+(?___fladd)),w
  7690  0B4A  0841               	bsf	status, 5	;RP0=1, select bank3
  7691  0B4B  1683               	bsf	status, 6	;RP1=1, select bank3
  7692  0B4C  1703               	movwf	3+(_PID)^0180h+013h
  7693  0B4D  00A6               	bcf	status, 5	;RP0=0, select bank0
  7694  0B4E  1283               	bcf	status, 6	;RP1=0, select bank0
  7695  0B4F  1303               	movf	(2+(?___fladd)),w
  7696  0B50  0840               	bsf	status, 5	;RP0=1, select bank3
  7697  0B51  1683               	bsf	status, 6	;RP1=1, select bank3
  7698  0B52  1703               	movwf	2+(_PID)^0180h+013h
  7699  0B53  00A5               	bcf	status, 5	;RP0=0, select bank0
  7700  0B54  1283               	bcf	status, 6	;RP1=0, select bank0
  7701  0B55  1303               	movf	(1+(?___fladd)),w
  7702  0B56  083F               	bsf	status, 5	;RP0=1, select bank3
  7703  0B57  1683               	bsf	status, 6	;RP1=1, select bank3
  7704  0B58  1703               	movwf	1+(_PID)^0180h+013h
  7705  0B59  00A4               	bcf	status, 5	;RP0=0, select bank0
  7706  0B5A  1283               	bcf	status, 6	;RP1=0, select bank0
  7707  0B5B  1303               	movf	(0+(?___fladd)),w
  7708  0B5C  083E               	bsf	status, 5	;RP0=1, select bank3
  7709  0B5D  1683               	bsf	status, 6	;RP1=1, select bank3
  7710  0B5E  1703               	movwf	0+(_PID)^0180h+013h
  7711  0B5F  00A3               
  7712                           	line	56
  7713                           	
  7714                           l3604:	
  7715  0B60                     ;PIDController.c: 56:     PID.ErrorAcum += (PID.Error * PID.dtC) ;
  7716                           	movlw	low(013h)
  7717  0B60  3013               	addlw	low(_PID|((0x1)<<8))&0ffh
  7718  0B61  3E90               	movwf	fsr0
  7719  0B62  0084               	bsf	status, 7	;select IRP bank3
  7720  0B63  1783               	movf	indf,w
  7721  0B64  0800               	bcf	status, 5	;RP0=0, select bank0
  7722  0B65  1283               	bcf	status, 6	;RP1=0, select bank0
  7723  0B66  1303               	movwf	(___flmul@a)
  7724  0B67  00A4               	incf	fsr0,f
  7725  0B68  0A84               	movf	indf,w
  7726  0B69  0800               	movwf	(___flmul@a+1)
  7727  0B6A  00A5               	incf	fsr0,f
  7728  0B6B  0A84               	movf	indf,w
  7729  0B6C  0800               	movwf	(___flmul@a+2)
  7730  0B6D  00A6               	incf	fsr0,f
  7731  0B6E  0A84               	movf	indf,w
  7732  0B6F  0800               	movwf	(___flmul@a+3)
  7733  0B70  00A7               	movlw	low(0Ch)
  7734  0B71  300C               	addlw	low(_PID|((0x1)<<8))&0ffh
  7735  0B72  3E90               	movwf	fsr0
  7736  0B73  0084               	movf	indf,w
  7737  0B74  0800               	movwf	(___flmul@b)
  7738  0B75  00A0               	incf	fsr0,f
  7739  0B76  0A84               	movf	indf,w
  7740  0B77  0800               	movwf	(___flmul@b+1)
  7741  0B78  00A1               	incf	fsr0,f
  7742  0B79  0A84               	movf	indf,w
  7743  0B7A  0800               	movwf	(___flmul@b+2)
  7744  0B7B  00A2               	incf	fsr0,f
  7745  0B7C  0A84               	movf	indf,w
  7746  0B7D  0800               	movwf	(___flmul@b+3)
  7747  0B7E  00A3               	fcall	___flmul
  7748  0B7F  120A  118A  2475  120A  158A  	bcf	status, 5	;RP0=0, select bank0
  7749  0B84  1283               	bcf	status, 6	;RP1=0, select bank0
  7750  0B85  1303               	movf	(3+(?___flmul)),w
  7751  0B86  0823               	movwf	(___fladd@b+3)
  7752  0B87  00C1               	movf	(2+(?___flmul)),w
  7753  0B88  0822               	movwf	(___fladd@b+2)
  7754  0B89  00C0               	movf	(1+(?___flmul)),w
  7755  0B8A  0821               	movwf	(___fladd@b+1)
  7756  0B8B  00BF               	movf	(0+(?___flmul)),w
  7757  0B8C  0820               	movwf	(___fladd@b)
  7758  0B8D  00BE               
  7759                           	movlw	low(01Bh)
  7760  0B8E  301B               	addlw	low(_PID|((0x1)<<8))&0ffh
  7761  0B8F  3E90               	movwf	fsr0
  7762  0B90  0084               	bsf	status, 7	;select IRP bank3
  7763  0B91  1783               	movf	indf,w
  7764  0B92  0800               	movwf	(___fladd@a)
  7765  0B93  00C2               	incf	fsr0,f
  7766  0B94  0A84               	movf	indf,w
  7767  0B95  0800               	movwf	(___fladd@a+1)
  7768  0B96  00C3               	incf	fsr0,f
  7769  0B97  0A84               	movf	indf,w
  7770  0B98  0800               	movwf	(___fladd@a+2)
  7771  0B99  00C4               	incf	fsr0,f
  7772  0B9A  0A84               	movf	indf,w
  7773  0B9B  0800               	movwf	(___fladd@a+3)
  7774  0B9C  00C5               	fcall	___fladd
  7775  0B9D  120A  118A  21B9  120A  158A  	bcf	status, 5	;RP0=0, select bank0
  7776  0BA2  1283               	bcf	status, 6	;RP1=0, select bank0
  7777  0BA3  1303               	movf	(3+(?___fladd)),w
  7778  0BA4  0841               	bsf	status, 5	;RP0=1, select bank3
  7779  0BA5  1683               	bsf	status, 6	;RP1=1, select bank3
  7780  0BA6  1703               	movwf	3+(_PID)^0180h+01Bh
  7781  0BA7  00AE               	bcf	status, 5	;RP0=0, select bank0
  7782  0BA8  1283               	bcf	status, 6	;RP1=0, select bank0
  7783  0BA9  1303               	movf	(2+(?___fladd)),w
  7784  0BAA  0840               	bsf	status, 5	;RP0=1, select bank3
  7785  0BAB  1683               	bsf	status, 6	;RP1=1, select bank3
  7786  0BAC  1703               	movwf	2+(_PID)^0180h+01Bh
  7787  0BAD  00AD               	bcf	status, 5	;RP0=0, select bank0
  7788  0BAE  1283               	bcf	status, 6	;RP1=0, select bank0
  7789  0BAF  1303               	movf	(1+(?___fladd)),w
  7790  0BB0  083F               	bsf	status, 5	;RP0=1, select bank3
  7791  0BB1  1683               	bsf	status, 6	;RP1=1, select bank3
  7792  0BB2  1703               	movwf	1+(_PID)^0180h+01Bh
  7793  0BB3  00AC               	bcf	status, 5	;RP0=0, select bank0
  7794  0BB4  1283               	bcf	status, 6	;RP1=0, select bank0
  7795  0BB5  1303               	movf	(0+(?___fladd)),w
  7796  0BB6  083E               	bsf	status, 5	;RP0=1, select bank3
  7797  0BB7  1683               	bsf	status, 6	;RP1=1, select bank3
  7798  0BB8  1703               	movwf	0+(_PID)^0180h+01Bh
  7799  0BB9  00AB               
  7800                           	line	57
  7801                           	
  7802                           l3606:	
  7803  0BBA                     ;PIDController.c: 57:     PID.P = PID.Kp * PID.Error;
  7804                           	movf	(_PID+3)^0180h,w
  7805  0BBA  0813               	bcf	status, 5	;RP0=0, select bank0
  7806  0BBB  1283               	bcf	status, 6	;RP1=0, select bank0
  7807  0BBC  1303               	movwf	(___flmul@b+3)
  7808  0BBD  00A3               	bsf	status, 5	;RP0=1, select bank3
  7809  0BBE  1683               	bsf	status, 6	;RP1=1, select bank3
  7810  0BBF  1703               	movf	(_PID+2)^0180h,w
  7811  0BC0  0812               	bcf	status, 5	;RP0=0, select bank0
  7812  0BC1  1283               	bcf	status, 6	;RP1=0, select bank0
  7813  0BC2  1303               	movwf	(___flmul@b+2)
  7814  0BC3  00A2               	bsf	status, 5	;RP0=1, select bank3
  7815  0BC4  1683               	bsf	status, 6	;RP1=1, select bank3
  7816  0BC5  1703               	movf	(_PID+1)^0180h,w
  7817  0BC6  0811               	bcf	status, 5	;RP0=0, select bank0
  7818  0BC7  1283               	bcf	status, 6	;RP1=0, select bank0
  7819  0BC8  1303               	movwf	(___flmul@b+1)
  7820  0BC9  00A1               	bsf	status, 5	;RP0=1, select bank3
  7821  0BCA  1683               	bsf	status, 6	;RP1=1, select bank3
  7822  0BCB  1703               	movf	(_PID)^0180h,w
  7823  0BCC  0810               	bcf	status, 5	;RP0=0, select bank0
  7824  0BCD  1283               	bcf	status, 6	;RP1=0, select bank0
  7825  0BCE  1303               	movwf	(___flmul@b)
  7826  0BCF  00A0               
  7827                           	movlw	low(013h)
  7828  0BD0  3013               	addlw	low(_PID|((0x1)<<8))&0ffh
  7829  0BD1  3E90               	movwf	fsr0
  7830  0BD2  0084               	bsf	status, 7	;select IRP bank3
  7831  0BD3  1783               	movf	indf,w
  7832  0BD4  0800               	movwf	(___flmul@a)
  7833  0BD5  00A4               	incf	fsr0,f
  7834  0BD6  0A84               	movf	indf,w
  7835  0BD7  0800               	movwf	(___flmul@a+1)
  7836  0BD8  00A5               	incf	fsr0,f
  7837  0BD9  0A84               	movf	indf,w
  7838  0BDA  0800               	movwf	(___flmul@a+2)
  7839  0BDB  00A6               	incf	fsr0,f
  7840  0BDC  0A84               	movf	indf,w
  7841  0BDD  0800               	movwf	(___flmul@a+3)
  7842  0BDE  00A7               	fcall	___flmul
  7843  0BDF  120A  118A  2475  120A  158A  	bcf	status, 5	;RP0=0, select bank0
  7844  0BE4  1283               	bcf	status, 6	;RP1=0, select bank0
  7845  0BE5  1303               	movf	(3+(?___flmul)),w
  7846  0BE6  0823               	bsf	status, 5	;RP0=1, select bank3
  7847  0BE7  1683               	bsf	status, 6	;RP1=1, select bank3
  7848  0BE8  1703               	movwf	3+(_PID)^0180h+027h
  7849  0BE9  00BA               	bcf	status, 5	;RP0=0, select bank0
  7850  0BEA  1283               	bcf	status, 6	;RP1=0, select bank0
  7851  0BEB  1303               	movf	(2+(?___flmul)),w
  7852  0BEC  0822               	bsf	status, 5	;RP0=1, select bank3
  7853  0BED  1683               	bsf	status, 6	;RP1=1, select bank3
  7854  0BEE  1703               	movwf	2+(_PID)^0180h+027h
  7855  0BEF  00B9               	bcf	status, 5	;RP0=0, select bank0
  7856  0BF0  1283               	bcf	status, 6	;RP1=0, select bank0
  7857  0BF1  1303               	movf	(1+(?___flmul)),w
  7858  0BF2  0821               	bsf	status, 5	;RP0=1, select bank3
  7859  0BF3  1683               	bsf	status, 6	;RP1=1, select bank3
  7860  0BF4  1703               	movwf	1+(_PID)^0180h+027h
  7861  0BF5  00B8               	bcf	status, 5	;RP0=0, select bank0
  7862  0BF6  1283               	bcf	status, 6	;RP1=0, select bank0
  7863  0BF7  1303               	movf	(0+(?___flmul)),w
  7864  0BF8  0820               	bsf	status, 5	;RP0=1, select bank3
  7865  0BF9  1683               	bsf	status, 6	;RP1=1, select bank3
  7866  0BFA  1703               	movwf	0+(_PID)^0180h+027h
  7867  0BFB  00B7               
  7868                           	line	58
  7869                           	
  7870                           l3608:	
  7871  0BFC                     ;PIDController.c: 58:     PID.I = PID.Ki * PID.ErrorAcum;
  7872                           	movlw	low(01Bh)
  7873  0BFC  301B               	addlw	low(_PID|((0x1)<<8))&0ffh
  7874  0BFD  3E90               	movwf	fsr0
  7875  0BFE  0084               	bsf	status, 7	;select IRP bank3
  7876  0BFF  1783               	movf	indf,w
  7877  0C00  0800               	bcf	status, 5	;RP0=0, select bank0
  7878  0C01  1283               	bcf	status, 6	;RP1=0, select bank0
  7879  0C02  1303               	movwf	(___flmul@b)
  7880  0C03  00A0               	incf	fsr0,f
  7881  0C04  0A84               	movf	indf,w
  7882  0C05  0800               	movwf	(___flmul@b+1)
  7883  0C06  00A1               	incf	fsr0,f
  7884  0C07  0A84               	movf	indf,w
  7885  0C08  0800               	movwf	(___flmul@b+2)
  7886  0C09  00A2               	incf	fsr0,f
  7887  0C0A  0A84               	movf	indf,w
  7888  0C0B  0800               	movwf	(___flmul@b+3)
  7889  0C0C  00A3               	movlw	low(04h)
  7890  0C0D  3004               	addlw	low(_PID|((0x1)<<8))&0ffh
  7891  0C0E  3E90               	movwf	fsr0
  7892  0C0F  0084               	movf	indf,w
  7893  0C10  0800               	movwf	(___flmul@a)
  7894  0C11  00A4               	incf	fsr0,f
  7895  0C12  0A84               	movf	indf,w
  7896  0C13  0800               	movwf	(___flmul@a+1)
  7897  0C14  00A5               	incf	fsr0,f
  7898  0C15  0A84               	movf	indf,w
  7899  0C16  0800               	movwf	(___flmul@a+2)
  7900  0C17  00A6               	incf	fsr0,f
  7901  0C18  0A84               	movf	indf,w
  7902  0C19  0800               	movwf	(___flmul@a+3)
  7903  0C1A  00A7               	fcall	___flmul
  7904  0C1B  120A  118A  2475  120A  158A  	bcf	status, 5	;RP0=0, select bank0
  7905  0C20  1283               	bcf	status, 6	;RP1=0, select bank0
  7906  0C21  1303               	movf	(3+(?___flmul)),w
  7907  0C22  0823               	bsf	status, 5	;RP0=1, select bank3
  7908  0C23  1683               	bsf	status, 6	;RP1=1, select bank3
  7909  0C24  1703               	movwf	3+(_PID)^0180h+023h
  7910  0C25  00B6               	bcf	status, 5	;RP0=0, select bank0
  7911  0C26  1283               	bcf	status, 6	;RP1=0, select bank0
  7912  0C27  1303               	movf	(2+(?___flmul)),w
  7913  0C28  0822               	bsf	status, 5	;RP0=1, select bank3
  7914  0C29  1683               	bsf	status, 6	;RP1=1, select bank3
  7915  0C2A  1703               	movwf	2+(_PID)^0180h+023h
  7916  0C2B  00B5               	bcf	status, 5	;RP0=0, select bank0
  7917  0C2C  1283               	bcf	status, 6	;RP1=0, select bank0
  7918  0C2D  1303               	movf	(1+(?___flmul)),w
  7919  0C2E  0821               	bsf	status, 5	;RP0=1, select bank3
  7920  0C2F  1683               	bsf	status, 6	;RP1=1, select bank3
  7921  0C30  1703               	movwf	1+(_PID)^0180h+023h
  7922  0C31  00B4               	bcf	status, 5	;RP0=0, select bank0
  7923  0C32  1283               	bcf	status, 6	;RP1=0, select bank0
  7924  0C33  1303               	movf	(0+(?___flmul)),w
  7925  0C34  0820               	bsf	status, 5	;RP0=1, select bank3
  7926  0C35  1683               	bsf	status, 6	;RP1=1, select bank3
  7927  0C36  1703               	movwf	0+(_PID)^0180h+023h
  7928  0C37  00B3               
  7929                           	line	59
  7930                           	
  7931                           l3610:	
  7932  0C38                     ;PIDController.c: 59:     PID.D = PID.Kd * ((PID.Error - PID.LastError) / PID.dtC);
  7933                           	movlw	low(08h)
  7934  0C38  3008               	addlw	low(_PID|((0x1)<<8))&0ffh
  7935  0C39  3E90               	movwf	fsr0
  7936  0C3A  0084               	bsf	status, 7	;select IRP bank3
  7937  0C3B  1783               	movf	indf,w
  7938  0C3C  0800               	bcf	status, 5	;RP0=0, select bank0
  7939  0C3D  1283               	bcf	status, 6	;RP1=0, select bank0
  7940  0C3E  1303               	movwf	(___flmul@b)
  7941  0C3F  00A0               	incf	fsr0,f
  7942  0C40  0A84               	movf	indf,w
  7943  0C41  0800               	movwf	(___flmul@b+1)
  7944  0C42  00A1               	incf	fsr0,f
  7945  0C43  0A84               	movf	indf,w
  7946  0C44  0800               	movwf	(___flmul@b+2)
  7947  0C45  00A2               	incf	fsr0,f
  7948  0C46  0A84               	movf	indf,w
  7949  0C47  0800               	movwf	(___flmul@b+3)
  7950  0C48  00A3               	movlw	low(0Ch)
  7951  0C49  300C               	addlw	low(_PID|((0x1)<<8))&0ffh
  7952  0C4A  3E90               	movwf	fsr0
  7953  0C4B  0084               	movf	indf,w
  7954  0C4C  0800               	movwf	(___fldiv@a)
  7955  0C4D  00D6               	incf	fsr0,f
  7956  0C4E  0A84               	movf	indf,w
  7957  0C4F  0800               	movwf	(___fldiv@a+1)
  7958  0C50  00D7               	incf	fsr0,f
  7959  0C51  0A84               	movf	indf,w
  7960  0C52  0800               	movwf	(___fldiv@a+2)
  7961  0C53  00D8               	incf	fsr0,f
  7962  0C54  0A84               	movf	indf,w
  7963  0C55  0800               	movwf	(___fldiv@a+3)
  7964  0C56  00D9               	movlw	low(013h)
  7965  0C57  3013               	addlw	low(_PID|((0x1)<<8))&0ffh
  7966  0C58  3E90               	movwf	fsr0
  7967  0C59  0084               	movf	indf,w
  7968  0C5A  0800               	movwf	(___fladd@b)
  7969  0C5B  00BE               	incf	fsr0,f
  7970  0C5C  0A84               	movf	indf,w
  7971  0C5D  0800               	movwf	(___fladd@b+1)
  7972  0C5E  00BF               	incf	fsr0,f
  7973  0C5F  0A84               	movf	indf,w
  7974  0C60  0800               	movwf	(___fladd@b+2)
  7975  0C61  00C0               	incf	fsr0,f
  7976  0C62  0A84               	movf	indf,w
  7977  0C63  0800               	movwf	(___fladd@b+3)
  7978  0C64  00C1               	movlw	low(017h)
  7979  0C65  3017               	addlw	low(_PID|((0x1)<<8))&0ffh
  7980  0C66  3E90               	movwf	fsr0
  7981  0C67  0084               	movf	indf,w
  7982  0C68  0800               	movwf	(___flneg@f1)
  7983  0C69  00BA               	incf	fsr0,f
  7984  0C6A  0A84               	movf	indf,w
  7985  0C6B  0800               	movwf	(___flneg@f1+1)
  7986  0C6C  00BB               	incf	fsr0,f
  7987  0C6D  0A84               	movf	indf,w
  7988  0C6E  0800               	movwf	(___flneg@f1+2)
  7989  0C6F  00BC               	incf	fsr0,f
  7990  0C70  0A84               	movf	indf,w
  7991  0C71  0800               	movwf	(___flneg@f1+3)
  7992  0C72  00BD               	fcall	___flneg
  7993  0C73  160A  158A  276E  120A  158A  	bcf	status, 5	;RP0=0, select bank0
  7994  0C78  1283               	bcf	status, 6	;RP1=0, select bank0
  7995  0C79  1303               	movf	(3+(?___flneg)),w
  7996  0C7A  083D               	movwf	(___fladd@a+3)
  7997  0C7B  00C5               	movf	(2+(?___flneg)),w
  7998  0C7C  083C               	movwf	(___fladd@a+2)
  7999  0C7D  00C4               	movf	(1+(?___flneg)),w
  8000  0C7E  083B               	movwf	(___fladd@a+1)
  8001  0C7F  00C3               	movf	(0+(?___flneg)),w
  8002  0C80  083A               	movwf	(___fladd@a)
  8003  0C81  00C2               
  8004                           	fcall	___fladd
  8005  0C82  120A  118A  21B9  120A  158A  	bcf	status, 5	;RP0=0, select bank0
  8006  0C87  1283               	bcf	status, 6	;RP1=0, select bank0
  8007  0C88  1303               	movf	(3+(?___fladd)),w
  8008  0C89  0841               	movwf	(___fldiv@b+3)
  8009  0C8A  00DD               	movf	(2+(?___fladd)),w
  8010  0C8B  0840               	movwf	(___fldiv@b+2)
  8011  0C8C  00DC               	movf	(1+(?___fladd)),w
  8012  0C8D  083F               	movwf	(___fldiv@b+1)
  8013  0C8E  00DB               	movf	(0+(?___fladd)),w
  8014  0C8F  083E               	movwf	(___fldiv@b)
  8015  0C90  00DA               
  8016                           	fcall	___fldiv
  8017  0C91  120A  158A  20FB  120A  158A  	bcf	status, 5	;RP0=0, select bank0
  8018  0C96  1283               	bcf	status, 6	;RP1=0, select bank0
  8019  0C97  1303               	movf	(3+(?___fldiv)),w
  8020  0C98  0859               	movwf	(___flmul@a+3)
  8021  0C99  00A7               	movf	(2+(?___fldiv)),w
  8022  0C9A  0858               	movwf	(___flmul@a+2)
  8023  0C9B  00A6               	movf	(1+(?___fldiv)),w
  8024  0C9C  0857               	movwf	(___flmul@a+1)
  8025  0C9D  00A5               	movf	(0+(?___fldiv)),w
  8026  0C9E  0856               	movwf	(___flmul@a)
  8027  0C9F  00A4               
  8028                           	fcall	___flmul
  8029  0CA0  120A  118A  2475  120A  158A  	bcf	status, 5	;RP0=0, select bank0
  8030  0CA5  1283               	bcf	status, 6	;RP1=0, select bank0
  8031  0CA6  1303               	movf	(3+(?___flmul)),w
  8032  0CA7  0823               	bsf	status, 5	;RP0=1, select bank3
  8033  0CA8  1683               	bsf	status, 6	;RP1=1, select bank3
  8034  0CA9  1703               	movwf	3+(_PID)^0180h+02Bh
  8035  0CAA  00BE               	bcf	status, 5	;RP0=0, select bank0
  8036  0CAB  1283               	bcf	status, 6	;RP1=0, select bank0
  8037  0CAC  1303               	movf	(2+(?___flmul)),w
  8038  0CAD  0822               	bsf	status, 5	;RP0=1, select bank3
  8039  0CAE  1683               	bsf	status, 6	;RP1=1, select bank3
  8040  0CAF  1703               	movwf	2+(_PID)^0180h+02Bh
  8041  0CB0  00BD               	bcf	status, 5	;RP0=0, select bank0
  8042  0CB1  1283               	bcf	status, 6	;RP1=0, select bank0
  8043  0CB2  1303               	movf	(1+(?___flmul)),w
  8044  0CB3  0821               	bsf	status, 5	;RP0=1, select bank3
  8045  0CB4  1683               	bsf	status, 6	;RP1=1, select bank3
  8046  0CB5  1703               	movwf	1+(_PID)^0180h+02Bh
  8047  0CB6  00BC               	bcf	status, 5	;RP0=0, select bank0
  8048  0CB7  1283               	bcf	status, 6	;RP1=0, select bank0
  8049  0CB8  1303               	movf	(0+(?___flmul)),w
  8050  0CB9  0820               	bsf	status, 5	;RP0=1, select bank3
  8051  0CBA  1683               	bsf	status, 6	;RP1=1, select bank3
  8052  0CBB  1703               	movwf	0+(_PID)^0180h+02Bh
  8053  0CBC  00BB               
  8054                           	line	60
  8055                           	
  8056                           l3612:	
  8057  0CBD                     ;PIDController.c: 60:     PID.AccionControl = PID.P + PID.I + PID.D;
  8058                           	movlw	low(023h)
  8059  0CBD  3023               	addlw	low(_PID|((0x1)<<8))&0ffh
  8060  0CBE  3E90               	movwf	fsr0
  8061  0CBF  0084               	bsf	status, 7	;select IRP bank3
  8062  0CC0  1783               	movf	indf,w
  8063  0CC1  0800               	bcf	status, 5	;RP0=0, select bank0
  8064  0CC2  1283               	bcf	status, 6	;RP1=0, select bank0
  8065  0CC3  1303               	movwf	(___fladd@b)
  8066  0CC4  00BE               	incf	fsr0,f
  8067  0CC5  0A84               	movf	indf,w
  8068  0CC6  0800               	movwf	(___fladd@b+1)
  8069  0CC7  00BF               	incf	fsr0,f
  8070  0CC8  0A84               	movf	indf,w
  8071  0CC9  0800               	movwf	(___fladd@b+2)
  8072  0CCA  00C0               	incf	fsr0,f
  8073  0CCB  0A84               	movf	indf,w
  8074  0CCC  0800               	movwf	(___fladd@b+3)
  8075  0CCD  00C1               	movlw	low(027h)
  8076  0CCE  3027               	addlw	low(_PID|((0x1)<<8))&0ffh
  8077  0CCF  3E90               	movwf	fsr0
  8078  0CD0  0084               	movf	indf,w
  8079  0CD1  0800               	movwf	(___fladd@a)
  8080  0CD2  00C2               	incf	fsr0,f
  8081  0CD3  0A84               	movf	indf,w
  8082  0CD4  0800               	movwf	(___fladd@a+1)
  8083  0CD5  00C3               	incf	fsr0,f
  8084  0CD6  0A84               	movf	indf,w
  8085  0CD7  0800               	movwf	(___fladd@a+2)
  8086  0CD8  00C4               	incf	fsr0,f
  8087  0CD9  0A84               	movf	indf,w
  8088  0CDA  0800               	movwf	(___fladd@a+3)
  8089  0CDB  00C5               	fcall	___fladd
  8090  0CDC  120A  118A  21B9  120A  158A  	bcf	status, 5	;RP0=0, select bank0
  8091  0CE1  1283               	bcf	status, 6	;RP1=0, select bank0
  8092  0CE2  1303               	movf	(3+(?___fladd)),w
  8093  0CE3  0841               	bsf	status, 5	;RP0=1, select bank1
  8094  0CE4  1683               	bcf	status, 6	;RP1=0, select bank1
  8095  0CE5  1303               	movwf	(_AccionControl$1285+3)^080h
  8096  0CE6  00AB               	bcf	status, 5	;RP0=0, select bank0
  8097  0CE7  1283               	bcf	status, 6	;RP1=0, select bank0
  8098  0CE8  1303               	movf	(2+(?___fladd)),w
  8099  0CE9  0840               	bsf	status, 5	;RP0=1, select bank1
  8100  0CEA  1683               	bcf	status, 6	;RP1=0, select bank1
  8101  0CEB  1303               	movwf	(_AccionControl$1285+2)^080h
  8102  0CEC  00AA               	bcf	status, 5	;RP0=0, select bank0
  8103  0CED  1283               	bcf	status, 6	;RP1=0, select bank0
  8104  0CEE  1303               	movf	(1+(?___fladd)),w
  8105  0CEF  083F               	bsf	status, 5	;RP0=1, select bank1
  8106  0CF0  1683               	bcf	status, 6	;RP1=0, select bank1
  8107  0CF1  1303               	movwf	(_AccionControl$1285+1)^080h
  8108  0CF2  00A9               	bcf	status, 5	;RP0=0, select bank0
  8109  0CF3  1283               	bcf	status, 6	;RP1=0, select bank0
  8110  0CF4  1303               	movf	(0+(?___fladd)),w
  8111  0CF5  083E               	bsf	status, 5	;RP0=1, select bank1
  8112  0CF6  1683               	bcf	status, 6	;RP1=0, select bank1
  8113  0CF7  1303               	movwf	(_AccionControl$1285)^080h
  8114  0CF8  00A8               
  8115                           	
  8116                           l3614:	
  8117  0CF9                     ;PIDController.c: 60:     PID.AccionControl = PID.P + PID.I + PID.D;
  8118                           	movlw	low(02Bh)
  8119  0CF9  302B               	addlw	low(_PID|((0x1)<<8))&0ffh
  8120  0CFA  3E90               	movwf	fsr0
  8121  0CFB  0084               	bsf	status, 7	;select IRP bank3
  8122  0CFC  1783               	movf	indf,w
  8123  0CFD  0800               	bcf	status, 5	;RP0=0, select bank0
  8124  0CFE  1283               	bcf	status, 6	;RP1=0, select bank0
  8125  0CFF  1303               	movwf	(___fladd@b)
  8126  0D00  00BE               	incf	fsr0,f
  8127  0D01  0A84               	movf	indf,w
  8128  0D02  0800               	movwf	(___fladd@b+1)
  8129  0D03  00BF               	incf	fsr0,f
  8130  0D04  0A84               	movf	indf,w
  8131  0D05  0800               	movwf	(___fladd@b+2)
  8132  0D06  00C0               	incf	fsr0,f
  8133  0D07  0A84               	movf	indf,w
  8134  0D08  0800               	movwf	(___fladd@b+3)
  8135  0D09  00C1               	bsf	status, 5	;RP0=1, select bank1
  8136  0D0A  1683               	bcf	status, 6	;RP1=0, select bank1
  8137  0D0B  1303               	movf	(_AccionControl$1285+3)^080h,w
  8138  0D0C  082B               	bcf	status, 5	;RP0=0, select bank0
  8139  0D0D  1283               	bcf	status, 6	;RP1=0, select bank0
  8140  0D0E  1303               	movwf	(___fladd@a+3)
  8141  0D0F  00C5               	bsf	status, 5	;RP0=1, select bank1
  8142  0D10  1683               	bcf	status, 6	;RP1=0, select bank1
  8143  0D11  1303               	movf	(_AccionControl$1285+2)^080h,w
  8144  0D12  082A               	bcf	status, 5	;RP0=0, select bank0
  8145  0D13  1283               	bcf	status, 6	;RP1=0, select bank0
  8146  0D14  1303               	movwf	(___fladd@a+2)
  8147  0D15  00C4               	bsf	status, 5	;RP0=1, select bank1
  8148  0D16  1683               	bcf	status, 6	;RP1=0, select bank1
  8149  0D17  1303               	movf	(_AccionControl$1285+1)^080h,w
  8150  0D18  0829               	bcf	status, 5	;RP0=0, select bank0
  8151  0D19  1283               	bcf	status, 6	;RP1=0, select bank0
  8152  0D1A  1303               	movwf	(___fladd@a+1)
  8153  0D1B  00C3               	bsf	status, 5	;RP0=1, select bank1
  8154  0D1C  1683               	bcf	status, 6	;RP1=0, select bank1
  8155  0D1D  1303               	movf	(_AccionControl$1285)^080h,w
  8156  0D1E  0828               	bcf	status, 5	;RP0=0, select bank0
  8157  0D1F  1283               	bcf	status, 6	;RP1=0, select bank0
  8158  0D20  1303               	movwf	(___fladd@a)
  8159  0D21  00C2               
  8160                           	fcall	___fladd
  8161  0D22  120A  118A  21B9  120A  158A  	bcf	status, 5	;RP0=0, select bank0
  8162  0D27  1283               	bcf	status, 6	;RP1=0, select bank0
  8163  0D28  1303               	movf	(3+(?___fladd)),w
  8164  0D29  0841               	bsf	status, 5	;RP0=1, select bank3
  8165  0D2A  1683               	bsf	status, 6	;RP1=1, select bank3
  8166  0D2B  1703               	movwf	3+(_PID)^0180h+02Fh
  8167  0D2C  00C2               	bcf	status, 5	;RP0=0, select bank0
  8168  0D2D  1283               	bcf	status, 6	;RP1=0, select bank0
  8169  0D2E  1303               	movf	(2+(?___fladd)),w
  8170  0D2F  0840               	bsf	status, 5	;RP0=1, select bank3
  8171  0D30  1683               	bsf	status, 6	;RP1=1, select bank3
  8172  0D31  1703               	movwf	2+(_PID)^0180h+02Fh
  8173  0D32  00C1               	bcf	status, 5	;RP0=0, select bank0
  8174  0D33  1283               	bcf	status, 6	;RP1=0, select bank0
  8175  0D34  1303               	movf	(1+(?___fladd)),w
  8176  0D35  083F               	bsf	status, 5	;RP0=1, select bank3
  8177  0D36  1683               	bsf	status, 6	;RP1=1, select bank3
  8178  0D37  1703               	movwf	1+(_PID)^0180h+02Fh
  8179  0D38  00C0               	bcf	status, 5	;RP0=0, select bank0
  8180  0D39  1283               	bcf	status, 6	;RP1=0, select bank0
  8181  0D3A  1303               	movf	(0+(?___fladd)),w
  8182  0D3B  083E               	bsf	status, 5	;RP0=1, select bank3
  8183  0D3C  1683               	bsf	status, 6	;RP1=1, select bank3
  8184  0D3D  1703               	movwf	0+(_PID)^0180h+02Fh
  8185  0D3E  00BF               
  8186                           	line	61
  8187                           	
  8188                           l3616:	
  8189  0D3F                     ;PIDController.c: 61:     return PID.AccionControl;
  8190                           	movlw	low(02Fh)
  8191  0D3F  302F               	addlw	low(_PID|((0x1)<<8))&0ffh
  8192  0D40  3E90               	movwf	fsr0
  8193  0D41  0084               	bsf	status, 7	;select IRP bank3
  8194  0D42  1783               	movf	indf,w
  8195  0D43  0800               	bsf	status, 5	;RP0=1, select bank1
  8196  0D44  1683               	bcf	status, 6	;RP1=0, select bank1
  8197  0D45  1303               	movwf	(?_AccionControl)^080h
  8198  0D46  00A0               	incf	fsr0,f
  8199  0D47  0A84               	movf	indf,w
  8200  0D48  0800               	movwf	(?_AccionControl+1)^080h
  8201  0D49  00A1               	incf	fsr0,f
  8202  0D4A  0A84               	movf	indf,w
  8203  0D4B  0800               	movwf	(?_AccionControl+2)^080h
  8204  0D4C  00A2               	incf	fsr0,f
  8205  0D4D  0A84               	movf	indf,w
  8206  0D4E  0800               	movwf	(?_AccionControl+3)^080h
  8207  0D4F  00A3               	goto	l401
  8208  0D50  2D51               	
  8209                           l3618:	
  8210  0D51                     	line	62
  8211                           	
  8212                           l401:	
  8213  0D51                     	return
  8214  0D51  0008               	opt stack 0
  8215                           GLOBAL	__end_of_AccionControl
  8216                           	__end_of_AccionControl:
  8217  0D52                     	signat	_AccionControl,8316
  8218                           	global	___flneg
  8219                           
  8220 ;; *************** function ___flneg *****************
  8221 ;; Defined at:
  8222 ;;		line 15 in file "C:\Program Files (x86)\Microchip\xc8\v2.00\pic\sources\c90\common\flneg.c"
  8223 ;; Parameters:    Size  Location     Type
  8224 ;;  f1              4   26[BANK0 ] unsigned int 
  8225 ;; Auto vars:     Size  Location     Type
  8226 ;;		None
  8227 ;; Return value:  Size  Location     Type
  8228 ;;                  4   26[BANK0 ] unsigned int 
  8229 ;; Registers used:
  8230 ;;		wreg
  8231 ;; Tracked objects:
  8232 ;;		On entry : 0/0
  8233 ;;		On exit  : 0/0
  8234 ;;		Unchanged: 0/0
  8235 ;; Data sizes:     COMMON   BANK0   BANK1   BANK3   BANK2
  8236 ;;      Params:         0       4       0       0       0
  8237 ;;      Locals:         0       0       0       0       0
  8238 ;;      Temps:          0       0       0       0       0
  8239 ;;      Totals:         0       4       0       0       0
  8240 ;;Total ram usage:        4 bytes
  8241 ;; Hardware stack levels used:    1
  8242 ;; This function calls:
  8243 ;;		Nothing
  8244 ;; This function is called by:
  8245 ;;		_map
  8246 ;;		_AccionControl
  8247 ;; This function uses a non-reentrant model
  8248 ;;
  8249                           psect	text21,local,class=CODE,delta=2,merge=1,group=1
  8250                           	file	"C:\Program Files (x86)\Microchip\xc8\v2.00\pic\sources\c90\common\flneg.c"
  8251                           	line	15
  8252                           global __ptext21
  8253                           __ptext21:	;psect for function ___flneg
  8254  1F6E                     psect	text21
  8255                           	file	"C:\Program Files (x86)\Microchip\xc8\v2.00\pic\sources\c90\common\flneg.c"
  8256                           	line	15
  8257                           	global	__size_of___flneg
  8258                           	__size_of___flneg	equ	__end_of___flneg-___flneg
  8259  000F                     	
  8260                           ___flneg:	
  8261  1F6E                     ;incstack = 0
  8262                           	opt	stack 5
  8263                           ; Regs used in ___flneg: [wreg]
  8264                           	line	17
  8265                           	
  8266                           l2902:	
  8267  1F6E                     	bcf	status, 5	;RP0=0, select bank0
  8268  1F6E  1283               	bcf	status, 6	;RP1=0, select bank0
  8269  1F6F  1303               	movf	(___flneg@f1+3),w
  8270  1F70  083D               	iorwf	(___flneg@f1+2),w
  8271  1F71  043C               	iorwf	(___flneg@f1+1),w
  8272  1F72  043B               	iorwf	(___flneg@f1),w
  8273  1F73  043A               	skipnz
  8274  1F74  1903               	goto	u2051
  8275  1F75  2F77               	goto	u2050
  8276  1F76  2F78               u2051:
  8277  1F77                     	goto	l2906
  8278  1F77  2F7B               u2050:
  8279  1F78                     	line	18
  8280                           	
  8281                           l2904:	
  8282  1F78                     	movlw	080h
  8283  1F78  3080               	xorwf	(___flneg@f1+3),f
  8284  1F79  06BD               	goto	l2906
  8285  1F7A  2F7B               	
  8286                           l774:	
  8287  1F7B                     	line	19
  8288                           	
  8289                           l2906:	
  8290  1F7B                     	goto	l775
  8291  1F7B  2F7C               	
  8292                           l2908:	
  8293  1F7C                     	line	20
  8294                           	
  8295                           l775:	
  8296  1F7C                     	return
  8297  1F7C  0008               	opt stack 0
  8298                           GLOBAL	__end_of___flneg
  8299                           	__end_of___flneg:
  8300  1F7D                     	signat	___flneg,4220
  8301                           	global	___flmul
  8302                           
  8303 ;; *************** function ___flmul *****************
  8304 ;; Defined at:
  8305 ;;		line 8 in file "C:\Program Files (x86)\Microchip\xc8\v2.00\pic\sources\c90\common\sprcmul.c"
  8306 ;; Parameters:    Size  Location     Type
  8307 ;;  b               4    0[BANK0 ] unsigned int 
  8308 ;;  a               4    4[BANK0 ] unsigned int 
  8309 ;; Auto vars:     Size  Location     Type
  8310 ;;  prod            4   20[BANK0 ] struct .
  8311 ;;  grs             4   14[BANK0 ] unsigned long 
  8312 ;;  temp            2   24[BANK0 ] struct .
  8313 ;;  bexp            1   19[BANK0 ] unsigned char 
  8314 ;;  aexp            1   18[BANK0 ] unsigned char 
  8315 ;;  sign            1   13[BANK0 ] unsigned char 
  8316 ;; Return value:  Size  Location     Type
  8317 ;;                  4    0[BANK0 ] unsigned char 
  8318 ;; Registers used:
  8319 ;;		wreg, status,2, status,0, btemp+1, pclath, cstack
  8320 ;; Tracked objects:
  8321 ;;		On entry : 0/0
  8322 ;;		On exit  : 0/0
  8323 ;;		Unchanged: 0/0
  8324 ;; Data sizes:     COMMON   BANK0   BANK1   BANK3   BANK2
  8325 ;;      Params:         0       8       0       0       0
  8326 ;;      Locals:         0      13       0       0       0
  8327 ;;      Temps:          0       5       0       0       0
  8328 ;;      Totals:         0      26       0       0       0
  8329 ;;Total ram usage:       26 bytes
  8330 ;; Hardware stack levels used:    1
  8331 ;; Hardware stack levels required when called:    1
  8332 ;; This function calls:
  8333 ;;		__Umul8_16
  8334 ;; This function is called by:
  8335 ;;		_map
  8336 ;;		_SetSampleTime
  8337 ;;		_AccionControl
  8338 ;; This function uses a non-reentrant model
  8339 ;;
  8340                           psect	text22,local,class=CODE,delta=2,merge=1,group=1
  8341                           	file	"C:\Program Files (x86)\Microchip\xc8\v2.00\pic\sources\c90\common\sprcmul.c"
  8342                           	line	8
  8343                           global __ptext22
  8344                           __ptext22:	;psect for function ___flmul
  8345  0475                     psect	text22
  8346                           	file	"C:\Program Files (x86)\Microchip\xc8\v2.00\pic\sources\c90\common\sprcmul.c"
  8347                           	line	8
  8348                           	global	__size_of___flmul
  8349                           	__size_of___flmul	equ	__end_of___flmul-___flmul
  8350  0375                     	
  8351                           ___flmul:	
  8352  0475                     ;incstack = 0
  8353                           	opt	stack 4
  8354                           ; Regs used in ___flmul: [wreg+status,2+status,0+btemp+1+pclath+cstack]
  8355                           	line	17
  8356                           	
  8357                           l3294:	
  8358  0475                     	bcf	status, 5	;RP0=0, select bank0
  8359  0475  1283               	bcf	status, 6	;RP1=0, select bank0
  8360  0476  1303               	movf	0+(___flmul@b)+03h,w
  8361  0477  0823               	andlw	080h
  8362  0478  3980               	movwf	(??___flmul+0)+0
  8363  0479  00A8               	movf	(??___flmul+0)+0,w
  8364  047A  0828               	movwf	(___flmul@sign)
  8365  047B  00AD               	line	18
  8366                           	
  8367                           l3296:	
  8368  047C                     	movf	0+(___flmul@b)+03h,w
  8369  047C  0823               	movwf	(??___flmul+0)+0
  8370  047D  00A8               	addwf	(??___flmul+0)+0,w
  8371  047E  0728               	movwf	(??___flmul+1)+0
  8372  047F  00A9               	movf	(??___flmul+1)+0,w
  8373  0480  0829               	movwf	(___flmul@bexp)
  8374  0481  00B3               	line	19
  8375                           	
  8376                           l3298:	
  8377  0482                     	btfss	0+(___flmul@b)+02h,(7)&7
  8378  0482  1FA2               	goto	u2941
  8379  0483  2C85               	goto	u2940
  8380  0484  2C86               u2941:
  8381  0485                     	goto	l3302
  8382  0485  2C88               u2940:
  8383  0486                     	line	20
  8384                           	
  8385                           l3300:	
  8386  0486                     	bsf	(___flmul@bexp)+(0/8),(0)&7
  8387  0486  1433               	goto	l3302
  8388  0487  2C88               	line	21
  8389                           	
  8390                           l971:	
  8391  0488                     	line	24
  8392                           	
  8393                           l3302:	
  8394  0488                     	movf	((___flmul@bexp)),w
  8395  0488  0833               	btfsc	status,2
  8396  0489  1903               	goto	u2951
  8397  048A  2C8C               	goto	u2950
  8398  048B  2C8D               u2951:
  8399  048C                     	goto	l3310
  8400  048C  2C9D               u2950:
  8401  048D                     	line	26
  8402                           	
  8403                           l3304:	
  8404  048D                     		incf	((___flmul@bexp)),w
  8405  048D  0A33               	btfss	status,2
  8406  048E  1D03               	goto	u2961
  8407  048F  2C91               	goto	u2960
  8408  0490  2C92               u2961:
  8409  0491                     	goto	l3308
  8410  0491  2C9B               u2960:
  8411  0492                     	line	28
  8412                           	
  8413                           l3306:	
  8414  0492                     	movlw	0x0
  8415  0492  3000               	movwf	(___flmul@b+3)
  8416  0493  00A3               	movlw	0x0
  8417  0494  3000               	movwf	(___flmul@b+2)
  8418  0495  00A2               	movlw	0x0
  8419  0496  3000               	movwf	(___flmul@b+1)
  8420  0497  00A1               	movlw	0x0
  8421  0498  3000               	movwf	(___flmul@b)
  8422  0499  00A0               
  8423                           	goto	l3308
  8424  049A  2C9B               	line	29
  8425                           	
  8426                           l973:	
  8427  049B                     	line	31
  8428                           	
  8429                           l3308:	
  8430  049B                     	bsf	(___flmul@b)+(23/8),(23)&7
  8431  049B  17A2               	line	33
  8432                           	goto	l3312
  8433  049C  2CA6               	line	34
  8434                           	
  8435                           l972:	
  8436  049D                     	line	36
  8437                           	
  8438                           l3310:	
  8439  049D                     	movlw	0x0
  8440  049D  3000               	movwf	(___flmul@b+3)
  8441  049E  00A3               	movlw	0x0
  8442  049F  3000               	movwf	(___flmul@b+2)
  8443  04A0  00A2               	movlw	0x0
  8444  04A1  3000               	movwf	(___flmul@b+1)
  8445  04A2  00A1               	movlw	0x0
  8446  04A3  3000               	movwf	(___flmul@b)
  8447  04A4  00A0               
  8448                           	goto	l3312
  8449  04A5  2CA6               	line	37
  8450                           	
  8451                           l974:	
  8452  04A6                     	line	39
  8453                           	
  8454                           l3312:	
  8455  04A6                     	movf	0+(___flmul@a)+03h,w
  8456  04A6  0827               	andlw	080h
  8457  04A7  3980               	movwf	(??___flmul+0)+0
  8458  04A8  00A8               	movf	(??___flmul+0)+0,w
  8459  04A9  0828               	xorwf	(___flmul@sign),f
  8460  04AA  06AD               	line	40
  8461                           	
  8462                           l3314:	
  8463  04AB                     	movf	0+(___flmul@a)+03h,w
  8464  04AB  0827               	movwf	(??___flmul+0)+0
  8465  04AC  00A8               	addwf	(??___flmul+0)+0,w
  8466  04AD  0728               	movwf	(??___flmul+1)+0
  8467  04AE  00A9               	movf	(??___flmul+1)+0,w
  8468  04AF  0829               	movwf	(___flmul@aexp)
  8469  04B0  00B2               	line	41
  8470                           	
  8471                           l3316:	
  8472  04B1                     	btfss	0+(___flmul@a)+02h,(7)&7
  8473  04B1  1FA6               	goto	u2971
  8474  04B2  2CB4               	goto	u2970
  8475  04B3  2CB5               u2971:
  8476  04B4                     	goto	l3320
  8477  04B4  2CB7               u2970:
  8478  04B5                     	line	42
  8479                           	
  8480                           l3318:	
  8481  04B5                     	bsf	(___flmul@aexp)+(0/8),(0)&7
  8482  04B5  1432               	goto	l3320
  8483  04B6  2CB7               	line	43
  8484                           	
  8485                           l975:	
  8486  04B7                     	line	45
  8487                           	
  8488                           l3320:	
  8489  04B7                     	movf	((___flmul@aexp)),w
  8490  04B7  0832               	btfsc	status,2
  8491  04B8  1903               	goto	u2981
  8492  04B9  2CBB               	goto	u2980
  8493  04BA  2CBC               u2981:
  8494  04BB                     	goto	l3328
  8495  04BB  2CCC               u2980:
  8496  04BC                     	line	48
  8497                           	
  8498                           l3322:	
  8499  04BC                     		incf	((___flmul@aexp)),w
  8500  04BC  0A32               	btfss	status,2
  8501  04BD  1D03               	goto	u2991
  8502  04BE  2CC0               	goto	u2990
  8503  04BF  2CC1               u2991:
  8504  04C0                     	goto	l3326
  8505  04C0  2CCA               u2990:
  8506  04C1                     	line	50
  8507                           	
  8508                           l3324:	
  8509  04C1                     	movlw	0x0
  8510  04C1  3000               	movwf	(___flmul@a+3)
  8511  04C2  00A7               	movlw	0x0
  8512  04C3  3000               	movwf	(___flmul@a+2)
  8513  04C4  00A6               	movlw	0x0
  8514  04C5  3000               	movwf	(___flmul@a+1)
  8515  04C6  00A5               	movlw	0x0
  8516  04C7  3000               	movwf	(___flmul@a)
  8517  04C8  00A4               
  8518                           	goto	l3326
  8519  04C9  2CCA               	line	51
  8520                           	
  8521                           l977:	
  8522  04CA                     	line	53
  8523                           	
  8524                           l3326:	
  8525  04CA                     	bsf	(___flmul@a)+(23/8),(23)&7
  8526  04CA  17A6               	line	54
  8527                           	goto	l3330
  8528  04CB  2CD5               	line	55
  8529                           	
  8530                           l976:	
  8531  04CC                     	line	57
  8532                           	
  8533                           l3328:	
  8534  04CC                     	movlw	0x0
  8535  04CC  3000               	movwf	(___flmul@a+3)
  8536  04CD  00A7               	movlw	0x0
  8537  04CE  3000               	movwf	(___flmul@a+2)
  8538  04CF  00A6               	movlw	0x0
  8539  04D0  3000               	movwf	(___flmul@a+1)
  8540  04D1  00A5               	movlw	0x0
  8541  04D2  3000               	movwf	(___flmul@a)
  8542  04D3  00A4               
  8543                           	goto	l3330
  8544  04D4  2CD5               	line	58
  8545                           	
  8546                           l978:	
  8547  04D5                     	line	65
  8548                           	
  8549                           l3330:	
  8550  04D5                     	movf	((___flmul@aexp)),w
  8551  04D5  0832               	btfsc	status,2
  8552  04D6  1903               	goto	u3001
  8553  04D7  2CD9               	goto	u3000
  8554  04D8  2CDA               u3001:
  8555  04D9                     	goto	l3334
  8556  04D9  2CE0               u3000:
  8557  04DA                     	
  8558                           l3332:	
  8559  04DA                     	movf	((___flmul@bexp)),w
  8560  04DA  0833               	btfss	status,2
  8561  04DB  1D03               	goto	u3011
  8562  04DC  2CDE               	goto	u3010
  8563  04DD  2CDF               u3011:
  8564  04DE                     	goto	l3338
  8565  04DE  2CEA               u3010:
  8566  04DF                     	goto	l3334
  8567  04DF  2CE0               	
  8568                           l981:	
  8569  04E0                     	line	66
  8570                           	
  8571                           l3334:	
  8572  04E0                     	movlw	0x0
  8573  04E0  3000               	movwf	(?___flmul+3)
  8574  04E1  00A3               	movlw	0x0
  8575  04E2  3000               	movwf	(?___flmul+2)
  8576  04E3  00A2               	movlw	0x0
  8577  04E4  3000               	movwf	(?___flmul+1)
  8578  04E5  00A1               	movlw	0x0
  8579  04E6  3000               	movwf	(?___flmul)
  8580  04E7  00A0               
  8581                           	goto	l982
  8582  04E8  2FE9               	
  8583                           l3336:	
  8584  04E9                     	goto	l982
  8585  04E9  2FE9               	line	67
  8586                           	
  8587                           l979:	
  8588  04EA                     	line	119
  8589                           	
  8590                           l3338:	
  8591  04EA                     	movf	(___flmul@b),w
  8592  04EA  0820               	movwf	(??___flmul+0)+0
  8593  04EB  00A8               	movf	(??___flmul+0)+0,w
  8594  04EC  0828               	movwf	(__Umul8_16@multiplicand)
  8595  04ED  00F0               	movf	0+(___flmul@a)+02h,w
  8596  04EE  0826               	fcall	__Umul8_16
  8597  04EF  160A  158A  27AA  120A  118A  	movf	(1+(?__Umul8_16)),w
  8598  04F4  0871               	bcf	status, 5	;RP0=0, select bank0
  8599  04F5  1283               	bcf	status, 6	;RP1=0, select bank0
  8600  04F6  1303               	movwf	(___flmul@temp+1)
  8601  04F7  00B9               	movf	(0+(?__Umul8_16)),w
  8602  04F8  0870               	movwf	(___flmul@temp)
  8603  04F9  00B8               	line	120
  8604                           	
  8605                           l3340:	
  8606  04FA                     	movf	(___flmul@temp),w
  8607  04FA  0838               	movwf	(??___flmul+0)+0
  8608  04FB  00A8               	clrf	(??___flmul+0)+0+1
  8609  04FC  01A9               	clrf	(??___flmul+0)+0+2
  8610  04FD  01AA               	clrf	(??___flmul+0)+0+3
  8611  04FE  01AB               	movf	3+(??___flmul+0)+0,w
  8612  04FF  082B               	movwf	(___flmul@grs+3)
  8613  0500  00B1               	movf	2+(??___flmul+0)+0,w
  8614  0501  082A               	movwf	(___flmul@grs+2)
  8615  0502  00B0               	movf	1+(??___flmul+0)+0,w
  8616  0503  0829               	movwf	(___flmul@grs+1)
  8617  0504  00AF               	movf	0+(??___flmul+0)+0,w
  8618  0505  0828               	movwf	(___flmul@grs)
  8619  0506  00AE               
  8620                           	line	121
  8621                           	
  8622                           l3342:	
  8623  0507                     	movf	0+(___flmul@temp)+01h,w
  8624  0507  0839               	movwf	(??___flmul+0)+0
  8625  0508  00A8               	clrf	(??___flmul+0)+0+1
  8626  0509  01A9               	clrf	(??___flmul+0)+0+2
  8627  050A  01AA               	clrf	(??___flmul+0)+0+3
  8628  050B  01AB               	movf	3+(??___flmul+0)+0,w
  8629  050C  082B               	movwf	(___flmul@prod+3)
  8630  050D  00B7               	movf	2+(??___flmul+0)+0,w
  8631  050E  082A               	movwf	(___flmul@prod+2)
  8632  050F  00B6               	movf	1+(??___flmul+0)+0,w
  8633  0510  0829               	movwf	(___flmul@prod+1)
  8634  0511  00B5               	movf	0+(??___flmul+0)+0,w
  8635  0512  0828               	movwf	(___flmul@prod)
  8636  0513  00B4               
  8637                           	line	122
  8638                           	movf	0+(___flmul@b)+01h,w
  8639  0514  0821               	movwf	(??___flmul+0)+0
  8640  0515  00A8               	movf	(??___flmul+0)+0,w
  8641  0516  0828               	movwf	(__Umul8_16@multiplicand)
  8642  0517  00F0               	movf	0+(___flmul@a)+01h,w
  8643  0518  0825               	fcall	__Umul8_16
  8644  0519  160A  158A  27AA  120A  118A  	movf	(1+(?__Umul8_16)),w
  8645  051E  0871               	bcf	status, 5	;RP0=0, select bank0
  8646  051F  1283               	bcf	status, 6	;RP1=0, select bank0
  8647  0520  1303               	movwf	(___flmul@temp+1)
  8648  0521  00B9               	movf	(0+(?__Umul8_16)),w
  8649  0522  0870               	movwf	(___flmul@temp)
  8650  0523  00B8               	line	123
  8651                           	
  8652                           l3344:	
  8653  0524                     	movf	(___flmul@temp),w
  8654  0524  0838               	movwf	(??___flmul+0)+0
  8655  0525  00A8               	clrf	(??___flmul+0)+0+1
  8656  0526  01A9               	clrf	(??___flmul+0)+0+2
  8657  0527  01AA               	clrf	(??___flmul+0)+0+3
  8658  0528  01AB               	movf	0+(??___flmul+0)+0,w
  8659  0529  0828               	addwf	(___flmul@grs),f
  8660  052A  07AE               	movf	1+(??___flmul+0)+0,w
  8661  052B  0829               	clrz
  8662  052C  1103               	skipnc
  8663  052D  1803               	addlw	1
  8664  052E  3E01               	skipnz
  8665  052F  1903               	goto	u3021
  8666  0530  2D32               	addwf	(___flmul@grs+1),f
  8667  0531  07AF               u3021:
  8668  0532                     	movf	2+(??___flmul+0)+0,w
  8669  0532  082A               	clrz
  8670  0533  1103               	skipnc
  8671  0534  1803               	addlw	1
  8672  0535  3E01               	skipnz
  8673  0536  1903               	goto	u3022
  8674  0537  2D39               	addwf	(___flmul@grs+2),f
  8675  0538  07B0               u3022:
  8676  0539                     	movf	3+(??___flmul+0)+0,w
  8677  0539  082B               	clrz
  8678  053A  1103               	skipnc
  8679  053B  1803               	addlw	1
  8680  053C  3E01               	skipnz
  8681  053D  1903               	goto	u3023
  8682  053E  2D40               	addwf	(___flmul@grs+3),f
  8683  053F  07B1               u3023:
  8684  0540                     
  8685                           	line	124
  8686                           	
  8687                           l3346:	
  8688  0540                     	movf	0+(___flmul@temp)+01h,w
  8689  0540  0839               	movwf	(??___flmul+0)+0
  8690  0541  00A8               	clrf	(??___flmul+0)+0+1
  8691  0542  01A9               	clrf	(??___flmul+0)+0+2
  8692  0543  01AA               	clrf	(??___flmul+0)+0+3
  8693  0544  01AB               	movf	0+(??___flmul+0)+0,w
  8694  0545  0828               	addwf	(___flmul@prod),f
  8695  0546  07B4               	movf	1+(??___flmul+0)+0,w
  8696  0547  0829               	clrz
  8697  0548  1103               	skipnc
  8698  0549  1803               	addlw	1
  8699  054A  3E01               	skipnz
  8700  054B  1903               	goto	u3031
  8701  054C  2D4E               	addwf	(___flmul@prod+1),f
  8702  054D  07B5               u3031:
  8703  054E                     	movf	2+(??___flmul+0)+0,w
  8704  054E  082A               	clrz
  8705  054F  1103               	skipnc
  8706  0550  1803               	addlw	1
  8707  0551  3E01               	skipnz
  8708  0552  1903               	goto	u3032
  8709  0553  2D55               	addwf	(___flmul@prod+2),f
  8710  0554  07B6               u3032:
  8711  0555                     	movf	3+(??___flmul+0)+0,w
  8712  0555  082B               	clrz
  8713  0556  1103               	skipnc
  8714  0557  1803               	addlw	1
  8715  0558  3E01               	skipnz
  8716  0559  1903               	goto	u3033
  8717  055A  2D5C               	addwf	(___flmul@prod+3),f
  8718  055B  07B7               u3033:
  8719  055C                     
  8720                           	line	125
  8721                           	movf	0+(___flmul@b)+02h,w
  8722  055C  0822               	movwf	(??___flmul+0)+0
  8723  055D  00A8               	movf	(??___flmul+0)+0,w
  8724  055E  0828               	movwf	(__Umul8_16@multiplicand)
  8725  055F  00F0               	movf	(___flmul@a),w
  8726  0560  0824               	fcall	__Umul8_16
  8727  0561  160A  158A  27AA  120A  118A  	movf	(1+(?__Umul8_16)),w
  8728  0566  0871               	bcf	status, 5	;RP0=0, select bank0
  8729  0567  1283               	bcf	status, 6	;RP1=0, select bank0
  8730  0568  1303               	movwf	(___flmul@temp+1)
  8731  0569  00B9               	movf	(0+(?__Umul8_16)),w
  8732  056A  0870               	movwf	(___flmul@temp)
  8733  056B  00B8               	line	126
  8734                           	
  8735                           l3348:	
  8736  056C                     	movf	(___flmul@temp),w
  8737  056C  0838               	movwf	(??___flmul+0)+0
  8738  056D  00A8               	clrf	(??___flmul+0)+0+1
  8739  056E  01A9               	clrf	(??___flmul+0)+0+2
  8740  056F  01AA               	clrf	(??___flmul+0)+0+3
  8741  0570  01AB               	movf	0+(??___flmul+0)+0,w
  8742  0571  0828               	addwf	(___flmul@grs),f
  8743  0572  07AE               	movf	1+(??___flmul+0)+0,w
  8744  0573  0829               	clrz
  8745  0574  1103               	skipnc
  8746  0575  1803               	addlw	1
  8747  0576  3E01               	skipnz
  8748  0577  1903               	goto	u3041
  8749  0578  2D7A               	addwf	(___flmul@grs+1),f
  8750  0579  07AF               u3041:
  8751  057A                     	movf	2+(??___flmul+0)+0,w
  8752  057A  082A               	clrz
  8753  057B  1103               	skipnc
  8754  057C  1803               	addlw	1
  8755  057D  3E01               	skipnz
  8756  057E  1903               	goto	u3042
  8757  057F  2D81               	addwf	(___flmul@grs+2),f
  8758  0580  07B0               u3042:
  8759  0581                     	movf	3+(??___flmul+0)+0,w
  8760  0581  082B               	clrz
  8761  0582  1103               	skipnc
  8762  0583  1803               	addlw	1
  8763  0584  3E01               	skipnz
  8764  0585  1903               	goto	u3043
  8765  0586  2D88               	addwf	(___flmul@grs+3),f
  8766  0587  07B1               u3043:
  8767  0588                     
  8768                           	line	127
  8769                           	
  8770                           l3350:	
  8771  0588                     	movf	0+(___flmul@temp)+01h,w
  8772  0588  0839               	movwf	(??___flmul+0)+0
  8773  0589  00A8               	clrf	(??___flmul+0)+0+1
  8774  058A  01A9               	clrf	(??___flmul+0)+0+2
  8775  058B  01AA               	clrf	(??___flmul+0)+0+3
  8776  058C  01AB               	movf	0+(??___flmul+0)+0,w
  8777  058D  0828               	addwf	(___flmul@prod),f
  8778  058E  07B4               	movf	1+(??___flmul+0)+0,w
  8779  058F  0829               	clrz
  8780  0590  1103               	skipnc
  8781  0591  1803               	addlw	1
  8782  0592  3E01               	skipnz
  8783  0593  1903               	goto	u3051
  8784  0594  2D96               	addwf	(___flmul@prod+1),f
  8785  0595  07B5               u3051:
  8786  0596                     	movf	2+(??___flmul+0)+0,w
  8787  0596  082A               	clrz
  8788  0597  1103               	skipnc
  8789  0598  1803               	addlw	1
  8790  0599  3E01               	skipnz
  8791  059A  1903               	goto	u3052
  8792  059B  2D9D               	addwf	(___flmul@prod+2),f
  8793  059C  07B6               u3052:
  8794  059D                     	movf	3+(??___flmul+0)+0,w
  8795  059D  082B               	clrz
  8796  059E  1103               	skipnc
  8797  059F  1803               	addlw	1
  8798  05A0  3E01               	skipnz
  8799  05A1  1903               	goto	u3053
  8800  05A2  2DA4               	addwf	(___flmul@prod+3),f
  8801  05A3  07B7               u3053:
  8802  05A4                     
  8803                           	line	128
  8804                           	
  8805                           l3352:	
  8806  05A4                     	movlw	08h
  8807  05A4  3008               	movwf	(??___flmul+0)+0
  8808  05A5  00A8               u3065:
  8809  05A6                     	clrc
  8810  05A6  1003               	rlf	(___flmul@grs),f
  8811  05A7  0DAE               	rlf	(___flmul@grs+1),f
  8812  05A8  0DAF               	rlf	(___flmul@grs+2),f
  8813  05A9  0DB0               	rlf	(___flmul@grs+3),f
  8814  05AA  0DB1               	decfsz	(??___flmul+0)+0
  8815  05AB  0BA8               	goto	u3065
  8816  05AC  2DA6               	line	129
  8817                           	
  8818                           l3354:	
  8819  05AD                     	movf	0+(___flmul@b)+01h,w
  8820  05AD  0821               	movwf	(??___flmul+0)+0
  8821  05AE  00A8               	movf	(??___flmul+0)+0,w
  8822  05AF  0828               	movwf	(__Umul8_16@multiplicand)
  8823  05B0  00F0               	movf	(___flmul@a),w
  8824  05B1  0824               	fcall	__Umul8_16
  8825  05B2  160A  158A  27AA  120A  118A  	movf	(1+(?__Umul8_16)),w
  8826  05B7  0871               	bcf	status, 5	;RP0=0, select bank0
  8827  05B8  1283               	bcf	status, 6	;RP1=0, select bank0
  8828  05B9  1303               	movwf	(___flmul@temp+1)
  8829  05BA  00B9               	movf	(0+(?__Umul8_16)),w
  8830  05BB  0870               	movwf	(___flmul@temp)
  8831  05BC  00B8               	line	130
  8832                           	
  8833                           l3356:	
  8834  05BD                     	movf	(___flmul@temp),w
  8835  05BD  0838               	movwf	((??___flmul+0)+0)
  8836  05BE  00A8               	movf	(___flmul@temp+1),w
  8837  05BF  0839               	movwf	((??___flmul+0)+0+1)
  8838  05C0  00A9               	clrf	((??___flmul+0)+0+2)
  8839  05C1  01AA               	clrf	((??___flmul+0)+0+3)
  8840  05C2  01AB               	movf	0+(??___flmul+0)+0,w
  8841  05C3  0828               	addwf	(___flmul@grs),f
  8842  05C4  07AE               	movf	1+(??___flmul+0)+0,w
  8843  05C5  0829               	clrz
  8844  05C6  1103               	skipnc
  8845  05C7  1803               	addlw	1
  8846  05C8  3E01               	skipnz
  8847  05C9  1903               	goto	u3071
  8848  05CA  2DCC               	addwf	(___flmul@grs+1),f
  8849  05CB  07AF               u3071:
  8850  05CC                     	movf	2+(??___flmul+0)+0,w
  8851  05CC  082A               	clrz
  8852  05CD  1103               	skipnc
  8853  05CE  1803               	addlw	1
  8854  05CF  3E01               	skipnz
  8855  05D0  1903               	goto	u3072
  8856  05D1  2DD3               	addwf	(___flmul@grs+2),f
  8857  05D2  07B0               u3072:
  8858  05D3                     	movf	3+(??___flmul+0)+0,w
  8859  05D3  082B               	clrz
  8860  05D4  1103               	skipnc
  8861  05D5  1803               	addlw	1
  8862  05D6  3E01               	skipnz
  8863  05D7  1903               	goto	u3073
  8864  05D8  2DDA               	addwf	(___flmul@grs+3),f
  8865  05D9  07B1               u3073:
  8866  05DA                     
  8867                           	line	131
  8868                           	
  8869                           l3358:	
  8870  05DA                     	movf	(___flmul@b),w
  8871  05DA  0820               	movwf	(??___flmul+0)+0
  8872  05DB  00A8               	movf	(??___flmul+0)+0,w
  8873  05DC  0828               	movwf	(__Umul8_16@multiplicand)
  8874  05DD  00F0               	movf	0+(___flmul@a)+01h,w
  8875  05DE  0825               	fcall	__Umul8_16
  8876  05DF  160A  158A  27AA  120A  118A  	movf	(1+(?__Umul8_16)),w
  8877  05E4  0871               	bcf	status, 5	;RP0=0, select bank0
  8878  05E5  1283               	bcf	status, 6	;RP1=0, select bank0
  8879  05E6  1303               	movwf	(___flmul@temp+1)
  8880  05E7  00B9               	movf	(0+(?__Umul8_16)),w
  8881  05E8  0870               	movwf	(___flmul@temp)
  8882  05E9  00B8               	line	132
  8883                           	
  8884                           l3360:	
  8885  05EA                     	movf	(___flmul@temp),w
  8886  05EA  0838               	movwf	((??___flmul+0)+0)
  8887  05EB  00A8               	movf	(___flmul@temp+1),w
  8888  05EC  0839               	movwf	((??___flmul+0)+0+1)
  8889  05ED  00A9               	clrf	((??___flmul+0)+0+2)
  8890  05EE  01AA               	clrf	((??___flmul+0)+0+3)
  8891  05EF  01AB               	movf	0+(??___flmul+0)+0,w
  8892  05F0  0828               	addwf	(___flmul@grs),f
  8893  05F1  07AE               	movf	1+(??___flmul+0)+0,w
  8894  05F2  0829               	clrz
  8895  05F3  1103               	skipnc
  8896  05F4  1803               	addlw	1
  8897  05F5  3E01               	skipnz
  8898  05F6  1903               	goto	u3081
  8899  05F7  2DF9               	addwf	(___flmul@grs+1),f
  8900  05F8  07AF               u3081:
  8901  05F9                     	movf	2+(??___flmul+0)+0,w
  8902  05F9  082A               	clrz
  8903  05FA  1103               	skipnc
  8904  05FB  1803               	addlw	1
  8905  05FC  3E01               	skipnz
  8906  05FD  1903               	goto	u3082
  8907  05FE  2E00               	addwf	(___flmul@grs+2),f
  8908  05FF  07B0               u3082:
  8909  0600                     	movf	3+(??___flmul+0)+0,w
  8910  0600  082B               	clrz
  8911  0601  1103               	skipnc
  8912  0602  1803               	addlw	1
  8913  0603  3E01               	skipnz
  8914  0604  1903               	goto	u3083
  8915  0605  2E07               	addwf	(___flmul@grs+3),f
  8916  0606  07B1               u3083:
  8917  0607                     
  8918                           	line	133
  8919                           	
  8920                           l3362:	
  8921  0607                     	movlw	08h
  8922  0607  3008               	movwf	(??___flmul+0)+0
  8923  0608  00A8               u3095:
  8924  0609                     	clrc
  8925  0609  1003               	rlf	(___flmul@grs),f
  8926  060A  0DAE               	rlf	(___flmul@grs+1),f
  8927  060B  0DAF               	rlf	(___flmul@grs+2),f
  8928  060C  0DB0               	rlf	(___flmul@grs+3),f
  8929  060D  0DB1               	decfsz	(??___flmul+0)+0
  8930  060E  0BA8               	goto	u3095
  8931  060F  2E09               	line	134
  8932                           	movf	(___flmul@b),w
  8933  0610  0820               	movwf	(??___flmul+0)+0
  8934  0611  00A8               	movf	(??___flmul+0)+0,w
  8935  0612  0828               	movwf	(__Umul8_16@multiplicand)
  8936  0613  00F0               	movf	(___flmul@a),w
  8937  0614  0824               	fcall	__Umul8_16
  8938  0615  160A  158A  27AA  120A  118A  	movf	(1+(?__Umul8_16)),w
  8939  061A  0871               	bcf	status, 5	;RP0=0, select bank0
  8940  061B  1283               	bcf	status, 6	;RP1=0, select bank0
  8941  061C  1303               	movwf	(___flmul@temp+1)
  8942  061D  00B9               	movf	(0+(?__Umul8_16)),w
  8943  061E  0870               	movwf	(___flmul@temp)
  8944  061F  00B8               	line	135
  8945                           	
  8946                           l3364:	
  8947  0620                     	movf	(___flmul@temp),w
  8948  0620  0838               	movwf	((??___flmul+0)+0)
  8949  0621  00A8               	movf	(___flmul@temp+1),w
  8950  0622  0839               	movwf	((??___flmul+0)+0+1)
  8951  0623  00A9               	clrf	((??___flmul+0)+0+2)
  8952  0624  01AA               	clrf	((??___flmul+0)+0+3)
  8953  0625  01AB               	movf	0+(??___flmul+0)+0,w
  8954  0626  0828               	addwf	(___flmul@grs),f
  8955  0627  07AE               	movf	1+(??___flmul+0)+0,w
  8956  0628  0829               	clrz
  8957  0629  1103               	skipnc
  8958  062A  1803               	addlw	1
  8959  062B  3E01               	skipnz
  8960  062C  1903               	goto	u3101
  8961  062D  2E2F               	addwf	(___flmul@grs+1),f
  8962  062E  07AF               u3101:
  8963  062F                     	movf	2+(??___flmul+0)+0,w
  8964  062F  082A               	clrz
  8965  0630  1103               	skipnc
  8966  0631  1803               	addlw	1
  8967  0632  3E01               	skipnz
  8968  0633  1903               	goto	u3102
  8969  0634  2E36               	addwf	(___flmul@grs+2),f
  8970  0635  07B0               u3102:
  8971  0636                     	movf	3+(??___flmul+0)+0,w
  8972  0636  082B               	clrz
  8973  0637  1103               	skipnc
  8974  0638  1803               	addlw	1
  8975  0639  3E01               	skipnz
  8976  063A  1903               	goto	u3103
  8977  063B  2E3D               	addwf	(___flmul@grs+3),f
  8978  063C  07B1               u3103:
  8979  063D                     
  8980                           	line	136
  8981                           	
  8982                           l3366:	
  8983  063D                     	movf	0+(___flmul@b)+01h,w
  8984  063D  0821               	movwf	(??___flmul+0)+0
  8985  063E  00A8               	movf	(??___flmul+0)+0,w
  8986  063F  0828               	movwf	(__Umul8_16@multiplicand)
  8987  0640  00F0               	movf	0+(___flmul@a)+02h,w
  8988  0641  0826               	fcall	__Umul8_16
  8989  0642  160A  158A  27AA  120A  118A  	movf	(1+(?__Umul8_16)),w
  8990  0647  0871               	bcf	status, 5	;RP0=0, select bank0
  8991  0648  1283               	bcf	status, 6	;RP1=0, select bank0
  8992  0649  1303               	movwf	(___flmul@temp+1)
  8993  064A  00B9               	movf	(0+(?__Umul8_16)),w
  8994  064B  0870               	movwf	(___flmul@temp)
  8995  064C  00B8               	line	137
  8996                           	movf	(___flmul@temp),w
  8997  064D  0838               	movwf	((??___flmul+0)+0)
  8998  064E  00A8               	movf	(___flmul@temp+1),w
  8999  064F  0839               	movwf	((??___flmul+0)+0+1)
  9000  0650  00A9               	clrf	((??___flmul+0)+0+2)
  9001  0651  01AA               	clrf	((??___flmul+0)+0+3)
  9002  0652  01AB               	movf	0+(??___flmul+0)+0,w
  9003  0653  0828               	addwf	(___flmul@prod),f
  9004  0654  07B4               	movf	1+(??___flmul+0)+0,w
  9005  0655  0829               	clrz
  9006  0656  1103               	skipnc
  9007  0657  1803               	addlw	1
  9008  0658  3E01               	skipnz
  9009  0659  1903               	goto	u3111
  9010  065A  2E5C               	addwf	(___flmul@prod+1),f
  9011  065B  07B5               u3111:
  9012  065C                     	movf	2+(??___flmul+0)+0,w
  9013  065C  082A               	clrz
  9014  065D  1103               	skipnc
  9015  065E  1803               	addlw	1
  9016  065F  3E01               	skipnz
  9017  0660  1903               	goto	u3112
  9018  0661  2E63               	addwf	(___flmul@prod+2),f
  9019  0662  07B6               u3112:
  9020  0663                     	movf	3+(??___flmul+0)+0,w
  9021  0663  082B               	clrz
  9022  0664  1103               	skipnc
  9023  0665  1803               	addlw	1
  9024  0666  3E01               	skipnz
  9025  0667  1903               	goto	u3113
  9026  0668  2E6A               	addwf	(___flmul@prod+3),f
  9027  0669  07B7               u3113:
  9028  066A                     
  9029                           	line	138
  9030                           	
  9031                           l3368:	
  9032  066A                     	movf	0+(___flmul@b)+02h,w
  9033  066A  0822               	movwf	(??___flmul+0)+0
  9034  066B  00A8               	movf	(??___flmul+0)+0,w
  9035  066C  0828               	movwf	(__Umul8_16@multiplicand)
  9036  066D  00F0               	movf	0+(___flmul@a)+01h,w
  9037  066E  0825               	fcall	__Umul8_16
  9038  066F  160A  158A  27AA  120A  118A  	movf	(1+(?__Umul8_16)),w
  9039  0674  0871               	bcf	status, 5	;RP0=0, select bank0
  9040  0675  1283               	bcf	status, 6	;RP1=0, select bank0
  9041  0676  1303               	movwf	(___flmul@temp+1)
  9042  0677  00B9               	movf	(0+(?__Umul8_16)),w
  9043  0678  0870               	movwf	(___flmul@temp)
  9044  0679  00B8               	line	139
  9045                           	
  9046                           l3370:	
  9047  067A                     	movf	(___flmul@temp),w
  9048  067A  0838               	movwf	((??___flmul+0)+0)
  9049  067B  00A8               	movf	(___flmul@temp+1),w
  9050  067C  0839               	movwf	((??___flmul+0)+0+1)
  9051  067D  00A9               	clrf	((??___flmul+0)+0+2)
  9052  067E  01AA               	clrf	((??___flmul+0)+0+3)
  9053  067F  01AB               	movf	0+(??___flmul+0)+0,w
  9054  0680  0828               	addwf	(___flmul@prod),f
  9055  0681  07B4               	movf	1+(??___flmul+0)+0,w
  9056  0682  0829               	clrz
  9057  0683  1103               	skipnc
  9058  0684  1803               	addlw	1
  9059  0685  3E01               	skipnz
  9060  0686  1903               	goto	u3121
  9061  0687  2E89               	addwf	(___flmul@prod+1),f
  9062  0688  07B5               u3121:
  9063  0689                     	movf	2+(??___flmul+0)+0,w
  9064  0689  082A               	clrz
  9065  068A  1103               	skipnc
  9066  068B  1803               	addlw	1
  9067  068C  3E01               	skipnz
  9068  068D  1903               	goto	u3122
  9069  068E  2E90               	addwf	(___flmul@prod+2),f
  9070  068F  07B6               u3122:
  9071  0690                     	movf	3+(??___flmul+0)+0,w
  9072  0690  082B               	clrz
  9073  0691  1103               	skipnc
  9074  0692  1803               	addlw	1
  9075  0693  3E01               	skipnz
  9076  0694  1903               	goto	u3123
  9077  0695  2E97               	addwf	(___flmul@prod+3),f
  9078  0696  07B7               u3123:
  9079  0697                     
  9080                           	line	140
  9081                           	movf	0+(___flmul@b)+02h,w
  9082  0697  0822               	movwf	(??___flmul+0)+0
  9083  0698  00A8               	movf	(??___flmul+0)+0,w
  9084  0699  0828               	movwf	(__Umul8_16@multiplicand)
  9085  069A  00F0               	movf	0+(___flmul@a)+02h,w
  9086  069B  0826               	fcall	__Umul8_16
  9087  069C  160A  158A  27AA  120A  118A  	movf	(1+(?__Umul8_16)),w
  9088  06A1  0871               	bcf	status, 5	;RP0=0, select bank0
  9089  06A2  1283               	bcf	status, 6	;RP1=0, select bank0
  9090  06A3  1303               	movwf	(___flmul@temp+1)
  9091  06A4  00B9               	movf	(0+(?__Umul8_16)),w
  9092  06A5  0870               	movwf	(___flmul@temp)
  9093  06A6  00B8               	line	141
  9094                           	
  9095                           l3372:	
  9096  06A7                     	movf	(___flmul@temp),w
  9097  06A7  0838               	movwf	((??___flmul+0)+0)
  9098  06A8  00A8               	movf	(___flmul@temp+1),w
  9099  06A9  0839               	movwf	((??___flmul+0)+0+1)
  9100  06AA  00A9               	clrf	((??___flmul+0)+0+2)
  9101  06AB  01AA               	clrf	((??___flmul+0)+0+3)
  9102  06AC  01AB               	movlw	08h
  9103  06AD  3008               u3135:
  9104  06AE                     	clrc
  9105  06AE  1003               	rlf	(??___flmul+0)+0,f
  9106  06AF  0DA8               	rlf	(??___flmul+0)+1,f
  9107  06B0  0DA9               	rlf	(??___flmul+0)+2,f
  9108  06B1  0DAA               	rlf	(??___flmul+0)+3,f
  9109  06B2  0DAB               u3130:
  9110  06B3                     	addlw	-1
  9111  06B3  3EFF               	skipz
  9112  06B4  1D03               	goto	u3135
  9113  06B5  2EAE               	movf	0+(??___flmul+0)+0,w
  9114  06B6  0828               	addwf	(___flmul@prod),f
  9115  06B7  07B4               	movf	1+(??___flmul+0)+0,w
  9116  06B8  0829               	clrz
  9117  06B9  1103               	skipnc
  9118  06BA  1803               	addlw	1
  9119  06BB  3E01               	skipnz
  9120  06BC  1903               	goto	u3141
  9121  06BD  2EBF               	addwf	(___flmul@prod+1),f
  9122  06BE  07B5               u3141:
  9123  06BF                     	movf	2+(??___flmul+0)+0,w
  9124  06BF  082A               	clrz
  9125  06C0  1103               	skipnc
  9126  06C1  1803               	addlw	1
  9127  06C2  3E01               	skipnz
  9128  06C3  1903               	goto	u3142
  9129  06C4  2EC6               	addwf	(___flmul@prod+2),f
  9130  06C5  07B6               u3142:
  9131  06C6                     	movf	3+(??___flmul+0)+0,w
  9132  06C6  082B               	clrz
  9133  06C7  1103               	skipnc
  9134  06C8  1803               	addlw	1
  9135  06C9  3E01               	skipnz
  9136  06CA  1903               	goto	u3143
  9137  06CB  2ECD               	addwf	(___flmul@prod+3),f
  9138  06CC  07B7               u3143:
  9139  06CD                     
  9140                           	line	145
  9141                           	
  9142                           l3374:	
  9143  06CD                     	movf	(___flmul@grs),w
  9144  06CD  082E               	movwf	(??___flmul+0)+0
  9145  06CE  00A8               	movf	(___flmul@grs+1),w
  9146  06CF  082F               	movwf	((??___flmul+0)+0+1)
  9147  06D0  00A9               	movf	(___flmul@grs+2),w
  9148  06D1  0830               	movwf	((??___flmul+0)+0+2)
  9149  06D2  00AA               	movf	(___flmul@grs+3),w
  9150  06D3  0831               	movwf	((??___flmul+0)+0+3)
  9151  06D4  00AB               	movlw	018h
  9152  06D5  3018               u3155:
  9153  06D6                     	clrc
  9154  06D6  1003               	rrf	(??___flmul+0)+3,f
  9155  06D7  0CAB               	rrf	(??___flmul+0)+2,f
  9156  06D8  0CAA               	rrf	(??___flmul+0)+1,f
  9157  06D9  0CA9               	rrf	(??___flmul+0)+0,f
  9158  06DA  0CA8               u3150:
  9159  06DB                     	addlw	-1
  9160  06DB  3EFF               	skipz
  9161  06DC  1D03               	goto	u3155
  9162  06DD  2ED6               	movf	0+(??___flmul+0)+0,w
  9163  06DE  0828               	addwf	(___flmul@prod),f
  9164  06DF  07B4               	movf	1+(??___flmul+0)+0,w
  9165  06E0  0829               	clrz
  9166  06E1  1103               	skipnc
  9167  06E2  1803               	addlw	1
  9168  06E3  3E01               	skipnz
  9169  06E4  1903               	goto	u3161
  9170  06E5  2EE7               	addwf	(___flmul@prod+1),f
  9171  06E6  07B5               u3161:
  9172  06E7                     	movf	2+(??___flmul+0)+0,w
  9173  06E7  082A               	clrz
  9174  06E8  1103               	skipnc
  9175  06E9  1803               	addlw	1
  9176  06EA  3E01               	skipnz
  9177  06EB  1903               	goto	u3162
  9178  06EC  2EEE               	addwf	(___flmul@prod+2),f
  9179  06ED  07B6               u3162:
  9180  06EE                     	movf	3+(??___flmul+0)+0,w
  9181  06EE  082B               	clrz
  9182  06EF  1103               	skipnc
  9183  06F0  1803               	addlw	1
  9184  06F1  3E01               	skipnz
  9185  06F2  1903               	goto	u3163
  9186  06F3  2EF5               	addwf	(___flmul@prod+3),f
  9187  06F4  07B7               u3163:
  9188  06F5                     
  9189                           	line	146
  9190                           	
  9191                           l3376:	
  9192  06F5                     	movlw	08h
  9193  06F5  3008               	movwf	(??___flmul+0)+0
  9194  06F6  00A8               u3175:
  9195  06F7                     	clrc
  9196  06F7  1003               	rlf	(___flmul@grs),f
  9197  06F8  0DAE               	rlf	(___flmul@grs+1),f
  9198  06F9  0DAF               	rlf	(___flmul@grs+2),f
  9199  06FA  0DB0               	rlf	(___flmul@grs+3),f
  9200  06FB  0DB1               	decfsz	(??___flmul+0)+0
  9201  06FC  0BA8               	goto	u3175
  9202  06FD  2EF7               	line	149
  9203                           	
  9204                           l3378:	
  9205  06FE                     	movf	(___flmul@bexp),w
  9206  06FE  0833               	addwf	(___flmul@aexp),w
  9207  06FF  0732               	movwf	(??___flmul+0)+0
  9208  0700  00A8               	clrf	(??___flmul+0)+0+1
  9209  0701  01A9               	rlf	1+(??___flmul+0)+0,f
  9210  0702  0DA9               	
  9211                           	movf	0+(??___flmul+0)+0,w
  9212  0703  0828               	addlw	low(-126)
  9213  0704  3E82               	movwf	(___flmul@temp)
  9214  0705  00B8               	movf	1+(??___flmul+0)+0,w
  9215  0706  0829               	skipnc
  9216  0707  1803               	addlw	1
  9217  0708  3E01               	addlw	high(-126)
  9218  0709  3EFF               	movwf	1+(___flmul@temp)
  9219  070A  00B9               	line	152
  9220                           	goto	l3390
  9221  070B  2F2B               	
  9222                           l984:	
  9223  070C                     	line	153
  9224                           	
  9225                           l3380:	
  9226  070C                     	movlw	01h
  9227  070C  3001               	movwf	(??___flmul+0)+0
  9228  070D  00A8               u3185:
  9229  070E                     	clrc
  9230  070E  1003               	rlf	(___flmul@prod),f
  9231  070F  0DB4               	rlf	(___flmul@prod+1),f
  9232  0710  0DB5               	rlf	(___flmul@prod+2),f
  9233  0711  0DB6               	rlf	(___flmul@prod+3),f
  9234  0712  0DB7               	decfsz	(??___flmul+0)+0
  9235  0713  0BA8               	goto	u3185
  9236  0714  2F0E               	line	154
  9237                           	
  9238                           l3382:	
  9239  0715                     	btfss	(___flmul@grs+3),(31)&7
  9240  0715  1FB1               	goto	u3191
  9241  0716  2F18               	goto	u3190
  9242  0717  2F19               u3191:
  9243  0718                     	goto	l3386
  9244  0718  2F1B               u3190:
  9245  0719                     	line	155
  9246                           	
  9247                           l3384:	
  9248  0719                     	bsf	(___flmul@prod)+(0/8),(0)&7
  9249  0719  1434               	goto	l3386
  9250  071A  2F1B               	line	156
  9251                           	
  9252                           l985:	
  9253  071B                     	line	157
  9254                           	
  9255                           l3386:	
  9256  071B                     	movlw	01h
  9257  071B  3001               	movwf	(??___flmul+0)+0
  9258  071C  00A8               u3205:
  9259  071D                     	clrc
  9260  071D  1003               	rlf	(___flmul@grs),f
  9261  071E  0DAE               	rlf	(___flmul@grs+1),f
  9262  071F  0DAF               	rlf	(___flmul@grs+2),f
  9263  0720  0DB0               	rlf	(___flmul@grs+3),f
  9264  0721  0DB1               	decfsz	(??___flmul+0)+0
  9265  0722  0BA8               	goto	u3205
  9266  0723  2F1D               	line	158
  9267                           	
  9268                           l3388:	
  9269  0724                     	movlw	0FFh
  9270  0724  30FF               	addwf	(___flmul@temp),f
  9271  0725  07B8               	skipnc
  9272  0726  1803               	incf	(___flmul@temp+1),f
  9273  0727  0AB9               	movlw	0FFh
  9274  0728  30FF               	addwf	(___flmul@temp+1),f
  9275  0729  07B9               	goto	l3390
  9276  072A  2F2B               	line	159
  9277                           	
  9278                           l983:	
  9279  072B                     	line	152
  9280                           	
  9281                           l3390:	
  9282  072B                     	btfss	(___flmul@prod+2),(23)&7
  9283  072B  1FB6               	goto	u3211
  9284  072C  2F2E               	goto	u3210
  9285  072D  2F2F               u3211:
  9286  072E                     	goto	l3380
  9287  072E  2F0C               u3210:
  9288  072F                     	goto	l3392
  9289  072F  2F30               	
  9290                           l986:	
  9291  0730                     	line	163
  9292                           	
  9293                           l3392:	
  9294  0730                     	clrf	(___flmul@aexp)
  9295  0730  01B2               	line	164
  9296                           	
  9297                           l3394:	
  9298  0731                     	btfss	(___flmul@grs+3),(31)&7
  9299  0731  1FB1               	goto	u3221
  9300  0732  2F34               	goto	u3220
  9301  0733  2F35               u3221:
  9302  0734                     	goto	l3402
  9303  0734  2F55               u3220:
  9304  0735                     	line	165
  9305                           	
  9306                           l3396:	
  9307  0735                     	movlw	0FFh
  9308  0735  30FF               	andwf	(___flmul@grs),w
  9309  0736  052E               	movwf	(??___flmul+0)+0
  9310  0737  00A8               	movlw	0FFh
  9311  0738  30FF               	andwf	(___flmul@grs+1),w
  9312  0739  052F               	movwf	((??___flmul+0)+0+1)
  9313  073A  00A9               	movlw	0FFh
  9314  073B  30FF               	andwf	(___flmul@grs+2),w
  9315  073C  0530               	movwf	((??___flmul+0)+0+2)
  9316  073D  00AA               	movlw	07Fh
  9317  073E  307F               	andwf	(___flmul@grs+3),w
  9318  073F  0531               	movwf	((??___flmul+0)+0+3)
  9319  0740  00AB               	movf	3+(??___flmul+0)+0,w
  9320  0741  082B               	iorwf	2+(??___flmul+0)+0,w
  9321  0742  042A               	iorwf	1+(??___flmul+0)+0,w
  9322  0743  0429               	iorwf	0+(??___flmul+0)+0,w
  9323  0744  0428               	skipnz
  9324  0745  1903               	goto	u3231
  9325  0746  2F48               	goto	u3230
  9326  0747  2F49               u3231:
  9327  0748                     	goto	l988
  9328  0748  2F4C               u3230:
  9329  0749                     	line	166
  9330                           	
  9331                           l3398:	
  9332  0749                     	clrf	(___flmul@aexp)
  9333  0749  01B2               	incf	(___flmul@aexp),f
  9334  074A  0AB2               	line	167
  9335                           	goto	l3402
  9336  074B  2F55               	line	168
  9337                           	
  9338                           l988:	
  9339  074C                     	line	169
  9340                           	btfss	(___flmul@prod),(0)&7
  9341  074C  1C34               	goto	u3241
  9342  074D  2F4F               	goto	u3240
  9343  074E  2F50               u3241:
  9344  074F                     	goto	l3402
  9345  074F  2F55               u3240:
  9346  0750                     	line	170
  9347                           	
  9348                           l3400:	
  9349  0750                     	clrf	(___flmul@aexp)
  9350  0750  01B2               	incf	(___flmul@aexp),f
  9351  0751  0AB2               	goto	l3402
  9352  0752  2F55               	line	171
  9353                           	
  9354                           l990:	
  9355  0753                     	goto	l3402
  9356  0753  2F55               	line	172
  9357                           	
  9358                           l989:	
  9359  0754                     	goto	l3402
  9360  0754  2F55               	line	173
  9361                           	
  9362                           l987:	
  9363  0755                     	line	174
  9364                           	
  9365                           l3402:	
  9366  0755                     	movf	((___flmul@aexp)),w
  9367  0755  0832               	btfsc	status,2
  9368  0756  1903               	goto	u3251
  9369  0757  2F59               	goto	u3250
  9370  0758  2F5A               u3251:
  9371  0759                     	goto	l3412
  9372  0759  2F8D               u3250:
  9373  075A                     	line	175
  9374                           	
  9375                           l3404:	
  9376  075A                     	movlw	01h
  9377  075A  3001               	addwf	(___flmul@prod),f
  9378  075B  07B4               	movlw	0
  9379  075C  3000               	skipnc
  9380  075D  1803               movlw 1
  9381  075E  3001               	addwf	(___flmul@prod+1),f
  9382  075F  07B5               	movlw	0
  9383  0760  3000               	skipnc
  9384  0761  1803               movlw 1
  9385  0762  3001               	addwf	(___flmul@prod+2),f
  9386  0763  07B6               	movlw	0
  9387  0764  3000               	skipnc
  9388  0765  1803               movlw 1
  9389  0766  3001               	addwf	(___flmul@prod+3),f
  9390  0767  07B7               	line	176
  9391                           	
  9392                           l3406:	
  9393  0768                     	btfss	(___flmul@prod+3),(24)&7
  9394  0768  1C37               	goto	u3261
  9395  0769  2F6B               	goto	u3260
  9396  076A  2F6C               u3261:
  9397  076B                     	goto	l3412
  9398  076B  2F8D               u3260:
  9399  076C                     	line	177
  9400                           	
  9401                           l3408:	
  9402  076C                     	movf	(___flmul@prod),w
  9403  076C  0834               	movwf	(??___flmul+0)+0
  9404  076D  00A8               	movf	(___flmul@prod+1),w
  9405  076E  0835               	movwf	((??___flmul+0)+0+1)
  9406  076F  00A9               	movf	(___flmul@prod+2),w
  9407  0770  0836               	movwf	((??___flmul+0)+0+2)
  9408  0771  00AA               	movf	(___flmul@prod+3),w
  9409  0772  0837               	movwf	((??___flmul+0)+0+3)
  9410  0773  00AB               	movlw	01h
  9411  0774  3001               	movwf	(??___flmul+4)+0
  9412  0775  00AC               u3275:
  9413  0776                     	rlf	(??___flmul+0)+3,w
  9414  0776  0D2B               	rrf	(??___flmul+0)+3,f
  9415  0777  0CAB               	rrf	(??___flmul+0)+2,f
  9416  0778  0CAA               	rrf	(??___flmul+0)+1,f
  9417  0779  0CA9               	rrf	(??___flmul+0)+0,f
  9418  077A  0CA8               u3270:
  9419  077B                     	decfsz	(??___flmul+4)+0,f
  9420  077B  0BAC               	goto	u3275
  9421  077C  2F76               	movf	3+(??___flmul+0)+0,w
  9422  077D  082B               	movwf	(___flmul@prod+3)
  9423  077E  00B7               	movf	2+(??___flmul+0)+0,w
  9424  077F  082A               	movwf	(___flmul@prod+2)
  9425  0780  00B6               	movf	1+(??___flmul+0)+0,w
  9426  0781  0829               	movwf	(___flmul@prod+1)
  9427  0782  00B5               	movf	0+(??___flmul+0)+0,w
  9428  0783  0828               	movwf	(___flmul@prod)
  9429  0784  00B4               
  9430                           	line	178
  9431                           	
  9432                           l3410:	
  9433  0785                     	movlw	01h
  9434  0785  3001               	addwf	(___flmul@temp),f
  9435  0786  07B8               	skipnc
  9436  0787  1803               	incf	(___flmul@temp+1),f
  9437  0788  0AB9               	movlw	0
  9438  0789  3000               	addwf	(___flmul@temp+1),f
  9439  078A  07B9               	goto	l3412
  9440  078B  2F8D               	line	179
  9441                           	
  9442                           l992:	
  9443  078C                     	goto	l3412
  9444  078C  2F8D               	line	180
  9445                           	
  9446                           l991:	
  9447  078D                     	line	183
  9448                           	
  9449                           l3412:	
  9450  078D                     	movf	(___flmul@temp+1),w
  9451  078D  0839               	xorlw	80h
  9452  078E  3A80               	movwf	btemp+1
  9453  078F  00FF               	movlw	(0)^80h
  9454  0790  3080               	subwf	btemp+1,w
  9455  0791  027F               	skipz
  9456  0792  1D03               	goto	u3285
  9457  0793  2F96               	movlw	0FFh
  9458  0794  30FF               	subwf	(___flmul@temp),w
  9459  0795  0238               u3285:
  9460  0796                     
  9461                           	skipc
  9462  0796  1C03               	goto	u3281
  9463  0797  2F99               	goto	u3280
  9464  0798  2F9A               u3281:
  9465  0799                     	goto	l3416
  9466  0799  2FA5               u3280:
  9467  079A                     	line	184
  9468                           	
  9469                           l3414:	
  9470  079A                     	movlw	07Fh
  9471  079A  307F               	bcf	status, 5	;RP0=0, select bank0
  9472  079B  1283               	bcf	status, 6	;RP1=0, select bank0
  9473  079C  1303               	movwf	(___flmul@prod+3)
  9474  079D  00B7               	movlw	080h
  9475  079E  3080               	movwf	(___flmul@prod+2)
  9476  079F  00B6               	movlw	0
  9477  07A0  3000               	movwf	(___flmul@prod+1)
  9478  07A1  00B5               	movlw	0
  9479  07A2  3000               	movwf	(___flmul@prod)
  9480  07A3  00B4               
  9481                           	line	185
  9482                           	goto	l994
  9483  07A4  2FDC               	line	187
  9484                           	
  9485                           l993:	
  9486  07A5                     	
  9487                           l3416:	
  9488  07A5                     	bcf	status, 5	;RP0=0, select bank0
  9489  07A5  1283               	bcf	status, 6	;RP1=0, select bank0
  9490  07A6  1303               	movf	(___flmul@temp+1),w
  9491  07A7  0839               	xorlw	80h
  9492  07A8  3A80               	movwf	btemp+1
  9493  07A9  00FF               	movlw	(0)^80h
  9494  07AA  3080               	subwf	btemp+1,w
  9495  07AB  027F               	skipz
  9496  07AC  1D03               	goto	u3295
  9497  07AD  2FB0               	movlw	01h
  9498  07AE  3001               	subwf	(___flmul@temp),w
  9499  07AF  0238               u3295:
  9500  07B0                     
  9501                           	skipnc
  9502  07B0  1803               	goto	u3291
  9503  07B1  2FB3               	goto	u3290
  9504  07B2  2FB4               u3291:
  9505  07B3                     	goto	l3422
  9506  07B3  2FC0               u3290:
  9507  07B4                     	line	188
  9508                           	
  9509                           l3418:	
  9510  07B4                     	movlw	high highword(0)
  9511  07B4  3000               	bcf	status, 5	;RP0=0, select bank0
  9512  07B5  1283               	bcf	status, 6	;RP1=0, select bank0
  9513  07B6  1303               	movwf	(___flmul@prod+3)
  9514  07B7  00B7               	movlw	low highword(0)
  9515  07B8  3000               	movwf	(___flmul@prod+2)
  9516  07B9  00B6               	movlw	high(0)
  9517  07BA  3000               	movwf	(___flmul@prod+1)
  9518  07BB  00B5               	movlw	low(0)
  9519  07BC  3000               	movwf	(___flmul@prod)
  9520  07BD  00B4               
  9521                           	line	190
  9522                           	
  9523                           l3420:	
  9524  07BE                     	clrf	(___flmul@sign)
  9525  07BE  01AD               	line	191
  9526                           	goto	l994
  9527  07BF  2FDC               	line	192
  9528                           	
  9529                           l995:	
  9530  07C0                     	line	194
  9531                           	
  9532                           l3422:	
  9533  07C0                     	bcf	status, 5	;RP0=0, select bank0
  9534  07C0  1283               	bcf	status, 6	;RP1=0, select bank0
  9535  07C1  1303               	movf	(___flmul@temp),w
  9536  07C2  0838               	movwf	(??___flmul+0)+0
  9537  07C3  00A8               	movf	(??___flmul+0)+0,w
  9538  07C4  0828               	movwf	(___flmul@bexp)
  9539  07C5  00B3               	line	195
  9540                           	movlw	0FFh
  9541  07C6  30FF               	andwf	(___flmul@prod),f
  9542  07C7  05B4               	movlw	0FFh
  9543  07C8  30FF               	andwf	(___flmul@prod+1),f
  9544  07C9  05B5               	movlw	07Fh
  9545  07CA  307F               	andwf	(___flmul@prod+2),f
  9546  07CB  05B6               	movlw	0
  9547  07CC  3000               	andwf	(___flmul@prod+3),f
  9548  07CD  05B7               	line	196
  9549                           	
  9550                           l3424:	
  9551  07CE                     	btfss	(___flmul@bexp),(0)&7
  9552  07CE  1C33               	goto	u3301
  9553  07CF  2FD1               	goto	u3300
  9554  07D0  2FD2               u3301:
  9555  07D1                     	goto	l3428
  9556  07D1  2FD4               u3300:
  9557  07D2                     	line	197
  9558                           	
  9559                           l3426:	
  9560  07D2                     	bsf	0+(___flmul@prod)+02h+(7/8),(7)&7
  9561  07D2  17B6               	goto	l3428
  9562  07D3  2FD4               	line	198
  9563                           	
  9564                           l997:	
  9565  07D4                     	line	199
  9566                           	
  9567                           l3428:	
  9568  07D4                     	movf	(___flmul@bexp),w
  9569  07D4  0833               	movwf	(??___flmul+0)+0
  9570  07D5  00A8               	clrc
  9571  07D6  1003               	rrf	(??___flmul+0)+0,w
  9572  07D7  0C28               	movwf	(??___flmul+1)+0
  9573  07D8  00A9               	movf	(??___flmul+1)+0,w
  9574  07D9  0829               	movwf	0+(___flmul@prod)+03h
  9575  07DA  00B7               	goto	l994
  9576  07DB  2FDC               	line	200
  9577                           	
  9578                           l996:	
  9579  07DC                     	
  9580                           l994:	
  9581  07DC                     	line	201
  9582                           	movf	(___flmul@sign),w
  9583  07DC  082D               	movwf	(??___flmul+0)+0
  9584  07DD  00A8               	movf	(??___flmul+0)+0,w
  9585  07DE  0828               	iorwf	0+(___flmul@prod)+03h,f
  9586  07DF  04B7               	line	203
  9587                           	
  9588                           l3430:	
  9589  07E0                     	movf	(___flmul@prod+3),w
  9590  07E0  0837               	movwf	(?___flmul+3)
  9591  07E1  00A3               	movf	(___flmul@prod+2),w
  9592  07E2  0836               	movwf	(?___flmul+2)
  9593  07E3  00A2               	movf	(___flmul@prod+1),w
  9594  07E4  0835               	movwf	(?___flmul+1)
  9595  07E5  00A1               	movf	(___flmul@prod),w
  9596  07E6  0834               	movwf	(?___flmul)
  9597  07E7  00A0               
  9598                           	goto	l982
  9599  07E8  2FE9               	
  9600                           l3432:	
  9601  07E9                     	line	205
  9602                           	
  9603                           l982:	
  9604  07E9                     	return
  9605  07E9  0008               	opt stack 0
  9606                           GLOBAL	__end_of___flmul
  9607                           	__end_of___flmul:
  9608  07EA                     	signat	___flmul,8316
  9609                           	global	__Umul8_16
  9610                           
  9611 ;; *************** function __Umul8_16 *****************
  9612 ;; Defined at:
  9613 ;;		line 4 in file "C:\Program Files (x86)\Microchip\xc8\v2.00\pic\sources\c90\common\Umul8_16.c"
  9614 ;; Parameters:    Size  Location     Type
  9615 ;;  multiplier      1    wreg     unsigned char 
  9616 ;;  multiplicand    1    0[COMMON] unsigned char 
  9617 ;; Auto vars:     Size  Location     Type
  9618 ;;  multiplier      1    8[COMMON] unsigned char 
  9619 ;;  word_mpld       2    6[COMMON] unsigned int 
  9620 ;;  product         2    4[COMMON] unsigned int 
  9621 ;; Return value:  Size  Location     Type
  9622 ;;                  2    0[COMMON] unsigned int 
  9623 ;; Registers used:
  9624 ;;		wreg, status,2, status,0
  9625 ;; Tracked objects:
  9626 ;;		On entry : 0/0
  9627 ;;		On exit  : 0/0
  9628 ;;		Unchanged: 0/0
  9629 ;; Data sizes:     COMMON   BANK0   BANK1   BANK3   BANK2
  9630 ;;      Params:         2       0       0       0       0
  9631 ;;      Locals:         5       0       0       0       0
  9632 ;;      Temps:          2       0       0       0       0
  9633 ;;      Totals:         9       0       0       0       0
  9634 ;;Total ram usage:        9 bytes
  9635 ;; Hardware stack levels used:    1
  9636 ;; This function calls:
  9637 ;;		Nothing
  9638 ;; This function is called by:
  9639 ;;		___flmul
  9640 ;; This function uses a non-reentrant model
  9641 ;;
  9642                           psect	text23,local,class=CODE,delta=2,merge=1,group=1
  9643                           	file	"C:\Program Files (x86)\Microchip\xc8\v2.00\pic\sources\c90\common\Umul8_16.c"
  9644                           	line	4
  9645                           global __ptext23
  9646                           __ptext23:	;psect for function __Umul8_16
  9647  1FAA                     psect	text23
  9648                           	file	"C:\Program Files (x86)\Microchip\xc8\v2.00\pic\sources\c90\common\Umul8_16.c"
  9649                           	line	4
  9650                           	global	__size_of__Umul8_16
  9651                           	__size_of__Umul8_16	equ	__end_of__Umul8_16-__Umul8_16
  9652  002A                     	
  9653                           __Umul8_16:	
  9654  1FAA                     ;incstack = 0
  9655                           	opt	stack 4
  9656                           ; Regs used in __Umul8_16: [wreg+status,2+status,0]
  9657                           ;__Umul8_16@multiplier stored from wreg
  9658                           	movwf	(__Umul8_16@multiplier)
  9659  1FAA  00F8               	line	5
  9660                           	
  9661                           l2792:	
  9662  1FAB                     	clrf	(__Umul8_16@product)
  9663  1FAB  01F4               	clrf	(__Umul8_16@product+1)
  9664  1FAC  01F5               	line	6
  9665                           	
  9666                           l2794:	
  9667  1FAD                     	movf	(__Umul8_16@multiplicand),w
  9668  1FAD  0870               	movwf	(??__Umul8_16+0)+0
  9669  1FAE  00F2               	clrf	(??__Umul8_16+0)+0+1
  9670  1FAF  01F3               	movf	0+(??__Umul8_16+0)+0,w
  9671  1FB0  0872               	movwf	(__Umul8_16@word_mpld)
  9672  1FB1  00F6               	movf	1+(??__Umul8_16+0)+0,w
  9673  1FB2  0873               	movwf	(__Umul8_16@word_mpld+1)
  9674  1FB3  00F7               	goto	l2796
  9675  1FB4  2FB5               	line	50
  9676                           	
  9677                           l1019:	
  9678  1FB5                     	line	51
  9679                           	
  9680                           l2796:	
  9681  1FB5                     	btfss	(__Umul8_16@multiplier),(0)&7
  9682  1FB5  1C78               	goto	u2011
  9683  1FB6  2FB8               	goto	u2010
  9684  1FB7  2FB9               u2011:
  9685  1FB8                     	goto	l1020
  9686  1FB8  2FBF               u2010:
  9687  1FB9                     	line	52
  9688                           	
  9689                           l2798:	
  9690  1FB9                     	movf	(__Umul8_16@word_mpld),w
  9691  1FB9  0876               	addwf	(__Umul8_16@product),f
  9692  1FBA  07F4               	skipnc
  9693  1FBB  1803               	incf	(__Umul8_16@product+1),f
  9694  1FBC  0AF5               	movf	(__Umul8_16@word_mpld+1),w
  9695  1FBD  0877               	addwf	(__Umul8_16@product+1),f
  9696  1FBE  07F5               	line	53
  9697                           	
  9698                           l1020:	
  9699  1FBF                     	line	54
  9700                           	movlw	01h
  9701  1FBF  3001               	
  9702                           u2025:
  9703  1FC0                     	clrc
  9704  1FC0  1003               	rlf	(__Umul8_16@word_mpld),f
  9705  1FC1  0DF6               	rlf	(__Umul8_16@word_mpld+1),f
  9706  1FC2  0DF7               	addlw	-1
  9707  1FC3  3EFF               	skipz
  9708  1FC4  1D03               	goto	u2025
  9709  1FC5  2FC0               	line	55
  9710                           	clrc
  9711  1FC6  1003               	rrf	(__Umul8_16@multiplier),f
  9712  1FC7  0CF8               
  9713                           	line	56
  9714                           	
  9715                           l2800:	
  9716  1FC8                     	movf	((__Umul8_16@multiplier)),w
  9717  1FC8  0878               	btfss	status,2
  9718  1FC9  1D03               	goto	u2031
  9719  1FCA  2FCC               	goto	u2030
  9720  1FCB  2FCD               u2031:
  9721  1FCC                     	goto	l2796
  9722  1FCC  2FB5               u2030:
  9723  1FCD                     	goto	l2802
  9724  1FCD  2FCE               	
  9725                           l1021:	
  9726  1FCE                     	line	59
  9727                           	
  9728                           l2802:	
  9729  1FCE                     	movf	(__Umul8_16@product+1),w
  9730  1FCE  0875               	movwf	(?__Umul8_16+1)
  9731  1FCF  00F1               	movf	(__Umul8_16@product),w
  9732  1FD0  0874               	movwf	(?__Umul8_16)
  9733  1FD1  00F0               	goto	l1022
  9734  1FD2  2FD3               	
  9735                           l2804:	
  9736  1FD3                     	line	60
  9737                           	
  9738                           l1022:	
  9739  1FD3                     	return
  9740  1FD3  0008               	opt stack 0
  9741                           GLOBAL	__end_of__Umul8_16
  9742                           	__end_of__Umul8_16:
  9743  1FD4                     	signat	__Umul8_16,8314
  9744                           	global	___fldiv
  9745                           
  9746 ;; *************** function ___fldiv *****************
  9747 ;; Defined at:
  9748 ;;		line 8 in file "C:\Program Files (x86)\Microchip\xc8\v2.00\pic\sources\c90\common\sprcdiv.c"
  9749 ;; Parameters:    Size  Location     Type
  9750 ;;  a               4   54[BANK0 ] unsigned int 
  9751 ;;  b               4   58[BANK0 ] unsigned int 
  9752 ;; Auto vars:     Size  Location     Type
  9753 ;;  grs             4   74[BANK0 ] unsigned long 
  9754 ;;  rem             4   67[BANK0 ] unsigned long 
  9755 ;;  new_exp         2   72[BANK0 ] int 
  9756 ;;  aexp            1   79[BANK0 ] unsigned char 
  9757 ;;  bexp            1   78[BANK0 ] unsigned char 
  9758 ;;  sign            1   71[BANK0 ] unsigned char 
  9759 ;; Return value:  Size  Location     Type
  9760 ;;                  4   54[BANK0 ] unsigned char 
  9761 ;; Registers used:
  9762 ;;		wreg, status,2, status,0, btemp+1
  9763 ;; Tracked objects:
  9764 ;;		On entry : 0/0
  9765 ;;		On exit  : 0/0
  9766 ;;		Unchanged: 0/0
  9767 ;; Data sizes:     COMMON   BANK0   BANK1   BANK3   BANK2
  9768 ;;      Params:         0       8       0       0       0
  9769 ;;      Locals:         0      13       0       0       0
  9770 ;;      Temps:          0       5       0       0       0
  9771 ;;      Totals:         0      26       0       0       0
  9772 ;;Total ram usage:       26 bytes
  9773 ;; Hardware stack levels used:    1
  9774 ;; This function calls:
  9775 ;;		Nothing
  9776 ;; This function is called by:
  9777 ;;		_map
  9778 ;;		_AccionControl
  9779 ;; This function uses a non-reentrant model
  9780 ;;
  9781                           psect	text24,local,class=CODE,delta=2,merge=1,group=1
  9782                           	file	"C:\Program Files (x86)\Microchip\xc8\v2.00\pic\sources\c90\common\sprcdiv.c"
  9783                           	line	8
  9784                           global __ptext24
  9785                           __ptext24:	;psect for function ___fldiv
  9786  08FB                     psect	text24
  9787                           	file	"C:\Program Files (x86)\Microchip\xc8\v2.00\pic\sources\c90\common\sprcdiv.c"
  9788                           	line	8
  9789                           	global	__size_of___fldiv
  9790                           	__size_of___fldiv	equ	__end_of___fldiv-___fldiv
  9791  0209                     	
  9792                           ___fldiv:	
  9793  08FB                     ;incstack = 0
  9794                           	opt	stack 5
  9795                           ; Regs used in ___fldiv: [wreg+status,2+status,0+btemp+1]
  9796                           	line	26
  9797                           	
  9798                           l3152:	
  9799  08FB                     	bcf	status, 5	;RP0=0, select bank0
  9800  08FB  1283               	bcf	status, 6	;RP1=0, select bank0
  9801  08FC  1303               	movf	0+(___fldiv@b)+03h,w
  9802  08FD  085D               	andlw	080h
  9803  08FE  3980               	movwf	(??___fldiv+0)+0
  9804  08FF  00DE               	movf	(??___fldiv+0)+0,w
  9805  0900  085E               	movwf	(___fldiv@sign)
  9806  0901  00E7               	line	27
  9807                           	
  9808                           l3154:	
  9809  0902                     	movf	0+(___fldiv@b)+03h,w
  9810  0902  085D               	movwf	(??___fldiv+0)+0
  9811  0903  00DE               	addwf	(??___fldiv+0)+0,w
  9812  0904  075E               	movwf	(??___fldiv+1)+0
  9813  0905  00DF               	movf	(??___fldiv+1)+0,w
  9814  0906  085F               	movwf	(___fldiv@bexp)
  9815  0907  00EE               	line	28
  9816                           	
  9817                           l3156:	
  9818  0908                     	btfss	0+(___fldiv@b)+02h,(7)&7
  9819  0908  1FDC               	goto	u2651
  9820  0909  290B               	goto	u2650
  9821  090A  290C               u2651:
  9822  090B                     	goto	l3160
  9823  090B  290E               u2650:
  9824  090C                     	line	29
  9825                           	
  9826                           l3158:	
  9827  090C                     	bsf	(___fldiv@bexp)+(0/8),(0)&7
  9828  090C  146E               	goto	l3160
  9829  090D  290E               	line	30
  9830                           	
  9831                           l935:	
  9832  090E                     	line	33
  9833                           	
  9834                           l3160:	
  9835  090E                     	movf	((___fldiv@bexp)),w
  9836  090E  086E               	btfsc	status,2
  9837  090F  1903               	goto	u2661
  9838  0910  2912               	goto	u2660
  9839  0911  2913               u2661:
  9840  0912                     	goto	l3170
  9841  0912  2924               u2660:
  9842  0913                     	line	35
  9843                           	
  9844                           l3162:	
  9845  0913                     		incf	((___fldiv@bexp)),w
  9846  0913  0A6E               	btfss	status,2
  9847  0914  1D03               	goto	u2671
  9848  0915  2917               	goto	u2670
  9849  0916  2918               u2671:
  9850  0917                     	goto	l3166
  9851  0917  2921               u2670:
  9852  0918                     	line	37
  9853                           	
  9854                           l3164:	
  9855  0918                     	movlw	0x0
  9856  0918  3000               	movwf	(___fldiv@b+3)
  9857  0919  00DD               	movlw	0x0
  9858  091A  3000               	movwf	(___fldiv@b+2)
  9859  091B  00DC               	movlw	0x0
  9860  091C  3000               	movwf	(___fldiv@b+1)
  9861  091D  00DB               	movlw	0x0
  9862  091E  3000               	movwf	(___fldiv@b)
  9863  091F  00DA               
  9864                           	goto	l3166
  9865  0920  2921               	line	38
  9866                           	
  9867                           l937:	
  9868  0921                     	line	40
  9869                           	
  9870                           l3166:	
  9871  0921                     	bsf	(___fldiv@b)+(23/8),(23)&7
  9872  0921  17DC               	line	42
  9873                           	
  9874                           l3168:	
  9875  0922                     	clrf	0+(___fldiv@b)+03h
  9876  0922  01DD               	line	43
  9877                           	goto	l3172
  9878  0923  292D               	line	44
  9879                           	
  9880                           l936:	
  9881  0924                     	line	46
  9882                           	
  9883                           l3170:	
  9884  0924                     	movlw	0x0
  9885  0924  3000               	movwf	(___fldiv@b+3)
  9886  0925  00DD               	movlw	0x0
  9887  0926  3000               	movwf	(___fldiv@b+2)
  9888  0927  00DC               	movlw	0x0
  9889  0928  3000               	movwf	(___fldiv@b+1)
  9890  0929  00DB               	movlw	0x0
  9891  092A  3000               	movwf	(___fldiv@b)
  9892  092B  00DA               
  9893                           	goto	l3172
  9894  092C  292D               	line	47
  9895                           	
  9896                           l938:	
  9897  092D                     	line	49
  9898                           	
  9899                           l3172:	
  9900  092D                     	movf	0+(___fldiv@a)+03h,w
  9901  092D  0859               	andlw	080h
  9902  092E  3980               	movwf	(??___fldiv+0)+0
  9903  092F  00DE               	movf	(??___fldiv+0)+0,w
  9904  0930  085E               	xorwf	(___fldiv@sign),f
  9905  0931  06E7               	line	50
  9906                           	
  9907                           l3174:	
  9908  0932                     	movf	0+(___fldiv@a)+03h,w
  9909  0932  0859               	movwf	(??___fldiv+0)+0
  9910  0933  00DE               	addwf	(??___fldiv+0)+0,w
  9911  0934  075E               	movwf	(??___fldiv+1)+0
  9912  0935  00DF               	movf	(??___fldiv+1)+0,w
  9913  0936  085F               	movwf	(___fldiv@aexp)
  9914  0937  00EF               	line	51
  9915                           	
  9916                           l3176:	
  9917  0938                     	btfss	0+(___fldiv@a)+02h,(7)&7
  9918  0938  1FD8               	goto	u2681
  9919  0939  293B               	goto	u2680
  9920  093A  293C               u2681:
  9921  093B                     	goto	l3180
  9922  093B  293E               u2680:
  9923  093C                     	line	52
  9924                           	
  9925                           l3178:	
  9926  093C                     	bsf	(___fldiv@aexp)+(0/8),(0)&7
  9927  093C  146F               	goto	l3180
  9928  093D  293E               	line	53
  9929                           	
  9930                           l939:	
  9931  093E                     	line	56
  9932                           	
  9933                           l3180:	
  9934  093E                     	movf	((___fldiv@aexp)),w
  9935  093E  086F               	btfsc	status,2
  9936  093F  1903               	goto	u2691
  9937  0940  2942               	goto	u2690
  9938  0941  2943               u2691:
  9939  0942                     	goto	l3190
  9940  0942  2954               u2690:
  9941  0943                     	line	58
  9942                           	
  9943                           l3182:	
  9944  0943                     		incf	((___fldiv@aexp)),w
  9945  0943  0A6F               	btfss	status,2
  9946  0944  1D03               	goto	u2701
  9947  0945  2947               	goto	u2700
  9948  0946  2948               u2701:
  9949  0947                     	goto	l3186
  9950  0947  2951               u2700:
  9951  0948                     	line	60
  9952                           	
  9953                           l3184:	
  9954  0948                     	movlw	0x0
  9955  0948  3000               	movwf	(___fldiv@a+3)
  9956  0949  00D9               	movlw	0x0
  9957  094A  3000               	movwf	(___fldiv@a+2)
  9958  094B  00D8               	movlw	0x0
  9959  094C  3000               	movwf	(___fldiv@a+1)
  9960  094D  00D7               	movlw	0x0
  9961  094E  3000               	movwf	(___fldiv@a)
  9962  094F  00D6               
  9963                           	goto	l3186
  9964  0950  2951               	line	61
  9965                           	
  9966                           l941:	
  9967  0951                     	line	63
  9968                           	
  9969                           l3186:	
  9970  0951                     	bsf	(___fldiv@a)+(23/8),(23)&7
  9971  0951  17D8               	line	65
  9972                           	
  9973                           l3188:	
  9974  0952                     	clrf	0+(___fldiv@a)+03h
  9975  0952  01D9               	line	66
  9976                           	goto	l942
  9977  0953  295C               	line	67
  9978                           	
  9979                           l940:	
  9980  0954                     	line	69
  9981                           	
  9982                           l3190:	
  9983  0954                     	movlw	0x0
  9984  0954  3000               	movwf	(___fldiv@a+3)
  9985  0955  00D9               	movlw	0x0
  9986  0956  3000               	movwf	(___fldiv@a+2)
  9987  0957  00D8               	movlw	0x0
  9988  0958  3000               	movwf	(___fldiv@a+1)
  9989  0959  00D7               	movlw	0x0
  9990  095A  3000               	movwf	(___fldiv@a)
  9991  095B  00D6               
  9992                           	line	70
  9993                           	
  9994                           l942:	
  9995  095C                     	line	75
  9996                           	movf	(___fldiv@a+3),w
  9997  095C  0859               	iorwf	(___fldiv@a+2),w
  9998  095D  0458               	iorwf	(___fldiv@a+1),w
  9999  095E  0457               	iorwf	(___fldiv@a),w
 10000  095F  0456               	skipz
 10001  0960  1D03               	goto	u2711
 10002  0961  2963               	goto	u2710
 10003  0962  2964               u2711:
 10004  0963                     	goto	l3200
 10005  0963  297E               u2710:
 10006  0964                     	line	76
 10007                           	
 10008                           l3192:	
 10009  0964                     	movlw	high highword(0)
 10010  0964  3000               	movwf	(___fldiv@b+3)
 10011  0965  00DD               	movlw	low highword(0)
 10012  0966  3000               	movwf	(___fldiv@b+2)
 10013  0967  00DC               	movlw	high(0)
 10014  0968  3000               	movwf	(___fldiv@b+1)
 10015  0969  00DB               	movlw	low(0)
 10016  096A  3000               	movwf	(___fldiv@b)
 10017  096B  00DA               
 10018                           	line	77
 10019                           	movlw	080h
 10020  096C  3080               	iorwf	0+(___fldiv@b)+02h,f
 10021  096D  04DC               	movlw	07Fh
 10022  096E  307F               	iorwf	1+(___fldiv@b)+02h,f
 10023  096F  04DD               	line	78
 10024                           	
 10025                           l3194:	
 10026  0970                     	movf	(___fldiv@sign),w
 10027  0970  0867               	movwf	(??___fldiv+0)+0
 10028  0971  00DE               	movf	(??___fldiv+0)+0,w
 10029  0972  085E               	iorwf	0+(___fldiv@b)+03h,f
 10030  0973  04DD               	line	79
 10031                           	
 10032                           l3196:	
 10033  0974                     	movf	(___fldiv@b+3),w
 10034  0974  085D               	movwf	(?___fldiv+3)
 10035  0975  00D9               	movf	(___fldiv@b+2),w
 10036  0976  085C               	movwf	(?___fldiv+2)
 10037  0977  00D8               	movf	(___fldiv@b+1),w
 10038  0978  085B               	movwf	(?___fldiv+1)
 10039  0979  00D7               	movf	(___fldiv@b),w
 10040  097A  085A               	movwf	(?___fldiv)
 10041  097B  00D6               
 10042                           	goto	l944
 10043  097C  2B03               	
 10044                           l3198:	
 10045  097D                     	goto	l944
 10046  097D  2B03               	line	80
 10047                           	
 10048                           l943:	
 10049  097E                     	line	83
 10050                           	
 10051                           l3200:	
 10052  097E                     	movf	((___fldiv@bexp)),w
 10053  097E  086E               	btfss	status,2
 10054  097F  1D03               	goto	u2721
 10055  0980  2982               	goto	u2720
 10056  0981  2983               u2721:
 10057  0982                     	goto	l3206
 10058  0982  2995               u2720:
 10059  0983                     	line	84
 10060                           	
 10061                           l3202:	
 10062  0983                     	movlw	high highword(0)
 10063  0983  3000               	movwf	(___fldiv@b+3)
 10064  0984  00DD               	movlw	low highword(0)
 10065  0985  3000               	movwf	(___fldiv@b+2)
 10066  0986  00DC               	movlw	high(0)
 10067  0987  3000               	movwf	(___fldiv@b+1)
 10068  0988  00DB               	movlw	low(0)
 10069  0989  3000               	movwf	(___fldiv@b)
 10070  098A  00DA               
 10071                           	line	85
 10072                           	movf	(___fldiv@b+3),w
 10073  098B  085D               	movwf	(?___fldiv+3)
 10074  098C  00D9               	movf	(___fldiv@b+2),w
 10075  098D  085C               	movwf	(?___fldiv+2)
 10076  098E  00D8               	movf	(___fldiv@b+1),w
 10077  098F  085B               	movwf	(?___fldiv+1)
 10078  0990  00D7               	movf	(___fldiv@b),w
 10079  0991  085A               	movwf	(?___fldiv)
 10080  0992  00D6               
 10081                           	goto	l944
 10082  0993  2B03               	
 10083                           l3204:	
 10084  0994                     	goto	l944
 10085  0994  2B03               	line	86
 10086                           	
 10087                           l945:	
 10088  0995                     	line	89
 10089                           	
 10090                           l3206:	
 10091  0995                     	movf	(___fldiv@aexp),w
 10092  0995  086F               	movwf	(??___fldiv+0)+0
 10093  0996  00DE               	clrf	(??___fldiv+0)+0+1
 10094  0997  01DF               	comf	(??___fldiv+0)+0,f
 10095  0998  09DE               	comf	(??___fldiv+0)+1,f
 10096  0999  09DF               	incf	(??___fldiv+0)+0,f
 10097  099A  0ADE               	skipnz
 10098  099B  1903               	incf	(??___fldiv+0)+1,f
 10099  099C  0ADF               	movf	(___fldiv@bexp),w
 10100  099D  086E               	addwf	0+(??___fldiv+0)+0,w
 10101  099E  075E               	movwf	(??___fldiv+2)+0
 10102  099F  00E0               	movf	1+(??___fldiv+0)+0,w
 10103  09A0  085F               	skipnc
 10104  09A1  1803               	incf	1+(??___fldiv+0)+0,w
 10105  09A2  0A5F               	movwf	((??___fldiv+2)+0)+1
 10106  09A3  00E1               	movf	0+(??___fldiv+2)+0,w
 10107  09A4  0860               	addlw	low(07Fh)
 10108  09A5  3E7F               	movwf	(___fldiv@new_exp)
 10109  09A6  00E8               	movf	1+(??___fldiv+2)+0,w
 10110  09A7  0861               	skipnc
 10111  09A8  1803               	addlw	1
 10112  09A9  3E01               	addlw	high(07Fh)
 10113  09AA  3E00               	movwf	1+(___fldiv@new_exp)
 10114  09AB  00E9               	line	92
 10115                           	
 10116                           l3208:	
 10117  09AC                     	movf	(___fldiv@b+3),w
 10118  09AC  085D               	movwf	(___fldiv@rem+3)
 10119  09AD  00E6               	movf	(___fldiv@b+2),w
 10120  09AE  085C               	movwf	(___fldiv@rem+2)
 10121  09AF  00E5               	movf	(___fldiv@b+1),w
 10122  09B0  085B               	movwf	(___fldiv@rem+1)
 10123  09B1  00E4               	movf	(___fldiv@b),w
 10124  09B2  085A               	movwf	(___fldiv@rem)
 10125  09B3  00E3               
 10126                           	line	93
 10127                           	
 10128                           l3210:	
 10129  09B4                     	movlw	high highword(0)
 10130  09B4  3000               	movwf	(___fldiv@b+3)
 10131  09B5  00DD               	movlw	low highword(0)
 10132  09B6  3000               	movwf	(___fldiv@b+2)
 10133  09B7  00DC               	movlw	high(0)
 10134  09B8  3000               	movwf	(___fldiv@b+1)
 10135  09B9  00DB               	movlw	low(0)
 10136  09BA  3000               	movwf	(___fldiv@b)
 10137  09BB  00DA               
 10138                           	line	94
 10139                           	
 10140                           l3212:	
 10141  09BC                     	movlw	high highword(0)
 10142  09BC  3000               	movwf	(___fldiv@grs+3)
 10143  09BD  00ED               	movlw	low highword(0)
 10144  09BE  3000               	movwf	(___fldiv@grs+2)
 10145  09BF  00EC               	movlw	high(0)
 10146  09C0  3000               	movwf	(___fldiv@grs+1)
 10147  09C1  00EB               	movlw	low(0)
 10148  09C2  3000               	movwf	(___fldiv@grs)
 10149  09C3  00EA               
 10150                           	line	96
 10151                           	
 10152                           l3214:	
 10153  09C4                     	clrf	(___fldiv@aexp)
 10154  09C4  01EF               	line	97
 10155                           	goto	l3234
 10156  09C5  2A14               	
 10157                           l947:	
 10158  09C6                     	line	100
 10159                           	
 10160                           l3216:	
 10161  09C6                     	movf	((___fldiv@aexp)),w
 10162  09C6  086F               	btfsc	status,2
 10163  09C7  1903               	goto	u2731
 10164  09C8  29CA               	goto	u2730
 10165  09C9  29CB               u2731:
 10166  09CA                     	goto	l3226
 10167  09CA  29ED               u2730:
 10168  09CB                     	line	101
 10169                           	
 10170                           l3218:	
 10171  09CB                     	movlw	01h
 10172  09CB  3001               	movwf	(??___fldiv+0)+0
 10173  09CC  00DE               u2745:
 10174  09CD                     	clrc
 10175  09CD  1003               	rlf	(___fldiv@rem),f
 10176  09CE  0DE3               	rlf	(___fldiv@rem+1),f
 10177  09CF  0DE4               	rlf	(___fldiv@rem+2),f
 10178  09D0  0DE5               	rlf	(___fldiv@rem+3),f
 10179  09D1  0DE6               	decfsz	(??___fldiv+0)+0
 10180  09D2  0BDE               	goto	u2745
 10181  09D3  29CD               	line	102
 10182                           	movlw	01h
 10183  09D4  3001               	movwf	(??___fldiv+0)+0
 10184  09D5  00DE               u2755:
 10185  09D6                     	clrc
 10186  09D6  1003               	rlf	(___fldiv@b),f
 10187  09D7  0DDA               	rlf	(___fldiv@b+1),f
 10188  09D8  0DDB               	rlf	(___fldiv@b+2),f
 10189  09D9  0DDC               	rlf	(___fldiv@b+3),f
 10190  09DA  0DDD               	decfsz	(??___fldiv+0)+0
 10191  09DB  0BDE               	goto	u2755
 10192  09DC  29D6               	line	103
 10193                           	
 10194                           l3220:	
 10195  09DD                     	btfss	(___fldiv@grs+3),(31)&7
 10196  09DD  1FED               	goto	u2761
 10197  09DE  29E0               	goto	u2760
 10198  09DF  29E1               u2761:
 10199  09E0                     	goto	l3224
 10200  09E0  29E3               u2760:
 10201  09E1                     	line	104
 10202                           	
 10203                           l3222:	
 10204  09E1                     	bsf	(___fldiv@b)+(0/8),(0)&7
 10205  09E1  145A               	goto	l3224
 10206  09E2  29E3               	line	105
 10207                           	
 10208                           l949:	
 10209  09E3                     	line	106
 10210                           	
 10211                           l3224:	
 10212  09E3                     	movlw	01h
 10213  09E3  3001               	movwf	(??___fldiv+0)+0
 10214  09E4  00DE               u2775:
 10215  09E5                     	clrc
 10216  09E5  1003               	rlf	(___fldiv@grs),f
 10217  09E6  0DEA               	rlf	(___fldiv@grs+1),f
 10218  09E7  0DEB               	rlf	(___fldiv@grs+2),f
 10219  09E8  0DEC               	rlf	(___fldiv@grs+3),f
 10220  09E9  0DED               	decfsz	(??___fldiv+0)+0
 10221  09EA  0BDE               	goto	u2775
 10222  09EB  29E5               	goto	l3226
 10223  09EC  29ED               	line	107
 10224                           	
 10225                           l948:	
 10226  09ED                     	line	112
 10227                           	
 10228                           l3226:	
 10229  09ED                     	movf	(___fldiv@a+3),w
 10230  09ED  0859               	subwf	(___fldiv@rem+3),w
 10231  09EE  0266               	skipz
 10232  09EF  1D03               	goto	u2785
 10233  09F0  29FB               	movf	(___fldiv@a+2),w
 10234  09F1  0858               	subwf	(___fldiv@rem+2),w
 10235  09F2  0265               	skipz
 10236  09F3  1D03               	goto	u2785
 10237  09F4  29FB               	movf	(___fldiv@a+1),w
 10238  09F5  0857               	subwf	(___fldiv@rem+1),w
 10239  09F6  0264               	skipz
 10240  09F7  1D03               	goto	u2785
 10241  09F8  29FB               	movf	(___fldiv@a),w
 10242  09F9  0856               	subwf	(___fldiv@rem),w
 10243  09FA  0263               u2785:
 10244  09FB                     	skipc
 10245  09FB  1C03               	goto	u2781
 10246  09FC  29FE               	goto	u2780
 10247  09FD  29FF               u2781:
 10248  09FE                     	goto	l3232
 10249  09FE  2A0F               u2780:
 10250  09FF                     	line	115
 10251                           	
 10252                           l3228:	
 10253  09FF                     	bsf	(___fldiv@grs)+(30/8),(30)&7
 10254  09FF  176D               	line	116
 10255                           	
 10256                           l3230:	
 10257  0A00                     	movf	(___fldiv@a),w
 10258  0A00  0856               	subwf	(___fldiv@rem),f
 10259  0A01  02E3               	movf	(___fldiv@a+1),w
 10260  0A02  0857               	skipc
 10261  0A03  1C03               	incfsz	(___fldiv@a+1),w
 10262  0A04  0F57               	subwf	(___fldiv@rem+1),f
 10263  0A05  02E4               	movf	(___fldiv@a+2),w
 10264  0A06  0858               	skipc
 10265  0A07  1C03               	incfsz	(___fldiv@a+2),w
 10266  0A08  0F58               	subwf	(___fldiv@rem+2),f
 10267  0A09  02E5               	movf	(___fldiv@a+3),w
 10268  0A0A  0859               	skipc
 10269  0A0B  1C03               	incfsz	(___fldiv@a+3),w
 10270  0A0C  0F59               	subwf	(___fldiv@rem+3),f
 10271  0A0D  02E6               	goto	l3232
 10272  0A0E  2A0F               	line	117
 10273                           	
 10274                           l950:	
 10275  0A0F                     	line	118
 10276                           	
 10277                           l3232:	
 10278  0A0F                     	movlw	low(01h)
 10279  0A0F  3001               	movwf	(??___fldiv+0)+0
 10280  0A10  00DE               	movf	(??___fldiv+0)+0,w
 10281  0A11  085E               	addwf	(___fldiv@aexp),f
 10282  0A12  07EF               	goto	l3234
 10283  0A13  2A14               	line	119
 10284                           	
 10285                           l946:	
 10286  0A14                     	line	97
 10287                           	
 10288                           l3234:	
 10289  0A14                     	movlw	low(01Ah)
 10290  0A14  301A               	subwf	(___fldiv@aexp),w
 10291  0A15  026F               	skipc
 10292  0A16  1C03               	goto	u2791
 10293  0A17  2A19               	goto	u2790
 10294  0A18  2A1A               u2791:
 10295  0A19                     	goto	l3216
 10296  0A19  29C6               u2790:
 10297  0A1A                     	goto	l3236
 10298  0A1A  2A1B               	
 10299                           l951:	
 10300  0A1B                     	line	122
 10301                           	
 10302                           l3236:	
 10303  0A1B                     	movf	(___fldiv@rem+3),w
 10304  0A1B  0866               	iorwf	(___fldiv@rem+2),w
 10305  0A1C  0465               	iorwf	(___fldiv@rem+1),w
 10306  0A1D  0464               	iorwf	(___fldiv@rem),w
 10307  0A1E  0463               	skipnz
 10308  0A1F  1903               	goto	u2801
 10309  0A20  2A22               	goto	u2800
 10310  0A21  2A23               u2801:
 10311  0A22                     	goto	l3250
 10312  0A22  2A45               u2800:
 10313  0A23                     	line	123
 10314                           	
 10315                           l3238:	
 10316  0A23                     	bsf	(___fldiv@grs)+(0/8),(0)&7
 10317  0A23  146A               	goto	l3250
 10318  0A24  2A45               	line	124
 10319                           	
 10320                           l952:	
 10321  0A25                     	line	127
 10322                           	goto	l3250
 10323  0A25  2A45               	
 10324                           l954:	
 10325  0A26                     	line	128
 10326                           	
 10327                           l3240:	
 10328  0A26                     	movlw	01h
 10329  0A26  3001               	movwf	(??___fldiv+0)+0
 10330  0A27  00DE               u2815:
 10331  0A28                     	clrc
 10332  0A28  1003               	rlf	(___fldiv@b),f
 10333  0A29  0DDA               	rlf	(___fldiv@b+1),f
 10334  0A2A  0DDB               	rlf	(___fldiv@b+2),f
 10335  0A2B  0DDC               	rlf	(___fldiv@b+3),f
 10336  0A2C  0DDD               	decfsz	(??___fldiv+0)+0
 10337  0A2D  0BDE               	goto	u2815
 10338  0A2E  2A28               	line	129
 10339                           	
 10340                           l3242:	
 10341  0A2F                     	btfss	(___fldiv@grs+3),(31)&7
 10342  0A2F  1FED               	goto	u2821
 10343  0A30  2A32               	goto	u2820
 10344  0A31  2A33               u2821:
 10345  0A32                     	goto	l3246
 10346  0A32  2A35               u2820:
 10347  0A33                     	line	130
 10348                           	
 10349                           l3244:	
 10350  0A33                     	bsf	(___fldiv@b)+(0/8),(0)&7
 10351  0A33  145A               	goto	l3246
 10352  0A34  2A35               	line	131
 10353                           	
 10354                           l955:	
 10355  0A35                     	line	132
 10356                           	
 10357                           l3246:	
 10358  0A35                     	movlw	01h
 10359  0A35  3001               	movwf	(??___fldiv+0)+0
 10360  0A36  00DE               u2835:
 10361  0A37                     	clrc
 10362  0A37  1003               	rlf	(___fldiv@grs),f
 10363  0A38  0DEA               	rlf	(___fldiv@grs+1),f
 10364  0A39  0DEB               	rlf	(___fldiv@grs+2),f
 10365  0A3A  0DEC               	rlf	(___fldiv@grs+3),f
 10366  0A3B  0DED               	decfsz	(??___fldiv+0)+0
 10367  0A3C  0BDE               	goto	u2835
 10368  0A3D  2A37               	line	133
 10369                           	
 10370                           l3248:	
 10371  0A3E                     	movlw	0FFh
 10372  0A3E  30FF               	addwf	(___fldiv@new_exp),f
 10373  0A3F  07E8               	skipnc
 10374  0A40  1803               	incf	(___fldiv@new_exp+1),f
 10375  0A41  0AE9               	movlw	0FFh
 10376  0A42  30FF               	addwf	(___fldiv@new_exp+1),f
 10377  0A43  07E9               	goto	l3250
 10378  0A44  2A45               	line	134
 10379                           	
 10380                           l953:	
 10381  0A45                     	line	127
 10382                           	
 10383                           l3250:	
 10384  0A45                     	btfss	(___fldiv@b+2),(23)&7
 10385  0A45  1FDC               	goto	u2841
 10386  0A46  2A48               	goto	u2840
 10387  0A47  2A49               u2841:
 10388  0A48                     	goto	l3240
 10389  0A48  2A26               u2840:
 10390  0A49                     	goto	l3252
 10391  0A49  2A4A               	
 10392                           l956:	
 10393  0A4A                     	line	139
 10394                           	
 10395                           l3252:	
 10396  0A4A                     	clrf	(___fldiv@aexp)
 10397  0A4A  01EF               	line	140
 10398                           	
 10399                           l3254:	
 10400  0A4B                     	btfss	(___fldiv@grs+3),(31)&7
 10401  0A4B  1FED               	goto	u2851
 10402  0A4C  2A4E               	goto	u2850
 10403  0A4D  2A4F               u2851:
 10404  0A4E                     	goto	l3262
 10405  0A4E  2A6F               u2850:
 10406  0A4F                     	line	141
 10407                           	
 10408                           l3256:	
 10409  0A4F                     	movlw	0FFh
 10410  0A4F  30FF               	andwf	(___fldiv@grs),w
 10411  0A50  056A               	movwf	(??___fldiv+0)+0
 10412  0A51  00DE               	movlw	0FFh
 10413  0A52  30FF               	andwf	(___fldiv@grs+1),w
 10414  0A53  056B               	movwf	((??___fldiv+0)+0+1)
 10415  0A54  00DF               	movlw	0FFh
 10416  0A55  30FF               	andwf	(___fldiv@grs+2),w
 10417  0A56  056C               	movwf	((??___fldiv+0)+0+2)
 10418  0A57  00E0               	movlw	07Fh
 10419  0A58  307F               	andwf	(___fldiv@grs+3),w
 10420  0A59  056D               	movwf	((??___fldiv+0)+0+3)
 10421  0A5A  00E1               	movf	3+(??___fldiv+0)+0,w
 10422  0A5B  0861               	iorwf	2+(??___fldiv+0)+0,w
 10423  0A5C  0460               	iorwf	1+(??___fldiv+0)+0,w
 10424  0A5D  045F               	iorwf	0+(??___fldiv+0)+0,w
 10425  0A5E  045E               	skipnz
 10426  0A5F  1903               	goto	u2861
 10427  0A60  2A62               	goto	u2860
 10428  0A61  2A63               u2861:
 10429  0A62                     	goto	l958
 10430  0A62  2A66               u2860:
 10431  0A63                     	line	142
 10432                           	
 10433                           l3258:	
 10434  0A63                     	clrf	(___fldiv@aexp)
 10435  0A63  01EF               	incf	(___fldiv@aexp),f
 10436  0A64  0AEF               	line	143
 10437                           	goto	l3262
 10438  0A65  2A6F               	line	144
 10439                           	
 10440                           l958:	
 10441  0A66                     	line	145
 10442                           	btfss	(___fldiv@b),(0)&7
 10443  0A66  1C5A               	goto	u2871
 10444  0A67  2A69               	goto	u2870
 10445  0A68  2A6A               u2871:
 10446  0A69                     	goto	l3262
 10447  0A69  2A6F               u2870:
 10448  0A6A                     	line	146
 10449                           	
 10450                           l3260:	
 10451  0A6A                     	clrf	(___fldiv@aexp)
 10452  0A6A  01EF               	incf	(___fldiv@aexp),f
 10453  0A6B  0AEF               	goto	l3262
 10454  0A6C  2A6F               	line	147
 10455                           	
 10456                           l960:	
 10457  0A6D                     	goto	l3262
 10458  0A6D  2A6F               	line	148
 10459                           	
 10460                           l959:	
 10461  0A6E                     	goto	l3262
 10462  0A6E  2A6F               	line	149
 10463                           	
 10464                           l957:	
 10465  0A6F                     	line	150
 10466                           	
 10467                           l3262:	
 10468  0A6F                     	movf	((___fldiv@aexp)),w
 10469  0A6F  086F               	btfsc	status,2
 10470  0A70  1903               	goto	u2881
 10471  0A71  2A73               	goto	u2880
 10472  0A72  2A74               u2881:
 10473  0A73                     	goto	l3272
 10474  0A73  2AA7               u2880:
 10475  0A74                     	line	151
 10476                           	
 10477                           l3264:	
 10478  0A74                     	movlw	01h
 10479  0A74  3001               	addwf	(___fldiv@b),f
 10480  0A75  07DA               	movlw	0
 10481  0A76  3000               	skipnc
 10482  0A77  1803               movlw 1
 10483  0A78  3001               	addwf	(___fldiv@b+1),f
 10484  0A79  07DB               	movlw	0
 10485  0A7A  3000               	skipnc
 10486  0A7B  1803               movlw 1
 10487  0A7C  3001               	addwf	(___fldiv@b+2),f
 10488  0A7D  07DC               	movlw	0
 10489  0A7E  3000               	skipnc
 10490  0A7F  1803               movlw 1
 10491  0A80  3001               	addwf	(___fldiv@b+3),f
 10492  0A81  07DD               	line	152
 10493                           	
 10494                           l3266:	
 10495  0A82                     	btfss	(___fldiv@b+3),(24)&7
 10496  0A82  1C5D               	goto	u2891
 10497  0A83  2A85               	goto	u2890
 10498  0A84  2A86               u2891:
 10499  0A85                     	goto	l3272
 10500  0A85  2AA7               u2890:
 10501  0A86                     	line	153
 10502                           	
 10503                           l3268:	
 10504  0A86                     	movf	(___fldiv@b),w
 10505  0A86  085A               	movwf	(??___fldiv+0)+0
 10506  0A87  00DE               	movf	(___fldiv@b+1),w
 10507  0A88  085B               	movwf	((??___fldiv+0)+0+1)
 10508  0A89  00DF               	movf	(___fldiv@b+2),w
 10509  0A8A  085C               	movwf	((??___fldiv+0)+0+2)
 10510  0A8B  00E0               	movf	(___fldiv@b+3),w
 10511  0A8C  085D               	movwf	((??___fldiv+0)+0+3)
 10512  0A8D  00E1               	movlw	01h
 10513  0A8E  3001               	movwf	(??___fldiv+4)+0
 10514  0A8F  00E2               u2905:
 10515  0A90                     	rlf	(??___fldiv+0)+3,w
 10516  0A90  0D61               	rrf	(??___fldiv+0)+3,f
 10517  0A91  0CE1               	rrf	(??___fldiv+0)+2,f
 10518  0A92  0CE0               	rrf	(??___fldiv+0)+1,f
 10519  0A93  0CDF               	rrf	(??___fldiv+0)+0,f
 10520  0A94  0CDE               u2900:
 10521  0A95                     	decfsz	(??___fldiv+4)+0,f
 10522  0A95  0BE2               	goto	u2905
 10523  0A96  2A90               	movf	3+(??___fldiv+0)+0,w
 10524  0A97  0861               	movwf	(___fldiv@b+3)
 10525  0A98  00DD               	movf	2+(??___fldiv+0)+0,w
 10526  0A99  0860               	movwf	(___fldiv@b+2)
 10527  0A9A  00DC               	movf	1+(??___fldiv+0)+0,w
 10528  0A9B  085F               	movwf	(___fldiv@b+1)
 10529  0A9C  00DB               	movf	0+(??___fldiv+0)+0,w
 10530  0A9D  085E               	movwf	(___fldiv@b)
 10531  0A9E  00DA               
 10532                           	line	154
 10533                           	
 10534                           l3270:	
 10535  0A9F                     	movlw	01h
 10536  0A9F  3001               	addwf	(___fldiv@new_exp),f
 10537  0AA0  07E8               	skipnc
 10538  0AA1  1803               	incf	(___fldiv@new_exp+1),f
 10539  0AA2  0AE9               	movlw	0
 10540  0AA3  3000               	addwf	(___fldiv@new_exp+1),f
 10541  0AA4  07E9               	goto	l3272
 10542  0AA5  2AA7               	line	155
 10543                           	
 10544                           l962:	
 10545  0AA6                     	goto	l3272
 10546  0AA6  2AA7               	line	156
 10547                           	
 10548                           l961:	
 10549  0AA7                     	line	159
 10550                           	
 10551                           l3272:	
 10552  0AA7                     	movf	(___fldiv@new_exp+1),w
 10553  0AA7  0869               	xorlw	80h
 10554  0AA8  3A80               	movwf	btemp+1
 10555  0AA9  00FF               	movlw	(0)^80h
 10556  0AAA  3080               	subwf	btemp+1,w
 10557  0AAB  027F               	skipz
 10558  0AAC  1D03               	goto	u2915
 10559  0AAD  2AB0               	movlw	0FFh
 10560  0AAE  30FF               	subwf	(___fldiv@new_exp),w
 10561  0AAF  0268               u2915:
 10562  0AB0                     
 10563                           	skipc
 10564  0AB0  1C03               	goto	u2911
 10565  0AB1  2AB3               	goto	u2910
 10566  0AB2  2AB4               u2911:
 10567  0AB3                     	goto	l3276
 10568  0AB3  2AC3               u2910:
 10569  0AB4                     	line	160
 10570                           	
 10571                           l3274:	
 10572  0AB4                     	movlw	0FFh
 10573  0AB4  30FF               	bcf	status, 5	;RP0=0, select bank0
 10574  0AB5  1283               	bcf	status, 6	;RP1=0, select bank0
 10575  0AB6  1303               	movwf	(___fldiv@new_exp)
 10576  0AB7  00E8               	movlw	0
 10577  0AB8  3000               	movwf	((___fldiv@new_exp))+1
 10578  0AB9  00E9               	line	161
 10579                           	movlw	high highword(0)
 10580  0ABA  3000               	movwf	(___fldiv@b+3)
 10581  0ABB  00DD               	movlw	low highword(0)
 10582  0ABC  3000               	movwf	(___fldiv@b+2)
 10583  0ABD  00DC               	movlw	high(0)
 10584  0ABE  3000               	movwf	(___fldiv@b+1)
 10585  0ABF  00DB               	movlw	low(0)
 10586  0AC0  3000               	movwf	(___fldiv@b)
 10587  0AC1  00DA               
 10588                           	goto	l3276
 10589  0AC2  2AC3               	line	162
 10590                           	
 10591                           l963:	
 10592  0AC3                     	line	165
 10593                           	
 10594                           l3276:	
 10595  0AC3                     	bcf	status, 5	;RP0=0, select bank0
 10596  0AC3  1283               	bcf	status, 6	;RP1=0, select bank0
 10597  0AC4  1303               	movf	(___fldiv@new_exp+1),w
 10598  0AC5  0869               	xorlw	80h
 10599  0AC6  3A80               	movwf	btemp+1
 10600  0AC7  00FF               	movlw	(0)^80h
 10601  0AC8  3080               	subwf	btemp+1,w
 10602  0AC9  027F               	skipz
 10603  0ACA  1D03               	goto	u2925
 10604  0ACB  2ACE               	movlw	01h
 10605  0ACC  3001               	subwf	(___fldiv@new_exp),w
 10606  0ACD  0268               u2925:
 10607  0ACE                     
 10608                           	skipnc
 10609  0ACE  1803               	goto	u2921
 10610  0ACF  2AD1               	goto	u2920
 10611  0AD0  2AD2               u2921:
 10612  0AD1                     	goto	l964
 10613  0AD1  2ADF               u2920:
 10614  0AD2                     	line	166
 10615                           	
 10616                           l3278:	
 10617  0AD2                     	bcf	status, 5	;RP0=0, select bank0
 10618  0AD2  1283               	bcf	status, 6	;RP1=0, select bank0
 10619  0AD3  1303               	clrf	(___fldiv@new_exp)
 10620  0AD4  01E8               	clrf	(___fldiv@new_exp+1)
 10621  0AD5  01E9               	line	167
 10622                           	
 10623                           l3280:	
 10624  0AD6                     	movlw	high highword(0)
 10625  0AD6  3000               	movwf	(___fldiv@b+3)
 10626  0AD7  00DD               	movlw	low highword(0)
 10627  0AD8  3000               	movwf	(___fldiv@b+2)
 10628  0AD9  00DC               	movlw	high(0)
 10629  0ADA  3000               	movwf	(___fldiv@b+1)
 10630  0ADB  00DB               	movlw	low(0)
 10631  0ADC  3000               	movwf	(___fldiv@b)
 10632  0ADD  00DA               
 10633                           	line	169
 10634                           	
 10635                           l3282:	
 10636  0ADE                     	clrf	(___fldiv@sign)
 10637  0ADE  01E7               	line	170
 10638                           	
 10639                           l964:	
 10640  0ADF                     	line	173
 10641                           	bcf	status, 5	;RP0=0, select bank0
 10642  0ADF  1283               	bcf	status, 6	;RP1=0, select bank0
 10643  0AE0  1303               	movf	(___fldiv@new_exp),w
 10644  0AE1  0868               	movwf	(??___fldiv+0)+0
 10645  0AE2  00DE               	movf	(??___fldiv+0)+0,w
 10646  0AE3  085E               	movwf	(___fldiv@bexp)
 10647  0AE4  00EE               	line	175
 10648                           	
 10649                           l3284:	
 10650  0AE5                     	btfss	(___fldiv@bexp),(0)&7
 10651  0AE5  1C6E               	goto	u2931
 10652  0AE6  2AE8               	goto	u2930
 10653  0AE7  2AE9               u2931:
 10654  0AE8                     	goto	l3288
 10655  0AE8  2AEB               u2930:
 10656  0AE9                     	line	176
 10657                           	
 10658                           l3286:	
 10659  0AE9                     	bsf	0+(___fldiv@b)+02h+(7/8),(7)&7
 10660  0AE9  17DC               	line	177
 10661                           	goto	l966
 10662  0AEA  2AEF               	line	179
 10663                           	
 10664                           l965:	
 10665  0AEB                     	line	180
 10666                           	
 10667                           l3288:	
 10668  0AEB                     	movlw	low(07Fh)
 10669  0AEB  307F               	movwf	(??___fldiv+0)+0
 10670  0AEC  00DE               	movf	(??___fldiv+0)+0,w
 10671  0AED  085E               	andwf	0+(___fldiv@b)+02h,f
 10672  0AEE  05DC               	line	181
 10673                           	
 10674                           l966:	
 10675  0AEF                     	line	182
 10676                           	movf	(___fldiv@bexp),w
 10677  0AEF  086E               	movwf	(??___fldiv+0)+0
 10678  0AF0  00DE               	clrc
 10679  0AF1  1003               	rrf	(??___fldiv+0)+0,w
 10680  0AF2  0C5E               	movwf	(??___fldiv+1)+0
 10681  0AF3  00DF               	movf	(??___fldiv+1)+0,w
 10682  0AF4  085F               	movwf	0+(___fldiv@b)+03h
 10683  0AF5  00DD               	line	183
 10684                           	movf	(___fldiv@sign),w
 10685  0AF6  0867               	movwf	(??___fldiv+0)+0
 10686  0AF7  00DE               	movf	(??___fldiv+0)+0,w
 10687  0AF8  085E               	iorwf	0+(___fldiv@b)+03h,f
 10688  0AF9  04DD               	line	184
 10689                           	
 10690                           l3290:	
 10691  0AFA                     	movf	(___fldiv@b+3),w
 10692  0AFA  085D               	movwf	(?___fldiv+3)
 10693  0AFB  00D9               	movf	(___fldiv@b+2),w
 10694  0AFC  085C               	movwf	(?___fldiv+2)
 10695  0AFD  00D8               	movf	(___fldiv@b+1),w
 10696  0AFE  085B               	movwf	(?___fldiv+1)
 10697  0AFF  00D7               	movf	(___fldiv@b),w
 10698  0B00  085A               	movwf	(?___fldiv)
 10699  0B01  00D6               
 10700                           	goto	l944
 10701  0B02  2B03               	
 10702                           l3292:	
 10703  0B03                     	line	185
 10704                           	
 10705                           l944:	
 10706  0B03                     	return
 10707  0B03  0008               	opt stack 0
 10708                           GLOBAL	__end_of___fldiv
 10709                           	__end_of___fldiv:
 10710  0B04                     	signat	___fldiv,8316
 10711                           	global	___fladd
 10712                           
 10713 ;; *************** function ___fladd *****************
 10714 ;; Defined at:
 10715 ;;		line 10 in file "C:\Program Files (x86)\Microchip\xc8\v2.00\pic\sources\c90\common\sprcadd.c"
 10716 ;; Parameters:    Size  Location     Type
 10717 ;;  b               4   30[BANK0 ] unsigned char 
 10718 ;;  a               4   34[BANK0 ] unsigned char 
 10719 ;; Auto vars:     Size  Location     Type
 10720 ;;  grs             1   53[BANK0 ] unsigned char 
 10721 ;;  bexp            1   52[BANK0 ] unsigned char 
 10722 ;;  aexp            1   51[BANK0 ] unsigned char 
 10723 ;;  signs           1   50[BANK0 ] unsigned char 
 10724 ;; Return value:  Size  Location     Type
 10725 ;;                  4   30[BANK0 ] unsigned char 
 10726 ;; Registers used:
 10727 ;;		wreg, status,2, status,0, btemp+1
 10728 ;; Tracked objects:
 10729 ;;		On entry : 0/0
 10730 ;;		On exit  : 0/0
 10731 ;;		Unchanged: 0/0
 10732 ;; Data sizes:     COMMON   BANK0   BANK1   BANK3   BANK2
 10733 ;;      Params:         0       8       0       0       0
 10734 ;;      Locals:         0       4       0       0       0
 10735 ;;      Temps:          0      12       0       0       0
 10736 ;;      Totals:         0      24       0       0       0
 10737 ;;Total ram usage:       24 bytes
 10738 ;; Hardware stack levels used:    1
 10739 ;; This function calls:
 10740 ;;		Nothing
 10741 ;; This function is called by:
 10742 ;;		_map
 10743 ;;		_AccionControl
 10744 ;; This function uses a non-reentrant model
 10745 ;;
 10746                           psect	text25,local,class=CODE,delta=2,merge=1,group=1
 10747                           	file	"C:\Program Files (x86)\Microchip\xc8\v2.00\pic\sources\c90\common\sprcadd.c"
 10748                           	line	10
 10749                           global __ptext25
 10750                           __ptext25:	;psect for function ___fladd
 10751  01B9                     psect	text25
 10752                           	file	"C:\Program Files (x86)\Microchip\xc8\v2.00\pic\sources\c90\common\sprcadd.c"
 10753                           	line	10
 10754                           	global	__size_of___fladd
 10755                           	__size_of___fladd	equ	__end_of___fladd-___fladd
 10756  02BC                     	
 10757                           ___fladd:	
 10758  01B9                     ;incstack = 0
 10759                           	opt	stack 5
 10760                           ; Regs used in ___fladd: [wreg+status,2+status,0+btemp+1]
 10761                           	line	21
 10762                           	
 10763                           l2958:	
 10764  01B9                     	bcf	status, 5	;RP0=0, select bank0
 10765  01B9  1283               	bcf	status, 6	;RP1=0, select bank0
 10766  01BA  1303               	movf	0+(___fladd@b)+03h,w
 10767  01BB  0841               	andlw	080h
 10768  01BC  3980               	movwf	(??___fladd+0)+0
 10769  01BD  00C6               	movf	(??___fladd+0)+0,w
 10770  01BE  0846               	movwf	(___fladd@signs)
 10771  01BF  00D2               	line	22
 10772                           	
 10773                           l2960:	
 10774  01C0                     	movf	0+(___fladd@b)+03h,w
 10775  01C0  0841               	movwf	(??___fladd+0)+0
 10776  01C1  00C6               	addwf	(??___fladd+0)+0,w
 10777  01C2  0746               	movwf	(??___fladd+1)+0
 10778  01C3  00C7               	movf	(??___fladd+1)+0,w
 10779  01C4  0847               	movwf	(___fladd@bexp)
 10780  01C5  00D4               	line	23
 10781                           	
 10782                           l2962:	
 10783  01C6                     	btfss	0+(___fladd@b)+02h,(7)&7
 10784  01C6  1FC0               	goto	u2191
 10785  01C7  29C9               	goto	u2190
 10786  01C8  29CA               u2191:
 10787  01C9                     	goto	l2966
 10788  01C9  29CC               u2190:
 10789  01CA                     	line	24
 10790                           	
 10791                           l2964:	
 10792  01CA                     	bsf	(___fladd@bexp)+(0/8),(0)&7
 10793  01CA  1454               	goto	l2966
 10794  01CB  29CC               	line	25
 10795                           	
 10796                           l878:	
 10797  01CC                     	line	28
 10798                           	
 10799                           l2966:	
 10800  01CC                     	movf	((___fladd@bexp)),w
 10801  01CC  0854               	btfsc	status,2
 10802  01CD  1903               	goto	u2201
 10803  01CE  29D0               	goto	u2200
 10804  01CF  29D1               u2201:
 10805  01D0                     	goto	l2976
 10806  01D0  29E2               u2200:
 10807  01D1                     	line	30
 10808                           	
 10809                           l2968:	
 10810  01D1                     		incf	((___fladd@bexp)),w
 10811  01D1  0A54               	btfss	status,2
 10812  01D2  1D03               	goto	u2211
 10813  01D3  29D5               	goto	u2210
 10814  01D4  29D6               u2211:
 10815  01D5                     	goto	l2972
 10816  01D5  29DF               u2210:
 10817  01D6                     	line	32
 10818                           	
 10819                           l2970:	
 10820  01D6                     	movlw	0x0
 10821  01D6  3000               	movwf	(___fladd@b+3)
 10822  01D7  00C1               	movlw	0x0
 10823  01D8  3000               	movwf	(___fladd@b+2)
 10824  01D9  00C0               	movlw	0x0
 10825  01DA  3000               	movwf	(___fladd@b+1)
 10826  01DB  00BF               	movlw	0x0
 10827  01DC  3000               	movwf	(___fladd@b)
 10828  01DD  00BE               
 10829                           	goto	l2972
 10830  01DE  29DF               	line	33
 10831                           	
 10832                           l880:	
 10833  01DF                     	line	35
 10834                           	
 10835                           l2972:	
 10836  01DF                     	bsf	(___fladd@b)+(23/8),(23)&7
 10837  01DF  17C0               	line	37
 10838                           	
 10839                           l2974:	
 10840  01E0                     	clrf	0+(___fladd@b)+03h
 10841  01E0  01C1               	line	38
 10842                           	goto	l2978
 10843  01E1  29EB               	line	39
 10844                           	
 10845                           l879:	
 10846  01E2                     	line	41
 10847                           	
 10848                           l2976:	
 10849  01E2                     	movlw	0x0
 10850  01E2  3000               	movwf	(___fladd@b+3)
 10851  01E3  00C1               	movlw	0x0
 10852  01E4  3000               	movwf	(___fladd@b+2)
 10853  01E5  00C0               	movlw	0x0
 10854  01E6  3000               	movwf	(___fladd@b+1)
 10855  01E7  00BF               	movlw	0x0
 10856  01E8  3000               	movwf	(___fladd@b)
 10857  01E9  00BE               
 10858                           	goto	l2978
 10859  01EA  29EB               	line	42
 10860                           	
 10861                           l881:	
 10862  01EB                     	line	44
 10863                           	
 10864                           l2978:	
 10865  01EB                     	movf	0+(___fladd@a)+03h,w
 10866  01EB  0845               	andlw	080h
 10867  01EC  3980               	movwf	(??___fladd+0)+0
 10868  01ED  00C6               	movf	(??___fladd+0)+0,w
 10869  01EE  0846               	movwf	(___fladd@aexp)
 10870  01EF  00D3               	line	46
 10871                           	
 10872                           l2980:	
 10873  01F0                     	movf	(___fladd@aexp),w
 10874  01F0  0853               	xorwf	(___fladd@signs),w
 10875  01F1  0652               	skipnz
 10876  01F2  1903               	goto	u2221
 10877  01F3  29F5               	goto	u2220
 10878  01F4  29F6               u2221:
 10879  01F5                     	goto	l2984
 10880  01F5  29F8               u2220:
 10881  01F6                     	line	47
 10882                           	
 10883                           l2982:	
 10884  01F6                     	bsf	(___fladd@signs)+(6/8),(6)&7
 10885  01F6  1752               	goto	l2984
 10886  01F7  29F8               	line	48
 10887                           	
 10888                           l882:	
 10889  01F8                     	line	49
 10890                           	
 10891                           l2984:	
 10892  01F8                     	movf	0+(___fladd@a)+03h,w
 10893  01F8  0845               	movwf	(??___fladd+0)+0
 10894  01F9  00C6               	addwf	(??___fladd+0)+0,w
 10895  01FA  0746               	movwf	(??___fladd+1)+0
 10896  01FB  00C7               	movf	(??___fladd+1)+0,w
 10897  01FC  0847               	movwf	(___fladd@aexp)
 10898  01FD  00D3               	line	50
 10899                           	
 10900                           l2986:	
 10901  01FE                     	btfss	0+(___fladd@a)+02h,(7)&7
 10902  01FE  1FC4               	goto	u2231
 10903  01FF  2A01               	goto	u2230
 10904  0200  2A02               u2231:
 10905  0201                     	goto	l2990
 10906  0201  2A04               u2230:
 10907  0202                     	line	51
 10908                           	
 10909                           l2988:	
 10910  0202                     	bsf	(___fladd@aexp)+(0/8),(0)&7
 10911  0202  1453               	goto	l2990
 10912  0203  2A04               	line	52
 10913                           	
 10914                           l883:	
 10915  0204                     	line	55
 10916                           	
 10917                           l2990:	
 10918  0204                     	movf	((___fladd@aexp)),w
 10919  0204  0853               	btfsc	status,2
 10920  0205  1903               	goto	u2241
 10921  0206  2A08               	goto	u2240
 10922  0207  2A09               u2241:
 10923  0208                     	goto	l3000
 10924  0208  2A1A               u2240:
 10925  0209                     	line	57
 10926                           	
 10927                           l2992:	
 10928  0209                     		incf	((___fladd@aexp)),w
 10929  0209  0A53               	btfss	status,2
 10930  020A  1D03               	goto	u2251
 10931  020B  2A0D               	goto	u2250
 10932  020C  2A0E               u2251:
 10933  020D                     	goto	l2996
 10934  020D  2A17               u2250:
 10935  020E                     	line	59
 10936                           	
 10937                           l2994:	
 10938  020E                     	movlw	0x0
 10939  020E  3000               	movwf	(___fladd@a+3)
 10940  020F  00C5               	movlw	0x0
 10941  0210  3000               	movwf	(___fladd@a+2)
 10942  0211  00C4               	movlw	0x0
 10943  0212  3000               	movwf	(___fladd@a+1)
 10944  0213  00C3               	movlw	0x0
 10945  0214  3000               	movwf	(___fladd@a)
 10946  0215  00C2               
 10947                           	goto	l2996
 10948  0216  2A17               	line	60
 10949                           	
 10950                           l885:	
 10951  0217                     	line	62
 10952                           	
 10953                           l2996:	
 10954  0217                     	bsf	(___fladd@a)+(23/8),(23)&7
 10955  0217  17C4               	line	64
 10956                           	
 10957                           l2998:	
 10958  0218                     	clrf	0+(___fladd@a)+03h
 10959  0218  01C5               	line	65
 10960                           	goto	l886
 10961  0219  2A22               	line	66
 10962                           	
 10963                           l884:	
 10964  021A                     	line	68
 10965                           	
 10966                           l3000:	
 10967  021A                     	movlw	0x0
 10968  021A  3000               	movwf	(___fladd@a+3)
 10969  021B  00C5               	movlw	0x0
 10970  021C  3000               	movwf	(___fladd@a+2)
 10971  021D  00C4               	movlw	0x0
 10972  021E  3000               	movwf	(___fladd@a+1)
 10973  021F  00C3               	movlw	0x0
 10974  0220  3000               	movwf	(___fladd@a)
 10975  0221  00C2               
 10976                           	line	69
 10977                           	
 10978                           l886:	
 10979  0222                     	line	75
 10980                           	movf	(___fladd@bexp),w
 10981  0222  0854               	subwf	(___fladd@aexp),w
 10982  0223  0253               	skipnc
 10983  0224  1803               	goto	u2261
 10984  0225  2A27               	goto	u2260
 10985  0226  2A28               u2261:
 10986  0227                     	goto	l3036
 10987  0227  2A6E               u2260:
 10988  0228                     	line	77
 10989                           	
 10990                           l3002:	
 10991  0228                     	btfss	(___fladd@signs),(6)&7
 10992  0228  1F52               	goto	u2271
 10993  0229  2A2B               	goto	u2270
 10994  022A  2A2C               u2271:
 10995  022B                     	goto	l3006
 10996  022B  2A31               u2270:
 10997  022C                     	line	78
 10998                           	
 10999                           l3004:	
 11000  022C                     	movlw	low(080h)
 11001  022C  3080               	movwf	(??___fladd+0)+0
 11002  022D  00C6               	movf	(??___fladd+0)+0,w
 11003  022E  0846               	xorwf	(___fladd@signs),f
 11004  022F  06D2               	goto	l3006
 11005  0230  2A31               	line	79
 11006                           	
 11007                           l888:	
 11008  0231                     	line	81
 11009                           	
 11010                           l3006:	
 11011  0231                     	movf	(___fladd@bexp),w
 11012  0231  0854               	movwf	(??___fladd+0)+0
 11013  0232  00C6               	movf	(??___fladd+0)+0,w
 11014  0233  0846               	movwf	(___fladd@grs)
 11015  0234  00D5               	line	82
 11016                           	
 11017                           l3008:	
 11018  0235                     	movf	(___fladd@aexp),w
 11019  0235  0853               	movwf	(??___fladd+0)+0
 11020  0236  00C6               	movf	(??___fladd+0)+0,w
 11021  0237  0846               	movwf	(___fladd@bexp)
 11022  0238  00D4               	line	83
 11023                           	
 11024                           l3010:	
 11025  0239                     	movf	(___fladd@grs),w
 11026  0239  0855               	movwf	(??___fladd+0)+0
 11027  023A  00C6               	movf	(??___fladd+0)+0,w
 11028  023B  0846               	movwf	(___fladd@aexp)
 11029  023C  00D3               	line	84
 11030                           	
 11031                           l3012:	
 11032  023D                     	movf	(___fladd@b),w
 11033  023D  083E               	movwf	(??___fladd+0)+0
 11034  023E  00C6               	movf	(??___fladd+0)+0,w
 11035  023F  0846               	movwf	(___fladd@grs)
 11036  0240  00D5               	line	85
 11037                           	
 11038                           l3014:	
 11039  0241                     	movf	(___fladd@a),w
 11040  0241  0842               	movwf	(??___fladd+0)+0
 11041  0242  00C6               	movf	(??___fladd+0)+0,w
 11042  0243  0846               	movwf	(___fladd@b)
 11043  0244  00BE               	line	86
 11044                           	
 11045                           l3016:	
 11046  0245                     	movf	(___fladd@grs),w
 11047  0245  0855               	movwf	(??___fladd+0)+0
 11048  0246  00C6               	movf	(??___fladd+0)+0,w
 11049  0247  0846               	movwf	(___fladd@a)
 11050  0248  00C2               	line	87
 11051                           	
 11052                           l3018:	
 11053  0249                     	movf	0+(___fladd@b)+01h,w
 11054  0249  083F               	movwf	(??___fladd+0)+0
 11055  024A  00C6               	movf	(??___fladd+0)+0,w
 11056  024B  0846               	movwf	(___fladd@grs)
 11057  024C  00D5               	line	88
 11058                           	
 11059                           l3020:	
 11060  024D                     	movf	0+(___fladd@a)+01h,w
 11061  024D  0843               	movwf	(??___fladd+0)+0
 11062  024E  00C6               	movf	(??___fladd+0)+0,w
 11063  024F  0846               	movwf	0+(___fladd@b)+01h
 11064  0250  00BF               	line	89
 11065                           	
 11066                           l3022:	
 11067  0251                     	movf	(___fladd@grs),w
 11068  0251  0855               	movwf	(??___fladd+0)+0
 11069  0252  00C6               	movf	(??___fladd+0)+0,w
 11070  0253  0846               	movwf	0+(___fladd@a)+01h
 11071  0254  00C3               	line	90
 11072                           	
 11073                           l3024:	
 11074  0255                     	movf	0+(___fladd@b)+02h,w
 11075  0255  0840               	movwf	(??___fladd+0)+0
 11076  0256  00C6               	movf	(??___fladd+0)+0,w
 11077  0257  0846               	movwf	(___fladd@grs)
 11078  0258  00D5               	line	91
 11079                           	
 11080                           l3026:	
 11081  0259                     	movf	0+(___fladd@a)+02h,w
 11082  0259  0844               	movwf	(??___fladd+0)+0
 11083  025A  00C6               	movf	(??___fladd+0)+0,w
 11084  025B  0846               	movwf	0+(___fladd@b)+02h
 11085  025C  00C0               	line	92
 11086                           	
 11087                           l3028:	
 11088  025D                     	movf	(___fladd@grs),w
 11089  025D  0855               	movwf	(??___fladd+0)+0
 11090  025E  00C6               	movf	(??___fladd+0)+0,w
 11091  025F  0846               	movwf	0+(___fladd@a)+02h
 11092  0260  00C4               	line	93
 11093                           	
 11094                           l3030:	
 11095  0261                     	movf	0+(___fladd@b)+03h,w
 11096  0261  0841               	movwf	(??___fladd+0)+0
 11097  0262  00C6               	movf	(??___fladd+0)+0,w
 11098  0263  0846               	movwf	(___fladd@grs)
 11099  0264  00D5               	line	94
 11100                           	
 11101                           l3032:	
 11102  0265                     	movf	0+(___fladd@a)+03h,w
 11103  0265  0845               	movwf	(??___fladd+0)+0
 11104  0266  00C6               	movf	(??___fladd+0)+0,w
 11105  0267  0846               	movwf	0+(___fladd@b)+03h
 11106  0268  00C1               	line	95
 11107                           	
 11108                           l3034:	
 11109  0269                     	movf	(___fladd@grs),w
 11110  0269  0855               	movwf	(??___fladd+0)+0
 11111  026A  00C6               	movf	(??___fladd+0)+0,w
 11112  026B  0846               	movwf	0+(___fladd@a)+03h
 11113  026C  00C5               	goto	l3036
 11114  026D  2A6E               	line	96
 11115                           	
 11116                           l887:	
 11117  026E                     	line	98
 11118                           	
 11119                           l3036:	
 11120  026E                     	clrf	(___fladd@grs)
 11121  026E  01D5               	line	100
 11122                           	
 11123                           l3038:	
 11124  026F                     	movf	(___fladd@bexp),w
 11125  026F  0854               	movwf	(??___fladd+0)+0
 11126  0270  00C6               	clrf	(??___fladd+0)+0+1
 11127  0271  01C7               	comf	(??___fladd+0)+0,f
 11128  0272  09C6               	comf	(??___fladd+0)+1,f
 11129  0273  09C7               	incf	(??___fladd+0)+0,f
 11130  0274  0AC6               	skipnz
 11131  0275  1903               	incf	(??___fladd+0)+1,f
 11132  0276  0AC7               	movf	(___fladd@aexp),w
 11133  0277  0853               	addwf	0+(??___fladd+0)+0,w
 11134  0278  0746               	movwf	(??___fladd+2)+0
 11135  0279  00C8               	movf	1+(??___fladd+0)+0,w
 11136  027A  0847               	skipnc
 11137  027B  1803               	incf	1+(??___fladd+0)+0,w
 11138  027C  0A47               	movwf	((??___fladd+2)+0)+1
 11139  027D  00C9               	movf	1+(??___fladd+2)+0,w
 11140  027E  0849               	xorlw	80h
 11141  027F  3A80               	movwf	btemp+1
 11142  0280  00FF               	movlw	(0)^80h
 11143  0281  3080               	subwf	btemp+1,w
 11144  0282  027F               	skipz
 11145  0283  1D03               	goto	u2285
 11146  0284  2A87               	movlw	01Ah
 11147  0285  301A               	subwf	0+(??___fladd+2)+0,w
 11148  0286  0248               u2285:
 11149  0287                     
 11150                           	skipc
 11151  0287  1C03               	goto	u2281
 11152  0288  2A8A               	goto	u2280
 11153  0289  2A8B               u2281:
 11154  028A                     	goto	l3054
 11155  028A  2ACC               u2280:
 11156  028B                     	line	101
 11157                           	
 11158                           l3040:	
 11159  028B                     	bcf	status, 5	;RP0=0, select bank0
 11160  028B  1283               	bcf	status, 6	;RP1=0, select bank0
 11161  028C  1303               	movf	(___fladd@b+3),w
 11162  028D  0841               	iorwf	(___fladd@b+2),w
 11163  028E  0440               	iorwf	(___fladd@b+1),w
 11164  028F  043F               	iorwf	(___fladd@b),w
 11165  0290  043E               	skipz
 11166  0291  1D03               	goto	u2291
 11167  0292  2A94               	goto	u2290
 11168  0293  2A96               u2291:
 11169  0294                     	movlw	1
 11170  0294  3001               	goto	u2300
 11171  0295  2A97               u2290:
 11172  0296                     	movlw	0
 11173  0296  3000               u2300:
 11174  0297                     	movwf	(??___fladd+0)+0
 11175  0297  00C6               	movf	(??___fladd+0)+0,w
 11176  0298  0846               	movwf	(___fladd@grs)
 11177  0299  00D5               	line	102
 11178                           	movlw	high highword(0)
 11179  029A  3000               	movwf	(___fladd@b+3)
 11180  029B  00C1               	movlw	low highword(0)
 11181  029C  3000               	movwf	(___fladd@b+2)
 11182  029D  00C0               	movlw	high(0)
 11183  029E  3000               	movwf	(___fladd@b+1)
 11184  029F  00BF               	movlw	low(0)
 11185  02A0  3000               	movwf	(___fladd@b)
 11186  02A1  00BE               
 11187                           	line	103
 11188                           	movf	(___fladd@aexp),w
 11189  02A2  0853               	movwf	(??___fladd+0)+0
 11190  02A3  00C6               	movf	(??___fladd+0)+0,w
 11191  02A4  0846               	movwf	(___fladd@bexp)
 11192  02A5  00D4               	line	104
 11193                           	goto	l890
 11194  02A6  2AD5               	line	105
 11195                           	
 11196                           l889:	
 11197  02A7                     	line	106
 11198                           	goto	l3054
 11199  02A7  2ACC               	
 11200                           l892:	
 11201  02A8                     	line	109
 11202                           	btfss	(___fladd@grs),(0)&7
 11203  02A8  1C55               	goto	u2311
 11204  02A9  2AAB               	goto	u2310
 11205  02AA  2AAC               u2311:
 11206  02AB                     	goto	l3044
 11207  02AB  2AB5               u2310:
 11208  02AC                     	line	110
 11209                           	
 11210                           l3042:	
 11211  02AC                     	movf	(___fladd@grs),w
 11212  02AC  0855               	movwf	(??___fladd+0)+0
 11213  02AD  00C6               	clrc
 11214  02AE  1003               	rrf	(??___fladd+0)+0,w
 11215  02AF  0C46               	iorlw	01h
 11216  02B0  3801               	movwf	(??___fladd+1)+0
 11217  02B1  00C7               	movf	(??___fladd+1)+0,w
 11218  02B2  0847               	movwf	(___fladd@grs)
 11219  02B3  00D5               	line	111
 11220                           	goto	l3046
 11221  02B4  2AB8               	line	112
 11222                           	
 11223                           l893:	
 11224  02B5                     	line	113
 11225                           	
 11226                           l3044:	
 11227  02B5                     	clrc
 11228  02B5  1003               	rrf	(___fladd@grs),f
 11229  02B6  0CD5               
 11230                           	goto	l3046
 11231  02B7  2AB8               	line	114
 11232                           	
 11233                           l894:	
 11234  02B8                     	line	115
 11235                           	
 11236                           l3046:	
 11237  02B8                     	btfss	(___fladd@b),(0)&7
 11238  02B8  1C3E               	goto	u2321
 11239  02B9  2ABB               	goto	u2320
 11240  02BA  2ABC               u2321:
 11241  02BB                     	goto	l3050
 11242  02BB  2ABE               u2320:
 11243  02BC                     	line	116
 11244                           	
 11245                           l3048:	
 11246  02BC                     	bsf	(___fladd@grs)+(7/8),(7)&7
 11247  02BC  17D5               	goto	l3050
 11248  02BD  2ABE               	line	117
 11249                           	
 11250                           l895:	
 11251  02BE                     	line	118
 11252                           	
 11253                           l3050:	
 11254  02BE                     	movlw	01h
 11255  02BE  3001               	movwf	(??___fladd+0)+0
 11256  02BF  00C6               u2335:
 11257  02C0                     	rlf	(___fladd@b+3),w
 11258  02C0  0D41               	rrf	(___fladd@b+3),f
 11259  02C1  0CC1               	rrf	(___fladd@b+2),f
 11260  02C2  0CC0               	rrf	(___fladd@b+1),f
 11261  02C3  0CBF               	rrf	(___fladd@b),f
 11262  02C4  0CBE               	decfsz	(??___fladd+0)+0&07fh,f
 11263  02C5  0BC6               	goto	u2335
 11264  02C6  2AC0               
 11265                           	line	119
 11266                           	
 11267                           l3052:	
 11268  02C7                     	movlw	low(01h)
 11269  02C7  3001               	movwf	(??___fladd+0)+0
 11270  02C8  00C6               	movf	(??___fladd+0)+0,w
 11271  02C9  0846               	addwf	(___fladd@bexp),f
 11272  02CA  07D4               	goto	l3054
 11273  02CB  2ACC               	line	120
 11274                           	
 11275                           l891:	
 11276  02CC                     	line	106
 11277                           	
 11278                           l3054:	
 11279  02CC                     	bcf	status, 5	;RP0=0, select bank0
 11280  02CC  1283               	bcf	status, 6	;RP1=0, select bank0
 11281  02CD  1303               	movf	(___fladd@aexp),w
 11282  02CE  0853               	subwf	(___fladd@bexp),w
 11283  02CF  0254               	skipc
 11284  02D0  1C03               	goto	u2341
 11285  02D1  2AD3               	goto	u2340
 11286  02D2  2AD4               u2341:
 11287  02D3                     	goto	l892
 11288  02D3  2AA8               u2340:
 11289  02D4                     	goto	l890
 11290  02D4  2AD5               	
 11291                           l896:	
 11292  02D5                     	line	121
 11293                           	
 11294                           l890:	
 11295  02D5                     	line	124
 11296                           	btfsc	(___fladd@signs),(6)&7
 11297  02D5  1B52               	goto	u2351
 11298  02D6  2AD8               	goto	u2350
 11299  02D7  2AD9               u2351:
 11300  02D8                     	goto	l3080
 11301  02D8  2B28               u2350:
 11302  02D9                     	line	127
 11303                           	
 11304                           l3056:	
 11305  02D9                     	movf	((___fladd@bexp)),w
 11306  02D9  0854               	btfss	status,2
 11307  02DA  1D03               	goto	u2361
 11308  02DB  2ADD               	goto	u2360
 11309  02DC  2ADE               u2361:
 11310  02DD                     	goto	l3062
 11311  02DD  2AE8               u2360:
 11312  02DE                     	line	128
 11313                           	
 11314                           l3058:	
 11315  02DE                     	movlw	0x0
 11316  02DE  3000               	movwf	(?___fladd+3)
 11317  02DF  00C1               	movlw	0x0
 11318  02E0  3000               	movwf	(?___fladd+2)
 11319  02E1  00C0               	movlw	0x0
 11320  02E2  3000               	movwf	(?___fladd+1)
 11321  02E3  00BF               	movlw	0x0
 11322  02E4  3000               	movwf	(?___fladd)
 11323  02E5  00BE               
 11324                           	goto	l899
 11325  02E6  2C74               	
 11326                           l3060:	
 11327  02E7                     	goto	l899
 11328  02E7  2C74               	line	129
 11329                           	
 11330                           l898:	
 11331  02E8                     	line	132
 11332                           	
 11333                           l3062:	
 11334  02E8                     	movf	(___fladd@a),w
 11335  02E8  0842               	addwf	(___fladd@b),f
 11336  02E9  07BE               	movf	(___fladd@a+1),w
 11337  02EA  0843               	clrz
 11338  02EB  1103               	skipnc
 11339  02EC  1803               	addlw	1
 11340  02ED  3E01               	skipnz
 11341  02EE  1903               	goto	u2371
 11342  02EF  2AF1               	addwf	(___fladd@b+1),f
 11343  02F0  07BF               u2371:
 11344  02F1                     	movf	(___fladd@a+2),w
 11345  02F1  0844               	clrz
 11346  02F2  1103               	skipnc
 11347  02F3  1803               	addlw	1
 11348  02F4  3E01               	skipnz
 11349  02F5  1903               	goto	u2372
 11350  02F6  2AF8               	addwf	(___fladd@b+2),f
 11351  02F7  07C0               u2372:
 11352  02F8                     	movf	(___fladd@a+3),w
 11353  02F8  0845               	clrz
 11354  02F9  1103               	skipnc
 11355  02FA  1803               	addlw	1
 11356  02FB  3E01               	skipnz
 11357  02FC  1903               	goto	u2373
 11358  02FD  2AFF               	addwf	(___fladd@b+3),f
 11359  02FE  07C1               u2373:
 11360  02FF                     
 11361                           	line	134
 11362                           	
 11363                           l3064:	
 11364  02FF                     	btfss	(___fladd@b+3),(24)&7
 11365  02FF  1C41               	goto	u2381
 11366  0300  2B02               	goto	u2380
 11367  0301  2B03               u2381:
 11368  0302                     	goto	l3114
 11369  0302  2BF1               u2380:
 11370  0303                     	line	135
 11371                           	
 11372                           l3066:	
 11373  0303                     	btfss	(___fladd@grs),(0)&7
 11374  0303  1C55               	goto	u2391
 11375  0304  2B06               	goto	u2390
 11376  0305  2B07               u2391:
 11377  0306                     	goto	l3070
 11378  0306  2B10               u2390:
 11379  0307                     	line	136
 11380                           	
 11381                           l3068:	
 11382  0307                     	movf	(___fladd@grs),w
 11383  0307  0855               	movwf	(??___fladd+0)+0
 11384  0308  00C6               	clrc
 11385  0309  1003               	rrf	(??___fladd+0)+0,w
 11386  030A  0C46               	iorlw	01h
 11387  030B  3801               	movwf	(??___fladd+1)+0
 11388  030C  00C7               	movf	(??___fladd+1)+0,w
 11389  030D  0847               	movwf	(___fladd@grs)
 11390  030E  00D5               	line	137
 11391                           	goto	l3072
 11392  030F  2B13               	line	138
 11393                           	
 11394                           l901:	
 11395  0310                     	line	139
 11396                           	
 11397                           l3070:	
 11398  0310                     	clrc
 11399  0310  1003               	rrf	(___fladd@grs),f
 11400  0311  0CD5               
 11401                           	goto	l3072
 11402  0312  2B13               	line	140
 11403                           	
 11404                           l902:	
 11405  0313                     	line	141
 11406                           	
 11407                           l3072:	
 11408  0313                     	btfss	(___fladd@b),(0)&7
 11409  0313  1C3E               	goto	u2401
 11410  0314  2B16               	goto	u2400
 11411  0315  2B17               u2401:
 11412  0316                     	goto	l3076
 11413  0316  2B19               u2400:
 11414  0317                     	line	142
 11415                           	
 11416                           l3074:	
 11417  0317                     	bsf	(___fladd@grs)+(7/8),(7)&7
 11418  0317  17D5               	goto	l3076
 11419  0318  2B19               	line	143
 11420                           	
 11421                           l903:	
 11422  0319                     	line	144
 11423                           	
 11424                           l3076:	
 11425  0319                     	movlw	01h
 11426  0319  3001               	movwf	(??___fladd+0)+0
 11427  031A  00C6               u2415:
 11428  031B                     	rlf	(___fladd@b+3),w
 11429  031B  0D41               	rrf	(___fladd@b+3),f
 11430  031C  0CC1               	rrf	(___fladd@b+2),f
 11431  031D  0CC0               	rrf	(___fladd@b+1),f
 11432  031E  0CBF               	rrf	(___fladd@b),f
 11433  031F  0CBE               	decfsz	(??___fladd+0)+0&07fh,f
 11434  0320  0BC6               	goto	u2415
 11435  0321  2B1B               
 11436                           	line	145
 11437                           	
 11438                           l3078:	
 11439  0322                     	movlw	low(01h)
 11440  0322  3001               	movwf	(??___fladd+0)+0
 11441  0323  00C6               	movf	(??___fladd+0)+0,w
 11442  0324  0846               	addwf	(___fladd@bexp),f
 11443  0325  07D4               	goto	l3114
 11444  0326  2BF1               	line	146
 11445                           	
 11446                           l900:	
 11447  0327                     	line	148
 11448                           	goto	l3114
 11449  0327  2BF1               	line	149
 11450                           	
 11451                           l897:	
 11452  0328                     	line	153
 11453                           	
 11454                           l3080:	
 11455  0328                     	movf	(___fladd@b+3),w
 11456  0328  0841               	xorlw	80h
 11457  0329  3A80               	movwf	btemp+1
 11458  032A  00FF               	movf	(___fladd@a+3),w
 11459  032B  0845               	xorlw	80h
 11460  032C  3A80               	subwf	btemp+1,w
 11461  032D  027F               	
 11462                           	skipz
 11463  032E  1D03               	goto	u2423
 11464  032F  2B3A               	movf	(___fladd@a+2),w
 11465  0330  0844               	subwf	(___fladd@b+2),w
 11466  0331  0240               	skipz
 11467  0332  1D03               	goto	u2423
 11468  0333  2B3A               	movf	(___fladd@a+1),w
 11469  0334  0843               	subwf	(___fladd@b+1),w
 11470  0335  023F               	skipz
 11471  0336  1D03               	goto	u2423
 11472  0337  2B3A               	movf	(___fladd@a),w
 11473  0338  0842               	subwf	(___fladd@b),w
 11474  0339  023E               u2423:
 11475  033A                     	skipnc
 11476  033A  1803               	goto	u2421
 11477  033B  2B3D               	goto	u2420
 11478  033C  2B3E               u2421:
 11479  033D                     	goto	l3090
 11480  033D  2BA4               u2420:
 11481  033E                     	line	154
 11482                           	
 11483                           l3082:	
 11484  033E                     	movlw	0FFh
 11485  033E  30FF               	movwf	((??___fladd+0)+0)
 11486  033F  00C6               	movlw	0FFh
 11487  0340  30FF               	movwf	((??___fladd+0)+0+1)
 11488  0341  00C7               	movlw	0FFh
 11489  0342  30FF               	movwf	((??___fladd+0)+0+2)
 11490  0343  00C8               	movlw	0FFh
 11491  0344  30FF               	movwf	((??___fladd+0)+0+3)
 11492  0345  00C9               	movf	(___fladd@a),w
 11493  0346  0842               	movwf	(??___fladd+4)+0
 11494  0347  00CA               	movf	(___fladd@a+1),w
 11495  0348  0843               	movwf	((??___fladd+4)+0+1)
 11496  0349  00CB               	movf	(___fladd@a+2),w
 11497  034A  0844               	movwf	((??___fladd+4)+0+2)
 11498  034B  00CC               	movf	(___fladd@a+3),w
 11499  034C  0845               	movwf	((??___fladd+4)+0+3)
 11500  034D  00CD               	comf	(___fladd@b),w
 11501  034E  093E               	movwf	(??___fladd+8)+0
 11502  034F  00CE               	comf	(___fladd@b+1),w
 11503  0350  093F               	movwf	((??___fladd+8)+0+1)
 11504  0351  00CF               	comf	(___fladd@b+2),w
 11505  0352  0940               	movwf	((??___fladd+8)+0+2)
 11506  0353  00D0               	comf	(___fladd@b+3),w
 11507  0354  0941               	movwf	((??___fladd+8)+0+3)
 11508  0355  00D1               	incf	(??___fladd+8)+0,f
 11509  0356  0ACE               	skipnz
 11510  0357  1903               	incf	((??___fladd+8)+0+1),f
 11511  0358  0ACF               	skipnz
 11512  0359  1903               	incf	((??___fladd+8)+0+2),f
 11513  035A  0AD0               	skipnz
 11514  035B  1903               	incf	((??___fladd+8)+0+3),f
 11515  035C  0AD1               	movf	0+(??___fladd+8)+0,w
 11516  035D  084E               	addwf	(??___fladd+4)+0,f
 11517  035E  07CA               	movf	1+(??___fladd+8)+0,w
 11518  035F  084F               	skipnc
 11519  0360  1803               	incfsz	1+(??___fladd+8)+0,w
 11520  0361  0F4F               	goto	u2430
 11521  0362  2B64               	goto	u2431
 11522  0363  2B65               u2430:
 11523  0364                     	addwf	(??___fladd+4)+1,f
 11524  0364  07CB               u2431:
 11525  0365                     	movf	2+(??___fladd+8)+0,w
 11526  0365  0850               	skipnc
 11527  0366  1803               	incfsz	2+(??___fladd+8)+0,w
 11528  0367  0F50               	goto	u2432
 11529  0368  2B6A               	goto	u2433
 11530  0369  2B6B               u2432:
 11531  036A                     	addwf	(??___fladd+4)+2,f
 11532  036A  07CC               u2433:
 11533  036B                     	movf	3+(??___fladd+8)+0,w
 11534  036B  0851               	skipnc
 11535  036C  1803               	incf	3+(??___fladd+8)+0,w
 11536  036D  0A51               	addwf	(??___fladd+4)+3,f
 11537  036E  07CD               	movf	0+(??___fladd+4)+0,w
 11538  036F  084A               	addwf	(??___fladd+0)+0,f
 11539  0370  07C6               	movf	1+(??___fladd+4)+0,w
 11540  0371  084B               	skipnc
 11541  0372  1803               	incfsz	1+(??___fladd+4)+0,w
 11542  0373  0F4B               	goto	u2440
 11543  0374  2B76               	goto	u2441
 11544  0375  2B77               u2440:
 11545  0376                     	addwf	(??___fladd+0)+1,f
 11546  0376  07C7               u2441:
 11547  0377                     	movf	2+(??___fladd+4)+0,w
 11548  0377  084C               	skipnc
 11549  0378  1803               	incfsz	2+(??___fladd+4)+0,w
 11550  0379  0F4C               	goto	u2442
 11551  037A  2B7C               	goto	u2443
 11552  037B  2B7D               u2442:
 11553  037C                     	addwf	(??___fladd+0)+2,f
 11554  037C  07C8               u2443:
 11555  037D                     	movf	3+(??___fladd+4)+0,w
 11556  037D  084D               	skipnc
 11557  037E  1803               	incf	3+(??___fladd+4)+0,w
 11558  037F  0A4D               	addwf	(??___fladd+0)+3,f
 11559  0380  07C9               	movf	3+(??___fladd+0)+0,w
 11560  0381  0849               	movwf	(___fladd@b+3)
 11561  0382  00C1               	movf	2+(??___fladd+0)+0,w
 11562  0383  0848               	movwf	(___fladd@b+2)
 11563  0384  00C0               	movf	1+(??___fladd+0)+0,w
 11564  0385  0847               	movwf	(___fladd@b+1)
 11565  0386  00BF               	movf	0+(??___fladd+0)+0,w
 11566  0387  0846               	movwf	(___fladd@b)
 11567  0388  00BE               
 11568                           	line	155
 11569                           	movlw	low(080h)
 11570  0389  3080               	movwf	(??___fladd+0)+0
 11571  038A  00C6               	movf	(??___fladd+0)+0,w
 11572  038B  0846               	xorwf	(___fladd@signs),f
 11573  038C  06D2               	line	156
 11574                           	
 11575                           l3084:	
 11576  038D                     	comf	(___fladd@grs),f
 11577  038D  09D5               	incf	(___fladd@grs),f
 11578  038E  0AD5               	line	157
 11579                           	
 11580                           l3086:	
 11581  038F                     	movf	((___fladd@grs)),w
 11582  038F  0855               	btfss	status,2
 11583  0390  1D03               	goto	u2451
 11584  0391  2B93               	goto	u2450
 11585  0392  2B94               u2451:
 11586  0393                     	goto	l907
 11587  0393  2BB2               u2450:
 11588  0394                     	line	158
 11589                           	
 11590                           l3088:	
 11591  0394                     	movlw	01h
 11592  0394  3001               	addwf	(___fladd@b),f
 11593  0395  07BE               	movlw	0
 11594  0396  3000               	skipnc
 11595  0397  1803               movlw 1
 11596  0398  3001               	addwf	(___fladd@b+1),f
 11597  0399  07BF               	movlw	0
 11598  039A  3000               	skipnc
 11599  039B  1803               movlw 1
 11600  039C  3001               	addwf	(___fladd@b+2),f
 11601  039D  07C0               	movlw	0
 11602  039E  3000               	skipnc
 11603  039F  1803               movlw 1
 11604  03A0  3001               	addwf	(___fladd@b+3),f
 11605  03A1  07C1               	goto	l907
 11606  03A2  2BB2               	line	159
 11607                           	
 11608                           l906:	
 11609  03A3                     	line	160
 11610                           	goto	l907
 11611  03A3  2BB2               	line	161
 11612                           	
 11613                           l905:	
 11614  03A4                     	line	162
 11615                           	
 11616                           l3090:	
 11617  03A4                     	movf	(___fladd@a),w
 11618  03A4  0842               	subwf	(___fladd@b),f
 11619  03A5  02BE               	movf	(___fladd@a+1),w
 11620  03A6  0843               	skipc
 11621  03A7  1C03               	incfsz	(___fladd@a+1),w
 11622  03A8  0F43               	subwf	(___fladd@b+1),f
 11623  03A9  02BF               	movf	(___fladd@a+2),w
 11624  03AA  0844               	skipc
 11625  03AB  1C03               	incfsz	(___fladd@a+2),w
 11626  03AC  0F44               	subwf	(___fladd@b+2),f
 11627  03AD  02C0               	movf	(___fladd@a+3),w
 11628  03AE  0845               	skipc
 11629  03AF  1C03               	incfsz	(___fladd@a+3),w
 11630  03B0  0F45               	subwf	(___fladd@b+3),f
 11631  03B1  02C1               	line	163
 11632                           	
 11633                           l907:	
 11634  03B2                     	line	166
 11635                           	movf	(___fladd@b+3),w
 11636  03B2  0841               	iorwf	(___fladd@b+2),w
 11637  03B3  0440               	iorwf	(___fladd@b+1),w
 11638  03B4  043F               	iorwf	(___fladd@b),w
 11639  03B5  043E               	skipz
 11640  03B6  1D03               	goto	u2461
 11641  03B7  2BB9               	goto	u2460
 11642  03B8  2BBA               u2461:
 11643  03B9                     	goto	l3112
 11644  03B9  2BEB               u2460:
 11645  03BA                     	
 11646                           l3092:	
 11647  03BA                     	movf	((___fladd@grs)),w
 11648  03BA  0855               	btfss	status,2
 11649  03BB  1D03               	goto	u2471
 11650  03BC  2BBE               	goto	u2470
 11651  03BD  2BBF               u2471:
 11652  03BE                     	goto	l3112
 11653  03BE  2BEB               u2470:
 11654  03BF                     	line	167
 11655                           	
 11656                           l3094:	
 11657  03BF                     	movlw	0x0
 11658  03BF  3000               	movwf	(?___fladd+3)
 11659  03C0  00C1               	movlw	0x0
 11660  03C1  3000               	movwf	(?___fladd+2)
 11661  03C2  00C0               	movlw	0x0
 11662  03C3  3000               	movwf	(?___fladd+1)
 11663  03C4  00BF               	movlw	0x0
 11664  03C5  3000               	movwf	(?___fladd)
 11665  03C6  00BE               
 11666                           	goto	l899
 11667  03C7  2C74               	
 11668                           l3096:	
 11669  03C8                     	goto	l899
 11670  03C8  2C74               	line	168
 11671                           	
 11672                           l908:	
 11673  03C9                     	line	171
 11674                           	goto	l3112
 11675  03C9  2BEB               	
 11676                           l910:	
 11677  03CA                     	line	172
 11678                           	
 11679                           l3098:	
 11680  03CA                     	movlw	01h
 11681  03CA  3001               	movwf	(??___fladd+0)+0
 11682  03CB  00C6               u2485:
 11683  03CC                     	clrc
 11684  03CC  1003               	rlf	(___fladd@b),f
 11685  03CD  0DBE               	rlf	(___fladd@b+1),f
 11686  03CE  0DBF               	rlf	(___fladd@b+2),f
 11687  03CF  0DC0               	rlf	(___fladd@b+3),f
 11688  03D0  0DC1               	decfsz	(??___fladd+0)+0
 11689  03D1  0BC6               	goto	u2485
 11690  03D2  2BCC               	line	173
 11691                           	
 11692                           l3100:	
 11693  03D3                     	btfss	(___fladd@grs),(7)&7
 11694  03D3  1FD5               	goto	u2491
 11695  03D4  2BD6               	goto	u2490
 11696  03D5  2BD7               u2491:
 11697  03D6                     	goto	l911
 11698  03D6  2BD8               u2490:
 11699  03D7                     	line	174
 11700                           	
 11701                           l3102:	
 11702  03D7                     	bsf	(___fladd@b)+(0/8),(0)&7
 11703  03D7  143E               	line	175
 11704                           	
 11705                           l911:	
 11706  03D8                     	line	176
 11707                           	btfss	(___fladd@grs),(0)&7
 11708  03D8  1C55               	goto	u2501
 11709  03D9  2BDB               	goto	u2500
 11710  03DA  2BDC               u2501:
 11711  03DB                     	goto	l3106
 11712  03DB  2BDF               u2500:
 11713  03DC                     	line	177
 11714                           	
 11715                           l3104:	
 11716  03DC                     	setc
 11717  03DC  1403               	rlf	(___fladd@grs),f
 11718  03DD  0DD5               	line	178
 11719                           	goto	l3108
 11720  03DE  2BE2               	line	179
 11721                           	
 11722                           l912:	
 11723  03DF                     	line	180
 11724                           	
 11725                           l3106:	
 11726  03DF                     	clrc
 11727  03DF  1003               	rlf	(___fladd@grs),f
 11728  03E0  0DD5               
 11729                           	goto	l3108
 11730  03E1  2BE2               	line	181
 11731                           	
 11732                           l913:	
 11733  03E2                     	line	182
 11734                           	
 11735                           l3108:	
 11736  03E2                     	movf	((___fladd@bexp)),w
 11737  03E2  0854               	btfsc	status,2
 11738  03E3  1903               	goto	u2511
 11739  03E4  2BE6               	goto	u2510
 11740  03E5  2BE7               u2511:
 11741  03E6                     	goto	l3112
 11742  03E6  2BEB               u2510:
 11743  03E7                     	line	183
 11744                           	
 11745                           l3110:	
 11746  03E7                     	movlw	01h
 11747  03E7  3001               	subwf	(___fladd@bexp),f
 11748  03E8  02D4               	goto	l3112
 11749  03E9  2BEB               	line	184
 11750                           	
 11751                           l914:	
 11752  03EA                     	goto	l3112
 11753  03EA  2BEB               	line	185
 11754                           	
 11755                           l909:	
 11756  03EB                     	line	171
 11757                           	
 11758                           l3112:	
 11759  03EB                     	btfss	(___fladd@b+2),(23)&7
 11760  03EB  1FC0               	goto	u2521
 11761  03EC  2BEE               	goto	u2520
 11762  03ED  2BEF               u2521:
 11763  03EE                     	goto	l3098
 11764  03EE  2BCA               u2520:
 11765  03EF                     	goto	l3114
 11766  03EF  2BF1               	
 11767                           l915:	
 11768  03F0                     	goto	l3114
 11769  03F0  2BF1               	line	186
 11770                           	
 11771                           l904:	
 11772  03F1                     	line	192
 11773                           	
 11774                           l3114:	
 11775  03F1                     	clrf	(___fladd@aexp)
 11776  03F1  01D3               	line	193
 11777                           	
 11778                           l3116:	
 11779  03F2                     	btfss	(___fladd@grs),(7)&7
 11780  03F2  1FD5               	goto	u2531
 11781  03F3  2BF5               	goto	u2530
 11782  03F4  2BF6               u2531:
 11783  03F5                     	goto	l3124
 11784  03F5  2C08               u2530:
 11785  03F6                     	line	194
 11786                           	
 11787                           l3118:	
 11788  03F6                     	movf	(___fladd@grs),w
 11789  03F6  0855               	andlw	07Fh
 11790  03F7  397F               	btfsc	status,2
 11791  03F8  1903               	goto	u2541
 11792  03F9  2BFB               	goto	u2540
 11793  03FA  2BFC               u2541:
 11794  03FB                     	goto	l917
 11795  03FB  2BFF               u2540:
 11796  03FC                     	line	195
 11797                           	
 11798                           l3120:	
 11799  03FC                     	clrf	(___fladd@aexp)
 11800  03FC  01D3               	incf	(___fladd@aexp),f
 11801  03FD  0AD3               	line	196
 11802                           	goto	l3124
 11803  03FE  2C08               	line	197
 11804                           	
 11805                           l917:	
 11806  03FF                     	line	198
 11807                           	btfss	(___fladd@b),(0)&7
 11808  03FF  1C3E               	goto	u2551
 11809  0400  2C02               	goto	u2550
 11810  0401  2C03               u2551:
 11811  0402                     	goto	l3124
 11812  0402  2C08               u2550:
 11813  0403                     	line	199
 11814                           	
 11815                           l3122:	
 11816  0403                     	clrf	(___fladd@aexp)
 11817  0403  01D3               	incf	(___fladd@aexp),f
 11818  0404  0AD3               	goto	l3124
 11819  0405  2C08               	line	200
 11820                           	
 11821                           l919:	
 11822  0406                     	goto	l3124
 11823  0406  2C08               	line	201
 11824                           	
 11825                           l918:	
 11826  0407                     	goto	l3124
 11827  0407  2C08               	line	202
 11828                           	
 11829                           l916:	
 11830  0408                     	line	203
 11831                           	
 11832                           l3124:	
 11833  0408                     	movf	((___fladd@aexp)),w
 11834  0408  0853               	btfsc	status,2
 11835  0409  1903               	goto	u2561
 11836  040A  2C0C               	goto	u2560
 11837  040B  2C0D               u2561:
 11838  040C                     	goto	l920
 11839  040C  2C43               u2560:
 11840  040D                     	line	204
 11841                           	
 11842                           l3126:	
 11843  040D                     	movlw	01h
 11844  040D  3001               	addwf	(___fladd@b),f
 11845  040E  07BE               	movlw	0
 11846  040F  3000               	skipnc
 11847  0410  1803               movlw 1
 11848  0411  3001               	addwf	(___fladd@b+1),f
 11849  0412  07BF               	movlw	0
 11850  0413  3000               	skipnc
 11851  0414  1803               movlw 1
 11852  0415  3001               	addwf	(___fladd@b+2),f
 11853  0416  07C0               	movlw	0
 11854  0417  3000               	skipnc
 11855  0418  1803               movlw 1
 11856  0419  3001               	addwf	(___fladd@b+3),f
 11857  041A  07C1               	line	205
 11858                           	
 11859                           l3128:	
 11860  041B                     	btfss	(___fladd@b+3),(24)&7
 11861  041B  1C41               	goto	u2571
 11862  041C  2C1E               	goto	u2570
 11863  041D  2C1F               u2571:
 11864  041E                     	goto	l920
 11865  041E  2C43               u2570:
 11866  041F                     	line	206
 11867                           	
 11868                           l3130:	
 11869  041F                     	movf	(___fladd@b),w
 11870  041F  083E               	movwf	(??___fladd+0)+0
 11871  0420  00C6               	movf	(___fladd@b+1),w
 11872  0421  083F               	movwf	((??___fladd+0)+0+1)
 11873  0422  00C7               	movf	(___fladd@b+2),w
 11874  0423  0840               	movwf	((??___fladd+0)+0+2)
 11875  0424  00C8               	movf	(___fladd@b+3),w
 11876  0425  0841               	movwf	((??___fladd+0)+0+3)
 11877  0426  00C9               	movlw	01h
 11878  0427  3001               	movwf	(??___fladd+4)+0
 11879  0428  00CA               u2585:
 11880  0429                     	rlf	(??___fladd+0)+3,w
 11881  0429  0D49               	rrf	(??___fladd+0)+3,f
 11882  042A  0CC9               	rrf	(??___fladd+0)+2,f
 11883  042B  0CC8               	rrf	(??___fladd+0)+1,f
 11884  042C  0CC7               	rrf	(??___fladd+0)+0,f
 11885  042D  0CC6               u2580:
 11886  042E                     	decfsz	(??___fladd+4)+0,f
 11887  042E  0BCA               	goto	u2585
 11888  042F  2C29               	movf	3+(??___fladd+0)+0,w
 11889  0430  0849               	movwf	(___fladd@b+3)
 11890  0431  00C1               	movf	2+(??___fladd+0)+0,w
 11891  0432  0848               	movwf	(___fladd@b+2)
 11892  0433  00C0               	movf	1+(??___fladd+0)+0,w
 11893  0434  0847               	movwf	(___fladd@b+1)
 11894  0435  00BF               	movf	0+(??___fladd+0)+0,w
 11895  0436  0846               	movwf	(___fladd@b)
 11896  0437  00BE               
 11897                           	line	207
 11898                           		incf	((___fladd@bexp)),w
 11899  0438  0A54               	btfsc	status,2
 11900  0439  1903               	goto	u2591
 11901  043A  2C3C               	goto	u2590
 11902  043B  2C3D               u2591:
 11903  043C                     	goto	l920
 11904  043C  2C43               u2590:
 11905  043D                     	line	208
 11906                           	
 11907                           l3132:	
 11908  043D                     	movlw	low(01h)
 11909  043D  3001               	movwf	(??___fladd+0)+0
 11910  043E  00C6               	movf	(??___fladd+0)+0,w
 11911  043F  0846               	addwf	(___fladd@bexp),f
 11912  0440  07D4               	goto	l920
 11913  0441  2C43               	line	209
 11914                           	
 11915                           l922:	
 11916  0442                     	goto	l920
 11917  0442  2C43               	line	210
 11918                           	
 11919                           l921:	
 11920  0443                     	line	211
 11921                           	
 11922                           l920:	
 11923  0443                     	line	215
 11924                           		incf	((___fladd@bexp)),w
 11925  0443  0A54               	btfsc	status,2
 11926  0444  1903               	goto	u2601
 11927  0445  2C47               	goto	u2600
 11928  0446  2C48               u2601:
 11929  0447                     	goto	l3136
 11930  0447  2C4E               u2600:
 11931  0448                     	
 11932                           l3134:	
 11933  0448                     	movf	((___fladd@bexp)),w
 11934  0448  0854               	btfss	status,2
 11935  0449  1D03               	goto	u2611
 11936  044A  2C4C               	goto	u2610
 11937  044B  2C4D               u2611:
 11938  044C                     	goto	l3142
 11939  044C  2C5E               u2610:
 11940  044D                     	goto	l3136
 11941  044D  2C4E               	
 11942                           l925:	
 11943  044E                     	line	216
 11944                           	
 11945                           l3136:	
 11946  044E                     	movlw	high highword(0)
 11947  044E  3000               	movwf	(___fladd@b+3)
 11948  044F  00C1               	movlw	low highword(0)
 11949  0450  3000               	movwf	(___fladd@b+2)
 11950  0451  00C0               	movlw	high(0)
 11951  0452  3000               	movwf	(___fladd@b+1)
 11952  0453  00BF               	movlw	low(0)
 11953  0454  3000               	movwf	(___fladd@b)
 11954  0455  00BE               
 11955                           	line	218
 11956                           	
 11957                           l3138:	
 11958  0456                     	movf	((___fladd@bexp)),w
 11959  0456  0854               	btfss	status,2
 11960  0457  1D03               	goto	u2621
 11961  0458  2C5A               	goto	u2620
 11962  0459  2C5B               u2621:
 11963  045A                     	goto	l3142
 11964  045A  2C5E               u2620:
 11965  045B                     	line	219
 11966                           	
 11967                           l3140:	
 11968  045B                     	clrf	(___fladd@signs)
 11969  045B  01D2               	goto	l3142
 11970  045C  2C5E               	line	220
 11971                           	
 11972                           l926:	
 11973  045D                     	goto	l3142
 11974  045D  2C5E               	line	221
 11975                           	
 11976                           l923:	
 11977  045E                     	line	225
 11978                           	
 11979                           l3142:	
 11980  045E                     	btfss	(___fladd@bexp),(0)&7
 11981  045E  1C54               	goto	u2631
 11982  045F  2C61               	goto	u2630
 11983  0460  2C62               u2631:
 11984  0461                     	goto	l3146
 11985  0461  2C64               u2630:
 11986  0462                     	line	226
 11987                           	
 11988                           l3144:	
 11989  0462                     	bsf	0+(___fladd@b)+02h+(7/8),(7)&7
 11990  0462  17C0               	line	227
 11991                           	goto	l928
 11992  0463  2C68               	line	229
 11993                           	
 11994                           l927:	
 11995  0464                     	line	230
 11996                           	
 11997                           l3146:	
 11998  0464                     	movlw	low(07Fh)
 11999  0464  307F               	movwf	(??___fladd+0)+0
 12000  0465  00C6               	movf	(??___fladd+0)+0,w
 12001  0466  0846               	andwf	0+(___fladd@b)+02h,f
 12002  0467  05C0               	line	231
 12003                           	
 12004                           l928:	
 12005  0468                     	line	232
 12006                           	movf	(___fladd@bexp),w
 12007  0468  0854               	movwf	(??___fladd+0)+0
 12008  0469  00C6               	clrc
 12009  046A  1003               	rrf	(??___fladd+0)+0,w
 12010  046B  0C46               	movwf	(??___fladd+1)+0
 12011  046C  00C7               	movf	(??___fladd+1)+0,w
 12012  046D  0847               	movwf	0+(___fladd@b)+03h
 12013  046E  00C1               	line	233
 12014                           	
 12015                           l3148:	
 12016  046F                     	btfss	(___fladd@signs),(7)&7
 12017  046F  1FD2               	goto	u2641
 12018  0470  2C72               	goto	u2640
 12019  0471  2C73               u2641:
 12020  0472                     	goto	l929
 12021  0472  2C74               u2640:
 12022  0473                     	line	234
 12023                           	
 12024                           l3150:	
 12025  0473                     	bsf	0+(___fladd@b)+03h+(7/8),(7)&7
 12026  0473  17C1               	line	235
 12027                           	
 12028                           l929:	
 12029  0474                     	line	236
 12030                           	line	237
 12031                           	
 12032                           l899:	
 12033  0474                     	return
 12034  0474  0008               	opt stack 0
 12035                           GLOBAL	__end_of___fladd
 12036                           	__end_of___fladd:
 12037  0475                     	signat	___fladd,8316
 12038                           	global	_Initialization
 12039                           
 12040 ;; *************** function _Initialization *****************
 12041 ;; Defined at:
 12042 ;;		line 14 in file "Hormiga877.c"
 12043 ;; Parameters:    Size  Location     Type
 12044 ;;		None
 12045 ;; Auto vars:     Size  Location     Type
 12046 ;;		None
 12047 ;; Return value:  Size  Location     Type
 12048 ;;                  1    wreg      void 
 12049 ;; Registers used:
 12050 ;;		wreg, status,2, status,0, pclath, cstack
 12051 ;; Tracked objects:
 12052 ;;		On entry : 0/0
 12053 ;;		On exit  : 0/0
 12054 ;;		Unchanged: 0/0
 12055 ;; Data sizes:     COMMON   BANK0   BANK1   BANK3   BANK2
 12056 ;;      Params:         0       0       0       0       0
 12057 ;;      Locals:         0       0       0       0       0
 12058 ;;      Temps:          0       0       0       0       0
 12059 ;;      Totals:         0       0       0       0       0
 12060 ;;Total ram usage:        0 bytes
 12061 ;; Hardware stack levels used:    1
 12062 ;; Hardware stack levels required when called:    1
 12063 ;; This function calls:
 12064 ;;		_PWMConfiguration
 12065 ;; This function is called by:
 12066 ;;		_main
 12067 ;; This function uses a non-reentrant model
 12068 ;;
 12069                           psect	text26,local,class=CODE,delta=2,merge=1,group=0
 12070                           	file	"Hormiga877.c"
 12071                           	line	14
 12072                           global __ptext26
 12073                           __ptext26:	;psect for function _Initialization
 12074  1FD4                     psect	text26
 12075                           	file	"Hormiga877.c"
 12076                           	line	14
 12077                           	global	__size_of_Initialization
 12078                           	__size_of_Initialization	equ	__end_of_Initialization-_Initialization
 12079  002C                     	
 12080                           _Initialization:	
 12081  1FD4                     ;incstack = 0
 12082                           	opt	stack 6
 12083                           ; Regs used in _Initialization: [wreg+status,2+status,0+pclath+cstack]
 12084                           	line	17
 12085                           	
 12086                           l2126:	
 12087  1FD4                     ;Hormiga877.c: 17:     ADCON0 = 0x81;
 12088                           	movlw	low(081h)
 12089  1FD4  3081               	bcf	status, 5	;RP0=0, select bank0
 12090  1FD5  1283               	bcf	status, 6	;RP1=0, select bank0
 12091  1FD6  1303               	movwf	(31)	;volatile
 12092  1FD7  009F               	line	18
 12093                           ;Hormiga877.c: 18:     ADCON1 = 0xC2;
 12094                           	movlw	low(0C2h)
 12095  1FD8  30C2               	bsf	status, 5	;RP0=1, select bank1
 12096  1FD9  1683               	bcf	status, 6	;RP1=0, select bank1
 12097  1FDA  1303               	movwf	(159)^080h	;volatile
 12098  1FDB  009F               	line	20
 12099                           # 20 "Hormiga877.c"
 12100                           CLRF PORTA ;# 
 12101  1FDC  0185               	line	21
 12102                           # 21 "Hormiga877.c"
 12103                           MOVLW 0x3F ;# 
 12104  1FDD  303F               	line	22
 12105                           # 22 "Hormiga877.c"
 12106                           MOVWF TRISA ;# 
 12107  1FDE  0085               psect	text26
 12108                           	line	23
 12109                           	
 12110                           l2128:	
 12111  1FDF                     ;Hormiga877.c: 23:     PORTB = 0x00;
 12112                           	bcf	status, 5	;RP0=0, select bank0
 12113  1FDF  1283               	bcf	status, 6	;RP1=0, select bank0
 12114  1FE0  1303               	clrf	(6)	;volatile
 12115  1FE1  0186               	line	24
 12116                           	
 12117                           l2130:	
 12118  1FE2                     ;Hormiga877.c: 24:     TRISB &= 0x00;
 12119                           	bsf	status, 5	;RP0=1, select bank1
 12120  1FE2  1683               	bcf	status, 6	;RP1=0, select bank1
 12121  1FE3  1303               	clrf	(134)^080h	;volatile
 12122  1FE4  0186               	line	25
 12123                           	
 12124                           l2132:	
 12125  1FE5                     ;Hormiga877.c: 25:     PORTB = 0x00;
 12126                           	bcf	status, 5	;RP0=0, select bank0
 12127  1FE5  1283               	bcf	status, 6	;RP1=0, select bank0
 12128  1FE6  1303               	clrf	(6)	;volatile
 12129  1FE7  0186               	line	27
 12130                           	
 12131                           l2134:	
 12132  1FE8                     ;Hormiga877.c: 27:     PORTC = 0x00;
 12133                           	clrf	(7)	;volatile
 12134  1FE8  0187               	line	28
 12135                           	
 12136                           l2136:	
 12137  1FE9                     ;Hormiga877.c: 28:     TRISC = 0x00;
 12138                           	bsf	status, 5	;RP0=1, select bank1
 12139  1FE9  1683               	bcf	status, 6	;RP1=0, select bank1
 12140  1FEA  1303               	clrf	(135)^080h	;volatile
 12141  1FEB  0187               	line	29
 12142                           	
 12143                           l2138:	
 12144  1FEC                     ;Hormiga877.c: 29:     PORTC = 0x00;
 12145                           	bcf	status, 5	;RP0=0, select bank0
 12146  1FEC  1283               	bcf	status, 6	;RP1=0, select bank0
 12147  1FED  1303               	clrf	(7)	;volatile
 12148  1FEE  0187               	line	34
 12149                           	
 12150                           l2140:	
 12151  1FEF                     ;Hormiga877.c: 34:     PWMConfiguration();
 12152                           	fcall	_PWMConfiguration
 12153  1FEF  160A  158A  275F  160A  158A  	line	36
 12154                           # 36 "Hormiga877.c"
 12155                           CLRF PORTD ;# 
 12156  1FF4  0188               	line	37
 12157                           # 37 "Hormiga877.c"
 12158                           MOVLW 0x00 ;# 
 12159  1FF5  3000               	line	38
 12160                           # 38 "Hormiga877.c"
 12161                           MOVF TRISD ;# 
 12162  1FF6  0888               	line	39
 12163                           # 39 "Hormiga877.c"
 12164                           CLRF PORTD ;# 
 12165  1FF7  0188               psect	text26
 12166                           	line	40
 12167                           	
 12168                           l2142:	
 12169  1FF8                     ;Hormiga877.c: 40:     PORTE = 0x00;
 12170                           	bcf	status, 5	;RP0=0, select bank0
 12171  1FF8  1283               	bcf	status, 6	;RP1=0, select bank0
 12172  1FF9  1303               	clrf	(9)	;volatile
 12173  1FFA  0189               	line	41
 12174                           	
 12175                           l2144:	
 12176  1FFB                     ;Hormiga877.c: 41:     TRISE = 0x07;
 12177                           	movlw	low(07h)
 12178  1FFB  3007               	bsf	status, 5	;RP0=1, select bank1
 12179  1FFC  1683               	bcf	status, 6	;RP1=0, select bank1
 12180  1FFD  1303               	movwf	(137)^080h	;volatile
 12181  1FFE  0089               	line	42
 12182                           	
 12183                           l159:	
 12184  1FFF                     	return
 12185  1FFF  0008               	opt stack 0
 12186                           GLOBAL	__end_of_Initialization
 12187                           	__end_of_Initialization:
 12188  2000                     	signat	_Initialization,89
 12189                           	global	_PWMConfiguration
 12190                           
 12191 ;; *************** function _PWMConfiguration *****************
 12192 ;; Defined at:
 12193 ;;		line 44 in file "Hormiga877.c"
 12194 ;; Parameters:    Size  Location     Type
 12195 ;;		None
 12196 ;; Auto vars:     Size  Location     Type
 12197 ;;		None
 12198 ;; Return value:  Size  Location     Type
 12199 ;;                  1    wreg      void 
 12200 ;; Registers used:
 12201 ;;		wreg, status,2
 12202 ;; Tracked objects:
 12203 ;;		On entry : 0/0
 12204 ;;		On exit  : 0/0
 12205 ;;		Unchanged: 0/0
 12206 ;; Data sizes:     COMMON   BANK0   BANK1   BANK3   BANK2
 12207 ;;      Params:         0       0       0       0       0
 12208 ;;      Locals:         0       0       0       0       0
 12209 ;;      Temps:          0       0       0       0       0
 12210 ;;      Totals:         0       0       0       0       0
 12211 ;;Total ram usage:        0 bytes
 12212 ;; Hardware stack levels used:    1
 12213 ;; This function calls:
 12214 ;;		Nothing
 12215 ;; This function is called by:
 12216 ;;		_Initialization
 12217 ;; This function uses a non-reentrant model
 12218 ;;
 12219                           psect	text27,local,class=CODE,delta=2,merge=1,group=0
 12220                           	line	44
 12221                           global __ptext27
 12222                           __ptext27:	;psect for function _PWMConfiguration
 12223  1F5F                     psect	text27
 12224                           	file	"Hormiga877.c"
 12225                           	line	44
 12226                           	global	__size_of_PWMConfiguration
 12227                           	__size_of_PWMConfiguration	equ	__end_of_PWMConfiguration-_PWMConfiguration
 12228  000F                     	
 12229                           _PWMConfiguration:	
 12230  1F5F                     ;incstack = 0
 12231                           	opt	stack 6
 12232                           ; Regs used in _PWMConfiguration: [wreg+status,2]
 12233                           	line	46
 12234                           	
 12235                           l2084:	
 12236  1F5F                     ;Hormiga877.c: 46:     PR2 = 0xFF;
 12237                           	movlw	low(0FFh)
 12238  1F5F  30FF               	bsf	status, 5	;RP0=1, select bank1
 12239  1F60  1683               	bcf	status, 6	;RP1=0, select bank1
 12240  1F61  1303               	movwf	(146)^080h	;volatile
 12241  1F62  0092               	line	47
 12242                           ;Hormiga877.c: 47:     T2CON = 0x05;
 12243                           	movlw	low(05h)
 12244  1F63  3005               	bcf	status, 5	;RP0=0, select bank0
 12245  1F64  1283               	bcf	status, 6	;RP1=0, select bank0
 12246  1F65  1303               	movwf	(18)	;volatile
 12247  1F66  0092               	line	48
 12248                           	
 12249                           l2086:	
 12250  1F67                     ;Hormiga877.c: 48:     CCPR2L = 0x00;
 12251                           	clrf	(27)	;volatile
 12252  1F67  019B               	line	49
 12253                           	
 12254                           l2088:	
 12255  1F68                     ;Hormiga877.c: 49:     CCPR1L = 0x00;
 12256                           	clrf	(21)	;volatile
 12257  1F68  0195               	line	50
 12258                           ;Hormiga877.c: 50:     CCP1CON = 0x0C;
 12259                           	movlw	low(0Ch)
 12260  1F69  300C               	movwf	(23)	;volatile
 12261  1F6A  0097               	line	51
 12262                           ;Hormiga877.c: 51:     CCP2CON = 0x0C;
 12263                           	movlw	low(0Ch)
 12264  1F6B  300C               	movwf	(29)	;volatile
 12265  1F6C  009D               	line	52
 12266                           	
 12267                           l162:	
 12268  1F6D                     	return
 12269  1F6D  0008               	opt stack 0
 12270                           GLOBAL	__end_of_PWMConfiguration
 12271                           	__end_of_PWMConfiguration:
 12272  1F6E                     	signat	_PWMConfiguration,89
 12273                           global	___latbits
 12274                           ___latbits	equ	2
 12275  0002                     	global	btemp
 12276                           	btemp set 07Eh
 12277  007E                     
 12278                           	DABS	1,126,2	;btemp
 12279                           	global	wtemp0
 12280                           	wtemp0 set btemp+0
 12281  007E                     	end


Data Sizes:
    Strings     50
    Constant    17
    Data        0
    BSS         79
    Persistent  7
    Stack       0

Auto Spaces:
    Space          Size  Autos    Used
    COMMON           14     14      14
    BANK0            80     80      80
    BANK1            80     34      69
    BANK3            96      0      51
    BANK2            96      0       0

Pointer List with Targets:

    sprintf@f	PTR const unsigned char  size(1) Largest target is 9
		 -> STR_4(CODE[9]), STR_2(CODE[7]), 

    sprintf@sp	PTR unsigned char  size(1) Largest target is 16
		 -> ScreenROW(BANK1[16]), 

    sprintf@ap	PTR void [1] size(1) Largest target is 2
		 -> ?_sprintf(BANK0[2]), 

    lcdPrint@string	PTR unsigned char  size(2) Largest target is 17
		 -> STR_3(CODE[17]), ScreenROW(BANK1[16]), STR_1(CODE[17]), 


Critical Paths under _main in COMMON

    _setup->_lcdBegin
    _setup->_lcdSetCursor
    _lcdBegin->_WriteInstruction
    _SetSampleTime->___xxtofl
    _loop->_lcdSetCursor
    _sprintf->___lwmod
    ___lwmod->___lwdiv
    _lcdSetCursor->_WriteInstruction
    _WriteInstruction->_ByteByNibble
    _WriteInstruction->_delay
    _lcdPrint->_lcdWrite
    _lcdWrite->_WriteData
    _WriteData->_ByteByNibble
    _WriteData->_delay
    _ByteByNibble->_digitalWrite
    ___flmul->___xxtofl

Critical Paths under _main in BANK0

    _setup->_SetSampleTime
    _SetSampleTime->___flmul
    _map->___fldiv
    _AccionControl->___fldiv
    ___flneg->___flmul
    ___fldiv->___fladd
    ___fladd->___flneg

Critical Paths under _main in BANK1

    _main->_loop
    _loop->_map

Critical Paths under _main in BANK3

    None.

Critical Paths under _main in BANK2

    None.

Call Graph Tables:

 ---------------------------------------------------------------------------------
 (Depth) Function   	        Calls       Base Space   Used Autos Params    Refs
 ---------------------------------------------------------------------------------
 (0) _main                                                 0     0      0   99872
                     _Initialization
                               _loop
                              _setup
 ---------------------------------------------------------------------------------
 (1) _setup                                                6     6      0   50613
                                             31 BANK0      6     6      0
                      _SetSampleTime
                           _lcdBegin
                           _lcdPrint
                       _lcdSetCursor
 ---------------------------------------------------------------------------------
 (2) _lcdBegin                                             8     2      6   16949
                                             12 COMMON     2     2      0
                                              0 BANK0      6     0      6
                   _WriteInstruction
                              _delay
                            _pinMode
 ---------------------------------------------------------------------------------
 (3) _pinMode                                              4     3      1    1104
                                              0 COMMON     4     3      1
 ---------------------------------------------------------------------------------
 (2) _SetSampleTime                                        5     5      0    3771
                                             26 BANK0      5     5      0
                            ___flmul
                           ___xxtofl
 ---------------------------------------------------------------------------------
 (3) ___xxtofl                                            14    10      4     398
                                              0 COMMON    14    10      4
 ---------------------------------------------------------------------------------
 (1) _loop                                                 6     6      0   49259
                                             28 BANK1      6     6      0
                      _AccionControl
                       _EventCounter
                           _lcdPrint
                       _lcdSetCursor
                                _map
                            _sprintf
 ---------------------------------------------------------------------------------
 (2) _sprintf                                             21    18      3    1230
                                              0 BANK0     13    10      3
                            ___lwdiv
                            ___lwmod
 ---------------------------------------------------------------------------------
 (3) ___lwmod                                              6     2      4     311
                                              8 COMMON     6     2      4
                            ___lwdiv (ARG)
 ---------------------------------------------------------------------------------
 (3) ___lwdiv                                              8     4      4     314
                                              0 COMMON     8     4      4
 ---------------------------------------------------------------------------------
 (2) _map                                                 28     8     20    9259
                                              0 BANK1     28     8     20
                            ___fladd
                            ___fldiv
                            ___flmul
                            ___flneg
 ---------------------------------------------------------------------------------
 (2) _lcdSetCursor                                         4     3      1   14396
                                             12 COMMON     2     1      1
                                              0 BANK0      2     2      0
                   _WriteInstruction
 ---------------------------------------------------------------------------------
 (3) _WriteInstruction                                     5     5      0   13957
                                              7 COMMON     5     5      0
                       _ByteByNibble
                              _delay
                       _digitalWrite
 ---------------------------------------------------------------------------------
 (2) _lcdPrint                                             7     5      2   15497
                                              0 BANK0      7     5      2
                           _lcdWrite
 ---------------------------------------------------------------------------------
 (3) _lcdWrite                                             1     1      0   15103
                                             12 COMMON     1     1      0
                          _WriteData
                              _delay
 ---------------------------------------------------------------------------------
 (4) _WriteData                                            5     5      0   13957
                                              7 COMMON     5     5      0
                       _ByteByNibble
                              _delay
                       _digitalWrite
 ---------------------------------------------------------------------------------
 (4) _delay                                                7     5      2    1124
                                              0 COMMON     7     5      2
 ---------------------------------------------------------------------------------
 (4) _ByteByNibble                                         3     3      0    6370
                                              4 COMMON     3     3      0
                       _digitalWrite
 ---------------------------------------------------------------------------------
 (4) _digitalWrite                                         4     3      1    6348
                                              0 COMMON     4     3      1
 ---------------------------------------------------------------------------------
 (2) _EventCounter                                         2     0      2       0
                                              0 COMMON     2     0      2
 ---------------------------------------------------------------------------------
 (2) _AccionControl                                       12     4      8    8876
                                              0 BANK1     12     4      8
                            ___fladd
                            ___fldiv
                            ___flmul
                            ___flneg
 ---------------------------------------------------------------------------------
 (3) ___flneg                                              4     0      4     425
                                             26 BANK0      4     0      4
                            ___flmul (ARG)
 ---------------------------------------------------------------------------------
 (3) ___flmul                                             26    18      8    3329
                                              0 BANK0     26    18      8
                          __Umul8_16
                           ___xxtofl (ARG)
 ---------------------------------------------------------------------------------
 (4) __Umul8_16                                            9     7      2     799
                                              0 COMMON     9     7      2
 ---------------------------------------------------------------------------------
 (3) ___fldiv                                             26    18      8    1425
                                             54 BANK0     26    18      8
                            ___fladd (ARG)
                            ___flmul (ARG)
                            ___flneg (ARG)
 ---------------------------------------------------------------------------------
 (3) ___fladd                                             24    16      8    3478
                                             30 BANK0     24    16      8
                            ___flmul (ARG)
                            ___flneg (ARG)
 ---------------------------------------------------------------------------------
 (1) _Initialization                                       0     0      0       0
                   _PWMConfiguration
 ---------------------------------------------------------------------------------
 (2) _PWMConfiguration                                     0     0      0       0
 ---------------------------------------------------------------------------------
 Estimated maximum stack depth 4
 ---------------------------------------------------------------------------------

 Call Graph Graphs:

 _main (ROOT)
   _Initialization
     _PWMConfiguration
   _loop
     _AccionControl
       ___fladd
         ___flmul (ARG)
           __Umul8_16
           ___xxtofl (ARG)
         ___flneg (ARG)
           ___flmul (ARG)
             __Umul8_16
             ___xxtofl (ARG)
       ___fldiv
         ___fladd (ARG)
           ___flmul (ARG)
             __Umul8_16
             ___xxtofl (ARG)
           ___flneg (ARG)
             ___flmul (ARG)
               __Umul8_16
               ___xxtofl (ARG)
         ___flmul (ARG)
           __Umul8_16
           ___xxtofl (ARG)
         ___flneg (ARG)
           ___flmul (ARG)
             __Umul8_16
             ___xxtofl (ARG)
       ___flmul
         __Umul8_16
         ___xxtofl (ARG)
       ___flneg
         ___flmul (ARG)
           __Umul8_16
           ___xxtofl (ARG)
     _EventCounter
     _lcdPrint
       _lcdWrite
         _WriteData
           _ByteByNibble
             _digitalWrite
           _delay
           _digitalWrite
         _delay
     _lcdSetCursor
       _WriteInstruction
         _ByteByNibble
           _digitalWrite
         _delay
         _digitalWrite
     _map
       ___fladd
         ___flmul (ARG)
           __Umul8_16
           ___xxtofl (ARG)
         ___flneg (ARG)
           ___flmul (ARG)
             __Umul8_16
             ___xxtofl (ARG)
       ___fldiv
         ___fladd (ARG)
           ___flmul (ARG)
             __Umul8_16
             ___xxtofl (ARG)
           ___flneg (ARG)
             ___flmul (ARG)
               __Umul8_16
               ___xxtofl (ARG)
         ___flmul (ARG)
           __Umul8_16
           ___xxtofl (ARG)
         ___flneg (ARG)
           ___flmul (ARG)
             __Umul8_16
             ___xxtofl (ARG)
       ___flmul
         __Umul8_16
         ___xxtofl (ARG)
       ___flneg
         ___flmul (ARG)
           __Umul8_16
           ___xxtofl (ARG)
     _sprintf
       ___lwdiv
       ___lwmod
         ___lwdiv (ARG)
   _setup
     _SetSampleTime
       ___flmul
         __Umul8_16
         ___xxtofl (ARG)
       ___xxtofl
     _lcdBegin
       _WriteInstruction
         _ByteByNibble
           _digitalWrite
         _delay
         _digitalWrite
       _delay
       _pinMode
     _lcdPrint
       _lcdWrite
         _WriteData
           _ByteByNibble
             _digitalWrite
           _delay
           _digitalWrite
         _delay
     _lcdSetCursor
       _WriteInstruction
         _ByteByNibble
           _digitalWrite
         _delay
         _digitalWrite

 Address spaces:
Name               Size   Autos  Total    Cost      Usage
BITCOMMON            E      0       0       0        0.0%
EEDATA             100      0       0       0        0.0%
NULL                 0      0       0       0        0.0%
CODE                 0      0       0       0        0.0%
COMMON               E      E       E       1      100.0%
BITSFR0              0      0       0       1        0.0%
SFR0                 0      0       0       1        0.0%
BITSFR1              0      0       0       2        0.0%
SFR1                 0      0       0       2        0.0%
STACK                0      0       0       2        0.0%
ABS                  0      0      D6       3        0.0%
BITBANK0            50      0       0       4        0.0%
BITSFR3              0      0       0       4        0.0%
SFR3                 0      0       0       4        0.0%
BANK0               50     50      50       5      100.0%
BITSFR2              0      0       0       5        0.0%
SFR2                 0      0       0       5        0.0%
BITBANK1            50      0       0       6        0.0%
BANK1               50     22      45       7       86.3%
BITBANK3            60      0       0       8        0.0%
BANK3               60      0      33       9       53.1%
BITBANK2            60      0       0      10        0.0%
BANK2               60      0       0      11        0.0%
DATA                 0      0      D6      12        0.0%


Microchip Technology PIC Macro Assembler V2.00 build -1524193055 
Symbol Table                                                                                   Tue Feb 07 16:19:16 2023

               ___fldiv@aexp 006F                 ___fldiv@bexp 006E                            pc 0002  
               ___fldiv@sign 0067                  __CFG_CP$OFF 0000                           _D4 101D  
                         _D5 101C                           _D6 101B                           _D7 101A  
                         l45 1278                           l48 08FA                           l49 08FA  
                         _EN 101F                           _RS 1020                           _dt 00C6  
                         fsr 0004                 lcdWrite@data 007C                ?_ByteByNibble 0070  
        __Umul8_16@word_mpld 0076                  __CFG_LVP$ON 0000                          l200 17FF  
                        l201 16E7                          l210 1731                          l202 16EF  
                        l211 1739                          l203 16F7                          l220 1781  
                        l212 1741                          l204 16FF                          l221 1789  
                        l213 1749                          l205 1707                          l222 1791  
                        l214 1751                          l206 1710                          l223 1799  
                        l215 1759                          l207 1719                          l224 17A1  
                        l216 1761                          l208 1721                          l401 0D51  
                        l217 1769                          l209 1729                          l225 17FF  
                        l162 1F6D                          l218 1771                          l170 16DC  
                        l154 105F                          l219 1779                          l171 15C6  
                        l155 1065                          l404 1F8F                          l180 160E  
                        l172 15CE                          l156 1065                          l405 1F8F  
                        l181 1616                          l173 15D6                          l406 1F93  
                        l190 165E                          l182 161E                          l174 15DE  
                        l159 1FFF                          l407 1FA9                          l191 1666  
                        l183 1626                          l175 15E6                          l168 1687  
                        l192 166E                          l184 162E                          l176 15EE  
                        l193 1676                          l185 1636                          l177 15F6  
                        l169 15BE                          l370 11B5                          l442 107D  
                        l194 167E                          l186 163E                          l178 15FE  
                        l443 1093                          l187 1646                          l179 1606  
                        l195 16DC                          l452 10FF                          l444 1091  
                        l188 164E                          l436 1419                          l461 137D  
                        l453 10DA                          l445 1092                          l189 1656  
                        l198 17AA                          l470 0DEC                          l366 117A  
                        l454 111C                          l446 1093                          l199 16DF  
                        l471 0E12                          l367 11B5                          l455 111C  
                        l464 0FC5                          l480 0F73                          l472 0E39  
                        l368 118B                          l481 0F9B                          l473 0E60  
                        l465 0D54                          l369 11A0                          l449 1F8D  
                        l466 0FFF                          l474 0E88                          l482 0FFF  
                        l458 12FA                          l386 01B8                          l475 0EAE  
                        l467 0D79                          l900 0327                          l476 0ED5  
                        l468 0D9F                          l580 14FA                          l901 0310  
                        l477 0EFC                          l469 0DC5                          l573 15A2  
                        l581 151A                          l389 1214                          l910 03CA  
                        l902 0313                          l478 0F24                          l582 1530  
                        l574 14E4                          l911 03D8                          l903 0319  
                        l479 0F4B                          l583 1558                          l575 14F6  
                        l920 0443                          l904 03F1                          l912 03DF  
                        l584 154D                          l576 1500                          l921 0443  
                        l913 03E2                          l905 03A4                          l585 1597  
                        l577 14F8                          l922 0442                          l914 03EA  
                        l906 03A3                          l578 15B6                          l586 155D  
                        l923 045E                          l915 03F0                          l907 03B2  
                        l587 15A1                          l579 14F9                          l916 0408  
                        l908 03C9                          l940 0954                          l860 1128  
                        l588 15B5                          l925 044E                          l917 03FF  
                        l909 03EB                          l941 0951                          l861 1139  
                        l589 15BB                          l926 045D                          l918 0407  
                        l950 0A0F                          l942 095C                          l774 1F7B  
                        l862 113A                          l870 109D                          l927 0464  
                        l919 0406                          l951 0A1B                          l943 097E  
                        l935 090E                          l775 1F7C                          l863 1153  
                        l871 10AE                          l928 0468                          l880 01DF  
                        l960 0A6D                          l952 0A25                          l944 0B03  
                        l936 0924                          l864 1161                          l872 10AF  
                        l929 0474                          l881 01EB                          l961 0AA7  
                        l953 0A45                          l945 0995                          l937 0921  
                        l865 1167                          l873 10C0                          l890 02D5  
                        l882 01F8                          l962 0AA6                          l954 0A26  
                        l946 0A14                          l938 092D                          l858 1162  
                        l874 10CE                          l891 02CC                          l883 0204  
                        l963 0AC3                          l955 0A35                          l947 09C6  
                        l939 093E                          l971 0488                          l859 1134  
                        l875 10D4                          l892 02A8                          l884 021A  
                        l964 0ADF                          l956 0A4A                          l948 09ED  
                        l972 049D                          l868 10CF                          l893 02B5  
                        l885 0217                          l965 0AEB                          l957 0A6F  
                        l949 09E3                          l981 04E0                          l973 049B  
                        l869 10A9                          l894 02B8                          l886 0222  
                        l878 01CC                          l966 0AEF                          l958 0A66  
                        l990 0753                          l982 07E9                          l974 04A6  
                        l895 02BE                          l887 026E                          l879 01E2  
                        l959 0A6E                          l991 078D                          l983 072B  
                        l975 04B7                          l896 02D5                          l888 0231  
                        l992 078C                          l984 070C                          l976 04CC  
                        l897 0328                          l889 02A7                          l993 07A5  
                        l985 071B                          l977 04CA                          l898 02E8  
                        l994 07DC                          l986 0730                          l978 04D5  
                        l899 0474                          l995 07C0                          l987 0755  
                        l979 04EA                          l996 07DC                          l988 074C  
                        l997 07D4                          l989 0754                          _PR2 0092  
                        _PID 0190                 __CFG_CPD$OFF 0000                          _RnW 101E  
                        _Now 00CA                          _map 000B                          fsr0 0004  
                        indf 0000                 __CFG_FOSC$HS 0000                 ___flmul@aexp 0032  
               ___flmul@bexp 0033                 ___flmul@sign 002D                 ___flmul@temp 0038  
               ___flmul@prod 0034                         l1000 1434                         l1001 143C  
                       l1010 1498                         l1002 144E                         l1011 148C  
                       l1003 14DB                         l1020 1FBF                         l1004 1461  
                       l1021 1FCE                         l1013 14A3                         l1005 1453  
                       l1022 1FD3                         l1014 14A3                         l1006 1468  
                       l1015 14AF                         l1007 1484                         l1016 14D2  
                       l1008 1469                         l1009 148B                         l1019 1FB5  
                       l3000 021A                         PORTA 0005                         l2130 1FE2  
                       l3010 0239                         l3002 0228                         l2140 1FEF  
                       l2132 1FE5                         l3100 03D3                         l3020 024D  
                       l3012 023D                         l3004 022C                         PORTD 0008  
                       l2142 1FF8                         l2134 1FE8                         l2126 1FD4  
                       l3110 03E7                         l3102 03D7                         l3030 0261  
                       l3022 0251                         l3014 0241                         l3006 0231  
                       l2144 1FFB                         l2136 1FE9                         l2128 1FDF  
                       l3120 03FC                         l3104 03DC                         l3112 03EB  
                       l3040 028B                         l3032 0265                         l3024 0255  
                       l3016 0245                         l3008 0235                         l3200 097E  
                       l2138 1FEC                         l3130 041F                         l3122 0403  
                       l3106 03DF                         l3114 03F1                         l3050 02BE  
                       l3042 02AC                         l3034 0269                         l3026 0259  
                       l3018 0249                         l3210 09B4                         l3202 0983  
                       l2084 1F5F                         l3140 045B                         l3132 043D  
                       l3124 0408                         l3116 03F2                         l3108 03E2  
                       l3060 02E7                         l3052 02C7                         l3044 02B5  
                       l3028 025D                         l3036 026E                         l3220 09DD  
                       l3212 09BC                         l3204 0994                         l3300 0486  
                       l2086 1F67                         l3150 0473                         l3142 045E  
                       l3134 0448                         l3126 040D                         l3118 03F6  
                       l3070 0310                         l3062 02E8                         l3046 02B8  
                       l3054 02CC                         l3038 026F                         l3230 0A00  
                       l3222 09E1                         l3214 09C4                         l3206 0995  
                       l3310 049D                         l3302 0488                         l2088 1F68  
                       l3144 0462                         l3136 044E                         l3128 041B  
                       l3072 0313                         l3064 02FF                         l3056 02D9  
                       l3080 0328                         l3048 02BC                         l3240 0A26  
                       l3232 0A0F                         l3224 09E3                         l3216 09C6  
                       l3208 09AC                         l3160 090E                         l3152 08FB  
                       l3400 0750                         l3320 04B7                         l3312 04A6  
                       l3304 048D                         l3146 0464                         l3138 0456  
                       l3082 033E                         l3090 03A4                         l3074 0317  
                       l3066 0303                         l3058 02DE                         l3242 0A2F  
                       l3250 0A45                         l3218 09CB                         l3226 09ED  
                       l3234 0A14                         l3162 0913                         l3170 0924  
                       l3154 0902                         l3410 0785                         l3402 0755  
                       l3330 04D5                         l3322 04BC                         l3314 04AB  
                       l3306 0492                         l3148 046F                         l3092 03BA  
                       l3084 038D                         l3076 0319                         l3068 0307  
                       l3260 0A6A                         l3252 0A4A                         l3244 0A33  
                       l3236 0A1B                         l3228 09FF                         l3180 093E  
                       l3172 092D                         l3164 0918                         l3156 0908  
                       l3420 07BE                         l3404 075A                         l3412 078D  
                       l3340 04FA                         l3332 04DA                         l3324 04C1  
                       l3316 04B1                         l3308 049B                         l2700 1168  
                       l3500 1407                         l3094 03BF                         l3086 038F  
                       l3078 0322                         l3270 0A9F                         l3262 0A6F  
                       l3254 0A4B                         l3246 0A35                         l3238 0A23  
                       l3182 0943                         l3190 0954                         l3174 0932  
                       l3166 0921                         l3158 090C                         l3430 07E0  
                       l3422 07C0                         l3414 079A                         l3406 0768  
                       l3350 0588                         l3342 0507                         l3334 04E0  
                       l3326 04CA                         l3318 04B5                         l2710 118A  
                       l2702 116A                         l3510 1071                         l3502 140D  
                       l3096 03C8                         l3088 0394                         l3280 0AD6  
                       l3264 0A74                         l3272 0AA7                         l3256 0A4F  
                       l3248 0A3E                         l3192 0964                         l3184 0948  
                       l3176 0938                         l3168 0922                         l2800 1FC8  
                       l3432 07E9                         l3424 07CE                         l3416 07A5  
                       l3408 076C                         l3360 05EA                         l3352 05A4  
                       l3344 0524                         l3336 04E9                         l3328 04CC  
                       l2640 16E7                         l2720 0D54                         l2712 118C  
                       l2704 1179                         l3520 10D5                         l3512 1076  
                       l3600 01B8                         l3440 1434                         l3504 1413  
                       l3098 03CA                         l3290 0AFA                         l3282 0ADE  
                       l3274 0AB4                         l3266 0A82                         l3258 0A63  
                       l3194 0970                         l3186 0951                         l3178 093C  
                       l2802 1FCE                         l3426 07D2                         l3418 07B4  
                       l3370 067A                         l3362 0607                         l3354 05AD  
                       l3346 0540                         l3338 04EA                         l3610 0C38  
                       l3602 0B04                         l2650 170A                         l2642 16EF  
                       l2730 0E12                         l2722 0D79                         l2714 1192  
                       l2706 117A                         l3522 10DA                         l3514 107D  
                       l3506 106B                         l3450 1461                         l3442 1444  
                       l3434 141B                         l3530 11BF                         l2810 15C6  
                       l3292 0B03                         l3284 0AE5                         l3276 0AC3  
                       l3268 0A86                         l3196 0974                         l3188 0952  
                       l2804 1FD3                         l3428 07D4                         l3380 070C  
                       l3372 06A7                         l3364 0620                         l3356 05BD  
                       l3348 056C                         l3612 0CBD                         l3604 0B60  
                       l3540 1F9C                         l2660 1729                         l2652 1710  
                       l2644 16F7                         l2636 16DE                         l2740 0ED5  
                       l2732 0E39                         l2724 0D9F                         l2716 11A0  
                       l2708 117C                         l2900 1F87                         l3524 10F6  
                       l3516 1085                         l3508 106C                         l3460 1498  
                       l3452 1469                         l3444 144D                         l3436 1420  
                       l3532 11C6                         l2820 15EE                         l2812 15CE  
                       l3620 1215                         l3286 0AE9                         l3278 0AD2  
                       l3198 097D                         l3382 0715                         l3390 072B  
                       l3374 06CD                         l3366 063D                         l3358 05DA  
                       l3294 0475                         l2902 1F6E                         l3614 0CF9  
                       l3606 0BBA                         l3542 1FA4                         l2670 1751  
                       l2662 1731                         l2654 1713                         l2646 16FF  
                       l2638 16DF                         l2750 0F9B                         l2742 0EFC  
                       l2734 0E60                         l2726 0DC5                         l2718 0D53  
                       l3526 10FF                         l3518 108A                         l2910 111D  
                       l3550 14EA                         l3630 082F                         l3470 14CC  
                       l3462 149C                         l3454 146D                         l3446 144E  
                       l3438 1424                         l3534 11CC                         l2830 1616  
                       l2822 15F6                         l2814 15D6                         l2806 15BD  
                       l3622 1272                         l3288 0AEB                         l3392 0730  
                       l3384 0719                         l3376 06F5                         l3368 066A  
                       l3296 047C                         l2904 1F78                         l3616 0D3F  
                       l3608 0BFC                         l3544 1FA9                         l3536 1F8E  
                       l2680 1779                         l2672 1759                         l2664 1739  
                       l2656 1719                         l2648 1707                         l2752 0FC4  
                       l2744 0F24                         l2736 0E88                         l2728 0DEC  
                       l2760 12FC                         l2920 1134                         l2912 111F  
                       l3560 1500                         l3552 14F1                         l3640 0863  
                       l3632 083B                         l3624 0801                         l3472 14D0  
                       l3464 14A7                         l3456 147B                         l3448 1453  
                       l3528 11B9                         l2840 163E                         l2832 161E  
                       l2824 15FE                         l2816 15DE                         l2808 15BE  
                       l3480 13B5                         l3394 0731                         l3386 071B  
                       l3378 06FE                         l3298 0482                         l2906 1F7B  
                       l3618 0D51                         l3538 1F94                         l2690 17A1  
                       l2682 1781                         l2674 1761                         l2666 1741  
                       l2658 1721                         l2746 0F4B                         l2738 0EAE  
                       l2754 0FC5                         l2770 131A                         l2762 12FE  
                       l2930 115A                         l2922 113A                         l2914 1125  
                       l3570 152F                         l3562 151A                         l3554 14F6  
                       l3546 14DF                         l3650 08D4                         l3642 086E  
                       l3634 084C                         l3626 080C                         l3474 14D2  
                       l3466 14B1                         l3458 148C                         l2850 1666  
                       l2842 1646                         l2834 1626                         l2826 1606  
                       l2818 15E6                         l3490 13E0                         l3482 13BC  
                       l3396 0735                         l3388 0724                         l2908 1F7C  
                       l2692 17A9                         l2684 1789                         l2676 1769  
                       l2668 1749                         l2748 0F73                         l2780 1349  
                       l2772 1324                         l2764 1303                         l2924 114B  
                       l2916 1128                         l2932 1162                         l2940 109D  
                       l3580 155D                         l3572 1530                         l3564 1522  
                       l3556 14FA                         l3548 14E4                         l3652 08F3  
                       l3644 0876                         l3636 0855                         l3628 0824  
                       l3476 14DB                         l3468 14C7                         l2852 166E  
                       l2844 164E                         l2836 162E                         l2828 160E  
                       l2860 1687                         l3492 13E9                         l3484 13C5  
                       l3660 105F                         l3398 0749                         l2686 1791  
                       l2678 1771                         l2694 17AA                         l2790 1374  
                       l2782 1352                         l2774 132D                         l2766 130F  
                       l2870 1281                         l2934 1167                         l2926 1151  
                       l2918 112F                         l2950 10C0                         l2942 10A4  
                       l3582 158B                         l3574 154C                         l3566 1526  
                       l3558 14FF                         l3590 15B6                         l3654 08F5  
                       l3646 0890                         l3638 085B                         l2854 1676  
                       l2846 1656                         l2838 1636                         l3494 13F2  
                       l3486 13CE                         l3478 137F                         ?_map 00A0  
                       l2960 01C0                         l2792 1FAB                         l2688 1799  
                       l2784 1358                         l2776 1337                         l2768 1314  
                       l2880 12AA                         l2872 128D                         l2928 1153  
                       l2952 10C7                         l2944 10A9                         l2936 1094  
                       l3592 15BB                         l3584 1592                         l3576 154D  
                       l3568 1528                         l3648 089B                         l2856 167E  
                       l2848 165E                         l3496 13FB                         l3488 13D7  
                       l3656 1054                         l2970 01D6                         l2962 01C6  
                       l2794 1FAD                         l2786 1362                         l2778 1340  
                       l2890 12D5                         l2882 12B4                         l2874 1292  
                       l2866 127A                         l2946 10AF                         l2938 109A  
                       l2954 10CF                         l3586 1597                         l3578 1558  
                       l2858 1686                         l3498 1401                         l3658 1059  
                       l2980 01F0                         l2972 01DF                         l2964 01CA  
                       l2796 1FB5                         l2788 136B                         l2892 12DF  
                       l2884 12BD                         l2876 1298                         l2868 127C  
                       l2956 10D4                         l2948 10B9                         l3588 15A2  
                       l2990 0204                         l2982 01F6                         l2974 01E0  
                       l2966 01CC                         l2958 01B9                         l2798 1FB9  
                       l3790 17B2                         l2894 12E8                         l2886 12C6  
                       l2878 12A1                         l3598 000B                         l2992 0209  
                       l2984 01F8                         l2968 01D1                         l2976 01E2  
                       l2896 12F1                         l2888 12CF                         l3784 168F  
                       l2994 020E                         l2986 01FE                         l2978 01EB  
                       l2898 1F7E                         l3786 1512                         TRISA 0085  
                       l2996 0217                         l2988 0202                         l3788 0FCD  
                       l2998 0218                         TRISD 0088                         STR_1 1032  
                       STR_2 104C                         STR_3 1021                         STR_4 1043  
                       _BRGH 04C2                         _CREN 00C4                         _FERR 00C2  
                       u2010 1FB9                         u2011 1FB8                         u2100 114B  
                       u2005 1306                         u2101 114A                         u2030 1FCD  
                       u2031 1FCC                         u2200 01D1                         u3000 04DA  
                       u2120 1160                         u2201 01D0                         u2025 1FC0  
                       u3001 04D9                         u2121 115F                         u2105 1147  
                       u2210 01D6                         u3010 04DF                         u2050 1F78  
                       u2130 109A                         u2211 01D5                         u3011 04DE  
                       u2051 1F77                         u2115 1154                         u2131 1099  
                       u2300 0297                         u2220 01F6                         u2060 1125  
                       u2221 01F5                         u3101 062F                         u3021 0532  
                       u2045 1284                         u2061 1124                         u2310 02AC  
                       u2230 0202                         u3102 0636                         u3022 0539  
                       u2150 10AD                         u2311 02AB                         u2231 0201  
                       u3111 065C                         u3103 063D                         u3031 054E  
                       u3023 0540                         u2151 10AC                         u2400 0317  
                       u2320 02BC                         u2240 0209                         u3112 0663  
                       u3032 0555                         u2080 1138                         u2160 10B9  
                       u2401 0316                         u2321 02BB                         u2241 0208  
                       u3121 0689                         u3113 066A                         u3041 057A  
                       u3033 055C                         u2081 1137                         u2161 10B8  
                       u2145 109E                         u2250 020E                         u3210 072F  
                       u3130 06B3                         u3122 0690                         u3042 0581  
                       u2251 020D                         u3211 072E                         u3123 0697  
                       u3051 0596                         u3043 0588                         u2075 1129  
                       u2500 03DC                         u2420 033E                         u2340 02D4  
                       u2260 0228                         u3300 07D2                         u3220 0735  
                       u3052 059D                         u2180 10CD                         u2501 03DB  
                       u2421 033D                         u2341 02D3                         u2261 0227  
                       u3301 07D1                         u3221 0734                         u3205 071D  
                       u3141 06BF                         u3053 05A4                         u2181 10CC  
                       u2165 10B5                         u2510 03E7                         u2430 0364  
                       u2350 02D9                         u2270 022C                         u2190 01CA  
                       u3230 0749                         u3150 06DB                         u3142 06C6  
                       u3310 1420                         u2511 03E6                         u2431 0365  
                       u2423 033A                         u2415 031B                         u2351 02D8  
                       u2335 02C0                         u2271 022B                         u2191 01C9  
                       u3231 0748                         u3143 06CD                         u3135 06AE  
                       u3071 05CC                         u2095 113B                         u2175 10C1  
                       u3311 141F                         u2600 0448                         u2520 03EF  
                       u2440 0376                         u2432 036A                         u2360 02DE  
                       u2280 028B                         u3240 0750                         u3072 05D3  
                       u3400 14A2                         u3320 1424                         u2601 0447  
                       u2521 03EE                         u2441 0377                         u2433 036B  
                       u2361 02DD                         u2281 028A                         u3241 074F  
                       u3161 06E7                         u3081 05F9                         u3073 05DA  
                       u3065 05A6                         u3401 14A1                         u3321 1423  
                       u2610 044D                         u2530 03F6                         u2450 0394  
                       u2442 037C                         u2290 0296                         u3250 075A  
                       u3162 06EE                         u3082 0600                         u3410 14A7  
                       u3330 1444                         u2611 044C                         u2531 03F5  
                       u2451 0393                         u2443 037D                         u2371 02F1  
                       u2291 0294                         u3251 0759                         u3163 06F5  
                       u3155 06D6                         u3083 0607                         u3411 14A6  
                       u3331 1443                         u2620 045B                         u2540 03FC  
                       u2460 03BA                         u2380 0303                         u2372 02F8  
                       u2700 0948                         u3260 076C                         u3500 1F93  
                       u3420 14BC                         u2621 045A                         u2541 03FB  
                       u2461 03B9                         u2381 0302                         u2373 02FF  
                       u2285 0287                         u2701 0947                         u3261 076B  
                       u3501 1F92                         u2630 0462                         u2550 0403  
                       u2470 03BF                         u2390 0307                         u2710 0964  
                       u3270 077B                         u3190 0719                         u3510 14EA  
                       u3430 14CC                         u3350 1467                         u2631 0461  
                       u2551 0402                         u2471 03BE                         u2391 0306  
                       u2711 0963                         u3191 0718                         u3175 06F7  
                       u3095 0609                         u3511 14E9                         u3431 14CB  
                       u3351 1466                         u2640 0473                         u2560 040D  
                       u2800 0A23                         u2720 0983                         u3280 079A  
                       u3520 152E                         u3440 14D0                         u2641 0472  
                       u2561 040C                         u2801 0A22                         u2721 0982  
                       u3281 0799                         u3185 070E                         u3521 152D  
                       u3441 14CF                         u3425 14B7                         u3345 1458  
                       u2570 041F                         u2490 03D7                         u2730 09CB  
                       u2650 090C                         u3290 07B4                         u3450 1071  
                       u3530 154B                         u3370 148A                         u2571 041E  
                       u2491 03D6                         u2731 09CA                         u2651 090B  
                       u3291 07B3                         u3275 0776                         u3451 1070  
                       u3531 154A                         u3371 1489                         u2580 042E  
                       u2900 0A95                         u2820 0A33                         u2660 0913  
                       u3460 1085                         u3540 1557                         u2485 03CC  
                       u2821 0A32                         u2661 0912                         u3285 0796  
                       u3461 1084                         u3541 1556                         u3365 147C  
                       u2590 043D                         u2910 0AB4                         u2670 0918  
                       u3470 10E4                         u3550 15A0                         u3390 149C  
                       u2591 043C                         u2911 0AB3                         u2815 0A28  
                       u2671 0917                         u3295 07B0                         u3551 159F  
                       u3535 1547                         u3391 149B                         u2920 0AD2  
                       u2840 0A49                         u2760 09E1                         u2680 093C  
                       u1960 1178                         u3480 1109                         u3560 15B4  
                       u2585 0429                         u2921 0AD1                         u2905 0A90  
                       u2841 0A48                         u2761 09E0                         u2745 09CD  
                       u2681 093B                         u1961 1177                         u3561 15B3  
                       u3385 1490                         u2930 0AE9                         u2850 0A4F  
                       u2690 0943                         u1970 1189                         u3490 111B  
                       u3570 0855                         u2931 0AE8                         u2915 0AB0  
                       u2851 0A4E                         u2835 0A37                         u2755 09D6  
                       u2691 0942                         u1971 1188                         u3491 111A  
                       u3571 0854                         u2860 0A63                         u2780 09FF  
                       u2940 0486                         u1980 119F                         u2925 0ACE  
                       u2861 0A62                         u2781 09FE                         u2941 0485  
                       u1981 119E                         u1965 1174                         u2870 0A6A  
                       u2790 0A1A                         u2950 048D                         u1990 11B4  
                       u2871 0A69                         u2791 0A19                         u2775 09E5  
                       u2951 048C                         u1991 11B3                         u1975 1185  
                       u2880 0A74                         u2960 0492                         u2881 0A73  
                       u2785 09FB                         u2961 0491                         u1985 119B  
                       u2890 0A86                         u2970 04B5                         u2891 0A85  
                       u2971 04B4                         u1995 11B0                         u2980 04BC  
                       _RCIF 0065                         u2981 04BB                         u2990 04C1  
                       u2991 04C0                         _OERR 00C1                         _TMR0 0001  
                       _SPEN 00C7                         _TRMT 04C1                         _TXEN 04C5  
                       _TXIF 0064                         _SYNC 04C4                         _Last 00C8  
               __CFG_WRT$OFF 0000                ?_EventCounter 0070                         _main 1054  
                       _loop 0801                         map@m 00B8                         btemp 007E  
          ?_WriteInstruction 0070                         start 0000              ___fldiv@new_exp 0068  
         ??_WriteInstruction 0077                _AccionControl 0B04                        ??_map 007E  
             ??_ByteByNibble 0074              __end_of___fladd 0475                        ?_main 0070  
                      _CCP1X 00BD              __end_of___fldiv 0B04                        _CCP1Y 00BC  
                      _CCP2X 00ED                        _CCP2Y 00EC              __end_of___flneg 1F7D  
                      ?_loop 0070                __CFG_WDTE$OFF 0000              __end_of___flmul 07EA  
                      _T2CON 0012              __end_of___lwdiv 1168              __end_of___lwmod 10D5  
                      _ENPin 00E3                        _RCREG 001A                        _SPBRG 0099  
                      _PORTB 0006                        _PORTC 0007                        _PORTE 0009  
                      _TRISB 0086                        _TRISC 0087                        _TRISE 0089  
                      _TXREG 0019                        _RSPin 00E4                        _RWPin 00E2  
                      _d4Pin 00E1                        _d5Pin 00E0                        _d6Pin 00DF  
                      _d7Pin 00DE                        _dTime 00CC                        _delay 1168  
            __end_of_dpowers 101A                        map@X1 00A8                        map@X2 00A4  
                      map@Y1 00B0                        map@Y2 00AC              __end_of_pinMode 16DD  
                      _setup 1215               __CFG_BOREN$OFF 0000                        pclath 000A  
             ??_EventCounter 0072                        status 0003                        wtemp0 007E  
            __end_of_sprintf 15BC         __end_of_digitalWrite 1800              __initialization 07EA  
             ?_AccionControl 00A0                 __end_of_main 1068                 __end_of_loop 08FB  
    __size_of_Initialization 002C                       ??_main 007E                       ??_loop 00BC  
       __end_of_lcdSetCursor 1094             _PWMConfiguration 1F5F           lcdSetCursor@column 007C  
                     ?_delay 0070                       _ADCON0 001F                       _ADCON1 009F  
                     _ADRESH 001E                       _ADRESL 009E                       _CCPR1L 0015  
                     _CCPR2L 001B                       ?_setup 0070                       _TMR0IF 005A  
                     _TRISC6 043E                       _TRISC7 043F             __end_of___xxtofl 14DC  
           __end_of_lcdBegin 141A               __CFG_PWRTE$OFF 0000             __end_of_lcdPrint 111D  
           __end_of_lcdWrite 1F8E                    ??___fladd 0046                    ??___fldiv 005E  
                  ??___flneg 007E                    ??___flmul 0028                    ??___lwdiv 0074  
                  ??___lwmod 007C                       delay@i 0075                       delay@j 0073  
                  ??_pinMode 0071           __size_of__Umul8_16 002A                    ??_sprintf 0023  
               ___xxtofl@arg 007A                 ___xxtofl@exp 0079                 ___xxtofl@val 0070  
    __end_of__initialization 07FC         __end_of_ByteByNibble 1000                   ___flneg@f1 003A  
         __size_of_WriteData 0083              ??_AccionControl 007E                  pinMode@mode 0070  
          WriteData@LSNibble 0079               __pcstackCOMMON 0070            WriteData@MSNibble 007B  
              __end_of_delay 11B6                __end_of_setup 1279                   __end_of_D4 101E  
                 __end_of_D5 101D                   __end_of_D6 101C                   __end_of_D7 101B  
                 __end_of_EN 1020                   __end_of_RS 1021         __end_of_EventCounter 1FAA  
                loop@Voltage 00BE                      ??_delay 0072                      ??_setup 003F  
                 __pbssBANK1 00C2                   __pbssBANK3 0190        __size_of_digitalWrite 0123  
         _AccionControl$1285 00A8            __end_of__Umul8_16 1FD4                   __pmaintext 1054  
     __size_of_SetSampleTime 005F               _Initialization 1FD4                      _CCP1CON 0017  
                    _CCP2CON 001D        __size_of_lcdSetCursor 002C    __size_of_WriteInstruction 0082  
          __end_of_WriteData 137E                    ?___xxtofl 0070                    ?_lcdBegin 0020  
               _digitalWrite 16DD                    ?_lcdPrint 0020                    ?_lcdWrite 0070  
                 __stringtab 1000                      _Control 00C2                 _lcdSetCursor 1068  
            lcdSetCursor@row 0020       __end_of_Initialization 2000     __end_of_PWMConfiguration 1F6E  
                    ___fladd 01B9                      ___fldiv 08FB                      ___flneg 1F6E  
                    ___flmul 0475                      ___lwdiv 111D                      ___lwmod 1094  
                    __ptext1 1215                      __ptext2 137E                      __ptext3 15BC  
                    __ptext4 11B6                      __ptext5 141A                      __ptext6 0801  
                    __ptext7 14DC                      __ptext8 1094                      __ptext9 111D  
                    _dpowers 1010                 __size_of_map 01AE                   ??___xxtofl 0074  
                    _pinMode 15BC                   delay@milis 0070                   ??_lcdBegin 007C  
                    map@data 00A0        __size_of_ByteByNibble 02AE                   ??_lcdPrint 0022  
              _SetSampleTime 11B6                   ??_lcdWrite 007C                      _sprintf 14DC  
   WriteInstruction@LSNibble 0079                      clrloop0 0004                   lcdBegin@EN 0020  
                 lcdBegin@RS 007D                   lcdBegin@d4 0022                   lcdBegin@d5 0023  
                 lcdBegin@d6 0024                   lcdBegin@d7 0025     WriteInstruction@MSNibble 007B  
       end_of_initialization 07FC      ByteByNibble@NibbleValue 0076              ?_Initialization 0070  
      __size_of_EventCounter 001C                    _PORTAbits 0005                    _PORTBbits 0006  
                  _PORTCbits 0007                    _PORTDbits 0008                    _PORTEbits 0009  
               _ByteByNibble 0D52                  ___fladd@grs 0055                ___xxtofl@sign 0078  
                  _TRISAbits 0085                    _TRISBbits 0086                    _TRISCbits 0087  
                  _TRISDbits 0088               ?_SetSampleTime 0070                  ___fldiv@grs 006A  
                ___fldiv@rem 0063                  ___flmul@grs 002E                 _EventCounter 1F8E  
           _WriteInstruction 1279        AccionControl@Feedback 00A4          start_initialization 07EA  
                __end_of_RnW 101F                  __end_of_map 01B9                WriteData@data 007A  
            SetSampleTime@dt 003E        AccionControl@SetPoint 00A0                    _ScreenROW 00CE  
      __end_of_AccionControl 0D52                    __Umul8_16 1FAA                    ___fladd@a 0042  
                  ___fladd@b 003E                    ___fldiv@a 0056                    ___fldiv@b 005A  
            ??_SetSampleTime 003A                    ___flmul@a 0024                    ___flmul@b 0020  
                  ___latbits 0002                __pcstackBANK0 0020                __pcstackBANK1 00A0  
                 pinMode@pin 0073                    _WriteData 12FB            __size_of___xxtofl 00C2  
          __size_of_lcdBegin 009C            __size_of_lcdPrint 0048            __size_of_lcdWrite 0011  
                sprintf@flag 0026                  sprintf@prec 002A                    __pnvBANK1 00DE  
           ___lwdiv@dividend 0072            ?_PWMConfiguration 0070                     ?___fladd 003E  
                   ?___fldiv 0056                     ?___flneg 003A                     ?___flmul 0020  
                 ?__Umul8_16 0070                     ?___lwdiv 0070                     ?___lwmod 0078  
         ??_PWMConfiguration 0070                    __pstrings 1000         lcdSetCursor@location 0021  
                   ?_pinMode 0070                   ?_WriteData 0070             ___lwdiv@quotient 0075  
             __size_of_delay 004E                     ?_sprintf 0020               __size_of_setup 0064  
           ??_Initialization 0070                    clear_ram0 0003                    lcdPrint@i 0025  
                 _ADCON0bits 001F                  __stringbase 100F     __end_of_WriteInstruction 12FB  
                ??__Umul8_16 0072             __size_of___fladd 02BC             __size_of___fldiv 0209  
           __size_of___flneg 000F             __size_of___flmul 0375             __size_of___lwdiv 004B  
           __size_of___lwmod 0041                     _map$1284 00B4           __end_of__stringtab 1010  
                 sprintf@val 0028                     ___xxtofl 141A                     _lcdBegin 137E  
           __size_of_pinMode 0121              ___lwdiv@divisor 0070                  ??_WriteData 0077  
            ___lwdiv@counter 0077                     __ptext10 000B                     __ptext11 1068  
                   __ptext20 0B04                     __ptext12 1279                     __ptext21 1F6E  
                   __ptext13 10D5                     __ptext22 0475                     __ptext14 1F7D  
                   __ptext23 1FAA                     __ptext15 12FB                     __ptext24 08FB  
                   __ptext16 1168                     __ptext25 01B9                     __ptext17 0D52  
                   __ptext26 1FD4                     __ptext18 16DD                     __ptext27 1F5F  
                   __ptext19 1F8E                     _lcdPrint 10D5                     _lcdWrite 1F7D  
           __size_of_sprintf 00E0                __size_of_main 0014                __size_of_loop 00FA  
             lcdPrint@string 0020                  lcdBegin@R_W 0021                ?_digitalWrite 0070  
                  sprintf@ap 0027                    sprintf@sp 002B            digitalWrite@value 0070  
           ___lwmod@dividend 007A                ?_lcdSetCursor 007C                    stringcode 100A  
     __Umul8_16@multiplicand 0070                   _OPTION_REG 0081                     sprintf@c 002C  
                   sprintf@f 0020              ___lwmod@divisor 0078              ___lwmod@counter 007D  
             ??_digitalWrite 0071                     stringdir 100A                     stringtab 1000  
  __size_of_PWMConfiguration 000F        __end_of_SetSampleTime 1215                ___fladd@signs 0052  
     __size_of_AccionControl 024E              digitalWrite@pin 0073                 ___fladd@aexp 0053  
               ___fladd@bexp 0054         __Umul8_16@multiplier 0078               ??_lcdSetCursor 007D  
WriteInstruction@instruction 007A            __Umul8_16@product 0074  
